; ModuleID = 'lstm-raw.ll'
source_filename = "lstm.cpp"
target datalayout = "e-m:e-p270:32:32-p271:32:32-p272:64:64-i64:64-f80:128-n8:16:32:64-S128"
target triple = "x86_64-unknown-linux-gnu"

%"class.std::ios_base::Init" = type { i8 }
%"class.std::__cxx11::basic_string" = type { %"struct.std::__cxx11::basic_string<char>::_Alloc_hider", i64, %union.anon }
%"struct.std::__cxx11::basic_string<char>::_Alloc_hider" = type { i8* }
%union.anon = type { i64, [8 x i8] }
%"class.adept::Stack" = type <{ %"class.adept::internal::StackStorageOrig", double*, %"class.std::vector.8", %"class.std::vector.8", %"class.std::__cxx11::list", %"struct.std::_List_iterator", i32, i32, i32, i32, i8, i8, i8, i8, i8, [3 x i8] }>
%"class.adept::internal::StackStorageOrig" = type { %"struct.adept::internal::Statement"*, double*, i32*, i32, i32, i32, i32 }
%"struct.adept::internal::Statement" = type { i32, i32 }
%"class.std::vector.8" = type { %"struct.std::_Vector_base.9" }
%"struct.std::_Vector_base.9" = type { %"struct.std::_Vector_base<int, std::allocator<int>>::_Vector_impl" }
%"struct.std::_Vector_base<int, std::allocator<int>>::_Vector_impl" = type { %"struct.std::_Vector_base<int, std::allocator<int>>::_Vector_impl_data" }
%"struct.std::_Vector_base<int, std::allocator<int>>::_Vector_impl_data" = type { i32*, i32*, i32* }
%"class.std::__cxx11::list" = type { %"class.std::__cxx11::_List_base" }
%"class.std::__cxx11::_List_base" = type { %"struct.std::__cxx11::_List_base<adept::Gap, std::allocator<adept::Gap>>::_List_impl" }
%"struct.std::__cxx11::_List_base<adept::Gap, std::allocator<adept::Gap>>::_List_impl" = type { %"struct.std::__detail::_List_node_header" }
%"struct.std::__detail::_List_node_header" = type { %"struct.std::__detail::_List_node_base", i64 }
%"struct.std::__detail::_List_node_base" = type { %"struct.std::__detail::_List_node_base"*, %"struct.std::__detail::_List_node_base"* }
%"struct.std::_List_iterator" = type { %"struct.std::__detail::_List_node_base"* }
%"struct.adept::internal::EndIndex" = type { i8 }
%"class.adept::internal::AllIndex" = type { i8 }
%"class.std::vector" = type { %"struct.std::_Vector_base" }
%"struct.std::_Vector_base" = type { %"struct.std::_Vector_base<std::__cxx11::basic_string<char>, std::allocator<std::__cxx11::basic_string<char>>>::_Vector_impl" }
%"struct.std::_Vector_base<std::__cxx11::basic_string<char>, std::allocator<std::__cxx11::basic_string<char>>>::_Vector_impl" = type { %"struct.std::_Vector_base<std::__cxx11::basic_string<char>, std::allocator<std::__cxx11::basic_string<char>>>::_Vector_impl_data" }
%"struct.std::_Vector_base<std::__cxx11::basic_string<char>, std::allocator<std::__cxx11::basic_string<char>>>::_Vector_impl_data" = type { %"class.std::__cxx11::basic_string"*, %"class.std::__cxx11::basic_string"*, %"class.std::__cxx11::basic_string"* }
%struct.__dirstream = type opaque
%struct.dirent = type { i64, i64, i16, i8, [256 x i8] }
%struct.timeval = type { i64, i64 }
%"class.std::vector.3" = type { %"struct.std::_Vector_base.4" }
%"struct.std::_Vector_base.4" = type { %"struct.std::_Vector_base<double, std::allocator<double>>::_Vector_impl" }
%"struct.std::_Vector_base<double, std::allocator<double>>::_Vector_impl" = type { %"struct.std::_Vector_base<double, std::allocator<double>>::_Vector_impl_data" }
%"struct.std::_Vector_base<double, std::allocator<double>>::_Vector_impl_data" = type { double*, double*, double* }
%struct._IO_FILE = type { i32, i8*, i8*, i8*, i8*, i8*, i8*, i8*, i8*, i8*, i8*, i8*, %struct._IO_marker*, %struct._IO_FILE*, i32, i32, i64, i16, i8, [1 x i8], i8*, i64, %struct._IO_codecvt*, %struct._IO_wide_data*, %struct._IO_FILE*, i8*, i64, i32, [20 x i8] }
%struct._IO_marker = type opaque
%struct._IO_codecvt = type opaque
%struct._IO_wide_data = type opaque
%struct.LSTMInput = type { i32, i32, i32, %"class.std::vector.3", %"class.std::vector.3", %"class.std::vector.3", %"class.std::vector.3" }
%"class.adept::invalid_operation" = type { %"class.adept::array_exception" }
%"class.adept::array_exception" = type { %"class.adept::exception" }
%"class.adept::exception" = type { %"class.std::exception", %"class.std::__cxx11::basic_string" }
%"class.std::exception" = type { i32 (...)** }
%"struct.adept::Gap" = type { i32, i32 }
%"struct.std::_List_node" = type { %"struct.std::__detail::_List_node_base", %"struct.__gnu_cxx::__aligned_membuf" }
%"struct.__gnu_cxx::__aligned_membuf" = type { [8 x i8] }
%"class.std::basic_ostream" = type { i32 (...)**, %"class.std::basic_ios" }
%"class.std::basic_ios" = type { %"class.std::ios_base", %"class.std::basic_ostream"*, i8, i8, %"class.std::basic_streambuf"*, %"class.std::ctype"*, %"class.std::num_put"*, %"class.std::num_get"* }
%"class.std::ios_base" = type { i32 (...)**, i64, i64, i32, i32, i32, %"struct.std::ios_base::_Callback_list"*, %"struct.std::ios_base::_Words", [8 x %"struct.std::ios_base::_Words"], i32, %"struct.std::ios_base::_Words"*, %"class.std::locale" }
%"struct.std::ios_base::_Callback_list" = type { %"struct.std::ios_base::_Callback_list"*, void (i32, %"class.std::ios_base"*, i32)*, i32, i32 }
%"struct.std::ios_base::_Words" = type { i8*, i64 }
%"class.std::locale" = type { %"class.std::locale::_Impl"* }
%"class.std::locale::_Impl" = type { i32, %"class.std::locale::facet"**, i64, %"class.std::locale::facet"**, i8** }
%"class.std::locale::facet" = type <{ i32 (...)**, i32, [4 x i8] }>
%"class.std::basic_streambuf" = type { i32 (...)**, i8*, i8*, i8*, i8*, i8*, i8*, %"class.std::locale" }
%"class.std::ctype" = type <{ %"class.std::locale::facet.base", [4 x i8], %struct.__locale_struct*, i8, [7 x i8], i32*, i32*, i16*, i8, [256 x i8], [256 x i8], i8, [6 x i8] }>
%"class.std::locale::facet.base" = type <{ i32 (...)**, i32 }>
%struct.__locale_struct = type { [13 x %struct.__locale_data*], i16*, i32*, i32*, [13 x i8*] }
%struct.__locale_data = type opaque
%"class.std::num_put" = type { %"class.std::locale::facet.base", [4 x i8] }
%"class.std::num_get" = type { %"class.std::locale::facet.base", [4 x i8] }
%"class.adept::Array" = type { float*, %"class.adept::Storage"*, %"class.adept::ExpressionSize", %"class.adept::ExpressionSize" }
%"class.adept::Storage" = type opaque
%"class.adept::ExpressionSize" = type { [2 x i32] }
%"class.adept::SpecialMatrix" = type { float*, %"class.adept::Storage"*, i32, i32 }
%"class.adept::SpecialMatrix.19" = type { float*, %"class.adept::Storage"*, i32, i32 }
%"class.adept::Array.22" = type { double*, %"class.adept::Storage.24"*, %"class.adept::ExpressionSize", %"class.adept::ExpressionSize" }
%"class.adept::Storage.24" = type <{ double*, i32, i32, i32, [4 x i8] }>
%"class.adept::SpecialMatrix.25" = type { double*, %"class.adept::Storage.24"*, i32, i32 }
%"class.adept::SpecialMatrix.27" = type { double*, %"class.adept::Storage.24"*, i32, i32 }
%"struct.adept::Block" = type { [2 x double] }
%"class.std::__cxx11::basic_stringstream" = type { %"class.std::basic_iostream.base", %"class.std::__cxx11::basic_stringbuf", %"class.std::basic_ios" }
%"class.std::basic_iostream.base" = type { %"class.std::basic_istream.base", %"class.std::basic_ostream.base" }
%"class.std::basic_istream.base" = type { i32 (...)**, i64 }
%"class.std::basic_ostream.base" = type { i32 (...)** }
%"class.std::__cxx11::basic_stringbuf" = type { %"class.std::basic_streambuf", i32, %"class.std::__cxx11::basic_string" }
%"class.adept::Array.35" = type { float*, %"class.adept::Storage"*, %"class.adept::ExpressionSize.37", %"class.adept::ExpressionSize.37" }
%"class.adept::ExpressionSize.37" = type { [1 x i32] }
%"class.adept::Array.38" = type { double*, %"class.adept::Storage.24"*, %"class.adept::ExpressionSize.37", %"class.adept::ExpressionSize.37" }
%"class.adept::Active" = type <{ double, i32, [4 x i8] }>
%"struct.adept::internal::BinaryOperation.79" = type { %"class.adept::Active"*, %"struct.adept::internal::BinaryOperation.46" }
%"struct.adept::internal::BinaryOperation.46" = type { %"class.adept::Active"*, %"class.adept::Active"* }
%"struct.adept::internal::BinaryOperation" = type { %"class.adept::Active"*, %"class.adept::Active"* }
%"struct.adept::internal::BinaryOperation.48" = type { %"struct.adept::internal::UnaryOperation", %"class.adept::Active"* }
%"struct.adept::internal::UnaryOperation" = type { %"class.adept::Active"* }
%"struct.adept::Expression.45" = type { i8 }
%"struct.adept::Expression.80" = type { i8 }
%"struct.adept::Expression.49" = type { i8 }
%"class.adept::stack_already_active" = type { %"class.adept::autodiff_exception" }
%"class.adept::autodiff_exception" = type { %"class.adept::exception" }
%"class.adept::gradients_not_initialized" = type { %"class.adept::autodiff_exception" }
%"class.adept::feature_not_available" = type { %"class.adept::exception" }
%"class.adept::dependents_or_independents_not_identified" = type { %"class.adept::autodiff_exception" }
%"class.std::bad_alloc" = type { %"class.std::exception" }
%"class.adept::invalid_dimension" = type { %"class.adept::array_exception" }
%"struct.adept::internal::BinaryOperation.51" = type { %"struct.adept::internal::BinaryOperation.46", %"class.adept::Active"* }
%"struct.adept::Expression.47" = type { i8 }
%"struct.adept::Expression.52" = type { i8 }
%"struct.adept::internal::BinaryOperation.76" = type { %"class.adept::Active"*, %"class.adept::Active"* }
%"struct.adept::internal::BinaryOperation.74" = type { %"class.adept::Active"*, %"struct.adept::internal::UnaryOperation.70" }
%"struct.adept::internal::UnaryOperation.70" = type { %"class.adept::Active"* }
%"struct.adept::internal::UnaryOperation.72" = type { %"class.adept::Active"* }
%"struct.adept::Expression.75" = type { i8 }
%"struct.adept::Expression.77" = type { i8 }
%"struct.adept::Expression.73" = type { i8 }
%"struct.adept::internal::BinaryOperation.58" = type { %"class.adept::Active"*, %"struct.adept::internal::UnaryOperation.60" }
%"struct.adept::internal::UnaryOperation.60" = type { %"class.adept::Active"* }
%"struct.adept::Expression.59" = type { i8 }
%"struct.adept::internal::BinaryOperation.62" = type { %"class.adept::Active"*, %"struct.adept::internal::BinaryOperation.64" }
%"struct.adept::internal::BinaryOperation.64" = type { %"class.adept::Active"*, %"struct.adept::internal::UnaryOperation.66" }
%"struct.adept::internal::UnaryOperation.66" = type { %"struct.adept::internal::UnaryOperation" }
%"struct.adept::Expression.63" = type { i8 }
%"class.adept::gradient_out_of_range" = type { %"class.adept::autodiff_exception" }

$_ZStplIcSt11char_traitsIcESaIcEENSt7__cxx1112basic_stringIT_T0_T1_EEPKS5_RKS8_ = comdat any

$_ZN5adept17invalid_operationC2ERKNSt7__cxx1112basic_stringIcSt11char_traitsIcESaIcEEE = comdat any

$_ZN5adept9exceptionD2Ev = comdat any

$_ZN5adept3invIfEENS_5ArrayILi2ET_Lb0EEERKS3_ = comdat any

$_ZN5adept3invIfLNS_8internal21SymmMatrixOrientationE0EEENS_13SpecialMatrixIT_NS1_10SymmEngineIXT0_EEELb0EEERKS7_ = comdat any

$_ZN5adept3invIfLNS_8internal21SymmMatrixOrientationE1EEENS_13SpecialMatrixIT_NS1_10SymmEngineIXT0_EEELb0EEERKS7_ = comdat any

$_ZN5adept3invIdEENS_5ArrayILi2ET_Lb0EEERKS3_ = comdat any

$_ZN5adept3invIdLNS_8internal21SymmMatrixOrientationE0EEENS_13SpecialMatrixIT_NS1_10SymmEngineIXT0_EEELb0EEERKS7_ = comdat any

$_ZN5adept3invIdLNS_8internal21SymmMatrixOrientationE1EEENS_13SpecialMatrixIT_NS1_10SymmEngineIXT0_EEELb0EEERKS7_ = comdat any

$_ZN5adept5solveIfEENS_5ArrayILi1ET_Lb0EEERKNS1_ILi2ES2_Lb0EEERKS3_ = comdat any

$_ZN5adept5solveIfLNS_8internal21SymmMatrixOrientationE0EEENS_5ArrayILi1ET_Lb0EEERKNS_13SpecialMatrixIS4_NS1_10SymmEngineIXT0_EEELb0EEERKS5_ = comdat any

$_ZN5adept5solveIfLNS_8internal21SymmMatrixOrientationE1EEENS_5ArrayILi1ET_Lb0EEERKNS_13SpecialMatrixIS4_NS1_10SymmEngineIXT0_EEELb0EEERKS5_ = comdat any

$_ZN5adept5solveIfEENS_5ArrayILi2ET_Lb0EEERKS3_S5_ = comdat any

$_ZN5adept5solveIfLNS_8internal21SymmMatrixOrientationE0EEENS_5ArrayILi2ET_Lb0EEERKNS_13SpecialMatrixIS4_NS1_10SymmEngineIXT0_EEELb0EEERKS5_ = comdat any

$_ZN5adept5solveIfLNS_8internal21SymmMatrixOrientationE1EEENS_5ArrayILi2ET_Lb0EEERKNS_13SpecialMatrixIS4_NS1_10SymmEngineIXT0_EEELb0EEERKS5_ = comdat any

$_ZN5adept5solveIdEENS_5ArrayILi1ET_Lb0EEERKNS1_ILi2ES2_Lb0EEERKS3_ = comdat any

$_ZN5adept5solveIdLNS_8internal21SymmMatrixOrientationE0EEENS_5ArrayILi1ET_Lb0EEERKNS_13SpecialMatrixIS4_NS1_10SymmEngineIXT0_EEELb0EEERKS5_ = comdat any

$_ZN5adept5solveIdLNS_8internal21SymmMatrixOrientationE1EEENS_5ArrayILi1ET_Lb0EEERKNS_13SpecialMatrixIS4_NS1_10SymmEngineIXT0_EEELb0EEERKS5_ = comdat any

$_ZN5adept5solveIdEENS_5ArrayILi2ET_Lb0EEERKS3_S5_ = comdat any

$_ZN5adept5solveIdLNS_8internal21SymmMatrixOrientationE0EEENS_5ArrayILi2ET_Lb0EEERKNS_13SpecialMatrixIS4_NS1_10SymmEngineIXT0_EEELb0EEERKS5_ = comdat any

$_ZN5adept5solveIdLNS_8internal21SymmMatrixOrientationE1EEENS_5ArrayILi2ET_Lb0EEERKNS_13SpecialMatrixIS4_NS1_10SymmEngineIXT0_EEELb0EEERKS5_ = comdat any

$_ZN5adept5StackC2Eb = comdat any

$_ZN5adept6ActiveIdED2Ev = comdat any

$_ZN5adept5Stack13new_recordingEv = comdat any

$_ZN9adeptTest14lstm_objectiveIN5adept6ActiveIdEEEEviiiPT_S5_S5_S5_S5_ = comdat any

$__clang_call_terminate = comdat any

$_ZN5adept17invalid_operationD0Ev = comdat any

$_ZNK5adept9exception4whatEv = comdat any

$_ZN5adept15array_exceptionD0Ev = comdat any

$_ZN5adept9exceptionD0Ev = comdat any

$_ZN5adept20stack_already_activeD0Ev = comdat any

$_ZN5adept25gradients_not_initializedD0Ev = comdat any

$_ZN5adept21feature_not_availableD0Ev = comdat any

$_ZN5adept41dependents_or_independents_not_identifiedD0Ev = comdat any

$_ZNSt6vectorINSt7__cxx1112basic_stringIcSt11char_traitsIcESaIcEEESaIS5_EE17_M_realloc_insertIJS5_EEEvN9__gnu_cxx17__normal_iteratorIPS5_S7_EEDpOT_ = comdat any

$_ZNSt6vectorIdSaIdEE17_M_default_appendEm = comdat any

$_ZNSt20__uninitialized_copyILb0EE13__uninit_copyIPKNSt7__cxx1112basic_stringIcSt11char_traitsIcESaIcEEEPS7_EET0_T_SC_SB_ = comdat any

$_ZN5adept5ArrayILi1EdLb0EE6resizeEPKib = comdat any

$_ZN5adept7StorageIdE11remove_linkEv = comdat any

$_ZN5adept8internal18exception_locationB5cxx11EPKci = comdat any

$_ZN5adept17invalid_dimensionC2ERKNSt7__cxx1112basic_stringIcSt11char_traitsIcESaIcEEE = comdat any

$_ZN5adept17invalid_dimensionD0Ev = comdat any

$_ZN5adept6ActiveIdEC2IdEERKT_PNS_8internal9enable_ifIXsr17is_not_expressionIS3_EE5valueEvE4typeE = comdat any

$_ZN9adeptTest12lstm_predictIN5adept6ActiveIdEEEEviiPT_S5_S5_S5_S5_ = comdat any

$_ZN9adeptTest9logsumexpIN5adept6ActiveIdEEEET_PKS4_i = comdat any

$_ZN5adept6ActiveIdEaSERKS1_ = comdat any

$_ZN5adept6ActiveIdEaSIdNS_8internal15BinaryOperationIdS1_NS3_8SubtractES1_EEEENS3_9enable_ifIXaasrT0_9is_activeeqsrS8_4rankLi0EERS1_E4typeERKNS_10ExpressionIT_S8_EE = comdat any

$_ZN5adept6ActiveIdEC2IiEERKT_PNS_8internal9enable_ifIXsr17is_not_expressionIS3_EE5valueEvE4typeE = comdat any

$_ZN5adept6ActiveIdEaSIdNS_8internal15BinaryOperationIdNS3_14UnaryOperationIdNS3_10UnaryMinusES1_EENS3_6DivideES1_EEEENS3_9enable_ifIXaasrT0_9is_activeeqsrSB_4rankLi0EERS1_E4typeERKNS_10ExpressionIT_SB_EE = comdat any

$_ZN5adept6ActiveIdEaSIdNS_8internal15BinaryOperationIdS1_NS3_8MultiplyES1_EEEENS3_9enable_ifIXaasrT0_9is_activeeqsrS8_4rankLi0EERS1_E4typeERKNS_10ExpressionIT_S8_EE = comdat any

$_ZN9adeptTest10lstm_modelIN5adept6ActiveIdEEEEviPT_S5_S5_S5_S5_ = comdat any

$_ZN5adept6ActiveIdEaSIdNS_8internal15BinaryOperationIdNS4_IdS1_NS3_8MultiplyES1_EENS3_3AddES1_EEEENS3_9enable_ifIXaasrT0_9is_activeeqsrSA_4rankLi0EERS1_E4typeERKNS_10ExpressionIT_SA_EE = comdat any

$_ZN9adeptTest7sigmoidIN5adept6ActiveIdEEEET_S4_ = comdat any

$_ZN5adept6ActiveIdEC2IdNS_8internal15BinaryOperationIdNS4_IdS1_NS3_8MultiplyES1_EENS3_3AddES1_EEEERKNS_10ExpressionIT_T0_EEPNS3_9enable_ifIXaaeqsrSB_4rankLi0EsrSB_9is_activeEvE4typeE = comdat any

$_ZN5adept6ActiveIdEaSIdNS_8internal15BinaryOperationIdS1_NS3_8MultiplyENS3_14UnaryOperationIdNS3_4TanhES1_EEEEEENS3_9enable_ifIXaasrT0_9is_activeeqsrSB_4rankLi0EERS1_E4typeERKNS_10ExpressionIT_SB_EE = comdat any

$_ZN5adept6ActiveIdEC2IdNS_8internal15BinaryOperationIdS1_NS3_6DivideENS4_IdS1_NS3_3AddENS3_14UnaryOperationIdNS3_3ExpENS7_IdNS3_10UnaryMinusES1_EEEEEEEEEERKNS_10ExpressionIT_T0_EEPNS3_9enable_ifIXaaeqsrSG_4rankLi0EsrSG_9is_activeEvE4typeE = comdat any

$_ZN5adept6ActiveIdEC2IdNS_8internal14UnaryOperationIdNS3_3LogES1_EEEERKNS_10ExpressionIT_T0_EEPNS3_9enable_ifIXaaeqsrS9_4rankLi0EsrS9_9is_activeEvE4typeE = comdat any

$_ZN5adept6ActiveIdEaSIdNS_8internal15BinaryOperationIdS1_NS3_3AddENS3_14UnaryOperationIdNS3_3ExpES1_EEEEEENS3_9enable_ifIXaasrT0_9is_activeeqsrSB_4rankLi0EERS1_E4typeERKNS_10ExpressionIT_SB_EE = comdat any

$_ZN5adept6ActiveIdEaSIdNS_8internal15BinaryOperationIdS1_NS3_3AddES1_EEEENS3_9enable_ifIXaasrT0_9is_activeeqsrS8_4rankLi0EERS1_E4typeERKNS_10ExpressionIT_S8_EE = comdat any

$_ZN5adept6ActiveIdEaSIdNS_8internal15BinaryOperationIdS1_NS3_3AddENS4_IdS1_NS3_8MultiplyES1_EEEEEENS3_9enable_ifIXaasrT0_9is_activeeqsrSA_4rankLi0EERS1_E4typeERKNS_10ExpressionIT_SA_EE = comdat any

$_ZN5adept5Stack13set_gradientsIdEENS_8internal9enable_ifIXsr8internal17is_floating_pointIT_EE5valueEvE4typeEiiPKS4_ = comdat any

$_ZN5adept21gradient_out_of_rangeD0Ev = comdat any

$_ZNK5adept5Stack13get_gradientsIdEENS_8internal9enable_ifIXsr8internal17is_floating_pointIT_EE5valueEvE4typeEiiPS4_ = comdat any

$_ZTWN5adept21_stack_current_threadE = comdat any

$_ZTSN5adept17invalid_operationE = comdat any

$_ZTSN5adept15array_exceptionE = comdat any

$_ZTSN5adept9exceptionE = comdat any

$_ZTIN5adept9exceptionE = comdat any

$_ZTIN5adept15array_exceptionE = comdat any

$_ZTIN5adept17invalid_operationE = comdat any

$_ZTSN5adept20stack_already_activeE = comdat any

$_ZTSN5adept18autodiff_exceptionE = comdat any

$_ZTIN5adept18autodiff_exceptionE = comdat any

$_ZTIN5adept20stack_already_activeE = comdat any

$_ZTSN5adept25gradients_not_initializedE = comdat any

$_ZTIN5adept25gradients_not_initializedE = comdat any

$_ZTSN5adept21feature_not_availableE = comdat any

$_ZTIN5adept21feature_not_availableE = comdat any

$_ZTSN5adept41dependents_or_independents_not_identifiedE = comdat any

$_ZTIN5adept41dependents_or_independents_not_identifiedE = comdat any

$_ZTVN5adept17invalid_operationE = comdat any

$_ZTVN5adept15array_exceptionE = comdat any

$_ZTVN5adept9exceptionE = comdat any

$_ZTVN5adept20stack_already_activeE = comdat any

$_ZTVN5adept25gradients_not_initializedE = comdat any

$_ZTVN5adept21feature_not_availableE = comdat any

$_ZTVN5adept41dependents_or_independents_not_identifiedE = comdat any

$_ZTSN5adept17invalid_dimensionE = comdat any

$_ZTIN5adept17invalid_dimensionE = comdat any

$_ZTVN5adept17invalid_dimensionE = comdat any

$_ZTSN5adept21gradient_out_of_rangeE = comdat any

$_ZTIN5adept21gradient_out_of_rangeE = comdat any

$_ZTVN5adept21gradient_out_of_rangeE = comdat any

@.str = private unnamed_addr constant [2 x i8] c".\00", align 1
@.str.1 = private unnamed_addr constant [3 x i8] c"..\00", align 1
@.str.2 = private unnamed_addr constant [6 x i8] c"%s/%s\00", align 1
@.str.3 = private unnamed_addr constant [2 x i8] c"/\00", align 1
@.str.5 = private unnamed_addr constant [3 x i8] c"/\\\00", align 1
@_ZStL8__ioinit = internal global %"class.std::ios_base::Init" zeroinitializer, align 1
@__dso_handle = external hidden global i8
@.str.7 = private unnamed_addr constant [2 x i8] c"r\00", align 1
@.str.8 = private unnamed_addr constant [25 x i8] c"could not open file: %s\0A\00", align 1
@.str.9 = private unnamed_addr constant [9 x i8] c"%i %i %i\00", align 1
@.str.10 = private unnamed_addr constant [4 x i8] c"%lf\00", align 1
@.str.12 = private unnamed_addr constant [18 x i8] c"lstm_l2_c1024.txt\00", align 1
@.str.13 = private unnamed_addr constant [18 x i8] c"lstm_l4_c1024.txt\00", align 1
@.str.14 = private unnamed_addr constant [18 x i8] c"lstm_l2_c4096.txt\00", align 1
@.str.15 = private unnamed_addr constant [18 x i8] c"lstm_l4_c4096.txt\00", align 1
@.str.16 = private unnamed_addr constant [18 x i8] c"starting path %s\0A\00", align 1
@.str.17 = private unnamed_addr constant [6 x i8] c"data/\00", align 1
@.str.18 = private unnamed_addr constant [4 x i8] c"%f \00", align 1
@.str.19 = private unnamed_addr constant [2 x i8] c"\0A\00", align 1
@.str.20 = private unnamed_addr constant [25 x i8] c"Tapenade combined %0.6f\0A\00", align 1
@.str.21 = private unnamed_addr constant [22 x i8] c"Adept combined %0.6f\0A\00", align 1
@.str.22 = private unnamed_addr constant [23 x i8] c"Enzyme combined %0.6f\0A\00", align 1
@enzyme_const = external dso_local local_unnamed_addr global i32, align 4
@enzyme_dup = external dso_local local_unnamed_addr global i32, align 4
@enzyme_dupnoneed = external dso_local local_unnamed_addr global i32, align 4
@_ZN5adept8internal21array_row_major_orderE = dso_local local_unnamed_addr global i8 1, align 1
@_ZN5adept8internal17array_print_styleE = dso_local local_unnamed_addr global i32 2, align 4
@_ZN5adept8internal16vector_separatorB5cxx11E = dso_local global %"class.std::__cxx11::basic_string" zeroinitializer, align 8
@.str.24 = private unnamed_addr constant [3 x i8] c", \00", align 1
@_ZN5adept8internal19vector_print_beforeB5cxx11E = dso_local global %"class.std::__cxx11::basic_string" zeroinitializer, align 8
@.str.26 = private unnamed_addr constant [2 x i8] c"{\00", align 1
@_ZN5adept8internal18vector_print_afterB5cxx11E = dso_local global %"class.std::__cxx11::basic_string" zeroinitializer, align 8
@.str.28 = private unnamed_addr constant [2 x i8] c"}\00", align 1
@_ZN5adept8internal21array_opening_bracketB5cxx11E = dso_local global %"class.std::__cxx11::basic_string" zeroinitializer, align 8
@_ZN5adept8internal21array_closing_bracketB5cxx11E = dso_local global %"class.std::__cxx11::basic_string" zeroinitializer, align 8
@_ZN5adept8internal26array_contiguous_separatorB5cxx11E = dso_local global %"class.std::__cxx11::basic_string" zeroinitializer, align 8
@_ZN5adept8internal30array_non_contiguous_separatorB5cxx11E = dso_local global %"class.std::__cxx11::basic_string" zeroinitializer, align 8
@.str.33 = private unnamed_addr constant [3 x i8] c",\0A\00", align 1
@_ZN5adept8internal18array_print_beforeB5cxx11E = dso_local global %"class.std::__cxx11::basic_string" zeroinitializer, align 8
@.str.35 = private unnamed_addr constant [3 x i8] c"\0A{\00", align 1
@_ZN5adept8internal17array_print_afterB5cxx11E = dso_local global %"class.std::__cxx11::basic_string" zeroinitializer, align 8
@_ZN5adept8internal24array_print_empty_beforeB5cxx11E = dso_local global %"class.std::__cxx11::basic_string" zeroinitializer, align 8
@.str.38 = private unnamed_addr constant [13 x i8] c"(empty rank-\00", align 1
@_ZN5adept8internal23array_print_empty_afterB5cxx11E = dso_local global %"class.std::__cxx11::basic_string" zeroinitializer, align 8
@.str.40 = private unnamed_addr constant [8 x i8] c" array)\00", align 1
@_ZN5adept8internal18array_print_indentE = dso_local local_unnamed_addr global i8 1, align 1
@_ZN5adept8internal22array_print_empty_rankE = dso_local local_unnamed_addr global i8 1, align 1
@.str.41 = private unnamed_addr constant [2 x i8] c" \00", align 1
@.str.42 = private unnamed_addr constant [1 x i8] zeroinitializer, align 1
@.str.43 = private unnamed_addr constant [6 x i8] c"empty\00", align 1
@.str.44 = private unnamed_addr constant [2 x i8] c"[\00", align 1
@.str.45 = private unnamed_addr constant [2 x i8] c"]\00", align 1
@.str.46 = private unnamed_addr constant [3 x i8] c";\0A\00", align 1
@.str.47 = private unnamed_addr constant [33 x i8] c"Array print style not understood\00", align 1
@_ZTVN10__cxxabiv120__si_class_type_infoE = external dso_local global i8*
@_ZTSN5adept17invalid_operationE = linkonce_odr dso_local constant [28 x i8] c"N5adept17invalid_operationE\00", comdat, align 1
@_ZTSN5adept15array_exceptionE = linkonce_odr dso_local constant [26 x i8] c"N5adept15array_exceptionE\00", comdat, align 1
@_ZTSN5adept9exceptionE = linkonce_odr dso_local constant [19 x i8] c"N5adept9exceptionE\00", comdat, align 1
@_ZTISt9exception = external dso_local constant i8*
@_ZTIN5adept9exceptionE = linkonce_odr dso_local constant { i8*, i8*, i8* } { i8* bitcast (i8** getelementptr inbounds (i8*, i8** @_ZTVN10__cxxabiv120__si_class_type_infoE, i64 2) to i8*), i8* getelementptr inbounds ([19 x i8], [19 x i8]* @_ZTSN5adept9exceptionE, i32 0, i32 0), i8* bitcast (i8** @_ZTISt9exception to i8*) }, comdat, align 8
@_ZTIN5adept15array_exceptionE = linkonce_odr dso_local constant { i8*, i8*, i8* } { i8* bitcast (i8** getelementptr inbounds (i8*, i8** @_ZTVN10__cxxabiv120__si_class_type_infoE, i64 2) to i8*), i8* getelementptr inbounds ([26 x i8], [26 x i8]* @_ZTSN5adept15array_exceptionE, i32 0, i32 0), i8* bitcast ({ i8*, i8*, i8* }* @_ZTIN5adept9exceptionE to i8*) }, comdat, align 8
@_ZTIN5adept17invalid_operationE = linkonce_odr dso_local constant { i8*, i8*, i8* } { i8* bitcast (i8** getelementptr inbounds (i8*, i8** @_ZTVN10__cxxabiv120__si_class_type_infoE, i64 2) to i8*), i8* getelementptr inbounds ([28 x i8], [28 x i8]* @_ZTSN5adept17invalid_operationE, i32 0, i32 0), i8* bitcast ({ i8*, i8*, i8* }* @_ZTIN5adept15array_exceptionE to i8*) }, comdat, align 8
@_ZN5adept21_stack_current_threadE = dso_local thread_local global %"class.adept::Stack"* null, align 8
@_ZN5adept28_stack_current_thread_unsafeE = dso_local local_unnamed_addr global %"class.adept::Stack"* null, align 8
@.str.48 = private unnamed_addr constant [78 x i8] c"Attempt to activate an adept::Stack when one is already active in this thread\00", align 1
@_ZTSN5adept20stack_already_activeE = linkonce_odr dso_local constant [31 x i8] c"N5adept20stack_already_activeE\00", comdat, align 1
@_ZTSN5adept18autodiff_exceptionE = linkonce_odr dso_local constant [29 x i8] c"N5adept18autodiff_exceptionE\00", comdat, align 1
@_ZTIN5adept18autodiff_exceptionE = linkonce_odr dso_local constant { i8*, i8*, i8* } { i8* bitcast (i8** getelementptr inbounds (i8*, i8** @_ZTVN10__cxxabiv120__si_class_type_infoE, i64 2) to i8*), i8* getelementptr inbounds ([29 x i8], [29 x i8]* @_ZTSN5adept18autodiff_exceptionE, i32 0, i32 0), i8* bitcast ({ i8*, i8*, i8* }* @_ZTIN5adept9exceptionE to i8*) }, comdat, align 8
@_ZTIN5adept20stack_already_activeE = linkonce_odr dso_local constant { i8*, i8*, i8* } { i8* bitcast (i8** getelementptr inbounds (i8*, i8** @_ZTVN10__cxxabiv120__si_class_type_infoE, i64 2) to i8*), i8* getelementptr inbounds ([31 x i8], [31 x i8]* @_ZTSN5adept20stack_already_activeE, i32 0, i32 0), i8* bitcast ({ i8*, i8*, i8* }* @_ZTIN5adept18autodiff_exceptionE to i8*) }, comdat, align 8
@.str.49 = private unnamed_addr constant [107 x i8] c"Gradients not initialized: at least one call to set_gradient(s) is needed before a forward or reverse pass\00", align 1
@_ZTSN5adept25gradients_not_initializedE = linkonce_odr dso_local constant [36 x i8] c"N5adept25gradients_not_initializedE\00", comdat, align 1
@_ZTIN5adept25gradients_not_initializedE = linkonce_odr dso_local constant { i8*, i8*, i8* } { i8* bitcast (i8** getelementptr inbounds (i8*, i8** @_ZTVN10__cxxabiv120__si_class_type_infoE, i64 2) to i8*), i8* getelementptr inbounds ([36 x i8], [36 x i8]* @_ZTSN5adept25gradients_not_initializedE, i32 0, i32 0), i8* bitcast ({ i8*, i8*, i8* }* @_ZTIN5adept18autodiff_exceptionE to i8*) }, comdat, align 8
@.str.50 = private unnamed_addr constant [5 x i8] c": d[\00", align 1
@.str.51 = private unnamed_addr constant [5 x i8] c"] = \00", align 1
@.str.52 = private unnamed_addr constant [3 x i8] c"0\0A\00", align 1
@.str.53 = private unnamed_addr constant [4 x i8] c" + \00", align 1
@.str.54 = private unnamed_addr constant [4 x i8] c"*d[\00", align 1
@.str.55 = private unnamed_addr constant [2 x i8] c":\00", align 1
@.str.56 = private unnamed_addr constant [26 x i8] c"No gradients initialized\0A\00", align 1
@.str.57 = private unnamed_addr constant [2 x i8] c"-\00", align 1
@.str.58 = private unnamed_addr constant [42 x i8] c"Automatic Differentiation Stack (address \00", align 1
@.str.59 = private unnamed_addr constant [4 x i8] c"):\0A\00", align 1
@.str.60 = private unnamed_addr constant [37 x i8] c"   Currently attached - thread safe\0A\00", align 1
@.str.61 = private unnamed_addr constant [39 x i8] c"   Currently attached - thread unsafe\0A\00", align 1
@.str.62 = private unnamed_addr constant [23 x i8] c"   Currently detached\0A\00", align 1
@.str.63 = private unnamed_addr constant [22 x i8] c"   Recording status:\0A\00", align 1
@.str.64 = private unnamed_addr constant [23 x i8] c"      Recording is ON\0A\00", align 1
@.str.65 = private unnamed_addr constant [27 x i8] c"      Recording is PAUSED\0A\00", align 1
@.str.66 = private unnamed_addr constant [7 x i8] c"      \00", align 1
@.str.67 = private unnamed_addr constant [14 x i8] c" statements (\00", align 1
@.str.68 = private unnamed_addr constant [12 x i8] c" allocated)\00", align 1
@.str.69 = private unnamed_addr constant [6 x i8] c" and \00", align 1
@.str.70 = private unnamed_addr constant [14 x i8] c" operations (\00", align 1
@.str.71 = private unnamed_addr constant [13 x i8] c" allocated)\0A\00", align 1
@.str.72 = private unnamed_addr constant [33 x i8] c" gradients currently registered \00", align 1
@.str.73 = private unnamed_addr constant [16 x i8] c"and a total of \00", align 1
@.str.74 = private unnamed_addr constant [24 x i8] c" needed (current index \00", align 1
@.str.75 = private unnamed_addr constant [3 x i8] c")\0A\00", align 1
@.str.76 = private unnamed_addr constant [33 x i8] c"      Gradient list has no gaps\0A\00", align 1
@.str.77 = private unnamed_addr constant [25 x i8] c"      Gradient list has \00", align 1
@.str.78 = private unnamed_addr constant [8 x i8] c" gaps (\00", align 1
@.str.79 = private unnamed_addr constant [24 x i8] c"   Computation status:\0A\00", align 1
@.str.80 = private unnamed_addr constant [22 x i8] c" gradients assigned (\00", align 1
@.str.81 = private unnamed_addr constant [29 x i8] c"      0 gradients assigned (\00", align 1
@.str.82 = private unnamed_addr constant [22 x i8] c"      Jacobian size: \00", align 1
@.str.83 = private unnamed_addr constant [2 x i8] c"x\00", align 1
@.str.84 = private unnamed_addr constant [27 x i8] c"      Independent indices:\00", align 1
@.str.85 = private unnamed_addr constant [28 x i8] c"\0A      Dependent indices:  \00", align 1
@.str.86 = private unnamed_addr constant [51 x i8] c"      Parallel Jacobian calculation not available\0A\00", align 1
@_ZN5adept8internal26n_storage_objects_created_E = dso_local local_unnamed_addr global i32 0, align 4
@_ZN5adept8internal26n_storage_objects_deleted_E = dso_local local_unnamed_addr global i32 0, align 4
@.str.87 = private unnamed_addr constant [74 x i8] c"Cannot perform matrix-matrix multiplication because compiled without BLAS\00", align 1
@_ZTSN5adept21feature_not_availableE = linkonce_odr dso_local constant [32 x i8] c"N5adept21feature_not_availableE\00", comdat, align 1
@_ZTIN5adept21feature_not_availableE = linkonce_odr dso_local constant { i8*, i8*, i8* } { i8* bitcast (i8** getelementptr inbounds (i8*, i8** @_ZTVN10__cxxabiv120__si_class_type_infoE, i64 2) to i8*), i8* getelementptr inbounds ([32 x i8], [32 x i8]* @_ZTSN5adept21feature_not_availableE, i32 0, i32 0), i8* bitcast ({ i8*, i8*, i8* }* @_ZTIN5adept9exceptionE to i8*) }, comdat, align 8
@.str.88 = private unnamed_addr constant [74 x i8] c"Cannot perform matrix-vector multiplication because compiled without BLAS\00", align 1
@.str.89 = private unnamed_addr constant [84 x i8] c"Cannot perform symmetric matrix-matrix multiplication because compiled without BLAS\00", align 1
@.str.90 = private unnamed_addr constant [84 x i8] c"Cannot perform symmetric matrix-vector multiplication because compiled without BLAS\00", align 1
@.str.91 = private unnamed_addr constant [79 x i8] c"Cannot perform band matrix-vector multiplication because compiled without BLAS\00", align 1
@_ZN5adept3endE = dso_local local_unnamed_addr global %"struct.adept::internal::EndIndex" zeroinitializer, align 1
@_ZN5adept2__E = dso_local local_unnamed_addr global %"class.adept::internal::AllIndex" zeroinitializer, align 1
@.str.92 = private unnamed_addr constant [53 x i8] c"Cannot invert matrix because compiled without LAPACK\00", align 1
@.str.93 = private unnamed_addr constant [80 x i8] c"Dependent or independent variables not identified before a Jacobian computation\00", align 1
@_ZTSN5adept41dependents_or_independents_not_identifiedE = linkonce_odr dso_local constant [52 x i8] c"N5adept41dependents_or_independents_not_identifiedE\00", comdat, align 1
@_ZTIN5adept41dependents_or_independents_not_identifiedE = linkonce_odr dso_local constant { i8*, i8*, i8* } { i8* bitcast (i8** getelementptr inbounds (i8*, i8** @_ZTVN10__cxxabiv120__si_class_type_infoE, i64 2) to i8*), i8* getelementptr inbounds ([52 x i8], [52 x i8]* @_ZTSN5adept41dependents_or_independents_not_identifiedE, i32 0, i32 0), i8* bitcast ({ i8*, i8*, i8* }* @_ZTIN5adept18autodiff_exceptionE to i8*) }, comdat, align 8
@.str.94 = private unnamed_addr constant [6 x i8] c"2.0.6\00", align 1
@.str.95 = private unnamed_addr constant [8 x i8] c"unknown\00", align 1
@.str.96 = private unnamed_addr constant [9 x i8] c" [4.2.1]\00", align 1
@.str.97 = private unnamed_addr constant [15 x i8] c"Adept version \00", align 1
@.str.98 = private unnamed_addr constant [3 x i8] c":\0A\00", align 1
@.str.99 = private unnamed_addr constant [17 x i8] c"  Compiled with \00", align 1
@.str.100 = private unnamed_addr constant [19 x i8] c"  Compiler flags \22\00", align 1
@.str.101 = private unnamed_addr constant [3 x i8] c"\22\0A\00", align 1
@.str.102 = private unnamed_addr constant [41 x i8] c"  Jacobians processed in blocks of size \00", align 1
@.str.103 = private unnamed_addr constant [62 x i8] c"Cannot solve linear equations because compiled without LAPACK\00", align 1
@.str.104 = private unnamed_addr constant [47 x i8] c"linspace(x1,x2,n) with n=1 only valid if x1=x2\00", align 1
@.str.105 = private unnamed_addr constant [28 x i8] c"A misuse of arrays occurred\00", align 1
@_ZTVN5adept17invalid_operationE = linkonce_odr dso_local unnamed_addr constant { [5 x i8*] } { [5 x i8*] [i8* null, i8* bitcast ({ i8*, i8*, i8* }* @_ZTIN5adept17invalid_operationE to i8*), i8* bitcast (void (%"class.adept::exception"*)* @_ZN5adept9exceptionD2Ev to i8*), i8* bitcast (void (%"class.adept::invalid_operation"*)* @_ZN5adept17invalid_operationD0Ev to i8*), i8* bitcast (i8* (%"class.adept::exception"*)* @_ZNK5adept9exception4whatEv to i8*)] }, comdat, align 8
@_ZTVN5adept15array_exceptionE = linkonce_odr dso_local unnamed_addr constant { [5 x i8*] } { [5 x i8*] [i8* null, i8* bitcast ({ i8*, i8*, i8* }* @_ZTIN5adept15array_exceptionE to i8*), i8* bitcast (void (%"class.adept::exception"*)* @_ZN5adept9exceptionD2Ev to i8*), i8* bitcast (void (%"class.adept::array_exception"*)* @_ZN5adept15array_exceptionD0Ev to i8*), i8* bitcast (i8* (%"class.adept::exception"*)* @_ZNK5adept9exception4whatEv to i8*)] }, comdat, align 8
@_ZTVN5adept9exceptionE = linkonce_odr dso_local unnamed_addr constant { [5 x i8*] } { [5 x i8*] [i8* null, i8* bitcast ({ i8*, i8*, i8* }* @_ZTIN5adept9exceptionE to i8*), i8* bitcast (void (%"class.adept::exception"*)* @_ZN5adept9exceptionD2Ev to i8*), i8* bitcast (void (%"class.adept::exception"*)* @_ZN5adept9exceptionD0Ev to i8*), i8* bitcast (i8* (%"class.adept::exception"*)* @_ZNK5adept9exception4whatEv to i8*)] }, comdat, align 8
@_ZTVN5adept20stack_already_activeE = linkonce_odr dso_local unnamed_addr constant { [5 x i8*] } { [5 x i8*] [i8* null, i8* bitcast ({ i8*, i8*, i8* }* @_ZTIN5adept20stack_already_activeE to i8*), i8* bitcast (void (%"class.adept::exception"*)* @_ZN5adept9exceptionD2Ev to i8*), i8* bitcast (void (%"class.adept::stack_already_active"*)* @_ZN5adept20stack_already_activeD0Ev to i8*), i8* bitcast (i8* (%"class.adept::exception"*)* @_ZNK5adept9exception4whatEv to i8*)] }, comdat, align 8
@_ZTVN5adept25gradients_not_initializedE = linkonce_odr dso_local unnamed_addr constant { [5 x i8*] } { [5 x i8*] [i8* null, i8* bitcast ({ i8*, i8*, i8* }* @_ZTIN5adept25gradients_not_initializedE to i8*), i8* bitcast (void (%"class.adept::exception"*)* @_ZN5adept9exceptionD2Ev to i8*), i8* bitcast (void (%"class.adept::gradients_not_initialized"*)* @_ZN5adept25gradients_not_initializedD0Ev to i8*), i8* bitcast (i8* (%"class.adept::exception"*)* @_ZNK5adept9exception4whatEv to i8*)] }, comdat, align 8
@_ZTVN5adept21feature_not_availableE = linkonce_odr dso_local unnamed_addr constant { [5 x i8*] } { [5 x i8*] [i8* null, i8* bitcast ({ i8*, i8*, i8* }* @_ZTIN5adept21feature_not_availableE to i8*), i8* bitcast (void (%"class.adept::exception"*)* @_ZN5adept9exceptionD2Ev to i8*), i8* bitcast (void (%"class.adept::feature_not_available"*)* @_ZN5adept21feature_not_availableD0Ev to i8*), i8* bitcast (i8* (%"class.adept::exception"*)* @_ZNK5adept9exception4whatEv to i8*)] }, comdat, align 8
@_ZTVN5adept41dependents_or_independents_not_identifiedE = linkonce_odr dso_local unnamed_addr constant { [5 x i8*] } { [5 x i8*] [i8* null, i8* bitcast ({ i8*, i8*, i8* }* @_ZTIN5adept41dependents_or_independents_not_identifiedE to i8*), i8* bitcast (void (%"class.adept::exception"*)* @_ZN5adept9exceptionD2Ev to i8*), i8* bitcast (void (%"class.adept::dependents_or_independents_not_identified"*)* @_ZN5adept41dependents_or_independents_not_identifiedD0Ev to i8*), i8* bitcast (i8* (%"class.adept::exception"*)* @_ZNK5adept9exception4whatEv to i8*)] }, comdat, align 8
@.str.106 = private unnamed_addr constant [21 x i8] c"basic_string::append\00", align 1
@.str.108 = private unnamed_addr constant [26 x i8] c"vector::_M_realloc_insert\00", align 1
@.str.109 = private unnamed_addr constant [21 x i8] c"basic_string::substr\00", align 1
@.str.110 = private unnamed_addr constant [55 x i8] c"%s: __pos (which is %zu) > this->size() (which is %zu)\00", align 1
@.str.112 = private unnamed_addr constant [26 x i8] c"vector::_M_default_append\00", align 1
@.str.113 = private unnamed_addr constant [49 x i8] c"cannot create std::vector larger than max_size()\00", align 1
@_ZTTNSt7__cxx1118basic_stringstreamIcSt11char_traitsIcESaIcEEE = external unnamed_addr constant [10 x i8*], align 8
@_ZTVNSt7__cxx1115basic_stringbufIcSt11char_traitsIcESaIcEEE = external dso_local unnamed_addr constant { [16 x i8*] }, align 8
@_ZTVSt15basic_streambufIcSt11char_traitsIcEE = external dso_local unnamed_addr constant { [16 x i8*] }, align 8
@_ZTISt9bad_alloc = external dso_local constant i8*
@_ZTVSt9bad_alloc = external dso_local unnamed_addr constant { [5 x i8*] }, align 8
@.str.115 = private unnamed_addr constant [35 x i8] c"Negative array dimension requested\00", align 1
@.str.116 = private unnamed_addr constant [89 x i8] c"/localhome/mha157/Enzyme/enzyme/build/benchmarks/adept2/src/adept2/include/adept/Array.h\00", align 1
@_ZTSN5adept17invalid_dimensionE = linkonce_odr dso_local constant [28 x i8] c"N5adept17invalid_dimensionE\00", comdat, align 1
@_ZTIN5adept17invalid_dimensionE = linkonce_odr dso_local constant { i8*, i8*, i8* } { i8* bitcast (i8** getelementptr inbounds (i8*, i8** @_ZTVN10__cxxabiv120__si_class_type_infoE, i64 2) to i8*), i8* getelementptr inbounds ([28 x i8], [28 x i8]* @_ZTSN5adept17invalid_dimensionE, i32 0, i32 0), i8* bitcast ({ i8*, i8*, i8* }* @_ZTIN5adept15array_exceptionE to i8*) }, comdat, align 8
@.str.117 = private unnamed_addr constant [58 x i8] c"Attempt to remove more links to a storage object than set\00", align 1
@.str.118 = private unnamed_addr constant [91 x i8] c"/localhome/mha157/Enzyme/enzyme/build/benchmarks/adept2/src/adept2/include/adept/Storage.h\00", align 1
@.str.119 = private unnamed_addr constant [6 x i8] c" (in \00", align 1
@.str.120 = private unnamed_addr constant [2 x i8] c")\00", align 1
@_ZTVN5adept17invalid_dimensionE = linkonce_odr dso_local unnamed_addr constant { [5 x i8*] } { [5 x i8*] [i8* null, i8* bitcast ({ i8*, i8*, i8* }* @_ZTIN5adept17invalid_dimensionE to i8*), i8* bitcast (void (%"class.adept::exception"*)* @_ZN5adept9exceptionD2Ev to i8*), i8* bitcast (void (%"class.adept::invalid_dimension"*)* @_ZN5adept17invalid_dimensionD0Ev to i8*), i8* bitcast (i8* (%"class.adept::exception"*)* @_ZNK5adept9exception4whatEv to i8*)] }, comdat, align 8
@.str.121 = private unnamed_addr constant [99 x i8] c"Gradient index out of range: probably aReal objects have been created after a set_gradient(s) call\00", align 1
@_ZTSN5adept21gradient_out_of_rangeE = linkonce_odr dso_local constant [32 x i8] c"N5adept21gradient_out_of_rangeE\00", comdat, align 1
@_ZTIN5adept21gradient_out_of_rangeE = linkonce_odr dso_local constant { i8*, i8*, i8* } { i8* bitcast (i8** getelementptr inbounds (i8*, i8** @_ZTVN10__cxxabiv120__si_class_type_infoE, i64 2) to i8*), i8* getelementptr inbounds ([32 x i8], [32 x i8]* @_ZTSN5adept21gradient_out_of_rangeE, i32 0, i32 0), i8* bitcast ({ i8*, i8*, i8* }* @_ZTIN5adept18autodiff_exceptionE to i8*) }, comdat, align 8
@_ZTVN5adept21gradient_out_of_rangeE = linkonce_odr dso_local unnamed_addr constant { [5 x i8*] } { [5 x i8*] [i8* null, i8* bitcast ({ i8*, i8*, i8* }* @_ZTIN5adept21gradient_out_of_rangeE to i8*), i8* bitcast (void (%"class.adept::exception"*)* @_ZN5adept9exceptionD2Ev to i8*), i8* bitcast (void (%"class.adept::gradient_out_of_range"*)* @_ZN5adept21gradient_out_of_rangeD0Ev to i8*), i8* bitcast (i8* (%"class.adept::exception"*)* @_ZNK5adept9exception4whatEv to i8*)] }, comdat, align 8
@llvm.global_ctors = appending global [1 x { i32, void ()*, i8* }] [{ i32, void ()*, i8* } { i32 65535, void ()* @_GLOBAL__sub_I_lstm.cpp, i8* null }]
@str = private unnamed_addr constant [14 x i8] c"starting main\00", align 1
@ResultFormatStrIR = global [6 x i8] c"Node\0A\00"

@_ZN5adept5StackD1Ev = dso_local unnamed_addr alias void (%"class.adept::Stack"*), void (%"class.adept::Stack"*)* @_ZN5adept5StackD2Ev
@_ZN5adept8internal16StackStorageOrigD1Ev = dso_local unnamed_addr alias void (%"class.adept::internal::StackStorageOrig"*), void (%"class.adept::internal::StackStorageOrig"*)* @_ZN5adept8internal16StackStorageOrigD2Ev

; Function Attrs: uwtable
define dso_local void @_Z8getTestsRSt6vectorINSt7__cxx1112basic_stringIcSt11char_traitsIcESaIcEEESaIS5_EEPKcS5_(%"class.std::vector"* nonnull align 8 dereferenceable(24) %tests, i8* %name, %"class.std::__cxx11::basic_string"* nocapture readonly %indent) local_unnamed_addr #0 personality i8* bitcast (i32 (...)* @__gxx_personality_v0 to i8*) {
entry:
  %__dnew.i.i.i.i.i139 = alloca i64, align 8
  %__dnew.i.i.i.i = alloca i64, align 8
  %__dnew.i.i.i.i.i = alloca i64, align 8
  %path = alloca [1024 x i8], align 16
  %agg.tmp = alloca %"class.std::__cxx11::basic_string", align 8
  %ref.tmp = alloca %"class.std::__cxx11::basic_string", align 8
  %ref.tmp24 = alloca %"class.std::__cxx11::basic_string", align 8
  %ref.tmp30 = alloca %"class.std::__cxx11::basic_string", align 8
  %ref.tmp46 = alloca %"class.std::__cxx11::basic_string", align 8
  %call = tail call %struct.__dirstream* @opendir(i8* %name)
  %tobool.not = icmp eq %struct.__dirstream* %call, null
  br i1 %tobool.not, label %cleanup56, label %while.cond.preheader

while.cond.preheader:                             ; preds = %entry
  %call2228 = call %struct.dirent* @readdir(%struct.__dirstream* nonnull %call)
  %cmp.not229 = icmp eq %struct.dirent* %call2228, null
  br i1 %cmp.not229, label %while.end, label %while.body.lr.ph

while.body.lr.ph:                                 ; preds = %while.cond.preheader
  %0 = bitcast %"class.std::__cxx11::basic_string"* %ref.tmp24 to i8*
  %1 = getelementptr inbounds %"class.std::__cxx11::basic_string", %"class.std::__cxx11::basic_string"* %ref.tmp24, i64 0, i32 2
  %2 = bitcast %"class.std::__cxx11::basic_string"* %ref.tmp24 to %union.anon**
  %3 = bitcast %union.anon* %1 to i8*
  %4 = bitcast i64* %__dnew.i.i.i.i to i8*
  %_M_p.i13.i.i.i.i = getelementptr inbounds %"class.std::__cxx11::basic_string", %"class.std::__cxx11::basic_string"* %ref.tmp24, i64 0, i32 0, i32 0
  %_M_allocated_capacity.i.i.i.i.i = getelementptr inbounds %"class.std::__cxx11::basic_string", %"class.std::__cxx11::basic_string"* %ref.tmp24, i64 0, i32 2, i32 0
  %_M_string_length.i.i.i.i.i.i = getelementptr inbounds %"class.std::__cxx11::basic_string", %"class.std::__cxx11::basic_string"* %ref.tmp24, i64 0, i32 1
  %5 = bitcast %"class.std::__cxx11::basic_string"* %ref.tmp30 to i8*
  %6 = getelementptr inbounds %"class.std::__cxx11::basic_string", %"class.std::__cxx11::basic_string"* %ref.tmp30, i64 0, i32 2
  %7 = bitcast %"class.std::__cxx11::basic_string"* %ref.tmp30 to %union.anon**
  %8 = bitcast %union.anon* %6 to i8*
  %9 = bitcast %union.anon* %6 to i32*
  %_M_string_length.i.i.i.i.i.i122 = getelementptr inbounds %"class.std::__cxx11::basic_string", %"class.std::__cxx11::basic_string"* %ref.tmp30, i64 0, i32 1
  %10 = bitcast %"class.std::__cxx11::basic_string"* %ref.tmp46 to i8*
  %11 = getelementptr inbounds %"class.std::__cxx11::basic_string", %"class.std::__cxx11::basic_string"* %ref.tmp46, i64 0, i32 2
  %12 = bitcast %"class.std::__cxx11::basic_string"* %ref.tmp46 to %union.anon**
  %_M_p.i13.i.i140 = getelementptr inbounds %"class.std::__cxx11::basic_string", %"class.std::__cxx11::basic_string"* %indent, i64 0, i32 0, i32 0
  %_M_string_length.i.i.i141 = getelementptr inbounds %"class.std::__cxx11::basic_string", %"class.std::__cxx11::basic_string"* %indent, i64 0, i32 1
  %13 = bitcast i64* %__dnew.i.i.i.i.i139 to i8*
  %14 = bitcast %union.anon* %11 to i8*
  %_M_p.i13.i.i.i.i.i145 = getelementptr inbounds %"class.std::__cxx11::basic_string", %"class.std::__cxx11::basic_string"* %ref.tmp46, i64 0, i32 0, i32 0
  %_M_allocated_capacity.i.i.i.i.i.i146 = getelementptr inbounds %"class.std::__cxx11::basic_string", %"class.std::__cxx11::basic_string"* %ref.tmp46, i64 0, i32 2, i32 0
  %_M_string_length.i.i.i.i.i.i.i152 = getelementptr inbounds %"class.std::__cxx11::basic_string", %"class.std::__cxx11::basic_string"* %ref.tmp46, i64 0, i32 1
  %_M_finish.i.i = getelementptr inbounds %"class.std::vector", %"class.std::vector"* %tests, i64 0, i32 0, i32 0, i32 0, i32 1
  %_M_end_of_storage.i.i = getelementptr inbounds %"class.std::vector", %"class.std::vector"* %tests, i64 0, i32 0, i32 0, i32 0, i32 2
  %15 = getelementptr inbounds [1024 x i8], [1024 x i8]* %path, i64 0, i64 0
  %16 = bitcast %"class.std::__cxx11::basic_string"* %ref.tmp to i8*
  %17 = getelementptr inbounds %"class.std::__cxx11::basic_string", %"class.std::__cxx11::basic_string"* %ref.tmp, i64 0, i32 2
  %18 = bitcast %"class.std::__cxx11::basic_string"* %ref.tmp to %union.anon**
  %19 = bitcast i64* %__dnew.i.i.i.i.i to i8*
  %20 = bitcast %union.anon* %17 to i8*
  %_M_p.i13.i.i.i.i.i = getelementptr inbounds %"class.std::__cxx11::basic_string", %"class.std::__cxx11::basic_string"* %ref.tmp, i64 0, i32 0, i32 0
  %_M_allocated_capacity.i.i.i.i.i.i = getelementptr inbounds %"class.std::__cxx11::basic_string", %"class.std::__cxx11::basic_string"* %ref.tmp, i64 0, i32 2, i32 0
  %_M_string_length.i.i.i.i.i.i.i = getelementptr inbounds %"class.std::__cxx11::basic_string", %"class.std::__cxx11::basic_string"* %ref.tmp, i64 0, i32 1
  %21 = getelementptr inbounds %"class.std::__cxx11::basic_string", %"class.std::__cxx11::basic_string"* %agg.tmp, i64 0, i32 2
  %22 = bitcast %"class.std::__cxx11::basic_string"* %agg.tmp to %union.anon**
  %_M_p.i23.i.i = getelementptr inbounds %"class.std::__cxx11::basic_string", %"class.std::__cxx11::basic_string"* %agg.tmp, i64 0, i32 0, i32 0
  %_M_allocated_capacity.i.i.i = getelementptr inbounds %"class.std::__cxx11::basic_string", %"class.std::__cxx11::basic_string"* %agg.tmp, i64 0, i32 2, i32 0
  %arraydecay.i.i.i = bitcast %union.anon* %21 to i8*
  %_M_string_length.i.i.i86 = getelementptr inbounds %"class.std::__cxx11::basic_string", %"class.std::__cxx11::basic_string"* %agg.tmp, i64 0, i32 1
  %arrayidx.i.i.i.i.i123 = getelementptr inbounds i8, i8* %8, i64 4
  br label %while.body

while.body:                                       ; preds = %while.cond.backedge, %while.body.lr.ph
  %call2230 = phi %struct.dirent* [ %call2228, %while.body.lr.ph ], [ %call2, %while.cond.backedge ]
  %d_type = getelementptr inbounds %struct.dirent, %struct.dirent* %call2230, i64 0, i32 3
  %23 = load i8, i8* %d_type, align 2, !tbaa !2
  %cmp3 = icmp eq i8 %23, 4
  br i1 %cmp3, label %if.then4, label %if.else

if.then4:                                         ; preds = %while.body
  call void @llvm.lifetime.start.p0i8(i64 1024, i8* nonnull %15) #37
  %arraydecay = getelementptr inbounds %struct.dirent, %struct.dirent* %call2230, i64 0, i32 4, i64 0
  %call5 = call i32 @strcmp(i8* nonnull %arraydecay, i8* nonnull dereferenceable(2) getelementptr inbounds ([2 x i8], [2 x i8]* @.str, i64 0, i64 0)) #38
  %cmp6 = icmp eq i32 %call5, 0
  br i1 %cmp6, label %cleanup, label %lor.lhs.false, !llvm.loop !8

lor.lhs.false:                                    ; preds = %if.then4
  %call9 = call i32 @strcmp(i8* nonnull %arraydecay, i8* nonnull dereferenceable(3) getelementptr inbounds ([3 x i8], [3 x i8]* @.str.1, i64 0, i64 0)) #38
  %cmp10 = icmp eq i32 %call9, 0
  br i1 %cmp10, label %cleanup, label %if.end12, !llvm.loop !8

if.end12:                                         ; preds = %lor.lhs.false
  %call16 = call i32 (i8*, i64, i8*, ...) @snprintf(i8* nonnull %15, i64 1024, i8* getelementptr inbounds ([6 x i8], [6 x i8]* @.str.2, i64 0, i64 0), i8* %name, i8* nonnull %arraydecay) #37
  call void @llvm.lifetime.start.p0i8(i64 32, i8* nonnull %16) #37
  call void @llvm.experimental.noalias.scope.decl(metadata !11)
  store %union.anon* %17, %union.anon** %18, align 8, !tbaa !14, !alias.scope !11
  %24 = load i8*, i8** %_M_p.i13.i.i140, align 8, !tbaa !17, !noalias !11
  %25 = load i64, i64* %_M_string_length.i.i.i141, align 8, !tbaa !19, !noalias !11
  call void @llvm.lifetime.start.p0i8(i64 8, i8* nonnull %19) #37, !noalias !11
  store i64 %25, i64* %__dnew.i.i.i.i.i, align 8, !tbaa !20, !noalias !11
  %cmp3.i.i.i.i.i = icmp ugt i64 %25, 15
  br i1 %cmp3.i.i.i.i.i, label %if.then4.i.i.i.i.i, label %if.end6.i.i.i.i.i

if.then4.i.i.i.i.i:                               ; preds = %if.end12
  %call5.i.i.i12.i.i = call i8* @_ZNSt7__cxx1112basic_stringIcSt11char_traitsIcESaIcEE9_M_createERmm(%"class.std::__cxx11::basic_string"* nonnull dereferenceable(32) %ref.tmp, i64* nonnull align 8 dereferenceable(8) %__dnew.i.i.i.i.i, i64 0)
  store i8* %call5.i.i.i12.i.i, i8** %_M_p.i13.i.i.i.i.i, align 8, !tbaa !17, !alias.scope !11
  %26 = load i64, i64* %__dnew.i.i.i.i.i, align 8, !tbaa !20, !noalias !11
  store i64 %26, i64* %_M_allocated_capacity.i.i.i.i.i.i, align 8, !tbaa !21, !alias.scope !11
  br label %if.end6.i.i.i.i.i

if.end6.i.i.i.i.i:                                ; preds = %if.then4.i.i.i.i.i, %if.end12
  %27 = phi i8* [ %call5.i.i.i12.i.i, %if.then4.i.i.i.i.i ], [ %20, %if.end12 ]
  switch i64 %25, label %if.end.i.i.i.i.i.i.i.i [
    i64 1, label %if.then.i.i.i.i.i.i.i
    i64 0, label %_ZNSt7__cxx1112basic_stringIcSt11char_traitsIcESaIcEEC2ERKS4_.exit.i
  ]

if.then.i.i.i.i.i.i.i:                            ; preds = %if.end6.i.i.i.i.i
  %28 = load i8, i8* %24, align 1, !tbaa !21
  store i8 %28, i8* %27, align 1, !tbaa !21
  br label %_ZNSt7__cxx1112basic_stringIcSt11char_traitsIcESaIcEEC2ERKS4_.exit.i

if.end.i.i.i.i.i.i.i.i:                           ; preds = %if.end6.i.i.i.i.i
  call void @llvm.memcpy.p0i8.p0i8.i64(i8* align 1 %27, i8* align 1 %24, i64 %25, i1 false) #37
  br label %_ZNSt7__cxx1112basic_stringIcSt11char_traitsIcESaIcEEC2ERKS4_.exit.i

_ZNSt7__cxx1112basic_stringIcSt11char_traitsIcESaIcEEC2ERKS4_.exit.i: ; preds = %if.end.i.i.i.i.i.i.i.i, %if.then.i.i.i.i.i.i.i, %if.end6.i.i.i.i.i
  %29 = load i64, i64* %__dnew.i.i.i.i.i, align 8, !tbaa !20, !noalias !11
  store i64 %29, i64* %_M_string_length.i.i.i.i.i.i.i, align 8, !tbaa !19, !alias.scope !11
  %30 = load i8*, i8** %_M_p.i13.i.i.i.i.i, align 8, !tbaa !17, !alias.scope !11
  %arrayidx.i.i.i.i.i.i = getelementptr inbounds i8, i8* %30, i64 %29
  store i8 0, i8* %arrayidx.i.i.i.i.i.i, align 1, !tbaa !21
  call void @llvm.lifetime.end.p0i8(i64 8, i8* nonnull %19) #37, !noalias !11
  %call.i.i.i = call i64 @strlen(i8* nonnull dereferenceable(1) %arraydecay) #37, !noalias !11
  %31 = load i64, i64* %_M_string_length.i.i.i.i.i.i.i, align 8, !tbaa !19, !alias.scope !11
  %sub3.i.i.i = sub i64 4611686018427387903, %31
  %cmp.i.i.i = icmp ult i64 %sub3.i.i.i, %call.i.i.i
  br i1 %cmp.i.i.i, label %if.then.i.i.i, label %_ZNKSt7__cxx1112basic_stringIcSt11char_traitsIcESaIcEE15_M_check_lengthEmmPKc.exit.i.i

if.then.i.i.i:                                    ; preds = %_ZNSt7__cxx1112basic_stringIcSt11char_traitsIcESaIcEEC2ERKS4_.exit.i
  invoke void @_ZSt20__throw_length_errorPKc(i8* getelementptr inbounds ([21 x i8], [21 x i8]* @.str.106, i64 0, i64 0)) #39
          to label %.noexc.i unwind label %lpad.i.loopexit.split-lp

.noexc.i:                                         ; preds = %if.then.i.i.i
  unreachable

_ZNKSt7__cxx1112basic_stringIcSt11char_traitsIcESaIcEE15_M_check_lengthEmmPKc.exit.i.i: ; preds = %_ZNSt7__cxx1112basic_stringIcSt11char_traitsIcESaIcEEC2ERKS4_.exit.i
  %call2.i2.i = invoke nonnull align 8 dereferenceable(32) %"class.std::__cxx11::basic_string"* @_ZNSt7__cxx1112basic_stringIcSt11char_traitsIcESaIcEE9_M_appendEPKcm(%"class.std::__cxx11::basic_string"* nonnull dereferenceable(32) %ref.tmp, i8* nonnull %arraydecay, i64 %call.i.i.i)
          to label %_ZStplIcSt11char_traitsIcESaIcEENSt7__cxx1112basic_stringIT_T0_T1_EERKS8_PKS5_.exit unwind label %lpad.i.loopexit

lpad.i.loopexit:                                  ; preds = %_ZNKSt7__cxx1112basic_stringIcSt11char_traitsIcESaIcEE15_M_check_lengthEmmPKc.exit.i.i
  %lpad.loopexit189 = landingpad { i8*, i32 }
          cleanup
  br label %lpad.i

lpad.i.loopexit.split-lp:                         ; preds = %if.then.i.i.i
  %lpad.loopexit.split-lp190 = landingpad { i8*, i32 }
          cleanup
  br label %lpad.i

lpad.i:                                           ; preds = %lpad.i.loopexit.split-lp, %lpad.i.loopexit
  %lpad.phi191 = phi { i8*, i32 } [ %lpad.loopexit189, %lpad.i.loopexit ], [ %lpad.loopexit.split-lp190, %lpad.i.loopexit.split-lp ]
  %32 = load i8*, i8** %_M_p.i13.i.i.i.i.i, align 8, !tbaa !17, !alias.scope !11
  %cmp.i.i.i.i = icmp eq i8* %32, %20
  br i1 %cmp.i.i.i.i, label %_ZNSt7__cxx1112basic_stringIcSt11char_traitsIcESaIcEED2Ev.exit.i, label %if.then.i.i3.i

if.then.i.i3.i:                                   ; preds = %lpad.i
  call void @_ZdlPv(i8* %32) #37
  br label %_ZNSt7__cxx1112basic_stringIcSt11char_traitsIcESaIcEED2Ev.exit.i

_ZNSt7__cxx1112basic_stringIcSt11char_traitsIcESaIcEED2Ev.exit.i: ; preds = %if.then.i.i3.i, %lpad.i
  resume { i8*, i32 } %lpad.phi191

_ZStplIcSt11char_traitsIcESaIcEENSt7__cxx1112basic_stringIT_T0_T1_EERKS8_PKS5_.exit: ; preds = %_ZNKSt7__cxx1112basic_stringIcSt11char_traitsIcESaIcEE15_M_check_lengthEmmPKc.exit.i.i
  call void @llvm.experimental.noalias.scope.decl(metadata !22)
  %33 = load i64, i64* %_M_string_length.i.i.i.i.i.i.i, align 8, !tbaa !19, !noalias !22
  %cmp.i.i.i84 = icmp eq i64 %33, 4611686018427387903
  br i1 %cmp.i.i.i84, label %if.then.i.i.i85, label %_ZNSt7__cxx1112basic_stringIcSt11char_traitsIcESaIcEE6appendEPKc.exit.i

if.then.i.i.i85:                                  ; preds = %_ZStplIcSt11char_traitsIcESaIcEENSt7__cxx1112basic_stringIT_T0_T1_EERKS8_PKS5_.exit
  invoke void @_ZSt20__throw_length_errorPKc(i8* getelementptr inbounds ([21 x i8], [21 x i8]* @.str.106, i64 0, i64 0)) #39
          to label %.noexc unwind label %lpad.loopexit.split-lp193

.noexc:                                           ; preds = %if.then.i.i.i85
  unreachable

_ZNSt7__cxx1112basic_stringIcSt11char_traitsIcESaIcEE6appendEPKc.exit.i: ; preds = %_ZStplIcSt11char_traitsIcESaIcEENSt7__cxx1112basic_stringIT_T0_T1_EERKS8_PKS5_.exit
  %call2.i.i87 = invoke nonnull align 8 dereferenceable(32) %"class.std::__cxx11::basic_string"* @_ZNSt7__cxx1112basic_stringIcSt11char_traitsIcESaIcEE9_M_appendEPKcm(%"class.std::__cxx11::basic_string"* nonnull dereferenceable(32) %ref.tmp, i8* getelementptr inbounds ([2 x i8], [2 x i8]* @.str.3, i64 0, i64 0), i64 1)
          to label %call2.i.i.noexc unwind label %lpad.loopexit192

call2.i.i.noexc:                                  ; preds = %_ZNSt7__cxx1112basic_stringIcSt11char_traitsIcESaIcEE6appendEPKc.exit.i
  store %union.anon* %21, %union.anon** %22, align 8, !tbaa !14, !alias.scope !22
  %_M_p.i.i25.i.i = getelementptr inbounds %"class.std::__cxx11::basic_string", %"class.std::__cxx11::basic_string"* %call2.i.i87, i64 0, i32 0, i32 0
  %34 = load i8*, i8** %_M_p.i.i25.i.i, align 8, !tbaa !17
  %35 = getelementptr inbounds %"class.std::__cxx11::basic_string", %"class.std::__cxx11::basic_string"* %call2.i.i87, i64 0, i32 2
  %arraydecay.i.i.i.i = bitcast %union.anon* %35 to i8*
  %cmp.i.i2.i = icmp eq i8* %34, %arraydecay.i.i.i.i
  br i1 %cmp.i.i2.i, label %if.then.i.i, label %if.else.i.i

if.then.i.i:                                      ; preds = %call2.i.i.noexc
  call void @llvm.memcpy.p0i8.p0i8.i64(i8* nonnull align 8 dereferenceable(16) %arraydecay.i.i.i, i8* nonnull align 8 dereferenceable(16) %34, i64 16, i1 false) #37
  br label %invoke.cont

if.else.i.i:                                      ; preds = %call2.i.i.noexc
  store i8* %34, i8** %_M_p.i23.i.i, align 8, !tbaa !17, !alias.scope !22
  %_M_allocated_capacity.i.i = getelementptr inbounds %"class.std::__cxx11::basic_string", %"class.std::__cxx11::basic_string"* %call2.i.i87, i64 0, i32 2, i32 0
  %36 = load i64, i64* %_M_allocated_capacity.i.i, align 8, !tbaa !21
  store i64 %36, i64* %_M_allocated_capacity.i.i.i, align 8, !tbaa !21, !alias.scope !22
  br label %invoke.cont

invoke.cont:                                      ; preds = %if.else.i.i, %if.then.i.i
  %_M_string_length.i22.i.i = getelementptr inbounds %"class.std::__cxx11::basic_string", %"class.std::__cxx11::basic_string"* %call2.i.i87, i64 0, i32 1
  %37 = load i64, i64* %_M_string_length.i22.i.i, align 8, !tbaa !19
  store i64 %37, i64* %_M_string_length.i.i.i86, align 8, !tbaa !19, !alias.scope !22
  %38 = bitcast %"class.std::__cxx11::basic_string"* %call2.i.i87 to %union.anon**
  store %union.anon* %35, %union.anon** %38, align 8, !tbaa !17
  store i64 0, i64* %_M_string_length.i22.i.i, align 8, !tbaa !19
  store i8 0, i8* %arraydecay.i.i.i.i, align 8, !tbaa !21
  invoke void @_Z8getTestsRSt6vectorINSt7__cxx1112basic_stringIcSt11char_traitsIcESaIcEEESaIS5_EEPKcS5_(%"class.std::vector"* nonnull align 8 dereferenceable(24) %tests, i8* nonnull %15, %"class.std::__cxx11::basic_string"* nonnull %agg.tmp)
          to label %invoke.cont21 unwind label %lpad20

invoke.cont21:                                    ; preds = %invoke.cont
  %39 = load i8*, i8** %_M_p.i23.i.i, align 8, !tbaa !17
  %cmp.i.i.i93 = icmp eq i8* %39, %arraydecay.i.i.i
  br i1 %cmp.i.i.i93, label %_ZNSt7__cxx1112basic_stringIcSt11char_traitsIcESaIcEED2Ev.exit95, label %if.then.i.i94

if.then.i.i94:                                    ; preds = %invoke.cont21
  call void @_ZdlPv(i8* %39) #37
  br label %_ZNSt7__cxx1112basic_stringIcSt11char_traitsIcESaIcEED2Ev.exit95

_ZNSt7__cxx1112basic_stringIcSt11char_traitsIcESaIcEED2Ev.exit95: ; preds = %if.then.i.i94, %invoke.cont21
  %40 = load i8*, i8** %_M_p.i13.i.i.i.i.i, align 8, !tbaa !17
  %cmp.i.i.i98 = icmp eq i8* %40, %20
  br i1 %cmp.i.i.i98, label %_ZNSt7__cxx1112basic_stringIcSt11char_traitsIcESaIcEED2Ev.exit100, label %if.then.i.i99

if.then.i.i99:                                    ; preds = %_ZNSt7__cxx1112basic_stringIcSt11char_traitsIcESaIcEED2Ev.exit95
  call void @_ZdlPv(i8* %40) #37
  br label %_ZNSt7__cxx1112basic_stringIcSt11char_traitsIcESaIcEED2Ev.exit100

_ZNSt7__cxx1112basic_stringIcSt11char_traitsIcESaIcEED2Ev.exit100: ; preds = %if.then.i.i99, %_ZNSt7__cxx1112basic_stringIcSt11char_traitsIcESaIcEED2Ev.exit95
  call void @llvm.lifetime.end.p0i8(i64 32, i8* nonnull %16) #37
  call void @llvm.lifetime.end.p0i8(i64 1024, i8* nonnull %15) #37
  br label %while.cond.backedge

cleanup:                                          ; preds = %lor.lhs.false, %if.then4
  call void @llvm.lifetime.end.p0i8(i64 1024, i8* nonnull %15) #37
  br label %while.cond.backedge

lpad.loopexit192:                                 ; preds = %_ZNSt7__cxx1112basic_stringIcSt11char_traitsIcESaIcEE6appendEPKc.exit.i
  %lpad.loopexit194 = landingpad { i8*, i32 }
          cleanup
  br label %ehcleanup

lpad.loopexit.split-lp193:                        ; preds = %if.then.i.i.i85
  %lpad.loopexit.split-lp195 = landingpad { i8*, i32 }
          cleanup
  br label %ehcleanup

lpad20:                                           ; preds = %invoke.cont
  %41 = landingpad { i8*, i32 }
          cleanup
  %42 = load i8*, i8** %_M_p.i23.i.i, align 8, !tbaa !17
  %cmp.i.i.i103 = icmp eq i8* %42, %arraydecay.i.i.i
  br i1 %cmp.i.i.i103, label %ehcleanup, label %if.then.i.i104

if.then.i.i104:                                   ; preds = %lpad20
  call void @_ZdlPv(i8* %42) #37
  br label %ehcleanup

ehcleanup:                                        ; preds = %if.then.i.i104, %lpad20, %lpad.loopexit.split-lp193, %lpad.loopexit192
  %.pn79 = phi { i8*, i32 } [ %41, %lpad20 ], [ %41, %if.then.i.i104 ], [ %lpad.loopexit194, %lpad.loopexit192 ], [ %lpad.loopexit.split-lp195, %lpad.loopexit.split-lp193 ]
  %43 = load i8*, i8** %_M_p.i13.i.i.i.i.i, align 8, !tbaa !17
  %cmp.i.i.i108 = icmp eq i8* %43, %20
  br i1 %cmp.i.i.i108, label %_ZNSt7__cxx1112basic_stringIcSt11char_traitsIcESaIcEED2Ev.exit110, label %if.then.i.i109

if.then.i.i109:                                   ; preds = %ehcleanup
  call void @_ZdlPv(i8* %43) #37
  br label %_ZNSt7__cxx1112basic_stringIcSt11char_traitsIcESaIcEED2Ev.exit110

_ZNSt7__cxx1112basic_stringIcSt11char_traitsIcESaIcEED2Ev.exit110: ; preds = %if.then.i.i109, %ehcleanup
  call void @llvm.lifetime.end.p0i8(i64 32, i8* nonnull %16) #37
  call void @llvm.lifetime.end.p0i8(i64 1024, i8* nonnull %15) #37
  br label %ehcleanup57

if.else:                                          ; preds = %while.body
  call void @llvm.lifetime.start.p0i8(i64 32, i8* nonnull %0) #37
  %arraydecay26 = getelementptr inbounds %struct.dirent, %struct.dirent* %call2230, i64 0, i32 4, i64 0
  store %union.anon* %1, %union.anon** %2, align 8, !tbaa !14
  %call.i.i = call i64 @strlen(i8* nonnull dereferenceable(1) %arraydecay26) #37
  call void @llvm.lifetime.start.p0i8(i64 8, i8* nonnull %4) #37
  store i64 %call.i.i, i64* %__dnew.i.i.i.i, align 8, !tbaa !20
  %cmp3.i.i.i.i = icmp ugt i64 %call.i.i, 15
  br i1 %cmp3.i.i.i.i, label %if.then4.i.i.i.i, label %if.end6.i.i.i.i

if.then4.i.i.i.i:                                 ; preds = %if.else
  %call5.i.i.i9.i111 = call i8* @_ZNSt7__cxx1112basic_stringIcSt11char_traitsIcESaIcEE9_M_createERmm(%"class.std::__cxx11::basic_string"* nonnull dereferenceable(32) %ref.tmp24, i64* nonnull align 8 dereferenceable(8) %__dnew.i.i.i.i, i64 0)
  store i8* %call5.i.i.i9.i111, i8** %_M_p.i13.i.i.i.i, align 8, !tbaa !17
  %44 = load i64, i64* %__dnew.i.i.i.i, align 8, !tbaa !20
  store i64 %44, i64* %_M_allocated_capacity.i.i.i.i.i, align 8, !tbaa !21
  br label %if.end6.i.i.i.i

if.end6.i.i.i.i:                                  ; preds = %if.then4.i.i.i.i, %if.else
  %45 = phi i8* [ %call5.i.i.i9.i111, %if.then4.i.i.i.i ], [ %3, %if.else ]
  switch i64 %call.i.i, label %if.end.i.i.i.i.i.i.i [
    i64 1, label %if.then.i.i.i.i.i.i
    i64 0, label %invoke.cont29
  ]

if.then.i.i.i.i.i.i:                              ; preds = %if.end6.i.i.i.i
  %46 = load i8, i8* %arraydecay26, align 1, !tbaa !21
  store i8 %46, i8* %45, align 1, !tbaa !21
  br label %invoke.cont29

if.end.i.i.i.i.i.i.i:                             ; preds = %if.end6.i.i.i.i
  call void @llvm.memcpy.p0i8.p0i8.i64(i8* align 1 %45, i8* nonnull align 1 %arraydecay26, i64 %call.i.i, i1 false) #37
  br label %invoke.cont29

invoke.cont29:                                    ; preds = %if.end.i.i.i.i.i.i.i, %if.then.i.i.i.i.i.i, %if.end6.i.i.i.i
  %47 = load i64, i64* %__dnew.i.i.i.i, align 8, !tbaa !20
  store i64 %47, i64* %_M_string_length.i.i.i.i.i.i, align 8, !tbaa !19
  %48 = load i8*, i8** %_M_p.i13.i.i.i.i, align 8, !tbaa !17
  %arrayidx.i.i.i.i.i = getelementptr inbounds i8, i8* %48, i64 %47
  store i8 0, i8* %arrayidx.i.i.i.i.i, align 1, !tbaa !21
  call void @llvm.lifetime.end.p0i8(i64 8, i8* nonnull %4) #37
  call void @llvm.lifetime.start.p0i8(i64 32, i8* nonnull %5) #37
  store %union.anon* %6, %union.anon** %7, align 8, !tbaa !14
  store i32 1954051118, i32* %9, align 8
  store i64 4, i64* %_M_string_length.i.i.i.i.i.i122, align 8, !tbaa !19
  store i8 0, i8* %arrayidx.i.i.i.i.i123, align 4, !tbaa !21
  %49 = load i64, i64* %_M_string_length.i.i.i.i.i.i, align 8, !tbaa !19
  %cmp.i = icmp ult i64 %49, 4
  br i1 %cmp.i, label %_ZNSt7__cxx1112basic_stringIcSt11char_traitsIcESaIcEED2Ev.exit133, label %for.body.i.i.preheader.i.i

for.body.i.i.preheader.i.i:                       ; preds = %invoke.cont29
  %50 = load i8*, i8** %_M_p.i13.i.i.i.i, align 8, !tbaa !17, !noalias !25
  %add.ptr.i.i.i = getelementptr inbounds i8, i8* %50, i64 %49
  br label %for.body.i.i.i.i

for.body.i.i.i.i:                                 ; preds = %for.body.i.i.i.i, %for.body.i.i.preheader.i.i
  %agg.tmp2.sroa.0.0.i.i.i = phi i8* [ %add.ptr.i.i.i, %for.body.i.i.preheader.i.i ], [ %incdec.ptr.i9.i.i.i.i, %for.body.i.i.i.i ]
  %51 = phi i8* [ %arrayidx.i.i.i.i.i123, %for.body.i.i.preheader.i.i ], [ %incdec.ptr.i11.i.i.i.i, %for.body.i.i.i.i ]
  %incdec.ptr.i11.i.i.i.i = getelementptr inbounds i8, i8* %51, i64 -1
  %52 = load i8, i8* %incdec.ptr.i11.i.i.i.i, align 1, !tbaa !21
  %incdec.ptr.i9.i.i.i.i = getelementptr inbounds i8, i8* %agg.tmp2.sroa.0.0.i.i.i, i64 -1
  %53 = load i8, i8* %incdec.ptr.i9.i.i.i.i, align 1, !tbaa !21
  %cmp.i.i.i.i128 = icmp eq i8 %52, %53
  %cmp.i.i.not.i.i.i.i = icmp ne i8* %incdec.ptr.i11.i.i.i.i, %8
  %54 = and i1 %cmp.i.i.i.i128, %cmp.i.i.not.i.i.i.i
  br i1 %54, label %for.body.i.i.i.i, label %_ZNSt7__cxx1112basic_stringIcSt11char_traitsIcESaIcEED2Ev.exit133, !llvm.loop !28

_ZNSt7__cxx1112basic_stringIcSt11char_traitsIcESaIcEED2Ev.exit133: ; preds = %for.body.i.i.i.i, %invoke.cont29
  %retval.0.i = phi i1 [ false, %invoke.cont29 ], [ %cmp.i.i.i.i128, %for.body.i.i.i.i ]
  %.pre = load i8*, i8** %_M_p.i13.i.i.i.i, align 8, !tbaa !17
  call void @llvm.lifetime.end.p0i8(i64 32, i8* nonnull %5) #37
  %cmp.i.i.i136 = icmp eq i8* %.pre, %3
  br i1 %cmp.i.i.i136, label %_ZNSt7__cxx1112basic_stringIcSt11char_traitsIcESaIcEED2Ev.exit138, label %if.then.i.i137

if.then.i.i137:                                   ; preds = %_ZNSt7__cxx1112basic_stringIcSt11char_traitsIcESaIcEED2Ev.exit133
  call void @_ZdlPv(i8* %.pre) #37
  br label %_ZNSt7__cxx1112basic_stringIcSt11char_traitsIcESaIcEED2Ev.exit138

_ZNSt7__cxx1112basic_stringIcSt11char_traitsIcESaIcEED2Ev.exit138: ; preds = %if.then.i.i137, %_ZNSt7__cxx1112basic_stringIcSt11char_traitsIcESaIcEED2Ev.exit133
  call void @llvm.lifetime.end.p0i8(i64 32, i8* nonnull %0) #37
  br i1 %retval.0.i, label %if.then45, label %while.cond.backedge

if.then45:                                        ; preds = %_ZNSt7__cxx1112basic_stringIcSt11char_traitsIcESaIcEED2Ev.exit138
  call void @llvm.lifetime.start.p0i8(i64 32, i8* nonnull %10) #37
  call void @llvm.experimental.noalias.scope.decl(metadata !29)
  store %union.anon* %11, %union.anon** %12, align 8, !tbaa !14, !alias.scope !29
  %55 = load i8*, i8** %_M_p.i13.i.i140, align 8, !tbaa !17, !noalias !29
  %56 = load i64, i64* %_M_string_length.i.i.i141, align 8, !tbaa !19, !noalias !29
  call void @llvm.lifetime.start.p0i8(i64 8, i8* nonnull %13) #37, !noalias !29
  store i64 %56, i64* %__dnew.i.i.i.i.i139, align 8, !tbaa !20, !noalias !29
  %cmp3.i.i.i.i.i142 = icmp ugt i64 %56, 15
  br i1 %cmp3.i.i.i.i.i142, label %if.then4.i.i.i.i.i147, label %if.end6.i.i.i.i.i148

if.then4.i.i.i.i.i147:                            ; preds = %if.then45
  %call5.i.i.i12.i.i144 = call i8* @_ZNSt7__cxx1112basic_stringIcSt11char_traitsIcESaIcEE9_M_createERmm(%"class.std::__cxx11::basic_string"* nonnull dereferenceable(32) %ref.tmp46, i64* nonnull align 8 dereferenceable(8) %__dnew.i.i.i.i.i139, i64 0)
  store i8* %call5.i.i.i12.i.i144, i8** %_M_p.i13.i.i.i.i.i145, align 8, !tbaa !17, !alias.scope !29
  %57 = load i64, i64* %__dnew.i.i.i.i.i139, align 8, !tbaa !20, !noalias !29
  store i64 %57, i64* %_M_allocated_capacity.i.i.i.i.i.i146, align 8, !tbaa !21, !alias.scope !29
  br label %if.end6.i.i.i.i.i148

if.end6.i.i.i.i.i148:                             ; preds = %if.then4.i.i.i.i.i147, %if.then45
  %58 = phi i8* [ %call5.i.i.i12.i.i144, %if.then4.i.i.i.i.i147 ], [ %14, %if.then45 ]
  switch i64 %56, label %if.end.i.i.i.i.i.i.i.i150 [
    i64 1, label %if.then.i.i.i.i.i.i.i149
    i64 0, label %_ZNSt7__cxx1112basic_stringIcSt11char_traitsIcESaIcEEC2ERKS4_.exit.i157
  ]

if.then.i.i.i.i.i.i.i149:                         ; preds = %if.end6.i.i.i.i.i148
  %59 = load i8, i8* %55, align 1, !tbaa !21
  store i8 %59, i8* %58, align 1, !tbaa !21
  br label %_ZNSt7__cxx1112basic_stringIcSt11char_traitsIcESaIcEEC2ERKS4_.exit.i157

if.end.i.i.i.i.i.i.i.i150:                        ; preds = %if.end6.i.i.i.i.i148
  call void @llvm.memcpy.p0i8.p0i8.i64(i8* align 1 %58, i8* align 1 %55, i64 %56, i1 false) #37
  br label %_ZNSt7__cxx1112basic_stringIcSt11char_traitsIcESaIcEEC2ERKS4_.exit.i157

_ZNSt7__cxx1112basic_stringIcSt11char_traitsIcESaIcEEC2ERKS4_.exit.i157: ; preds = %if.end.i.i.i.i.i.i.i.i150, %if.then.i.i.i.i.i.i.i149, %if.end6.i.i.i.i.i148
  %60 = load i64, i64* %__dnew.i.i.i.i.i139, align 8, !tbaa !20, !noalias !29
  store i64 %60, i64* %_M_string_length.i.i.i.i.i.i.i152, align 8, !tbaa !19, !alias.scope !29
  %61 = load i8*, i8** %_M_p.i13.i.i.i.i.i145, align 8, !tbaa !17, !alias.scope !29
  %arrayidx.i.i.i.i.i.i153 = getelementptr inbounds i8, i8* %61, i64 %60
  store i8 0, i8* %arrayidx.i.i.i.i.i.i153, align 1, !tbaa !21
  call void @llvm.lifetime.end.p0i8(i64 8, i8* nonnull %13) #37, !noalias !29
  %call.i.i.i154 = call i64 @strlen(i8* nonnull dereferenceable(1) %arraydecay26) #37, !noalias !29
  %62 = load i64, i64* %_M_string_length.i.i.i.i.i.i.i152, align 8, !tbaa !19, !alias.scope !29
  %sub3.i.i.i155 = sub i64 4611686018427387903, %62
  %cmp.i.i.i156 = icmp ult i64 %sub3.i.i.i155, %call.i.i.i154
  br i1 %cmp.i.i.i156, label %if.then.i.i.i158, label %_ZNKSt7__cxx1112basic_stringIcSt11char_traitsIcESaIcEE15_M_check_lengthEmmPKc.exit.i.i161

if.then.i.i.i158:                                 ; preds = %_ZNSt7__cxx1112basic_stringIcSt11char_traitsIcESaIcEEC2ERKS4_.exit.i157
  invoke void @_ZSt20__throw_length_errorPKc(i8* getelementptr inbounds ([21 x i8], [21 x i8]* @.str.106, i64 0, i64 0)) #39
          to label %.noexc.i159 unwind label %lpad.i164.loopexit.split-lp

.noexc.i159:                                      ; preds = %if.then.i.i.i158
  unreachable

_ZNKSt7__cxx1112basic_stringIcSt11char_traitsIcESaIcEE15_M_check_lengthEmmPKc.exit.i.i161: ; preds = %_ZNSt7__cxx1112basic_stringIcSt11char_traitsIcESaIcEEC2ERKS4_.exit.i157
  %call2.i2.i160 = invoke nonnull align 8 dereferenceable(32) %"class.std::__cxx11::basic_string"* @_ZNSt7__cxx1112basic_stringIcSt11char_traitsIcESaIcEE9_M_appendEPKcm(%"class.std::__cxx11::basic_string"* nonnull dereferenceable(32) %ref.tmp46, i8* nonnull %arraydecay26, i64 %call.i.i.i154)
          to label %_ZStplIcSt11char_traitsIcESaIcEENSt7__cxx1112basic_stringIT_T0_T1_EERKS8_PKS5_.exit167 unwind label %lpad.i164.loopexit

lpad.i164.loopexit:                               ; preds = %_ZNKSt7__cxx1112basic_stringIcSt11char_traitsIcESaIcEE15_M_check_lengthEmmPKc.exit.i.i161
  %lpad.loopexit = landingpad { i8*, i32 }
          cleanup
  br label %lpad.i164

lpad.i164.loopexit.split-lp:                      ; preds = %if.then.i.i.i158
  %lpad.loopexit.split-lp = landingpad { i8*, i32 }
          cleanup
  br label %lpad.i164

lpad.i164:                                        ; preds = %lpad.i164.loopexit.split-lp, %lpad.i164.loopexit
  %lpad.phi = phi { i8*, i32 } [ %lpad.loopexit, %lpad.i164.loopexit ], [ %lpad.loopexit.split-lp, %lpad.i164.loopexit.split-lp ]
  %63 = load i8*, i8** %_M_p.i13.i.i.i.i.i145, align 8, !tbaa !17, !alias.scope !29
  %cmp.i.i.i.i163 = icmp eq i8* %63, %14
  br i1 %cmp.i.i.i.i163, label %_ZNSt7__cxx1112basic_stringIcSt11char_traitsIcESaIcEED2Ev.exit.i166, label %if.then.i.i3.i165

if.then.i.i3.i165:                                ; preds = %lpad.i164
  call void @_ZdlPv(i8* %63) #37
  br label %_ZNSt7__cxx1112basic_stringIcSt11char_traitsIcESaIcEED2Ev.exit.i166

_ZNSt7__cxx1112basic_stringIcSt11char_traitsIcESaIcEED2Ev.exit.i166: ; preds = %if.then.i.i3.i165, %lpad.i164
  resume { i8*, i32 } %lpad.phi

_ZStplIcSt11char_traitsIcESaIcEENSt7__cxx1112basic_stringIT_T0_T1_EERKS8_PKS5_.exit167: ; preds = %_ZNKSt7__cxx1112basic_stringIcSt11char_traitsIcESaIcEE15_M_check_lengthEmmPKc.exit.i.i161
  %64 = load %"class.std::__cxx11::basic_string"*, %"class.std::__cxx11::basic_string"** %_M_finish.i.i, align 8, !tbaa !32
  %65 = load %"class.std::__cxx11::basic_string"*, %"class.std::__cxx11::basic_string"** %_M_end_of_storage.i.i, align 8, !tbaa !34
  %cmp.not.i.i = icmp eq %"class.std::__cxx11::basic_string"* %64, %65
  br i1 %cmp.not.i.i, label %if.else.i.i172, label %if.then.i.i168

if.then.i.i168:                                   ; preds = %_ZStplIcSt11char_traitsIcESaIcEENSt7__cxx1112basic_stringIT_T0_T1_EERKS8_PKS5_.exit167
  %66 = getelementptr inbounds %"class.std::__cxx11::basic_string", %"class.std::__cxx11::basic_string"* %64, i64 0, i32 2
  %67 = bitcast %"class.std::__cxx11::basic_string"* %64 to %union.anon**
  store %union.anon* %66, %union.anon** %67, align 8, !tbaa !14
  %68 = load i8*, i8** %_M_p.i13.i.i.i.i.i145, align 8, !tbaa !17
  %cmp.i.i.i.i.i.i = icmp eq i8* %68, %14
  br i1 %cmp.i.i.i.i.i.i, label %if.then.i.i.i.i.i, label %if.else.i.i.i.i.i

if.then.i.i.i.i.i:                                ; preds = %if.then.i.i168
  %arraydecay.i.i.i.i.i.i = bitcast %union.anon* %66 to i8*
  call void @llvm.memcpy.p0i8.p0i8.i64(i8* nonnull align 1 dereferenceable(16) %arraydecay.i.i.i.i.i.i, i8* nonnull align 8 dereferenceable(16) %14, i64 16, i1 false) #37
  br label %invoke.cont50.thread

if.else.i.i.i.i.i:                                ; preds = %if.then.i.i168
  %_M_p.i23.i.i.i.i.i = getelementptr inbounds %"class.std::__cxx11::basic_string", %"class.std::__cxx11::basic_string"* %64, i64 0, i32 0, i32 0
  store i8* %68, i8** %_M_p.i23.i.i.i.i.i, align 8, !tbaa !17
  %69 = load i64, i64* %_M_allocated_capacity.i.i.i.i.i.i146, align 8, !tbaa !21
  %_M_allocated_capacity.i.i.i.i.i.i170 = getelementptr inbounds %"class.std::__cxx11::basic_string", %"class.std::__cxx11::basic_string"* %64, i64 0, i32 2, i32 0
  store i64 %69, i64* %_M_allocated_capacity.i.i.i.i.i.i170, align 8, !tbaa !21
  br label %invoke.cont50.thread

invoke.cont50.thread:                             ; preds = %if.else.i.i.i.i.i, %if.then.i.i.i.i.i
  %70 = load i64, i64* %_M_string_length.i.i.i.i.i.i.i152, align 8, !tbaa !19
  %_M_string_length.i.i.i.i.i.i171 = getelementptr inbounds %"class.std::__cxx11::basic_string", %"class.std::__cxx11::basic_string"* %64, i64 0, i32 1
  store i64 %70, i64* %_M_string_length.i.i.i.i.i.i171, align 8, !tbaa !19
  %71 = load %"class.std::__cxx11::basic_string"*, %"class.std::__cxx11::basic_string"** %_M_finish.i.i, align 8, !tbaa !32
  %incdec.ptr.i.i = getelementptr inbounds %"class.std::__cxx11::basic_string", %"class.std::__cxx11::basic_string"* %71, i64 1
  store %"class.std::__cxx11::basic_string"* %incdec.ptr.i.i, %"class.std::__cxx11::basic_string"** %_M_finish.i.i, align 8, !tbaa !32
  br label %_ZNSt7__cxx1112basic_stringIcSt11char_traitsIcESaIcEED2Ev.exit178

if.else.i.i172:                                   ; preds = %_ZStplIcSt11char_traitsIcESaIcEENSt7__cxx1112basic_stringIT_T0_T1_EERKS8_PKS5_.exit167
  invoke void @_ZNSt6vectorINSt7__cxx1112basic_stringIcSt11char_traitsIcESaIcEEESaIS5_EE17_M_realloc_insertIJS5_EEEvN9__gnu_cxx17__normal_iteratorIPS5_S7_EEDpOT_(%"class.std::vector"* nonnull dereferenceable(24) %tests, %"class.std::__cxx11::basic_string"* %64, %"class.std::__cxx11::basic_string"* nonnull align 8 dereferenceable(32) %ref.tmp46)
          to label %invoke.cont50 unwind label %lpad49

invoke.cont50:                                    ; preds = %if.else.i.i172
  %.pre231 = load i8*, i8** %_M_p.i13.i.i.i.i.i145, align 8, !tbaa !17
  %cmp.i.i.i176 = icmp eq i8* %.pre231, %14
  br i1 %cmp.i.i.i176, label %_ZNSt7__cxx1112basic_stringIcSt11char_traitsIcESaIcEED2Ev.exit178, label %if.then.i.i177

if.then.i.i177:                                   ; preds = %invoke.cont50
  call void @_ZdlPv(i8* %.pre231) #37
  br label %_ZNSt7__cxx1112basic_stringIcSt11char_traitsIcESaIcEED2Ev.exit178

_ZNSt7__cxx1112basic_stringIcSt11char_traitsIcESaIcEED2Ev.exit178: ; preds = %if.then.i.i177, %invoke.cont50, %invoke.cont50.thread
  call void @llvm.lifetime.end.p0i8(i64 32, i8* nonnull %10) #37
  br label %while.cond.backedge

lpad49:                                           ; preds = %if.else.i.i172
  %72 = landingpad { i8*, i32 }
          cleanup
  %73 = load i8*, i8** %_M_p.i13.i.i.i.i.i145, align 8, !tbaa !17
  %cmp.i.i.i89 = icmp eq i8* %73, %14
  br i1 %cmp.i.i.i89, label %_ZNSt7__cxx1112basic_stringIcSt11char_traitsIcESaIcEED2Ev.exit, label %if.then.i.i90

if.then.i.i90:                                    ; preds = %lpad49
  call void @_ZdlPv(i8* %73) #37
  br label %_ZNSt7__cxx1112basic_stringIcSt11char_traitsIcESaIcEED2Ev.exit

_ZNSt7__cxx1112basic_stringIcSt11char_traitsIcESaIcEED2Ev.exit: ; preds = %if.then.i.i90, %lpad49
  call void @llvm.lifetime.end.p0i8(i64 32, i8* nonnull %10) #37
  br label %ehcleanup57

while.cond.backedge:                              ; preds = %_ZNSt7__cxx1112basic_stringIcSt11char_traitsIcESaIcEED2Ev.exit178, %_ZNSt7__cxx1112basic_stringIcSt11char_traitsIcESaIcEED2Ev.exit138, %cleanup, %_ZNSt7__cxx1112basic_stringIcSt11char_traitsIcESaIcEED2Ev.exit100
  %call2 = call %struct.dirent* @readdir(%struct.__dirstream* nonnull %call)
  %cmp.not = icmp eq %struct.dirent* %call2, null
  br i1 %cmp.not, label %while.end, label %while.body, !llvm.loop !8

while.end:                                        ; preds = %while.cond.backedge, %while.cond.preheader
  %call55 = call i32 @closedir(%struct.__dirstream* nonnull %call)
  br label %cleanup56

cleanup56:                                        ; preds = %while.end, %entry
  ret void

ehcleanup57:                                      ; preds = %_ZNSt7__cxx1112basic_stringIcSt11char_traitsIcESaIcEED2Ev.exit, %_ZNSt7__cxx1112basic_stringIcSt11char_traitsIcESaIcEED2Ev.exit110
  %.pn79.pn = phi { i8*, i32 } [ %.pn79, %_ZNSt7__cxx1112basic_stringIcSt11char_traitsIcESaIcEED2Ev.exit110 ], [ %72, %_ZNSt7__cxx1112basic_stringIcSt11char_traitsIcESaIcEED2Ev.exit ]
  resume { i8*, i32 } %.pn79.pn
}

; Function Attrs: argmemonly nofree nosync nounwind willreturn
declare void @llvm.lifetime.start.p0i8(i64 immarg, i8* nocapture) #1

; Function Attrs: nofree nounwind
declare dso_local noalias noundef %struct.__dirstream* @opendir(i8* nocapture noundef readonly) local_unnamed_addr #2

declare dso_local %struct.dirent* @readdir(%struct.__dirstream*) local_unnamed_addr #3

; Function Attrs: argmemonly nofree nounwind readonly willreturn
declare dso_local i32 @strcmp(i8* nocapture, i8* nocapture) local_unnamed_addr #4

; Function Attrs: nofree nounwind
declare dso_local noundef i32 @snprintf(i8* noalias nocapture noundef writeonly, i64 noundef, i8* nocapture noundef readonly, ...) local_unnamed_addr #2

declare dso_local i32 @__gxx_personality_v0(...)

; Function Attrs: nounwind uwtable
declare dso_local void @_ZNSt7__cxx1112basic_stringIcSt11char_traitsIcESaIcEED2Ev(%"class.std::__cxx11::basic_string"* nonnull dereferenceable(32)) unnamed_addr #5 align 2

; Function Attrs: argmemonly nofree nosync nounwind willreturn
declare void @llvm.lifetime.end.p0i8(i64 immarg, i8* nocapture) #1

; Function Attrs: nofree nounwind
declare dso_local noundef i32 @closedir(%struct.__dirstream* nocapture noundef) local_unnamed_addr #2

; Function Attrs: nounwind uwtable mustprogress
define dso_local i64 @_Z15find_last_slashRKNSt7__cxx1112basic_stringIcSt11char_traitsIcESaIcEEE(%"class.std::__cxx11::basic_string"* nonnull align 8 dereferenceable(32) %filepath) local_unnamed_addr #6 {
entry:
  %call2.i = tail call i64 @_ZNKSt7__cxx1112basic_stringIcSt11char_traitsIcESaIcEE12find_last_ofEPKcmm(%"class.std::__cxx11::basic_string"* nonnull dereferenceable(32) %filepath, i8* getelementptr inbounds ([3 x i8], [3 x i8]* @.str.5, i64 0, i64 0), i64 -1, i64 2) #37
  ret i64 %call2.i
}

; Function Attrs: uwtable
define dso_local void @_Z20filepath_to_basenameRKNSt7__cxx1112basic_stringIcSt11char_traitsIcESaIcEEE(%"class.std::__cxx11::basic_string"* noalias sret(%"class.std::__cxx11::basic_string") align 8 %agg.result, %"class.std::__cxx11::basic_string"* nonnull align 8 dereferenceable(32) %filepath) local_unnamed_addr #0 personality i8* bitcast (i32 (...)* @__gxx_personality_v0 to i8*) {
entry:
  %__dnew.i.i.i.i.i33 = alloca i64, align 8
  %__dnew.i.i.i.i16 = alloca i64, align 8
  %__dnew.i.i.i.i.i = alloca i64, align 8
  %__dnew.i.i.i.i = alloca i64, align 8
  %filename = alloca %"class.std::__cxx11::basic_string", align 8
  %call2.i.i = tail call i64 @_ZNKSt7__cxx1112basic_stringIcSt11char_traitsIcESaIcEE12find_last_ofEPKcmm(%"class.std::__cxx11::basic_string"* nonnull dereferenceable(32) %filepath, i8* getelementptr inbounds ([3 x i8], [3 x i8]* @.str.5, i64 0, i64 0), i64 -1, i64 2) #37
  %0 = bitcast %"class.std::__cxx11::basic_string"* %filename to i8*
  call void @llvm.lifetime.start.p0i8(i64 32, i8* nonnull %0) #37
  %cmp = icmp eq i64 %call2.i.i, -1
  br i1 %cmp, label %cond.true, label %cond.false

cond.true:                                        ; preds = %entry
  %1 = getelementptr inbounds %"class.std::__cxx11::basic_string", %"class.std::__cxx11::basic_string"* %filename, i64 0, i32 2
  %2 = bitcast %"class.std::__cxx11::basic_string"* %filename to %union.anon**
  store %union.anon* %1, %union.anon** %2, align 8, !tbaa !14
  %_M_p.i13.i = getelementptr inbounds %"class.std::__cxx11::basic_string", %"class.std::__cxx11::basic_string"* %filepath, i64 0, i32 0, i32 0
  %3 = load i8*, i8** %_M_p.i13.i, align 8, !tbaa !17
  %_M_string_length.i.i = getelementptr inbounds %"class.std::__cxx11::basic_string", %"class.std::__cxx11::basic_string"* %filepath, i64 0, i32 1
  %4 = load i64, i64* %_M_string_length.i.i, align 8, !tbaa !19
  %5 = bitcast i64* %__dnew.i.i.i.i to i8*
  call void @llvm.lifetime.start.p0i8(i64 8, i8* nonnull %5) #37
  store i64 %4, i64* %__dnew.i.i.i.i, align 8, !tbaa !20
  %cmp3.i.i.i.i = icmp ugt i64 %4, 15
  br i1 %cmp3.i.i.i.i, label %if.then4.i.i.i.i, label %if.end.if.end6_crit_edge.i.i.i.i

if.end.if.end6_crit_edge.i.i.i.i:                 ; preds = %cond.true
  %6 = bitcast %union.anon* %1 to i8*
  br label %if.end6.i.i.i.i

if.then4.i.i.i.i:                                 ; preds = %cond.true
  %call5.i.i.i12.i = call i8* @_ZNSt7__cxx1112basic_stringIcSt11char_traitsIcESaIcEE9_M_createERmm(%"class.std::__cxx11::basic_string"* nonnull dereferenceable(32) %filename, i64* nonnull align 8 dereferenceable(8) %__dnew.i.i.i.i, i64 0)
  %_M_p.i13.i.i.i.i = getelementptr inbounds %"class.std::__cxx11::basic_string", %"class.std::__cxx11::basic_string"* %filename, i64 0, i32 0, i32 0
  store i8* %call5.i.i.i12.i, i8** %_M_p.i13.i.i.i.i, align 8, !tbaa !17
  %7 = load i64, i64* %__dnew.i.i.i.i, align 8, !tbaa !20
  %_M_allocated_capacity.i.i.i.i.i = getelementptr inbounds %"class.std::__cxx11::basic_string", %"class.std::__cxx11::basic_string"* %filename, i64 0, i32 2, i32 0
  store i64 %7, i64* %_M_allocated_capacity.i.i.i.i.i, align 8, !tbaa !21
  br label %if.end6.i.i.i.i

if.end6.i.i.i.i:                                  ; preds = %if.then4.i.i.i.i, %if.end.if.end6_crit_edge.i.i.i.i
  %8 = phi i8* [ %6, %if.end.if.end6_crit_edge.i.i.i.i ], [ %call5.i.i.i12.i, %if.then4.i.i.i.i ]
  switch i64 %4, label %if.end.i.i.i.i.i.i.i [
    i64 1, label %if.then.i.i.i.i.i.i
    i64 0, label %_ZNSt7__cxx1112basic_stringIcSt11char_traitsIcESaIcEEC2ERKS4_.exit
  ]

if.then.i.i.i.i.i.i:                              ; preds = %if.end6.i.i.i.i
  %9 = load i8, i8* %3, align 1, !tbaa !21
  store i8 %9, i8* %8, align 1, !tbaa !21
  br label %_ZNSt7__cxx1112basic_stringIcSt11char_traitsIcESaIcEEC2ERKS4_.exit

if.end.i.i.i.i.i.i.i:                             ; preds = %if.end6.i.i.i.i
  call void @llvm.memcpy.p0i8.p0i8.i64(i8* align 1 %8, i8* align 1 %3, i64 %4, i1 false) #37
  br label %_ZNSt7__cxx1112basic_stringIcSt11char_traitsIcESaIcEEC2ERKS4_.exit

_ZNSt7__cxx1112basic_stringIcSt11char_traitsIcESaIcEEC2ERKS4_.exit: ; preds = %if.end.i.i.i.i.i.i.i, %if.then.i.i.i.i.i.i, %if.end6.i.i.i.i
  %_M_p.i.i.i.i.i = getelementptr inbounds %"class.std::__cxx11::basic_string", %"class.std::__cxx11::basic_string"* %filename, i64 0, i32 0, i32 0
  %10 = load i64, i64* %__dnew.i.i.i.i, align 8, !tbaa !20
  %_M_string_length.i.i.i.i.i.i = getelementptr inbounds %"class.std::__cxx11::basic_string", %"class.std::__cxx11::basic_string"* %filename, i64 0, i32 1
  store i64 %10, i64* %_M_string_length.i.i.i.i.i.i, align 8, !tbaa !19
  %11 = load i8*, i8** %_M_p.i.i.i.i.i, align 8, !tbaa !17
  %arrayidx.i.i.i.i.i = getelementptr inbounds i8, i8* %11, i64 %10
  store i8 0, i8* %arrayidx.i.i.i.i.i, align 1, !tbaa !21
  call void @llvm.lifetime.end.p0i8(i64 8, i8* nonnull %5) #37
  br label %cond.end

cond.false:                                       ; preds = %entry
  %add = add nuw i64 %call2.i.i, 1
  tail call void @llvm.experimental.noalias.scope.decl(metadata !35)
  %_M_string_length.i.i.i = getelementptr inbounds %"class.std::__cxx11::basic_string", %"class.std::__cxx11::basic_string"* %filepath, i64 0, i32 1
  %12 = load i64, i64* %_M_string_length.i.i.i, align 8, !tbaa !19, !noalias !35
  %cmp.i.i.not = icmp ugt i64 %12, %call2.i.i
  br i1 %cmp.i.i.not, label %invoke.cont4.i.i, label %if.then.i.i

if.then.i.i:                                      ; preds = %cond.false
  tail call void (i8*, ...) @_ZSt24__throw_out_of_range_fmtPKcz(i8* getelementptr inbounds ([55 x i8], [55 x i8]* @.str.110, i64 0, i64 0), i8* getelementptr inbounds ([21 x i8], [21 x i8]* @.str.109, i64 0, i64 0), i64 %add, i64 %12) #39
  unreachable

invoke.cont4.i.i:                                 ; preds = %cond.false
  %13 = getelementptr inbounds %"class.std::__cxx11::basic_string", %"class.std::__cxx11::basic_string"* %filename, i64 0, i32 2
  %14 = bitcast %"class.std::__cxx11::basic_string"* %filename to %union.anon**
  store %union.anon* %13, %union.anon** %14, align 8, !tbaa !14, !alias.scope !35
  %15 = bitcast %union.anon* %13 to i8*
  %_M_p.i20.i.i = getelementptr inbounds %"class.std::__cxx11::basic_string", %"class.std::__cxx11::basic_string"* %filepath, i64 0, i32 0, i32 0
  %16 = load i8*, i8** %_M_p.i20.i.i, align 8, !tbaa !17, !noalias !35
  %add.ptr.i.i = getelementptr inbounds i8, i8* %16, i64 %add
  %sub.i.i.i = sub i64 %12, %add
  %17 = bitcast i64* %__dnew.i.i.i.i.i to i8*
  call void @llvm.lifetime.start.p0i8(i64 8, i8* nonnull %17) #37, !noalias !35
  store i64 %sub.i.i.i, i64* %__dnew.i.i.i.i.i, align 8, !tbaa !20, !noalias !35
  %cmp3.i.i.i.i.i = icmp ugt i64 %sub.i.i.i, 15
  br i1 %cmp3.i.i.i.i.i, label %if.then4.i.i.i.i.i, label %if.end6.i.i.i.i.i

if.then4.i.i.i.i.i:                               ; preds = %invoke.cont4.i.i
  %call5.i.i.i16.i.i = call i8* @_ZNSt7__cxx1112basic_stringIcSt11char_traitsIcESaIcEE9_M_createERmm(%"class.std::__cxx11::basic_string"* nonnull dereferenceable(32) %filename, i64* nonnull align 8 dereferenceable(8) %__dnew.i.i.i.i.i, i64 0)
  %_M_p.i13.i.i.i.i.i = getelementptr inbounds %"class.std::__cxx11::basic_string", %"class.std::__cxx11::basic_string"* %filename, i64 0, i32 0, i32 0
  store i8* %call5.i.i.i16.i.i, i8** %_M_p.i13.i.i.i.i.i, align 8, !tbaa !17, !alias.scope !35
  %18 = load i64, i64* %__dnew.i.i.i.i.i, align 8, !tbaa !20, !noalias !35
  %_M_allocated_capacity.i.i.i.i.i.i = getelementptr inbounds %"class.std::__cxx11::basic_string", %"class.std::__cxx11::basic_string"* %filename, i64 0, i32 2, i32 0
  store i64 %18, i64* %_M_allocated_capacity.i.i.i.i.i.i, align 8, !tbaa !21, !alias.scope !35
  br label %if.end6.i.i.i.i.i

if.end6.i.i.i.i.i:                                ; preds = %if.then4.i.i.i.i.i, %invoke.cont4.i.i
  %19 = phi i8* [ %call5.i.i.i16.i.i, %if.then4.i.i.i.i.i ], [ %15, %invoke.cont4.i.i ]
  switch i64 %sub.i.i.i, label %if.end.i.i.i.i.i.i.i.i [
    i64 1, label %if.then.i.i.i.i.i.i.i
    i64 0, label %_ZNKSt7__cxx1112basic_stringIcSt11char_traitsIcESaIcEE6substrEmm.exit
  ]

if.then.i.i.i.i.i.i.i:                            ; preds = %if.end6.i.i.i.i.i
  %20 = load i8, i8* %add.ptr.i.i, align 1, !tbaa !21
  store i8 %20, i8* %19, align 1, !tbaa !21
  br label %_ZNKSt7__cxx1112basic_stringIcSt11char_traitsIcESaIcEE6substrEmm.exit

if.end.i.i.i.i.i.i.i.i:                           ; preds = %if.end6.i.i.i.i.i
  call void @llvm.memcpy.p0i8.p0i8.i64(i8* align 1 %19, i8* align 1 %add.ptr.i.i, i64 %sub.i.i.i, i1 false) #37
  br label %_ZNKSt7__cxx1112basic_stringIcSt11char_traitsIcESaIcEE6substrEmm.exit

_ZNKSt7__cxx1112basic_stringIcSt11char_traitsIcESaIcEE6substrEmm.exit: ; preds = %if.end.i.i.i.i.i.i.i.i, %if.then.i.i.i.i.i.i.i, %if.end6.i.i.i.i.i
  %_M_p.i.i.i.i.i.i = getelementptr inbounds %"class.std::__cxx11::basic_string", %"class.std::__cxx11::basic_string"* %filename, i64 0, i32 0, i32 0
  %21 = load i64, i64* %__dnew.i.i.i.i.i, align 8, !tbaa !20, !noalias !35
  %_M_string_length.i.i.i.i.i.i.i = getelementptr inbounds %"class.std::__cxx11::basic_string", %"class.std::__cxx11::basic_string"* %filename, i64 0, i32 1
  store i64 %21, i64* %_M_string_length.i.i.i.i.i.i.i, align 8, !tbaa !19, !alias.scope !35
  %22 = load i8*, i8** %_M_p.i.i.i.i.i.i, align 8, !tbaa !17, !alias.scope !35
  %arrayidx.i.i.i.i.i.i = getelementptr inbounds i8, i8* %22, i64 %21
  store i8 0, i8* %arrayidx.i.i.i.i.i.i, align 1, !tbaa !21
  call void @llvm.lifetime.end.p0i8(i64 8, i8* nonnull %17) #37, !noalias !35
  br label %cond.end

cond.end:                                         ; preds = %_ZNKSt7__cxx1112basic_stringIcSt11char_traitsIcESaIcEE6substrEmm.exit, %_ZNSt7__cxx1112basic_stringIcSt11char_traitsIcESaIcEEC2ERKS4_.exit
  %call.i = call i64 @_ZNKSt7__cxx1112basic_stringIcSt11char_traitsIcESaIcEE5rfindEcm(%"class.std::__cxx11::basic_string"* nonnull dereferenceable(32) %filename, i8 signext 46, i64 -1) #37
  %cmp2 = icmp eq i64 %call.i, -1
  br i1 %cmp2, label %cond.true3, label %cond.false4

cond.true3:                                       ; preds = %cond.end
  %23 = getelementptr inbounds %"class.std::__cxx11::basic_string", %"class.std::__cxx11::basic_string"* %agg.result, i64 0, i32 2
  %24 = bitcast %"class.std::__cxx11::basic_string"* %agg.result to %union.anon**
  store %union.anon* %23, %union.anon** %24, align 8, !tbaa !14
  %_M_p.i13.i17 = getelementptr inbounds %"class.std::__cxx11::basic_string", %"class.std::__cxx11::basic_string"* %filename, i64 0, i32 0, i32 0
  %25 = load i8*, i8** %_M_p.i13.i17, align 8, !tbaa !17
  %_M_string_length.i.i18 = getelementptr inbounds %"class.std::__cxx11::basic_string", %"class.std::__cxx11::basic_string"* %filename, i64 0, i32 1
  %26 = load i64, i64* %_M_string_length.i.i18, align 8, !tbaa !19
  %27 = bitcast i64* %__dnew.i.i.i.i16 to i8*
  call void @llvm.lifetime.start.p0i8(i64 8, i8* nonnull %27) #37
  store i64 %26, i64* %__dnew.i.i.i.i16, align 8, !tbaa !20
  %cmp3.i.i.i.i19 = icmp ugt i64 %26, 15
  br i1 %cmp3.i.i.i.i19, label %if.then4.i.i.i.i24, label %if.end.if.end6_crit_edge.i.i.i.i20

if.end.if.end6_crit_edge.i.i.i.i20:               ; preds = %cond.true3
  %28 = bitcast %union.anon* %23 to i8*
  br label %if.end6.i.i.i.i25

if.then4.i.i.i.i24:                               ; preds = %cond.true3
  %call5.i.i.i12.i2131 = invoke i8* @_ZNSt7__cxx1112basic_stringIcSt11char_traitsIcESaIcEE9_M_createERmm(%"class.std::__cxx11::basic_string"* nonnull dereferenceable(32) %agg.result, i64* nonnull align 8 dereferenceable(8) %__dnew.i.i.i.i16, i64 0)
          to label %call5.i.i.i12.i21.noexc unwind label %lpad

call5.i.i.i12.i21.noexc:                          ; preds = %if.then4.i.i.i.i24
  %_M_p.i13.i.i.i.i22 = getelementptr inbounds %"class.std::__cxx11::basic_string", %"class.std::__cxx11::basic_string"* %agg.result, i64 0, i32 0, i32 0
  store i8* %call5.i.i.i12.i2131, i8** %_M_p.i13.i.i.i.i22, align 8, !tbaa !17
  %29 = load i64, i64* %__dnew.i.i.i.i16, align 8, !tbaa !20
  %_M_allocated_capacity.i.i.i.i.i23 = getelementptr inbounds %"class.std::__cxx11::basic_string", %"class.std::__cxx11::basic_string"* %agg.result, i64 0, i32 2, i32 0
  store i64 %29, i64* %_M_allocated_capacity.i.i.i.i.i23, align 8, !tbaa !21
  br label %if.end6.i.i.i.i25

if.end6.i.i.i.i25:                                ; preds = %call5.i.i.i12.i21.noexc, %if.end.if.end6_crit_edge.i.i.i.i20
  %30 = phi i8* [ %28, %if.end.if.end6_crit_edge.i.i.i.i20 ], [ %call5.i.i.i12.i2131, %call5.i.i.i12.i21.noexc ]
  switch i64 %26, label %if.end.i.i.i.i.i.i.i27 [
    i64 1, label %if.then.i.i.i.i.i.i26
    i64 0, label %_ZNSt7__cxx1112basic_stringIcSt11char_traitsIcESaIcEEC2ERKS4_.exit32
  ]

if.then.i.i.i.i.i.i26:                            ; preds = %if.end6.i.i.i.i25
  %31 = load i8, i8* %25, align 1, !tbaa !21
  store i8 %31, i8* %30, align 1, !tbaa !21
  br label %_ZNSt7__cxx1112basic_stringIcSt11char_traitsIcESaIcEEC2ERKS4_.exit32

if.end.i.i.i.i.i.i.i27:                           ; preds = %if.end6.i.i.i.i25
  call void @llvm.memcpy.p0i8.p0i8.i64(i8* align 1 %30, i8* align 1 %25, i64 %26, i1 false) #37
  br label %_ZNSt7__cxx1112basic_stringIcSt11char_traitsIcESaIcEEC2ERKS4_.exit32

_ZNSt7__cxx1112basic_stringIcSt11char_traitsIcESaIcEEC2ERKS4_.exit32: ; preds = %if.end.i.i.i.i.i.i.i27, %if.then.i.i.i.i.i.i26, %if.end6.i.i.i.i25
  %_M_p.i.i.i.i.i28 = getelementptr inbounds %"class.std::__cxx11::basic_string", %"class.std::__cxx11::basic_string"* %agg.result, i64 0, i32 0, i32 0
  %32 = load i64, i64* %__dnew.i.i.i.i16, align 8, !tbaa !20
  %_M_string_length.i.i.i.i.i.i29 = getelementptr inbounds %"class.std::__cxx11::basic_string", %"class.std::__cxx11::basic_string"* %agg.result, i64 0, i32 1
  store i64 %32, i64* %_M_string_length.i.i.i.i.i.i29, align 8, !tbaa !19
  %33 = load i8*, i8** %_M_p.i.i.i.i.i28, align 8, !tbaa !17
  %arrayidx.i.i.i.i.i30 = getelementptr inbounds i8, i8* %33, i64 %32
  store i8 0, i8* %arrayidx.i.i.i.i.i30, align 1, !tbaa !21
  call void @llvm.lifetime.end.p0i8(i64 8, i8* nonnull %27) #37
  br label %nrvo.skipdtor

cond.false4:                                      ; preds = %cond.end
  call void @llvm.experimental.noalias.scope.decl(metadata !38)
  %_M_string_length.i.i.i34 = getelementptr inbounds %"class.std::__cxx11::basic_string", %"class.std::__cxx11::basic_string"* %filename, i64 0, i32 1
  %34 = load i64, i64* %_M_string_length.i.i.i34, align 8, !tbaa !19, !noalias !38
  %35 = getelementptr inbounds %"class.std::__cxx11::basic_string", %"class.std::__cxx11::basic_string"* %agg.result, i64 0, i32 2
  %36 = bitcast %"class.std::__cxx11::basic_string"* %agg.result to %union.anon**
  store %union.anon* %35, %union.anon** %36, align 8, !tbaa !14, !alias.scope !38
  %37 = bitcast %union.anon* %35 to i8*
  %_M_p.i20.i.i35 = getelementptr inbounds %"class.std::__cxx11::basic_string", %"class.std::__cxx11::basic_string"* %filename, i64 0, i32 0, i32 0
  %38 = load i8*, i8** %_M_p.i20.i.i35, align 8, !tbaa !17, !noalias !38
  %cmp.i.i.i = icmp ugt i64 %34, %call.i
  %spec.select.i.i.i = select i1 %cmp.i.i.i, i64 %call.i, i64 %34
  %39 = bitcast i64* %__dnew.i.i.i.i.i33 to i8*
  call void @llvm.lifetime.start.p0i8(i64 8, i8* nonnull %39) #37, !noalias !38
  store i64 %spec.select.i.i.i, i64* %__dnew.i.i.i.i.i33, align 8, !tbaa !20, !noalias !38
  %cmp3.i.i.i.i.i36 = icmp ugt i64 %spec.select.i.i.i, 15
  br i1 %cmp3.i.i.i.i.i36, label %if.then4.i.i.i.i.i41, label %if.end6.i.i.i.i.i42

if.then4.i.i.i.i.i41:                             ; preds = %cond.false4
  %call5.i.i.i16.i.i3848 = invoke i8* @_ZNSt7__cxx1112basic_stringIcSt11char_traitsIcESaIcEE9_M_createERmm(%"class.std::__cxx11::basic_string"* nonnull dereferenceable(32) %agg.result, i64* nonnull align 8 dereferenceable(8) %__dnew.i.i.i.i.i33, i64 0)
          to label %call5.i.i.i16.i.i38.noexc unwind label %lpad

call5.i.i.i16.i.i38.noexc:                        ; preds = %if.then4.i.i.i.i.i41
  %_M_p.i13.i.i.i.i.i39 = getelementptr inbounds %"class.std::__cxx11::basic_string", %"class.std::__cxx11::basic_string"* %agg.result, i64 0, i32 0, i32 0
  store i8* %call5.i.i.i16.i.i3848, i8** %_M_p.i13.i.i.i.i.i39, align 8, !tbaa !17, !alias.scope !38
  %40 = load i64, i64* %__dnew.i.i.i.i.i33, align 8, !tbaa !20, !noalias !38
  %_M_allocated_capacity.i.i.i.i.i.i40 = getelementptr inbounds %"class.std::__cxx11::basic_string", %"class.std::__cxx11::basic_string"* %agg.result, i64 0, i32 2, i32 0
  store i64 %40, i64* %_M_allocated_capacity.i.i.i.i.i.i40, align 8, !tbaa !21, !alias.scope !38
  br label %if.end6.i.i.i.i.i42

if.end6.i.i.i.i.i42:                              ; preds = %call5.i.i.i16.i.i38.noexc, %cond.false4
  %41 = phi i8* [ %call5.i.i.i16.i.i3848, %call5.i.i.i16.i.i38.noexc ], [ %37, %cond.false4 ]
  switch i64 %spec.select.i.i.i, label %if.end.i.i.i.i.i.i.i.i44 [
    i64 1, label %if.then.i.i.i.i.i.i.i43
    i64 0, label %_ZNKSt7__cxx1112basic_stringIcSt11char_traitsIcESaIcEE6substrEmm.exit49
  ]

if.then.i.i.i.i.i.i.i43:                          ; preds = %if.end6.i.i.i.i.i42
  %42 = load i8, i8* %38, align 1, !tbaa !21
  store i8 %42, i8* %41, align 1, !tbaa !21
  br label %_ZNKSt7__cxx1112basic_stringIcSt11char_traitsIcESaIcEE6substrEmm.exit49

if.end.i.i.i.i.i.i.i.i44:                         ; preds = %if.end6.i.i.i.i.i42
  call void @llvm.memcpy.p0i8.p0i8.i64(i8* align 1 %41, i8* align 1 %38, i64 %spec.select.i.i.i, i1 false) #37
  br label %_ZNKSt7__cxx1112basic_stringIcSt11char_traitsIcESaIcEE6substrEmm.exit49

_ZNKSt7__cxx1112basic_stringIcSt11char_traitsIcESaIcEE6substrEmm.exit49: ; preds = %if.end.i.i.i.i.i.i.i.i44, %if.then.i.i.i.i.i.i.i43, %if.end6.i.i.i.i.i42
  %_M_p.i.i.i.i.i.i45 = getelementptr inbounds %"class.std::__cxx11::basic_string", %"class.std::__cxx11::basic_string"* %agg.result, i64 0, i32 0, i32 0
  %43 = load i64, i64* %__dnew.i.i.i.i.i33, align 8, !tbaa !20, !noalias !38
  %_M_string_length.i.i.i.i.i.i.i46 = getelementptr inbounds %"class.std::__cxx11::basic_string", %"class.std::__cxx11::basic_string"* %agg.result, i64 0, i32 1
  store i64 %43, i64* %_M_string_length.i.i.i.i.i.i.i46, align 8, !tbaa !19, !alias.scope !38
  %44 = load i8*, i8** %_M_p.i.i.i.i.i.i45, align 8, !tbaa !17, !alias.scope !38
  %arrayidx.i.i.i.i.i.i47 = getelementptr inbounds i8, i8* %44, i64 %43
  store i8 0, i8* %arrayidx.i.i.i.i.i.i47, align 1, !tbaa !21
  call void @llvm.lifetime.end.p0i8(i64 8, i8* nonnull %39) #37, !noalias !38
  br label %nrvo.skipdtor

lpad:                                             ; preds = %if.then4.i.i.i.i.i41, %if.then4.i.i.i.i24
  %45 = landingpad { i8*, i32 }
          cleanup
  %_M_p.i.i.i.i = getelementptr inbounds %"class.std::__cxx11::basic_string", %"class.std::__cxx11::basic_string"* %filename, i64 0, i32 0, i32 0
  %46 = load i8*, i8** %_M_p.i.i.i.i, align 8, !tbaa !17
  %47 = getelementptr inbounds %"class.std::__cxx11::basic_string", %"class.std::__cxx11::basic_string"* %filename, i64 0, i32 2
  %arraydecay.i.i.i.i = bitcast %union.anon* %47 to i8*
  %cmp.i.i.i50 = icmp eq i8* %46, %arraydecay.i.i.i.i
  br i1 %cmp.i.i.i50, label %_ZNSt7__cxx1112basic_stringIcSt11char_traitsIcESaIcEED2Ev.exit, label %if.then.i.i51

if.then.i.i51:                                    ; preds = %lpad
  call void @_ZdlPv(i8* %46) #37
  br label %_ZNSt7__cxx1112basic_stringIcSt11char_traitsIcESaIcEED2Ev.exit

_ZNSt7__cxx1112basic_stringIcSt11char_traitsIcESaIcEED2Ev.exit: ; preds = %if.then.i.i51, %lpad
  call void @llvm.lifetime.end.p0i8(i64 32, i8* nonnull %0) #37
  resume { i8*, i32 } %45

nrvo.skipdtor:                                    ; preds = %_ZNKSt7__cxx1112basic_stringIcSt11char_traitsIcESaIcEE6substrEmm.exit49, %_ZNSt7__cxx1112basic_stringIcSt11char_traitsIcESaIcEEC2ERKS4_.exit32
  %_M_p.i.i.i.i52 = getelementptr inbounds %"class.std::__cxx11::basic_string", %"class.std::__cxx11::basic_string"* %filename, i64 0, i32 0, i32 0
  %48 = load i8*, i8** %_M_p.i.i.i.i52, align 8, !tbaa !17
  %49 = getelementptr inbounds %"class.std::__cxx11::basic_string", %"class.std::__cxx11::basic_string"* %filename, i64 0, i32 2
  %arraydecay.i.i.i.i53 = bitcast %union.anon* %49 to i8*
  %cmp.i.i.i54 = icmp eq i8* %48, %arraydecay.i.i.i.i53
  br i1 %cmp.i.i.i54, label %_ZNSt7__cxx1112basic_stringIcSt11char_traitsIcESaIcEED2Ev.exit56, label %if.then.i.i55

if.then.i.i55:                                    ; preds = %nrvo.skipdtor
  call void @_ZdlPv(i8* %48) #37
  br label %_ZNSt7__cxx1112basic_stringIcSt11char_traitsIcESaIcEED2Ev.exit56

_ZNSt7__cxx1112basic_stringIcSt11char_traitsIcESaIcEED2Ev.exit56: ; preds = %if.then.i.i55, %nrvo.skipdtor
  call void @llvm.lifetime.end.p0i8(i64 32, i8* nonnull %0) #37
  ret void
}

; Function Attrs: uwtable
define dso_local void @_Z19filepath_to_dirnameRKNSt7__cxx1112basic_stringIcSt11char_traitsIcESaIcEEE(%"class.std::__cxx11::basic_string"* noalias sret(%"class.std::__cxx11::basic_string") align 8 %agg.result, %"class.std::__cxx11::basic_string"* nonnull align 8 dereferenceable(32) %filepath) local_unnamed_addr #0 personality i8* bitcast (i32 (...)* @__gxx_personality_v0 to i8*) {
entry:
  %__dnew.i.i.i.i.i = alloca i64, align 8
  %call2.i.i = tail call i64 @_ZNKSt7__cxx1112basic_stringIcSt11char_traitsIcESaIcEE12find_last_ofEPKcmm(%"class.std::__cxx11::basic_string"* nonnull dereferenceable(32) %filepath, i8* getelementptr inbounds ([3 x i8], [3 x i8]* @.str.5, i64 0, i64 0), i64 -1, i64 2) #37
  %cmp = icmp eq i64 %call2.i.i, -1
  br i1 %cmp, label %cond.true, label %cond.false

cond.true:                                        ; preds = %entry
  %0 = getelementptr inbounds %"class.std::__cxx11::basic_string", %"class.std::__cxx11::basic_string"* %agg.result, i64 0, i32 2
  %1 = bitcast %"class.std::__cxx11::basic_string"* %agg.result to %union.anon**
  store %union.anon* %0, %union.anon** %1, align 8, !tbaa !14
  %2 = bitcast %union.anon* %0 to i16*
  store i16 12078, i16* %2, align 8
  %_M_string_length.i.i.i.i.i.i = getelementptr inbounds %"class.std::__cxx11::basic_string", %"class.std::__cxx11::basic_string"* %agg.result, i64 0, i32 1
  store i64 2, i64* %_M_string_length.i.i.i.i.i.i, align 8, !tbaa !19
  %.cast = bitcast %union.anon* %0 to i8*
  %arrayidx.i.i.i.i.i = getelementptr inbounds i8, i8* %.cast, i64 2
  store i8 0, i8* %arrayidx.i.i.i.i.i, align 2, !tbaa !21
  br label %nrvo.skipdtor

cond.false:                                       ; preds = %entry
  %add = add nuw i64 %call2.i.i, 1
  tail call void @llvm.experimental.noalias.scope.decl(metadata !41)
  %_M_string_length.i.i.i = getelementptr inbounds %"class.std::__cxx11::basic_string", %"class.std::__cxx11::basic_string"* %filepath, i64 0, i32 1
  %3 = load i64, i64* %_M_string_length.i.i.i, align 8, !tbaa !19, !noalias !41
  %4 = getelementptr inbounds %"class.std::__cxx11::basic_string", %"class.std::__cxx11::basic_string"* %agg.result, i64 0, i32 2
  %5 = bitcast %"class.std::__cxx11::basic_string"* %agg.result to %union.anon**
  store %union.anon* %4, %union.anon** %5, align 8, !tbaa !14, !alias.scope !41
  %6 = bitcast %union.anon* %4 to i8*
  %_M_p.i20.i.i = getelementptr inbounds %"class.std::__cxx11::basic_string", %"class.std::__cxx11::basic_string"* %filepath, i64 0, i32 0, i32 0
  %7 = load i8*, i8** %_M_p.i20.i.i, align 8, !tbaa !17, !noalias !41
  %cmp.i.i.i = icmp ugt i64 %3, %add
  %spec.select.i.i.i = select i1 %cmp.i.i.i, i64 %add, i64 %3
  %8 = bitcast i64* %__dnew.i.i.i.i.i to i8*
  call void @llvm.lifetime.start.p0i8(i64 8, i8* nonnull %8) #37, !noalias !41
  store i64 %spec.select.i.i.i, i64* %__dnew.i.i.i.i.i, align 8, !tbaa !20, !noalias !41
  %cmp3.i.i.i.i.i = icmp ugt i64 %spec.select.i.i.i, 15
  br i1 %cmp3.i.i.i.i.i, label %if.then4.i.i.i.i.i, label %if.end6.i.i.i.i.i

if.then4.i.i.i.i.i:                               ; preds = %cond.false
  %call5.i.i.i16.i.i17 = call i8* @_ZNSt7__cxx1112basic_stringIcSt11char_traitsIcESaIcEE9_M_createERmm(%"class.std::__cxx11::basic_string"* nonnull dereferenceable(32) %agg.result, i64* nonnull align 8 dereferenceable(8) %__dnew.i.i.i.i.i, i64 0)
  %_M_p.i13.i.i.i.i.i = getelementptr inbounds %"class.std::__cxx11::basic_string", %"class.std::__cxx11::basic_string"* %agg.result, i64 0, i32 0, i32 0
  store i8* %call5.i.i.i16.i.i17, i8** %_M_p.i13.i.i.i.i.i, align 8, !tbaa !17, !alias.scope !41
  %9 = load i64, i64* %__dnew.i.i.i.i.i, align 8, !tbaa !20, !noalias !41
  %_M_allocated_capacity.i.i.i.i.i.i = getelementptr inbounds %"class.std::__cxx11::basic_string", %"class.std::__cxx11::basic_string"* %agg.result, i64 0, i32 2, i32 0
  store i64 %9, i64* %_M_allocated_capacity.i.i.i.i.i.i, align 8, !tbaa !21, !alias.scope !41
  br label %if.end6.i.i.i.i.i

if.end6.i.i.i.i.i:                                ; preds = %if.then4.i.i.i.i.i, %cond.false
  %10 = phi i8* [ %call5.i.i.i16.i.i17, %if.then4.i.i.i.i.i ], [ %6, %cond.false ]
  switch i64 %spec.select.i.i.i, label %if.end.i.i.i.i.i.i.i.i [
    i64 1, label %if.then.i.i.i.i.i.i.i
    i64 0, label %cond.end
  ]

if.then.i.i.i.i.i.i.i:                            ; preds = %if.end6.i.i.i.i.i
  %11 = load i8, i8* %7, align 1, !tbaa !21
  store i8 %11, i8* %10, align 1, !tbaa !21
  br label %cond.end

if.end.i.i.i.i.i.i.i.i:                           ; preds = %if.end6.i.i.i.i.i
  call void @llvm.memcpy.p0i8.p0i8.i64(i8* align 1 %10, i8* align 1 %7, i64 %spec.select.i.i.i, i1 false) #37
  br label %cond.end

cond.end:                                         ; preds = %if.end.i.i.i.i.i.i.i.i, %if.then.i.i.i.i.i.i.i, %if.end6.i.i.i.i.i
  %_M_p.i.i.i.i.i.i = getelementptr inbounds %"class.std::__cxx11::basic_string", %"class.std::__cxx11::basic_string"* %agg.result, i64 0, i32 0, i32 0
  %12 = load i64, i64* %__dnew.i.i.i.i.i, align 8, !tbaa !20, !noalias !41
  %_M_string_length.i.i.i.i.i.i.i = getelementptr inbounds %"class.std::__cxx11::basic_string", %"class.std::__cxx11::basic_string"* %agg.result, i64 0, i32 1
  store i64 %12, i64* %_M_string_length.i.i.i.i.i.i.i, align 8, !tbaa !19, !alias.scope !41
  %13 = load i8*, i8** %_M_p.i.i.i.i.i.i, align 8, !tbaa !17, !alias.scope !41
  %arrayidx.i.i.i.i.i.i = getelementptr inbounds i8, i8* %13, i64 %12
  store i8 0, i8* %arrayidx.i.i.i.i.i.i, align 1, !tbaa !21
  call void @llvm.lifetime.end.p0i8(i64 8, i8* nonnull %8) #37, !noalias !41
  br label %nrvo.skipdtor

nrvo.skipdtor:                                    ; preds = %cond.end, %cond.true
  ret void
}

declare dso_local void @_ZNSt8ios_base4InitC1Ev(%"class.std::ios_base::Init"* nonnull dereferenceable(1)) unnamed_addr #3

; Function Attrs: nounwind
declare dso_local void @_ZNSt8ios_base4InitD1Ev(%"class.std::ios_base::Init"* nonnull dereferenceable(1)) unnamed_addr #7

; Function Attrs: nofree nounwind
declare dso_local i32 @__cxa_atexit(void (i8*)*, i8*, i8*) local_unnamed_addr #8

; Function Attrs: norecurse nounwind readonly uwtable willreturn mustprogress
define dso_local float @_Z5tdiffP7timevalS0_(%struct.timeval* nocapture readonly %start, %struct.timeval* nocapture readonly %end) local_unnamed_addr #9 {
entry:
  %tv_sec = getelementptr inbounds %struct.timeval, %struct.timeval* %end, i64 0, i32 0
  %0 = load i64, i64* %tv_sec, align 8, !tbaa !44
  %tv_sec1 = getelementptr inbounds %struct.timeval, %struct.timeval* %start, i64 0, i32 0
  %1 = load i64, i64* %tv_sec1, align 8, !tbaa !44
  %sub = sub nsw i64 %0, %1
  %conv = sitofp i64 %sub to double
  %tv_usec = getelementptr inbounds %struct.timeval, %struct.timeval* %end, i64 0, i32 1
  %2 = load i64, i64* %tv_usec, align 8, !tbaa !46
  %tv_usec2 = getelementptr inbounds %struct.timeval, %struct.timeval* %start, i64 0, i32 1
  %3 = load i64, i64* %tv_usec2, align 8, !tbaa !46
  %sub3 = sub nsw i64 %2, %3
  %conv4 = sitofp i64 %sub3 to double
  %mul = fmul fast double %conv4, 0x3EB0C6F7A0B5ED8D
  %add = fadd fast double %mul, %conv
  %conv5 = fptrunc double %add to float
  ret float %conv5
}

; Function Attrs: uwtable mustprogress
define dso_local void @_Z18read_lstm_instanceRKNSt7__cxx1112basic_stringIcSt11char_traitsIcESaIcEEEPiS7_S7_RSt6vectorIdSaIdEESB_SB_SB_(%"class.std::__cxx11::basic_string"* nocapture nonnull readonly align 8 dereferenceable(32) %fn, i32* %l, i32* %c, i32* %b, %"class.std::vector.3"* nonnull align 8 dereferenceable(24) %main_params, %"class.std::vector.3"* nonnull align 8 dereferenceable(24) %extra_params, %"class.std::vector.3"* nonnull align 8 dereferenceable(24) %state, %"class.std::vector.3"* nonnull align 8 dereferenceable(24) %sequence) local_unnamed_addr #10 personality i32 (...)* @__gxx_personality_v0 {
entry:
  %_M_p.i.i = getelementptr inbounds %"class.std::__cxx11::basic_string", %"class.std::__cxx11::basic_string"* %fn, i64 0, i32 0, i32 0
  %0 = load i8*, i8** %_M_p.i.i, align 8, !tbaa !17
  %call1 = tail call %struct._IO_FILE* @fopen(i8* %0, i8* getelementptr inbounds ([2 x i8], [2 x i8]* @.str.7, i64 0, i64 0))
  %tobool.not = icmp eq %struct._IO_FILE* %call1, null
  br i1 %tobool.not, label %if.then, label %if.end

if.then:                                          ; preds = %entry
  %1 = load i8*, i8** %_M_p.i.i, align 8, !tbaa !17
  %call3 = tail call i32 (i8*, ...) @printf(i8* nonnull dereferenceable(1) getelementptr inbounds ([25 x i8], [25 x i8]* @.str.8, i64 0, i64 0), i8* %1)
  tail call void @exit(i32 1) #40
  unreachable

if.end:                                           ; preds = %entry
  %call4 = tail call i32 (%struct._IO_FILE*, i8*, ...) @__isoc99_fscanf(%struct._IO_FILE* nonnull %call1, i8* getelementptr inbounds ([9 x i8], [9 x i8]* @.str.9, i64 0, i64 0), i32* %l, i32* %c, i32* %b)
  %2 = load i32, i32* %l, align 4, !tbaa !47
  %3 = load i32, i32* %c, align 4, !tbaa !47
  %4 = load i32, i32* %b, align 4, !tbaa !47
  %mul = shl nsw i32 %2, 1
  %mul5 = shl nsw i32 %2, 3
  %mul6 = mul nsw i32 %4, %mul5
  %mul7 = mul i32 %4, 3
  %mul9 = mul nsw i32 %4, %mul
  %mul10 = mul i32 %4, %3
  %conv = sext i32 %mul6 to i64
  %_M_finish.i.i119 = getelementptr inbounds %"class.std::vector.3", %"class.std::vector.3"* %main_params, i64 0, i32 0, i32 0, i32 0, i32 1
  %5 = load double*, double** %_M_finish.i.i119, align 8, !tbaa !49
  %_M_start.i.i120 = getelementptr inbounds %"class.std::vector.3", %"class.std::vector.3"* %main_params, i64 0, i32 0, i32 0, i32 0, i32 0
  %6 = load double*, double** %_M_start.i.i120, align 8, !tbaa !51
  %sub.ptr.lhs.cast.i.i121 = ptrtoint double* %5 to i64
  %sub.ptr.rhs.cast.i.i122 = ptrtoint double* %6 to i64
  %sub.ptr.sub.i.i123 = sub i64 %sub.ptr.lhs.cast.i.i121, %sub.ptr.rhs.cast.i.i122
  %sub.ptr.div.i.i124 = ashr exact i64 %sub.ptr.sub.i.i123, 3
  %cmp.i125 = icmp ult i64 %sub.ptr.div.i.i124, %conv
  br i1 %cmp.i125, label %if.then.i127, label %if.else.i132

if.then.i127:                                     ; preds = %if.end
  %sub.i126 = sub nsw i64 %conv, %sub.ptr.div.i.i124
  tail call void @_ZNSt6vectorIdSaIdEE17_M_default_appendEm(%"class.std::vector.3"* nonnull dereferenceable(24) %main_params, i64 %sub.i126)
  br label %_ZNSt6vectorIdSaIdEE6resizeEm.exit134

if.else.i132:                                     ; preds = %if.end
  %cmp4.i128 = icmp ule i64 %sub.ptr.div.i.i124, %conv
  %add.ptr.i129 = getelementptr inbounds double, double* %6, i64 %conv
  %tobool.not.i.i130 = icmp eq double* %5, %add.ptr.i129
  %or.cond.i131 = or i1 %tobool.not.i.i130, %cmp4.i128
  br i1 %or.cond.i131, label %_ZNSt6vectorIdSaIdEE6resizeEm.exit134, label %invoke.cont.i.i133

invoke.cont.i.i133:                               ; preds = %if.else.i132
  store double* %add.ptr.i129, double** %_M_finish.i.i119, align 8, !tbaa !49
  br label %_ZNSt6vectorIdSaIdEE6resizeEm.exit134

_ZNSt6vectorIdSaIdEE6resizeEm.exit134:            ; preds = %invoke.cont.i.i133, %if.else.i132, %if.then.i127
  %conv11 = sext i32 %mul7 to i64
  %_M_finish.i.i135 = getelementptr inbounds %"class.std::vector.3", %"class.std::vector.3"* %extra_params, i64 0, i32 0, i32 0, i32 0, i32 1
  %7 = load double*, double** %_M_finish.i.i135, align 8, !tbaa !49
  %_M_start.i.i136 = getelementptr inbounds %"class.std::vector.3", %"class.std::vector.3"* %extra_params, i64 0, i32 0, i32 0, i32 0, i32 0
  %8 = load double*, double** %_M_start.i.i136, align 8, !tbaa !51
  %sub.ptr.lhs.cast.i.i137 = ptrtoint double* %7 to i64
  %sub.ptr.rhs.cast.i.i138 = ptrtoint double* %8 to i64
  %sub.ptr.sub.i.i139 = sub i64 %sub.ptr.lhs.cast.i.i137, %sub.ptr.rhs.cast.i.i138
  %sub.ptr.div.i.i140 = ashr exact i64 %sub.ptr.sub.i.i139, 3
  %cmp.i141 = icmp ult i64 %sub.ptr.div.i.i140, %conv11
  br i1 %cmp.i141, label %if.then.i143, label %if.else.i148

if.then.i143:                                     ; preds = %_ZNSt6vectorIdSaIdEE6resizeEm.exit134
  %sub.i142 = sub nsw i64 %conv11, %sub.ptr.div.i.i140
  tail call void @_ZNSt6vectorIdSaIdEE17_M_default_appendEm(%"class.std::vector.3"* nonnull dereferenceable(24) %extra_params, i64 %sub.i142)
  br label %_ZNSt6vectorIdSaIdEE6resizeEm.exit150

if.else.i148:                                     ; preds = %_ZNSt6vectorIdSaIdEE6resizeEm.exit134
  %cmp4.i144 = icmp ule i64 %sub.ptr.div.i.i140, %conv11
  %add.ptr.i145 = getelementptr inbounds double, double* %8, i64 %conv11
  %tobool.not.i.i146 = icmp eq double* %7, %add.ptr.i145
  %or.cond.i147 = or i1 %tobool.not.i.i146, %cmp4.i144
  br i1 %or.cond.i147, label %_ZNSt6vectorIdSaIdEE6resizeEm.exit150, label %invoke.cont.i.i149

invoke.cont.i.i149:                               ; preds = %if.else.i148
  store double* %add.ptr.i145, double** %_M_finish.i.i135, align 8, !tbaa !49
  br label %_ZNSt6vectorIdSaIdEE6resizeEm.exit150

_ZNSt6vectorIdSaIdEE6resizeEm.exit150:            ; preds = %invoke.cont.i.i149, %if.else.i148, %if.then.i143
  %conv12 = sext i32 %mul9 to i64
  %_M_finish.i.i103 = getelementptr inbounds %"class.std::vector.3", %"class.std::vector.3"* %state, i64 0, i32 0, i32 0, i32 0, i32 1
  %9 = load double*, double** %_M_finish.i.i103, align 8, !tbaa !49
  %_M_start.i.i104 = getelementptr inbounds %"class.std::vector.3", %"class.std::vector.3"* %state, i64 0, i32 0, i32 0, i32 0, i32 0
  %10 = load double*, double** %_M_start.i.i104, align 8, !tbaa !51
  %sub.ptr.lhs.cast.i.i105 = ptrtoint double* %9 to i64
  %sub.ptr.rhs.cast.i.i106 = ptrtoint double* %10 to i64
  %sub.ptr.sub.i.i107 = sub i64 %sub.ptr.lhs.cast.i.i105, %sub.ptr.rhs.cast.i.i106
  %sub.ptr.div.i.i108 = ashr exact i64 %sub.ptr.sub.i.i107, 3
  %cmp.i109 = icmp ult i64 %sub.ptr.div.i.i108, %conv12
  br i1 %cmp.i109, label %if.then.i111, label %if.else.i116

if.then.i111:                                     ; preds = %_ZNSt6vectorIdSaIdEE6resizeEm.exit150
  %sub.i110 = sub nsw i64 %conv12, %sub.ptr.div.i.i108
  tail call void @_ZNSt6vectorIdSaIdEE17_M_default_appendEm(%"class.std::vector.3"* nonnull dereferenceable(24) %state, i64 %sub.i110)
  br label %_ZNSt6vectorIdSaIdEE6resizeEm.exit118

if.else.i116:                                     ; preds = %_ZNSt6vectorIdSaIdEE6resizeEm.exit150
  %cmp4.i112 = icmp ule i64 %sub.ptr.div.i.i108, %conv12
  %add.ptr.i113 = getelementptr inbounds double, double* %10, i64 %conv12
  %tobool.not.i.i114 = icmp eq double* %9, %add.ptr.i113
  %or.cond.i115 = or i1 %tobool.not.i.i114, %cmp4.i112
  br i1 %or.cond.i115, label %_ZNSt6vectorIdSaIdEE6resizeEm.exit118, label %invoke.cont.i.i117

invoke.cont.i.i117:                               ; preds = %if.else.i116
  store double* %add.ptr.i113, double** %_M_finish.i.i103, align 8, !tbaa !49
  br label %_ZNSt6vectorIdSaIdEE6resizeEm.exit118

_ZNSt6vectorIdSaIdEE6resizeEm.exit118:            ; preds = %invoke.cont.i.i117, %if.else.i116, %if.then.i111
  %conv13 = sext i32 %mul10 to i64
  %_M_finish.i.i = getelementptr inbounds %"class.std::vector.3", %"class.std::vector.3"* %sequence, i64 0, i32 0, i32 0, i32 0, i32 1
  %11 = load double*, double** %_M_finish.i.i, align 8, !tbaa !49
  %_M_start.i.i = getelementptr inbounds %"class.std::vector.3", %"class.std::vector.3"* %sequence, i64 0, i32 0, i32 0, i32 0, i32 0
  %12 = load double*, double** %_M_start.i.i, align 8, !tbaa !51
  %sub.ptr.lhs.cast.i.i = ptrtoint double* %11 to i64
  %sub.ptr.rhs.cast.i.i = ptrtoint double* %12 to i64
  %sub.ptr.sub.i.i = sub i64 %sub.ptr.lhs.cast.i.i, %sub.ptr.rhs.cast.i.i
  %sub.ptr.div.i.i = ashr exact i64 %sub.ptr.sub.i.i, 3
  %cmp.i = icmp ult i64 %sub.ptr.div.i.i, %conv13
  br i1 %cmp.i, label %if.then.i, label %if.else.i

if.then.i:                                        ; preds = %_ZNSt6vectorIdSaIdEE6resizeEm.exit118
  %sub.i = sub nsw i64 %conv13, %sub.ptr.div.i.i
  tail call void @_ZNSt6vectorIdSaIdEE17_M_default_appendEm(%"class.std::vector.3"* nonnull dereferenceable(24) %sequence, i64 %sub.i)
  br label %_ZNSt6vectorIdSaIdEE6resizeEm.exit

if.else.i:                                        ; preds = %_ZNSt6vectorIdSaIdEE6resizeEm.exit118
  %cmp4.i = icmp ule i64 %sub.ptr.div.i.i, %conv13
  %add.ptr.i101 = getelementptr inbounds double, double* %12, i64 %conv13
  %tobool.not.i.i = icmp eq double* %11, %add.ptr.i101
  %or.cond.i = or i1 %tobool.not.i.i, %cmp4.i
  br i1 %or.cond.i, label %_ZNSt6vectorIdSaIdEE6resizeEm.exit, label %invoke.cont.i.i

invoke.cont.i.i:                                  ; preds = %if.else.i
  store double* %add.ptr.i101, double** %_M_finish.i.i, align 8, !tbaa !49
  br label %_ZNSt6vectorIdSaIdEE6resizeEm.exit

_ZNSt6vectorIdSaIdEE6resizeEm.exit:               ; preds = %invoke.cont.i.i, %if.else.i, %if.then.i
  %cmp157 = icmp sgt i32 %mul6, 0
  br i1 %cmp157, label %for.body.preheader, label %for.cond18.preheader

for.body.preheader:                               ; preds = %_ZNSt6vectorIdSaIdEE6resizeEm.exit
  %13 = mul i32 %4, %2
  %14 = shl i32 %13, 3
  %wide.trip.count169 = zext i32 %14 to i64
  br label %for.body

for.cond18.preheader:                             ; preds = %for.body, %_ZNSt6vectorIdSaIdEE6resizeEm.exit
  %cmp19155 = icmp sgt i32 %4, 0
  br i1 %cmp19155, label %for.body21.preheader, label %for.cond29.preheader

for.body21.preheader:                             ; preds = %for.cond18.preheader
  %15 = icmp sgt i32 %mul7, 1
  %smax = select i1 %15, i32 %mul7, i32 1
  %wide.trip.count165 = zext i32 %smax to i64
  br label %for.body21

for.body:                                         ; preds = %for.body, %for.body.preheader
  %indvars.iv167 = phi i64 [ 0, %for.body.preheader ], [ %indvars.iv.next168, %for.body ]
  %16 = load double*, double** %_M_start.i.i120, align 8, !tbaa !51
  %add.ptr.i100 = getelementptr inbounds double, double* %16, i64 %indvars.iv167
  %call16 = tail call i32 (%struct._IO_FILE*, i8*, ...) @__isoc99_fscanf(%struct._IO_FILE* nonnull %call1, i8* getelementptr inbounds ([4 x i8], [4 x i8]* @.str.10, i64 0, i64 0), double* nonnull %add.ptr.i100)
  %indvars.iv.next168 = add nuw nsw i64 %indvars.iv167, 1
  %exitcond170.not = icmp eq i64 %indvars.iv.next168, %wide.trip.count169
  br i1 %exitcond170.not, label %for.cond18.preheader, label %for.body, !llvm.loop !52

for.cond29.preheader:                             ; preds = %for.body21, %for.cond18.preheader
  %cmp30153 = icmp sgt i32 %mul9, 0
  br i1 %cmp30153, label %for.body32.preheader, label %for.cond40.preheader

for.body32.preheader:                             ; preds = %for.cond29.preheader
  %17 = mul i32 %4, %2
  %18 = shl i32 %17, 1
  %wide.trip.count161 = zext i32 %18 to i64
  br label %for.body32

for.body21:                                       ; preds = %for.body21, %for.body21.preheader
  %indvars.iv163 = phi i64 [ 0, %for.body21.preheader ], [ %indvars.iv.next164, %for.body21 ]
  %19 = load double*, double** %_M_start.i.i136, align 8, !tbaa !51
  %add.ptr.i98 = getelementptr inbounds double, double* %19, i64 %indvars.iv163
  %call24 = tail call i32 (%struct._IO_FILE*, i8*, ...) @__isoc99_fscanf(%struct._IO_FILE* nonnull %call1, i8* getelementptr inbounds ([4 x i8], [4 x i8]* @.str.10, i64 0, i64 0), double* nonnull %add.ptr.i98)
  %indvars.iv.next164 = add nuw nsw i64 %indvars.iv163, 1
  %exitcond166.not = icmp eq i64 %indvars.iv.next164, %wide.trip.count165
  br i1 %exitcond166.not, label %for.cond29.preheader, label %for.body21, !llvm.loop !53

for.cond40.preheader:                             ; preds = %for.body32, %for.cond29.preheader
  %cmp42151 = icmp sgt i32 %mul10, 0
  br i1 %cmp42151, label %for.body44.preheader, label %for.cond.cleanup43

for.body44.preheader:                             ; preds = %for.cond40.preheader
  %wide.trip.count = zext i32 %mul10 to i64
  br label %for.body44

for.body32:                                       ; preds = %for.body32, %for.body32.preheader
  %indvars.iv159 = phi i64 [ 0, %for.body32.preheader ], [ %indvars.iv.next160, %for.body32 ]
  %20 = load double*, double** %_M_start.i.i104, align 8, !tbaa !51
  %add.ptr.i96 = getelementptr inbounds double, double* %20, i64 %indvars.iv159
  %call35 = tail call i32 (%struct._IO_FILE*, i8*, ...) @__isoc99_fscanf(%struct._IO_FILE* nonnull %call1, i8* getelementptr inbounds ([4 x i8], [4 x i8]* @.str.10, i64 0, i64 0), double* nonnull %add.ptr.i96)
  %indvars.iv.next160 = add nuw nsw i64 %indvars.iv159, 1
  %exitcond162.not = icmp eq i64 %indvars.iv.next160, %wide.trip.count161
  br i1 %exitcond162.not, label %for.cond40.preheader, label %for.body32, !llvm.loop !54

for.cond.cleanup43:                               ; preds = %for.body44, %for.cond40.preheader
  %call51 = tail call i32 @fclose(%struct._IO_FILE* nonnull %call1)
  ret void

for.body44:                                       ; preds = %for.body44, %for.body44.preheader
  %indvars.iv = phi i64 [ 0, %for.body44.preheader ], [ %indvars.iv.next, %for.body44 ]
  %21 = load double*, double** %_M_start.i.i, align 8, !tbaa !51
  %add.ptr.i = getelementptr inbounds double, double* %21, i64 %indvars.iv
  %call47 = tail call i32 (%struct._IO_FILE*, i8*, ...) @__isoc99_fscanf(%struct._IO_FILE* nonnull %call1, i8* getelementptr inbounds ([4 x i8], [4 x i8]* @.str.10, i64 0, i64 0), double* nonnull %add.ptr.i)
  %indvars.iv.next = add nuw nsw i64 %indvars.iv, 1
  %exitcond.not = icmp eq i64 %indvars.iv.next, %wide.trip.count
  br i1 %exitcond.not, label %for.cond.cleanup43, label %for.body44, !llvm.loop !55
}

; Function Attrs: nofree nounwind
declare dso_local noalias noundef %struct._IO_FILE* @fopen(i8* nocapture noundef readonly, i8* nocapture noundef readonly) local_unnamed_addr #2

; Function Attrs: nofree nounwind
declare dso_local noundef i32 @printf(i8* nocapture noundef readonly, ...) local_unnamed_addr #2

; Function Attrs: noreturn nounwind
declare dso_local void @exit(i32) local_unnamed_addr #11

declare dso_local i32 @__isoc99_fscanf(%struct._IO_FILE*, i8*, ...) local_unnamed_addr #3

; Function Attrs: nofree nounwind
declare dso_local noundef i32 @fclose(%struct._IO_FILE* nocapture noundef) local_unnamed_addr #2

; Function Attrs: norecurse uwtable
define dso_local i32 @main(i32 %argc, i8** nocapture readnone %argv) local_unnamed_addr #12 personality i8* bitcast (i32 (...)* @__gxx_personality_v0 to i8*) {
entry:
  %loss.i = alloca double, align 8
  %lossb.i612 = alloca double, align 8
  %lossb.i = alloca double, align 8
  %__dnew.i.i.i.i481 = alloca i64, align 8
  %__dnew.i.i.i.i395 = alloca i64, align 8
  %__dnew.i.i.i.i379 = alloca i64, align 8
  %__dnew.i.i.i.i363 = alloca i64, align 8
  %__dnew.i.i.i.i = alloca i64, align 8
  %ref.tmp = alloca [4 x %"class.std::__cxx11::basic_string"], align 8
  %path = alloca %"class.std::__cxx11::basic_string", align 8
  %input = alloca %struct.LSTMInput, align 8
  %ref.tmp48 = alloca %"class.std::__cxx11::basic_string", align 8
  %start = alloca %struct.timeval, align 8
  %end = alloca %struct.timeval, align 8
  %input116 = alloca %struct.LSTMInput, align 8
  %ref.tmp124 = alloca %"class.std::__cxx11::basic_string", align 8
  %start163 = alloca %struct.timeval, align 8
  %end164 = alloca %struct.timeval, align 8
  %input206 = alloca %struct.LSTMInput, align 8
  %ref.tmp214 = alloca %"class.std::__cxx11::basic_string", align 8
  %start253 = alloca %struct.timeval, align 8
  %end254 = alloca %struct.timeval, align 8
  %puts = tail call i32 @puts(i8* nonnull dereferenceable(1) getelementptr inbounds ([14 x i8], [14 x i8]* @str, i64 0, i64 0))
  %0 = bitcast [4 x %"class.std::__cxx11::basic_string"]* %ref.tmp to i8*
  call void @llvm.lifetime.start.p0i8(i64 128, i8* nonnull %0) #37
  %arrayinit.begin = getelementptr inbounds [4 x %"class.std::__cxx11::basic_string"], [4 x %"class.std::__cxx11::basic_string"]* %ref.tmp, i64 0, i64 0
  %1 = getelementptr inbounds [4 x %"class.std::__cxx11::basic_string"], [4 x %"class.std::__cxx11::basic_string"]* %ref.tmp, i64 0, i64 0, i32 2
  %2 = bitcast [4 x %"class.std::__cxx11::basic_string"]* %ref.tmp to %union.anon**
  store %union.anon* %1, %union.anon** %2, align 8, !tbaa !14
  %3 = bitcast i64* %__dnew.i.i.i.i to i8*
  call void @llvm.lifetime.start.p0i8(i64 8, i8* nonnull %3) #37
  store i64 17, i64* %__dnew.i.i.i.i, align 8, !tbaa !20
  %call5.i.i.i9.i362 = invoke i8* @_ZNSt7__cxx1112basic_stringIcSt11char_traitsIcESaIcEE9_M_createERmm(%"class.std::__cxx11::basic_string"* nonnull dereferenceable(32) %arrayinit.begin, i64* nonnull align 8 dereferenceable(8) %__dnew.i.i.i.i, i64 0)
          to label %call5.i.i.i9.i.noexc unwind label %lpad

call5.i.i.i9.i.noexc:                             ; preds = %entry
  %_M_p.i13.i.i.i.i = getelementptr inbounds [4 x %"class.std::__cxx11::basic_string"], [4 x %"class.std::__cxx11::basic_string"]* %ref.tmp, i64 0, i64 0, i32 0, i32 0
  store i8* %call5.i.i.i9.i362, i8** %_M_p.i13.i.i.i.i, align 8, !tbaa !17
  %4 = load i64, i64* %__dnew.i.i.i.i, align 8, !tbaa !20
  %_M_allocated_capacity.i.i.i.i.i = getelementptr inbounds [4 x %"class.std::__cxx11::basic_string"], [4 x %"class.std::__cxx11::basic_string"]* %ref.tmp, i64 0, i64 0, i32 2, i32 0
  store i64 %4, i64* %_M_allocated_capacity.i.i.i.i.i, align 8, !tbaa !21
  call void @llvm.memcpy.p0i8.p0i8.i64(i8* nonnull align 1 dereferenceable(17) %call5.i.i.i9.i362, i8* nonnull align 1 dereferenceable(17) getelementptr inbounds ([18 x i8], [18 x i8]* @.str.12, i64 0, i64 0), i64 17, i1 false) #37
  %_M_string_length.i.i.i.i.i.i = getelementptr inbounds [4 x %"class.std::__cxx11::basic_string"], [4 x %"class.std::__cxx11::basic_string"]* %ref.tmp, i64 0, i64 0, i32 1
  store i64 %4, i64* %_M_string_length.i.i.i.i.i.i, align 8, !tbaa !19
  %5 = load i8*, i8** %_M_p.i13.i.i.i.i, align 8, !tbaa !17
  %arrayidx.i.i.i.i.i = getelementptr inbounds i8, i8* %5, i64 %4
  store i8 0, i8* %arrayidx.i.i.i.i.i, align 1, !tbaa !21
  call void @llvm.lifetime.end.p0i8(i64 8, i8* nonnull %3) #37
  %arrayinit.element.ptr = getelementptr inbounds [4 x %"class.std::__cxx11::basic_string"], [4 x %"class.std::__cxx11::basic_string"]* %ref.tmp, i64 0, i64 1
  %6 = getelementptr inbounds [4 x %"class.std::__cxx11::basic_string"], [4 x %"class.std::__cxx11::basic_string"]* %ref.tmp, i64 0, i64 1, i32 2
  %7 = bitcast %"class.std::__cxx11::basic_string"* %arrayinit.element.ptr to %union.anon**
  store %union.anon* %6, %union.anon** %7, align 8, !tbaa !14
  %8 = bitcast i64* %__dnew.i.i.i.i363 to i8*
  call void @llvm.lifetime.start.p0i8(i64 8, i8* nonnull %8) #37
  store i64 17, i64* %__dnew.i.i.i.i363, align 8, !tbaa !20
  %call5.i.i.i9.i377 = invoke i8* @_ZNSt7__cxx1112basic_stringIcSt11char_traitsIcESaIcEE9_M_createERmm(%"class.std::__cxx11::basic_string"* nonnull dereferenceable(32) %arrayinit.element.ptr, i64* nonnull align 8 dereferenceable(8) %__dnew.i.i.i.i363, i64 0)
          to label %call5.i.i.i9.i.noexc376 unwind label %lpad3

call5.i.i.i9.i.noexc376:                          ; preds = %call5.i.i.i9.i.noexc
  %_M_p.i13.i.i.i.i366 = getelementptr inbounds %"class.std::__cxx11::basic_string", %"class.std::__cxx11::basic_string"* %arrayinit.element.ptr, i64 0, i32 0, i32 0
  store i8* %call5.i.i.i9.i377, i8** %_M_p.i13.i.i.i.i366, align 8, !tbaa !17
  %9 = load i64, i64* %__dnew.i.i.i.i363, align 8, !tbaa !20
  %_M_allocated_capacity.i.i.i.i.i367 = getelementptr inbounds [4 x %"class.std::__cxx11::basic_string"], [4 x %"class.std::__cxx11::basic_string"]* %ref.tmp, i64 0, i64 1, i32 2, i32 0
  store i64 %9, i64* %_M_allocated_capacity.i.i.i.i.i367, align 8, !tbaa !21
  call void @llvm.memcpy.p0i8.p0i8.i64(i8* nonnull align 1 dereferenceable(17) %call5.i.i.i9.i377, i8* nonnull align 1 dereferenceable(17) getelementptr inbounds ([18 x i8], [18 x i8]* @.str.13, i64 0, i64 0), i64 17, i1 false) #37
  %_M_string_length.i.i.i.i.i.i373 = getelementptr inbounds [4 x %"class.std::__cxx11::basic_string"], [4 x %"class.std::__cxx11::basic_string"]* %ref.tmp, i64 0, i64 1, i32 1
  store i64 %9, i64* %_M_string_length.i.i.i.i.i.i373, align 8, !tbaa !19
  %10 = load i8*, i8** %_M_p.i13.i.i.i.i366, align 8, !tbaa !17
  %arrayidx.i.i.i.i.i374 = getelementptr inbounds i8, i8* %10, i64 %9
  store i8 0, i8* %arrayidx.i.i.i.i.i374, align 1, !tbaa !21
  call void @llvm.lifetime.end.p0i8(i64 8, i8* nonnull %8) #37
  %arrayinit.element5.ptr = getelementptr inbounds [4 x %"class.std::__cxx11::basic_string"], [4 x %"class.std::__cxx11::basic_string"]* %ref.tmp, i64 0, i64 2
  %11 = getelementptr inbounds [4 x %"class.std::__cxx11::basic_string"], [4 x %"class.std::__cxx11::basic_string"]* %ref.tmp, i64 0, i64 2, i32 2
  %12 = bitcast %"class.std::__cxx11::basic_string"* %arrayinit.element5.ptr to %union.anon**
  store %union.anon* %11, %union.anon** %12, align 8, !tbaa !14
  %13 = bitcast i64* %__dnew.i.i.i.i379 to i8*
  call void @llvm.lifetime.start.p0i8(i64 8, i8* nonnull %13) #37
  store i64 17, i64* %__dnew.i.i.i.i379, align 8, !tbaa !20
  %call5.i.i.i9.i393 = invoke i8* @_ZNSt7__cxx1112basic_stringIcSt11char_traitsIcESaIcEE9_M_createERmm(%"class.std::__cxx11::basic_string"* nonnull dereferenceable(32) %arrayinit.element5.ptr, i64* nonnull align 8 dereferenceable(8) %__dnew.i.i.i.i379, i64 0)
          to label %call5.i.i.i9.i.noexc392 unwind label %lpad7

call5.i.i.i9.i.noexc392:                          ; preds = %call5.i.i.i9.i.noexc376
  %_M_p.i13.i.i.i.i382 = getelementptr inbounds %"class.std::__cxx11::basic_string", %"class.std::__cxx11::basic_string"* %arrayinit.element5.ptr, i64 0, i32 0, i32 0
  store i8* %call5.i.i.i9.i393, i8** %_M_p.i13.i.i.i.i382, align 8, !tbaa !17
  %14 = load i64, i64* %__dnew.i.i.i.i379, align 8, !tbaa !20
  %_M_allocated_capacity.i.i.i.i.i383 = getelementptr inbounds [4 x %"class.std::__cxx11::basic_string"], [4 x %"class.std::__cxx11::basic_string"]* %ref.tmp, i64 0, i64 2, i32 2, i32 0
  store i64 %14, i64* %_M_allocated_capacity.i.i.i.i.i383, align 8, !tbaa !21
  call void @llvm.memcpy.p0i8.p0i8.i64(i8* nonnull align 1 dereferenceable(17) %call5.i.i.i9.i393, i8* nonnull align 1 dereferenceable(17) getelementptr inbounds ([18 x i8], [18 x i8]* @.str.14, i64 0, i64 0), i64 17, i1 false) #37
  %_M_string_length.i.i.i.i.i.i389 = getelementptr inbounds [4 x %"class.std::__cxx11::basic_string"], [4 x %"class.std::__cxx11::basic_string"]* %ref.tmp, i64 0, i64 2, i32 1
  store i64 %14, i64* %_M_string_length.i.i.i.i.i.i389, align 8, !tbaa !19
  %15 = load i8*, i8** %_M_p.i13.i.i.i.i382, align 8, !tbaa !17
  %arrayidx.i.i.i.i.i390 = getelementptr inbounds i8, i8* %15, i64 %14
  store i8 0, i8* %arrayidx.i.i.i.i.i390, align 1, !tbaa !21
  call void @llvm.lifetime.end.p0i8(i64 8, i8* nonnull %13) #37
  %arrayinit.element9.ptr = getelementptr inbounds [4 x %"class.std::__cxx11::basic_string"], [4 x %"class.std::__cxx11::basic_string"]* %ref.tmp, i64 0, i64 3
  %16 = getelementptr inbounds [4 x %"class.std::__cxx11::basic_string"], [4 x %"class.std::__cxx11::basic_string"]* %ref.tmp, i64 0, i64 3, i32 2
  %17 = bitcast %"class.std::__cxx11::basic_string"* %arrayinit.element9.ptr to %union.anon**
  store %union.anon* %16, %union.anon** %17, align 8, !tbaa !14
  %18 = bitcast i64* %__dnew.i.i.i.i395 to i8*
  call void @llvm.lifetime.start.p0i8(i64 8, i8* nonnull %18) #37
  store i64 17, i64* %__dnew.i.i.i.i395, align 8, !tbaa !20
  %call5.i.i.i9.i409 = invoke i8* @_ZNSt7__cxx1112basic_stringIcSt11char_traitsIcESaIcEE9_M_createERmm(%"class.std::__cxx11::basic_string"* nonnull dereferenceable(32) %arrayinit.element9.ptr, i64* nonnull align 8 dereferenceable(8) %__dnew.i.i.i.i395, i64 0)
          to label %call5.i.i.i9.i.noexc408 unwind label %lpad11

call5.i.i.i9.i.noexc408:                          ; preds = %call5.i.i.i9.i.noexc392
  %_M_p.i13.i.i.i.i398 = getelementptr inbounds %"class.std::__cxx11::basic_string", %"class.std::__cxx11::basic_string"* %arrayinit.element9.ptr, i64 0, i32 0, i32 0
  store i8* %call5.i.i.i9.i409, i8** %_M_p.i13.i.i.i.i398, align 8, !tbaa !17
  %19 = load i64, i64* %__dnew.i.i.i.i395, align 8, !tbaa !20
  %_M_allocated_capacity.i.i.i.i.i399 = getelementptr inbounds [4 x %"class.std::__cxx11::basic_string"], [4 x %"class.std::__cxx11::basic_string"]* %ref.tmp, i64 0, i64 3, i32 2, i32 0
  store i64 %19, i64* %_M_allocated_capacity.i.i.i.i.i399, align 8, !tbaa !21
  call void @llvm.memcpy.p0i8.p0i8.i64(i8* nonnull align 1 dereferenceable(17) %call5.i.i.i9.i409, i8* nonnull align 1 dereferenceable(17) getelementptr inbounds ([18 x i8], [18 x i8]* @.str.15, i64 0, i64 0), i64 17, i1 false) #37
  %_M_string_length.i.i.i.i.i.i405 = getelementptr inbounds [4 x %"class.std::__cxx11::basic_string"], [4 x %"class.std::__cxx11::basic_string"]* %ref.tmp, i64 0, i64 3, i32 1
  store i64 %19, i64* %_M_string_length.i.i.i.i.i.i405, align 8, !tbaa !19
  %20 = load i8*, i8** %_M_p.i13.i.i.i.i398, align 8, !tbaa !17
  %arrayidx.i.i.i.i.i406 = getelementptr inbounds i8, i8* %20, i64 %19
  store i8 0, i8* %arrayidx.i.i.i.i.i406, align 1, !tbaa !21
  call void @llvm.lifetime.end.p0i8(i64 8, i8* nonnull %18) #37
  %call2.i.i.i.i7.i = invoke noalias nonnull i8* @_Znwm(i64 128) #41
          to label %call2.i.i.i.i.noexc.i unwind label %lpad.i.thread

lpad.i.thread:                                    ; preds = %call5.i.i.i9.i.noexc408
  %21 = landingpad { i8*, i32 }
          cleanup
  br label %lpad14.body

call2.i.i.i.i.noexc.i:                            ; preds = %call5.i.i.i9.i.noexc408
  %add.ptr.i.i = getelementptr inbounds [4 x %"class.std::__cxx11::basic_string"], [4 x %"class.std::__cxx11::basic_string"]* %ref.tmp, i64 0, i64 4
  %22 = bitcast i8* %call2.i.i.i.i7.i to %"class.std::__cxx11::basic_string"*
  %call.i.i.i8.i = invoke %"class.std::__cxx11::basic_string"* @_ZNSt20__uninitialized_copyILb0EE13__uninit_copyIPKNSt7__cxx1112basic_stringIcSt11char_traitsIcESaIcEEEPS7_EET0_T_SC_SB_(%"class.std::__cxx11::basic_string"* nonnull %arrayinit.begin, %"class.std::__cxx11::basic_string"* nonnull %add.ptr.i.i, %"class.std::__cxx11::basic_string"* nonnull %22)
          to label %arraydestroy.body unwind label %if.then.i.i.i413

if.then.i.i.i413:                                 ; preds = %call2.i.i.i.i.noexc.i
  %23 = landingpad { i8*, i32 }
          cleanup
  call void @_ZdlPv(i8* nonnull %call2.i.i.i.i7.i) #37
  br label %lpad14.body

arraydestroy.body:                                ; preds = %_ZNSt7__cxx1112basic_stringIcSt11char_traitsIcESaIcEED2Ev.exit, %call2.i.i.i.i.noexc.i
  %arraydestroy.elementPast = phi %"class.std::__cxx11::basic_string"* [ %arraydestroy.element, %_ZNSt7__cxx1112basic_stringIcSt11char_traitsIcESaIcEED2Ev.exit ], [ %add.ptr.i.i, %call2.i.i.i.i.noexc.i ]
  %arraydestroy.element = getelementptr inbounds %"class.std::__cxx11::basic_string", %"class.std::__cxx11::basic_string"* %arraydestroy.elementPast, i64 -1
  %_M_p.i.i.i.i = getelementptr inbounds %"class.std::__cxx11::basic_string", %"class.std::__cxx11::basic_string"* %arraydestroy.element, i64 0, i32 0, i32 0
  %24 = load i8*, i8** %_M_p.i.i.i.i, align 8, !tbaa !17
  %25 = getelementptr inbounds %"class.std::__cxx11::basic_string", %"class.std::__cxx11::basic_string"* %arraydestroy.elementPast, i64 -1, i32 2
  %arraydecay.i.i.i.i = bitcast %union.anon* %25 to i8*
  %cmp.i.i.i = icmp eq i8* %24, %arraydecay.i.i.i.i
  br i1 %cmp.i.i.i, label %_ZNSt7__cxx1112basic_stringIcSt11char_traitsIcESaIcEED2Ev.exit, label %if.then.i.i

if.then.i.i:                                      ; preds = %arraydestroy.body
  call void @_ZdlPv(i8* %24) #37
  br label %_ZNSt7__cxx1112basic_stringIcSt11char_traitsIcESaIcEED2Ev.exit

_ZNSt7__cxx1112basic_stringIcSt11char_traitsIcESaIcEED2Ev.exit: ; preds = %if.then.i.i, %arraydestroy.body
  %arraydestroy.done = icmp eq %"class.std::__cxx11::basic_string"* %arraydestroy.element, %arrayinit.begin
  br i1 %arraydestroy.done, label %arraydestroy.done16, label %arraydestroy.body

arraydestroy.done16:                              ; preds = %_ZNSt7__cxx1112basic_stringIcSt11char_traitsIcESaIcEED2Ev.exit
  call void @llvm.lifetime.end.p0i8(i64 128, i8* nonnull %0) #37
  %cmp.i.not1221 = icmp eq %"class.std::__cxx11::basic_string"* %call.i.i.i8.i, %22
  br i1 %cmp.i.not1221, label %_ZNSt6vectorINSt7__cxx1112basic_stringIcSt11char_traitsIcESaIcEEESaIS5_EED2Ev.exit441, label %for.body.lr.ph

for.body.lr.ph:                                   ; preds = %arraydestroy.done16
  %26 = bitcast %"class.std::__cxx11::basic_string"* %path to i8*
  %27 = getelementptr inbounds %"class.std::__cxx11::basic_string", %"class.std::__cxx11::basic_string"* %path, i64 0, i32 2
  %28 = bitcast %"class.std::__cxx11::basic_string"* %path to %union.anon**
  %29 = bitcast i64* %__dnew.i.i.i.i481 to i8*
  %30 = bitcast %union.anon* %27 to i8*
  %_M_p.i13.i.i.i.i483 = getelementptr inbounds %"class.std::__cxx11::basic_string", %"class.std::__cxx11::basic_string"* %path, i64 0, i32 0, i32 0
  %_M_allocated_capacity.i.i.i.i.i484 = getelementptr inbounds %"class.std::__cxx11::basic_string", %"class.std::__cxx11::basic_string"* %path, i64 0, i32 2, i32 0
  %_M_string_length.i.i.i.i.i.i490 = getelementptr inbounds %"class.std::__cxx11::basic_string", %"class.std::__cxx11::basic_string"* %path, i64 0, i32 1
  %31 = bitcast %struct.LSTMInput* %input to i8*
  %main_params.i = getelementptr inbounds %struct.LSTMInput, %struct.LSTMInput* %input, i64 0, i32 3
  %32 = bitcast %"class.std::vector.3"* %main_params.i to i8*
  %33 = bitcast %"class.std::__cxx11::basic_string"* %ref.tmp48 to i8*
  %l = getelementptr inbounds %struct.LSTMInput, %struct.LSTMInput* %input, i64 0, i32 0
  %c = getelementptr inbounds %struct.LSTMInput, %struct.LSTMInput* %input, i64 0, i32 1
  %b = getelementptr inbounds %struct.LSTMInput, %struct.LSTMInput* %input, i64 0, i32 2
  %extra_params = getelementptr inbounds %struct.LSTMInput, %struct.LSTMInput* %input, i64 0, i32 4
  %state = getelementptr inbounds %struct.LSTMInput, %struct.LSTMInput* %input, i64 0, i32 5
  %sequence = getelementptr inbounds %struct.LSTMInput, %struct.LSTMInput* %input, i64 0, i32 6
  %_M_p.i.i.i.i498 = getelementptr inbounds %"class.std::__cxx11::basic_string", %"class.std::__cxx11::basic_string"* %ref.tmp48, i64 0, i32 0, i32 0
  %34 = getelementptr inbounds %"class.std::__cxx11::basic_string", %"class.std::__cxx11::basic_string"* %ref.tmp48, i64 0, i32 2
  %arraydecay.i.i.i.i499 = bitcast %union.anon* %34 to i8*
  %_M_start.i522 = getelementptr inbounds %"class.std::vector.3", %"class.std::vector.3"* %state, i64 0, i32 0, i32 0, i32 0, i32 0
  %35 = bitcast %struct.timeval* %start to i8*
  %36 = bitcast %struct.timeval* %end to i8*
  %_M_finish.i.i541 = getelementptr inbounds %struct.LSTMInput, %struct.LSTMInput* %input, i64 0, i32 3, i32 0, i32 0, i32 0, i32 1
  %_M_start.i26.i = getelementptr inbounds %struct.LSTMInput, %struct.LSTMInput* %input, i64 0, i32 3, i32 0, i32 0, i32 0, i32 0
  %37 = bitcast double* %lossb.i to i8*
  %_M_start.i24.i = getelementptr inbounds %struct.LSTMInput, %struct.LSTMInput* %input, i64 0, i32 4, i32 0, i32 0, i32 0, i32 0
  %_M_start.i23.i = getelementptr inbounds %struct.LSTMInput, %struct.LSTMInput* %input, i64 0, i32 5, i32 0, i32 0, i32 0, i32 0
  %_M_start.i22.i = getelementptr inbounds %struct.LSTMInput, %struct.LSTMInput* %input, i64 0, i32 6, i32 0, i32 0, i32 0, i32 0
  %tv_sec.i = getelementptr inbounds %struct.timeval, %struct.timeval* %end, i64 0, i32 0
  %tv_sec1.i = getelementptr inbounds %struct.timeval, %struct.timeval* %start, i64 0, i32 0
  %tv_usec.i = getelementptr inbounds %struct.timeval, %struct.timeval* %end, i64 0, i32 1
  %tv_usec2.i = getelementptr inbounds %struct.timeval, %struct.timeval* %start, i64 0, i32 1
  %38 = bitcast %struct.LSTMInput* %input116 to i8*
  %l117 = getelementptr inbounds %struct.LSTMInput, %struct.LSTMInput* %input116, i64 0, i32 0
  %c118 = getelementptr inbounds %struct.LSTMInput, %struct.LSTMInput* %input116, i64 0, i32 1
  %b119 = getelementptr inbounds %struct.LSTMInput, %struct.LSTMInput* %input116, i64 0, i32 2
  %main_params120 = getelementptr inbounds %struct.LSTMInput, %struct.LSTMInput* %input116, i64 0, i32 3
  %extra_params121 = getelementptr inbounds %struct.LSTMInput, %struct.LSTMInput* %input116, i64 0, i32 4
  %state122 = getelementptr inbounds %struct.LSTMInput, %struct.LSTMInput* %input116, i64 0, i32 5
  %sequence123 = getelementptr inbounds %struct.LSTMInput, %struct.LSTMInput* %input116, i64 0, i32 6
  %39 = bitcast %"class.std::__cxx11::basic_string"* %ref.tmp124 to i8*
  %_M_p.i.i.i.i631 = getelementptr inbounds %"class.std::__cxx11::basic_string", %"class.std::__cxx11::basic_string"* %ref.tmp124, i64 0, i32 0, i32 0
  %40 = getelementptr inbounds %"class.std::__cxx11::basic_string", %"class.std::__cxx11::basic_string"* %ref.tmp124, i64 0, i32 2
  %arraydecay.i.i.i.i632 = bitcast %union.anon* %40 to i8*
  %_M_finish.i637 = getelementptr inbounds %struct.LSTMInput, %struct.LSTMInput* %input116, i64 0, i32 5, i32 0, i32 0, i32 0, i32 1
  %_M_start.i638 = getelementptr inbounds %"class.std::vector.3", %"class.std::vector.3"* %state122, i64 0, i32 0, i32 0, i32 0, i32 0
  %41 = bitcast %struct.timeval* %start163 to i8*
  %42 = bitcast %struct.timeval* %end164 to i8*
  %_M_finish.i.i723 = getelementptr inbounds %struct.LSTMInput, %struct.LSTMInput* %input116, i64 0, i32 3, i32 0, i32 0, i32 0, i32 1
  %_M_start.i26.i724 = getelementptr inbounds %struct.LSTMInput, %struct.LSTMInput* %input116, i64 0, i32 3, i32 0, i32 0, i32 0, i32 0
  %_M_start.i24.i728 = getelementptr inbounds %struct.LSTMInput, %struct.LSTMInput* %input116, i64 0, i32 4, i32 0, i32 0, i32 0, i32 0
  %_M_start.i23.i729 = getelementptr inbounds %struct.LSTMInput, %struct.LSTMInput* %input116, i64 0, i32 5, i32 0, i32 0, i32 0, i32 0
  %_M_start.i22.i730 = getelementptr inbounds %struct.LSTMInput, %struct.LSTMInput* %input116, i64 0, i32 6, i32 0, i32 0, i32 0, i32 0
  %tv_sec.i741 = getelementptr inbounds %struct.timeval, %struct.timeval* %end164, i64 0, i32 0
  %tv_sec1.i742 = getelementptr inbounds %struct.timeval, %struct.timeval* %start163, i64 0, i32 0
  %tv_usec.i745 = getelementptr inbounds %struct.timeval, %struct.timeval* %end164, i64 0, i32 1
  %tv_usec2.i746 = getelementptr inbounds %struct.timeval, %struct.timeval* %start163, i64 0, i32 1
  %43 = bitcast %struct.LSTMInput* %input206 to i8*
  %l207 = getelementptr inbounds %struct.LSTMInput, %struct.LSTMInput* %input206, i64 0, i32 0
  %c208 = getelementptr inbounds %struct.LSTMInput, %struct.LSTMInput* %input206, i64 0, i32 1
  %b209 = getelementptr inbounds %struct.LSTMInput, %struct.LSTMInput* %input206, i64 0, i32 2
  %main_params210 = getelementptr inbounds %struct.LSTMInput, %struct.LSTMInput* %input206, i64 0, i32 3
  %extra_params211 = getelementptr inbounds %struct.LSTMInput, %struct.LSTMInput* %input206, i64 0, i32 4
  %state212 = getelementptr inbounds %struct.LSTMInput, %struct.LSTMInput* %input206, i64 0, i32 5
  %sequence213 = getelementptr inbounds %struct.LSTMInput, %struct.LSTMInput* %input206, i64 0, i32 6
  %44 = bitcast %"class.std::__cxx11::basic_string"* %ref.tmp214 to i8*
  %_M_p.i.i.i.i764 = getelementptr inbounds %"class.std::__cxx11::basic_string", %"class.std::__cxx11::basic_string"* %ref.tmp214, i64 0, i32 0, i32 0
  %45 = getelementptr inbounds %"class.std::__cxx11::basic_string", %"class.std::__cxx11::basic_string"* %ref.tmp214, i64 0, i32 2
  %arraydecay.i.i.i.i765 = bitcast %union.anon* %45 to i8*
  %_M_finish.i758 = getelementptr inbounds %struct.LSTMInput, %struct.LSTMInput* %input206, i64 0, i32 5, i32 0, i32 0, i32 0, i32 1
  %_M_start.i759 = getelementptr inbounds %"class.std::vector.3", %"class.std::vector.3"* %state212, i64 0, i32 0, i32 0, i32 0, i32 0
  %46 = bitcast %struct.timeval* %start253 to i8*
  %47 = bitcast %struct.timeval* %end254 to i8*
  %_M_finish.i.i614 = getelementptr inbounds %struct.LSTMInput, %struct.LSTMInput* %input206, i64 0, i32 3, i32 0, i32 0, i32 0, i32 1
  %_M_start.i26.i615 = getelementptr inbounds %struct.LSTMInput, %struct.LSTMInput* %input206, i64 0, i32 3, i32 0, i32 0, i32 0, i32 0
  %48 = bitcast double* %loss.i to i8*
  %49 = bitcast double* %lossb.i612 to i8*
  %_M_start.i24.i619 = getelementptr inbounds %struct.LSTMInput, %struct.LSTMInput* %input206, i64 0, i32 4, i32 0, i32 0, i32 0, i32 0
  %_M_start.i23.i620 = getelementptr inbounds %struct.LSTMInput, %struct.LSTMInput* %input206, i64 0, i32 5, i32 0, i32 0, i32 0, i32 0
  %_M_start.i22.i621 = getelementptr inbounds %struct.LSTMInput, %struct.LSTMInput* %input206, i64 0, i32 6, i32 0, i32 0, i32 0, i32 0
  %tv_sec.i601 = getelementptr inbounds %struct.timeval, %struct.timeval* %end254, i64 0, i32 0
  %tv_sec1.i602 = getelementptr inbounds %struct.timeval, %struct.timeval* %start253, i64 0, i32 0
  %tv_usec.i605 = getelementptr inbounds %struct.timeval, %struct.timeval* %end254, i64 0, i32 1
  %tv_usec2.i606 = getelementptr inbounds %struct.timeval, %struct.timeval* %start253, i64 0, i32 1
  %50 = bitcast %"class.std::vector.3"* %main_params120 to i8*
  %51 = bitcast %"class.std::vector.3"* %main_params210 to i8*
  br label %for.body

for.cond.cleanup:                                 ; preds = %_ZNSt7__cxx1112basic_stringIcSt11char_traitsIcESaIcEED2Ev.exit510
  br i1 %cmp.i.not1221, label %_ZNSt6vectorINSt7__cxx1112basic_stringIcSt11char_traitsIcESaIcEEESaIS5_EED2Ev.exit441, label %for.body.i.i.i.i430

for.body.i.i.i.i430:                              ; preds = %_ZSt8_DestroyINSt7__cxx1112basic_stringIcSt11char_traitsIcESaIcEEEEvPT_.exit.i.i.i.i434, %for.cond.cleanup
  %__first.addr.04.i.i.i.i426 = phi %"class.std::__cxx11::basic_string"* [ %incdec.ptr.i.i.i.i432, %_ZSt8_DestroyINSt7__cxx1112basic_stringIcSt11char_traitsIcESaIcEEEEvPT_.exit.i.i.i.i434 ], [ %22, %for.cond.cleanup ]
  %_M_p.i.i.i.i.i.i.i.i.i427 = getelementptr inbounds %"class.std::__cxx11::basic_string", %"class.std::__cxx11::basic_string"* %__first.addr.04.i.i.i.i426, i64 0, i32 0, i32 0
  %52 = load i8*, i8** %_M_p.i.i.i.i.i.i.i.i.i427, align 8, !tbaa !17
  %53 = getelementptr inbounds %"class.std::__cxx11::basic_string", %"class.std::__cxx11::basic_string"* %__first.addr.04.i.i.i.i426, i64 0, i32 2
  %arraydecay.i.i.i.i.i.i.i.i.i428 = bitcast %union.anon* %53 to i8*
  %cmp.i.i.i.i.i.i.i.i429 = icmp eq i8* %52, %arraydecay.i.i.i.i.i.i.i.i.i428
  br i1 %cmp.i.i.i.i.i.i.i.i429, label %_ZSt8_DestroyINSt7__cxx1112basic_stringIcSt11char_traitsIcESaIcEEEEvPT_.exit.i.i.i.i434, label %if.then.i.i.i.i.i.i.i431

if.then.i.i.i.i.i.i.i431:                         ; preds = %for.body.i.i.i.i430
  call void @_ZdlPv(i8* %52) #37
  br label %_ZSt8_DestroyINSt7__cxx1112basic_stringIcSt11char_traitsIcESaIcEEEEvPT_.exit.i.i.i.i434

_ZSt8_DestroyINSt7__cxx1112basic_stringIcSt11char_traitsIcESaIcEEEEvPT_.exit.i.i.i.i434: ; preds = %if.then.i.i.i.i.i.i.i431, %for.body.i.i.i.i430
  %incdec.ptr.i.i.i.i432 = getelementptr inbounds %"class.std::__cxx11::basic_string", %"class.std::__cxx11::basic_string"* %__first.addr.04.i.i.i.i426, i64 1
  %cmp.not.i.i.i.i433 = icmp eq %"class.std::__cxx11::basic_string"* %incdec.ptr.i.i.i.i432, %call.i.i.i8.i
  br i1 %cmp.not.i.i.i.i433, label %_ZNSt6vectorINSt7__cxx1112basic_stringIcSt11char_traitsIcESaIcEEESaIS5_EED2Ev.exit441, label %for.body.i.i.i.i430, !llvm.loop !56

_ZNSt6vectorINSt7__cxx1112basic_stringIcSt11char_traitsIcESaIcEEESaIS5_EED2Ev.exit441: ; preds = %_ZSt8_DestroyINSt7__cxx1112basic_stringIcSt11char_traitsIcESaIcEEEEvPT_.exit.i.i.i.i434, %for.cond.cleanup, %arraydestroy.done16
  call void @_ZdlPv(i8* nonnull %call2.i.i.i.i7.i) #37
  ret i32 0

lpad:                                             ; preds = %entry
  %54 = landingpad { i8*, i32 }
          cleanup
  br label %cleanup.done

lpad3:                                            ; preds = %call5.i.i.i9.i.noexc
  %55 = landingpad { i8*, i32 }
          cleanup
  br label %ehcleanup28

lpad7:                                            ; preds = %call5.i.i.i9.i.noexc376
  %56 = landingpad { i8*, i32 }
          cleanup
  br label %ehcleanup28

lpad11:                                           ; preds = %call5.i.i.i9.i.noexc392
  %57 = landingpad { i8*, i32 }
          cleanup
  br label %ehcleanup28

lpad14.body:                                      ; preds = %if.then.i.i.i413, %lpad.i.thread
  %eh.lpad-body = phi { i8*, i32 } [ %21, %lpad.i.thread ], [ %23, %if.then.i.i.i413 ]
  %58 = getelementptr inbounds [4 x %"class.std::__cxx11::basic_string"], [4 x %"class.std::__cxx11::basic_string"]* %ref.tmp, i64 0, i64 4
  br label %arraydestroy.body18

arraydestroy.body18:                              ; preds = %_ZNSt7__cxx1112basic_stringIcSt11char_traitsIcESaIcEED2Ev.exit447, %lpad14.body
  %arraydestroy.elementPast19 = phi %"class.std::__cxx11::basic_string"* [ %58, %lpad14.body ], [ %arraydestroy.element20, %_ZNSt7__cxx1112basic_stringIcSt11char_traitsIcESaIcEED2Ev.exit447 ]
  %arraydestroy.element20 = getelementptr inbounds %"class.std::__cxx11::basic_string", %"class.std::__cxx11::basic_string"* %arraydestroy.elementPast19, i64 -1
  %_M_p.i.i.i.i442 = getelementptr inbounds %"class.std::__cxx11::basic_string", %"class.std::__cxx11::basic_string"* %arraydestroy.element20, i64 0, i32 0, i32 0
  %59 = load i8*, i8** %_M_p.i.i.i.i442, align 8, !tbaa !17
  %60 = getelementptr inbounds %"class.std::__cxx11::basic_string", %"class.std::__cxx11::basic_string"* %arraydestroy.elementPast19, i64 -1, i32 2
  %arraydecay.i.i.i.i443 = bitcast %union.anon* %60 to i8*
  %cmp.i.i.i444 = icmp eq i8* %59, %arraydecay.i.i.i.i443
  br i1 %cmp.i.i.i444, label %_ZNSt7__cxx1112basic_stringIcSt11char_traitsIcESaIcEED2Ev.exit447, label %if.then.i.i445

if.then.i.i445:                                   ; preds = %arraydestroy.body18
  call void @_ZdlPv(i8* %59) #37
  br label %_ZNSt7__cxx1112basic_stringIcSt11char_traitsIcESaIcEED2Ev.exit447

_ZNSt7__cxx1112basic_stringIcSt11char_traitsIcESaIcEED2Ev.exit447: ; preds = %if.then.i.i445, %arraydestroy.body18
  %arraydestroy.done21 = icmp eq %"class.std::__cxx11::basic_string"* %arraydestroy.element20, %arrayinit.begin
  br i1 %arraydestroy.done21, label %cleanup.done, label %arraydestroy.body18

ehcleanup28:                                      ; preds = %lpad11, %lpad7, %lpad3
  %.pn.pn.pn.pn = phi { i8*, i32 } [ %55, %lpad3 ], [ %56, %lpad7 ], [ %57, %lpad11 ]
  %arrayinit.endOfInit.2.idx = phi i64 [ 1, %lpad3 ], [ 2, %lpad7 ], [ 3, %lpad11 ]
  %arrayinit.endOfInit.2.ptr = getelementptr inbounds [4 x %"class.std::__cxx11::basic_string"], [4 x %"class.std::__cxx11::basic_string"]* %ref.tmp, i64 0, i64 %arrayinit.endOfInit.2.idx
  br label %arraydestroy.body31

arraydestroy.body31:                              ; preds = %_ZNSt7__cxx1112basic_stringIcSt11char_traitsIcESaIcEED2Ev.exit480, %ehcleanup28
  %arraydestroy.elementPast32 = phi %"class.std::__cxx11::basic_string"* [ %arraydestroy.element33, %_ZNSt7__cxx1112basic_stringIcSt11char_traitsIcESaIcEED2Ev.exit480 ], [ %arrayinit.endOfInit.2.ptr, %ehcleanup28 ]
  %arraydestroy.element33 = getelementptr inbounds %"class.std::__cxx11::basic_string", %"class.std::__cxx11::basic_string"* %arraydestroy.elementPast32, i64 -1
  %_M_p.i.i.i.i475 = getelementptr inbounds %"class.std::__cxx11::basic_string", %"class.std::__cxx11::basic_string"* %arraydestroy.element33, i64 0, i32 0, i32 0
  %61 = load i8*, i8** %_M_p.i.i.i.i475, align 8, !tbaa !17
  %62 = getelementptr inbounds %"class.std::__cxx11::basic_string", %"class.std::__cxx11::basic_string"* %arraydestroy.elementPast32, i64 -1, i32 2
  %arraydecay.i.i.i.i476 = bitcast %union.anon* %62 to i8*
  %cmp.i.i.i477 = icmp eq i8* %61, %arraydecay.i.i.i.i476
  br i1 %cmp.i.i.i477, label %_ZNSt7__cxx1112basic_stringIcSt11char_traitsIcESaIcEED2Ev.exit480, label %if.then.i.i478

if.then.i.i478:                                   ; preds = %arraydestroy.body31
  call void @_ZdlPv(i8* %61) #37
  br label %_ZNSt7__cxx1112basic_stringIcSt11char_traitsIcESaIcEED2Ev.exit480

_ZNSt7__cxx1112basic_stringIcSt11char_traitsIcESaIcEED2Ev.exit480: ; preds = %if.then.i.i478, %arraydestroy.body31
  %arraydestroy.done34 = icmp eq %"class.std::__cxx11::basic_string"* %arraydestroy.element33, %arrayinit.begin
  br i1 %arraydestroy.done34, label %cleanup.done, label %arraydestroy.body31

cleanup.done:                                     ; preds = %_ZNSt7__cxx1112basic_stringIcSt11char_traitsIcESaIcEED2Ev.exit480, %_ZNSt7__cxx1112basic_stringIcSt11char_traitsIcESaIcEED2Ev.exit447, %lpad
  %.pn.pn.pn.pn952 = phi { i8*, i32 } [ %54, %lpad ], [ %eh.lpad-body, %_ZNSt7__cxx1112basic_stringIcSt11char_traitsIcESaIcEED2Ev.exit447 ], [ %.pn.pn.pn.pn, %_ZNSt7__cxx1112basic_stringIcSt11char_traitsIcESaIcEED2Ev.exit480 ]
  call void @llvm.lifetime.end.p0i8(i64 128, i8* nonnull %0) #37
  br label %ehcleanup305

for.body:                                         ; preds = %_ZNSt7__cxx1112basic_stringIcSt11char_traitsIcESaIcEED2Ev.exit510, %for.body.lr.ph
  %__begin1.sroa.0.01222 = phi %"class.std::__cxx11::basic_string"* [ %22, %for.body.lr.ph ], [ %incdec.ptr.i, %_ZNSt7__cxx1112basic_stringIcSt11char_traitsIcESaIcEED2Ev.exit510 ]
  call void @llvm.lifetime.start.p0i8(i64 32, i8* nonnull %26) #37
  store %union.anon* %27, %union.anon** %28, align 8, !tbaa !14
  %_M_p.i13.i = getelementptr inbounds %"class.std::__cxx11::basic_string", %"class.std::__cxx11::basic_string"* %__begin1.sroa.0.01222, i64 0, i32 0, i32 0
  %63 = load i8*, i8** %_M_p.i13.i, align 8, !tbaa !17
  %_M_string_length.i.i = getelementptr inbounds %"class.std::__cxx11::basic_string", %"class.std::__cxx11::basic_string"* %__begin1.sroa.0.01222, i64 0, i32 1
  %64 = load i64, i64* %_M_string_length.i.i, align 8, !tbaa !19
  call void @llvm.lifetime.start.p0i8(i64 8, i8* nonnull %29) #37
  store i64 %64, i64* %__dnew.i.i.i.i481, align 8, !tbaa !20
  %cmp3.i.i.i.i482 = icmp ugt i64 %64, 15
  br i1 %cmp3.i.i.i.i482, label %if.then4.i.i.i.i485, label %if.end6.i.i.i.i486

if.then4.i.i.i.i485:                              ; preds = %for.body
  %call5.i.i.i12.i492 = invoke i8* @_ZNSt7__cxx1112basic_stringIcSt11char_traitsIcESaIcEE9_M_createERmm(%"class.std::__cxx11::basic_string"* nonnull dereferenceable(32) %path, i64* nonnull align 8 dereferenceable(8) %__dnew.i.i.i.i481, i64 0)
          to label %call5.i.i.i12.i.noexc unwind label %lpad42

call5.i.i.i12.i.noexc:                            ; preds = %if.then4.i.i.i.i485
  store i8* %call5.i.i.i12.i492, i8** %_M_p.i13.i.i.i.i483, align 8, !tbaa !17
  %65 = load i64, i64* %__dnew.i.i.i.i481, align 8, !tbaa !20
  store i64 %65, i64* %_M_allocated_capacity.i.i.i.i.i484, align 8, !tbaa !21
  br label %if.end6.i.i.i.i486

if.end6.i.i.i.i486:                               ; preds = %call5.i.i.i12.i.noexc, %for.body
  %66 = phi i8* [ %call5.i.i.i12.i492, %call5.i.i.i12.i.noexc ], [ %30, %for.body ]
  switch i64 %64, label %if.end.i.i.i.i.i.i.i488 [
    i64 1, label %if.then.i.i.i.i.i.i487
    i64 0, label %invoke.cont43
  ]

if.then.i.i.i.i.i.i487:                           ; preds = %if.end6.i.i.i.i486
  %67 = load i8, i8* %63, align 1, !tbaa !21
  store i8 %67, i8* %66, align 1, !tbaa !21
  br label %invoke.cont43

if.end.i.i.i.i.i.i.i488:                          ; preds = %if.end6.i.i.i.i486
  call void @llvm.memcpy.p0i8.p0i8.i64(i8* align 1 %66, i8* align 1 %63, i64 %64, i1 false) #37
  br label %invoke.cont43

invoke.cont43:                                    ; preds = %if.end.i.i.i.i.i.i.i488, %if.then.i.i.i.i.i.i487, %if.end6.i.i.i.i486
  %68 = load i64, i64* %__dnew.i.i.i.i481, align 8, !tbaa !20
  store i64 %68, i64* %_M_string_length.i.i.i.i.i.i490, align 8, !tbaa !19
  %69 = load i8*, i8** %_M_p.i13.i.i.i.i483, align 8, !tbaa !17
  %arrayidx.i.i.i.i.i491 = getelementptr inbounds i8, i8* %69, i64 %68
  store i8 0, i8* %arrayidx.i.i.i.i.i491, align 1, !tbaa !21
  call void @llvm.lifetime.end.p0i8(i64 8, i8* nonnull %29) #37
  %70 = load i8*, i8** %_M_p.i13.i.i.i.i483, align 8, !tbaa !17
  %call47 = call i32 (i8*, ...) @printf(i8* nonnull dereferenceable(1) getelementptr inbounds ([18 x i8], [18 x i8]* @.str.16, i64 0, i64 0), i8* %70)
  call void @llvm.lifetime.start.p0i8(i64 112, i8* nonnull %31) #37
  call void @llvm.memset.p0i8.i64(i8* nonnull align 8 dereferenceable(96) %32, i8 0, i64 96, i1 false) #37
  call void @llvm.lifetime.start.p0i8(i64 32, i8* nonnull %33) #37
  invoke void @_ZStplIcSt11char_traitsIcESaIcEENSt7__cxx1112basic_stringIT_T0_T1_EEPKS5_RKS8_(%"class.std::__cxx11::basic_string"* nonnull sret(%"class.std::__cxx11::basic_string") align 8 %ref.tmp48, i8* getelementptr inbounds ([6 x i8], [6 x i8]* @.str.17, i64 0, i64 0), %"class.std::__cxx11::basic_string"* nonnull align 8 dereferenceable(32) %path)
          to label %invoke.cont50 unwind label %lpad49

invoke.cont50:                                    ; preds = %invoke.cont43
  invoke void @_Z18read_lstm_instanceRKNSt7__cxx1112basic_stringIcSt11char_traitsIcESaIcEEEPiS7_S7_RSt6vectorIdSaIdEESB_SB_SB_(%"class.std::__cxx11::basic_string"* nonnull align 8 dereferenceable(32) %ref.tmp48, i32* nonnull %l, i32* nonnull %c, i32* nonnull %b, %"class.std::vector.3"* nonnull align 8 dereferenceable(24) %main_params.i, %"class.std::vector.3"* nonnull align 8 dereferenceable(24) %extra_params, %"class.std::vector.3"* nonnull align 8 dereferenceable(24) %state, %"class.std::vector.3"* nonnull align 8 dereferenceable(24) %sequence)
          to label %invoke.cont52 unwind label %lpad51

invoke.cont52:                                    ; preds = %invoke.cont50
  %71 = load i8*, i8** %_M_p.i.i.i.i498, align 8, !tbaa !17
  %cmp.i.i.i500 = icmp eq i8* %71, %arraydecay.i.i.i.i499
  br i1 %cmp.i.i.i500, label %_ZNSt7__cxx1112basic_stringIcSt11char_traitsIcESaIcEED2Ev.exit503, label %if.then.i.i501

if.then.i.i501:                                   ; preds = %invoke.cont52
  call void @_ZdlPv(i8* %71) #37
  br label %_ZNSt7__cxx1112basic_stringIcSt11char_traitsIcESaIcEED2Ev.exit503

_ZNSt7__cxx1112basic_stringIcSt11char_traitsIcESaIcEED2Ev.exit503: ; preds = %if.then.i.i501, %invoke.cont52
  call void @llvm.lifetime.end.p0i8(i64 32, i8* nonnull %33) #37
  br label %for.body57

for.cond.cleanup56:                               ; preds = %for.body57
  %putchar = call i32 @putchar(i32 10)
  %72 = load i32, i32* %l, align 8, !tbaa !57
  %mul = shl nsw i32 %72, 3
  %73 = load i32, i32* %b, align 8, !tbaa !60
  %mul69338 = or i32 %mul, 3
  %add = mul i32 %mul69338, %73
  %conv72 = sext i32 %add to i64
  %cmp.i.i = icmp slt i32 %add, 0
  br i1 %cmp.i.i, label %if.then.i.i511, label %_ZNSt6vectorIdSaIdEE17_S_check_init_lenEmRKS0_.exit.i

if.then.i.i511:                                   ; preds = %for.cond.cleanup56
  invoke void @_ZSt20__throw_length_errorPKc(i8* getelementptr inbounds ([49 x i8], [49 x i8]* @.str.113, i64 0, i64 0)) #39
          to label %.noexc unwind label %lpad74.loopexit.split-lp

.noexc:                                           ; preds = %if.then.i.i511
  unreachable

_ZNSt6vectorIdSaIdEE17_S_check_init_lenEmRKS0_.exit.i: ; preds = %for.cond.cleanup56
  %cmp.not.i.i.i.i512 = icmp eq i32 %add, 0
  br i1 %cmp.not.i.i.i.i512, label %invoke.cont75, label %_ZNSt16allocator_traitsISaIdEE8allocateERS0_m.exit.i.i.i.i

_ZNSt16allocator_traitsISaIdEE8allocateERS0_m.exit.i.i.i.i: ; preds = %_ZNSt6vectorIdSaIdEE17_S_check_init_lenEmRKS0_.exit.i
  %mul.i.i.i.i.i.i = shl nuw nsw i64 %conv72, 3
  %call2.i.i.i.i3.i.i515 = invoke noalias nonnull i8* @_Znwm(i64 %mul.i.i.i.i.i.i) #41
          to label %for.body.i.i.preheader.i.i.i.i.i unwind label %lpad74.loopexit

for.body.i.i.preheader.i.i.i.i.i:                 ; preds = %_ZNSt16allocator_traitsISaIdEE8allocateERS0_m.exit.i.i.i.i
  %74 = bitcast i8* %call2.i.i.i.i3.i.i515 to double*
  %add.ptr.i.i.i = getelementptr double, double* %74, i64 %conv72
  call void @llvm.memset.p0i8.i64(i8* nonnull align 8 %call2.i.i.i.i3.i.i515, i8 0, i64 %mul.i.i.i.i.i.i, i1 false)
  br label %invoke.cont75

lpad42:                                           ; preds = %if.then4.i.i.i.i485
  %75 = landingpad { i8*, i32 }
          cleanup
  br label %for.body.i.i.i.i.preheader

lpad49:                                           ; preds = %invoke.cont43
  %76 = landingpad { i8*, i32 }
          cleanup
  br label %ehcleanup54

lpad51:                                           ; preds = %invoke.cont50
  %77 = landingpad { i8*, i32 }
          cleanup
  %78 = load i8*, i8** %_M_p.i.i.i.i498, align 8, !tbaa !17
  %cmp.i.i.i518 = icmp eq i8* %78, %arraydecay.i.i.i.i499
  br i1 %cmp.i.i.i518, label %ehcleanup54, label %if.then.i.i519

if.then.i.i519:                                   ; preds = %lpad51
  call void @_ZdlPv(i8* %78) #37
  br label %ehcleanup54

ehcleanup54:                                      ; preds = %if.then.i.i519, %lpad51, %lpad49
  %.pn336 = phi { i8*, i32 } [ %76, %lpad49 ], [ %77, %lpad51 ], [ %77, %if.then.i.i519 ]
  call void @llvm.lifetime.end.p0i8(i64 32, i8* nonnull %33) #37
  br label %ehcleanup114

for.body57:                                       ; preds = %for.body57, %_ZNSt7__cxx1112basic_stringIcSt11char_traitsIcESaIcEED2Ev.exit503
  %indvars.iv = phi i64 [ 0, %_ZNSt7__cxx1112basic_stringIcSt11char_traitsIcESaIcEED2Ev.exit503 ], [ %indvars.iv.next, %for.body57 ]
  %79 = load double*, double** %_M_start.i522, align 8, !tbaa !51
  %add.ptr.i523 = getelementptr inbounds double, double* %79, i64 %indvars.iv
  %80 = load double, double* %add.ptr.i523, align 8, !tbaa !61
  %call62 = call i32 (i8*, ...) @printf(i8* nonnull dereferenceable(1) getelementptr inbounds ([4 x i8], [4 x i8]* @.str.18, i64 0, i64 0), double %80)
  %indvars.iv.next = add nuw nsw i64 %indvars.iv, 1
  %exitcond.not = icmp eq i64 %indvars.iv.next, 5
  br i1 %exitcond.not, label %for.cond.cleanup56, label %for.body57, !llvm.loop !63

invoke.cont75:                                    ; preds = %for.body.i.i.preheader.i.i.i.i.i, %_ZNSt6vectorIdSaIdEE17_S_check_init_lenEmRKS0_.exit.i
  %cond.i.i.i.i955 = phi double* [ %74, %for.body.i.i.preheader.i.i.i.i.i ], [ null, %_ZNSt6vectorIdSaIdEE17_S_check_init_lenEmRKS0_.exit.i ]
  %__first.addr.0.lcssa.i.i.i.i.i.i.i = phi double* [ %add.ptr.i.i.i, %for.body.i.i.preheader.i.i.i.i.i ], [ null, %_ZNSt6vectorIdSaIdEE17_S_check_init_lenEmRKS0_.exit.i ]
  call void @llvm.lifetime.start.p0i8(i64 16, i8* nonnull %35) #37
  call void @llvm.lifetime.start.p0i8(i64 16, i8* nonnull %36) #37
  %call78 = call i32 @gettimeofday(%struct.timeval* nonnull %start, i8* null) #37
  br label %for.body.i

for.body.i:                                       ; preds = %.noexc543, %invoke.cont75
  %i.027.i = phi i32 [ 0, %invoke.cont75 ], [ %inc.i, %.noexc543 ]
  %81 = load double*, double** %_M_finish.i.i541, align 8, !tbaa !49
  %82 = load double*, double** %_M_start.i26.i, align 8, !tbaa !51
  %sub.ptr.lhs.cast.i.i = ptrtoint double* %81 to i64
  %sub.ptr.rhs.cast.i.i = ptrtoint double* %82 to i64
  %sub.ptr.sub.i.i = sub i64 %sub.ptr.lhs.cast.i.i, %sub.ptr.rhs.cast.i.i
  %sub.ptr.div.i.i = ashr exact i64 %sub.ptr.sub.i.i, 3
  %add.ptr.i542 = getelementptr inbounds double, double* %cond.i.i.i.i955, i64 %sub.ptr.div.i.i
  call void @llvm.lifetime.start.p0i8(i64 8, i8* nonnull %37) #37
  store double 1.000000e+00, double* %lossb.i, align 8, !tbaa !61
  %83 = load i32, i32* %l, align 8, !tbaa !57
  %84 = load i32, i32* %c, align 4, !tbaa !64
  %85 = load i32, i32* %b, align 8, !tbaa !60
  %86 = load double*, double** %_M_start.i24.i, align 8, !tbaa !51
  %87 = load double*, double** %_M_start.i23.i, align 8, !tbaa !51
  %88 = load double*, double** %_M_start.i22.i, align 8, !tbaa !51
  invoke void @lstm_objective_b(i32 %83, i32 %84, i32 %85, double* %82, double* %cond.i.i.i.i955, double* %86, double* %add.ptr.i542, double* %87, double* %88, double* undef, double* nonnull %lossb.i)
          to label %.noexc543 unwind label %lpad79

.noexc543:                                        ; preds = %for.body.i
  call void @llvm.lifetime.end.p0i8(i64 8, i8* nonnull %37) #37
  %inc.i = add nuw nsw i32 %i.027.i, 1
  %exitcond.not.i = icmp eq i32 %inc.i, 100
  br i1 %exitcond.not.i, label %invoke.cont80, label %for.body.i, !llvm.loop !65

invoke.cont80:                                    ; preds = %.noexc543
  %call81 = call i32 @gettimeofday(%struct.timeval* nonnull %end, i8* null) #37
  %89 = load i64, i64* %tv_sec.i, align 8, !tbaa !44
  %90 = load i64, i64* %tv_sec1.i, align 8, !tbaa !44
  %sub.i = sub nsw i64 %89, %90
  %conv.i = sitofp i64 %sub.i to double
  %91 = load i64, i64* %tv_usec.i, align 8, !tbaa !46
  %92 = load i64, i64* %tv_usec2.i, align 8, !tbaa !46
  %sub3.i = sub nsw i64 %91, %92
  %conv4.i = sitofp i64 %sub3.i to double
  %mul.i = fmul fast double %conv4.i, 0x3EB0C6F7A0B5ED8D
  %add.i = fadd fast double %mul.i, %conv.i
  %conv5.i = fptrunc double %add.i to float
  %conv83 = fpext float %conv5.i to double
  %call85 = call i32 (i8*, ...) @printf(i8* nonnull dereferenceable(1) getelementptr inbounds ([25 x i8], [25 x i8]* @.str.20, i64 0, i64 0), double %conv83)
  %sub.ptr.lhs.cast.i = ptrtoint double* %__first.addr.0.lcssa.i.i.i.i.i.i.i to i64
  %sub.ptr.rhs.cast.i = ptrtoint double* %cond.i.i.i.i955 to i64
  %sub.ptr.sub.i = sub i64 %sub.ptr.lhs.cast.i, %sub.ptr.rhs.cast.i
  %sub.ptr.div.i = ashr exact i64 %sub.ptr.sub.i, 3
  %93 = trunc i64 %sub.ptr.div.i to i32
  %conv89 = add i32 %93, -5
  %conv911209 = zext i32 %conv89 to i64
  %cmp941210 = icmp ugt i64 %sub.ptr.div.i, %conv911209
  br i1 %cmp941210, label %for.body96, label %for.cond.cleanup95

for.cond.cleanup95:                               ; preds = %for.body96, %invoke.cont80
  %putchar342 = call i32 @putchar(i32 10)
  call void @llvm.lifetime.end.p0i8(i64 16, i8* nonnull %36) #37
  call void @llvm.lifetime.end.p0i8(i64 16, i8* nonnull %35) #37
  %tobool.not.i.i.i.i553 = icmp eq double* %cond.i.i.i.i955, null
  br i1 %tobool.not.i.i.i.i553, label %_ZN10LSTMOutputD2Ev.exit, label %if.then.i.i.i.i554

if.then.i.i.i.i554:                               ; preds = %for.cond.cleanup95
  %94 = bitcast double* %cond.i.i.i.i955 to i8*
  call void @_ZdlPv(i8* nonnull %94) #37
  br label %_ZN10LSTMOutputD2Ev.exit

_ZN10LSTMOutputD2Ev.exit:                         ; preds = %if.then.i.i.i.i554, %for.cond.cleanup95
  %95 = load double*, double** %_M_start.i22.i, align 8, !tbaa !51
  %tobool.not.i.i.i.i557 = icmp eq double* %95, null
  br i1 %tobool.not.i.i.i.i557, label %_ZNSt6vectorIdSaIdEED2Ev.exit.i561, label %if.then.i.i.i.i558

if.then.i.i.i.i558:                               ; preds = %_ZN10LSTMOutputD2Ev.exit
  %96 = bitcast double* %95 to i8*
  call void @_ZdlPv(i8* nonnull %96) #37
  br label %_ZNSt6vectorIdSaIdEED2Ev.exit.i561

_ZNSt6vectorIdSaIdEED2Ev.exit.i561:               ; preds = %if.then.i.i.i.i558, %_ZN10LSTMOutputD2Ev.exit
  %97 = load double*, double** %_M_start.i23.i, align 8, !tbaa !51
  %tobool.not.i.i.i3.i560 = icmp eq double* %97, null
  br i1 %tobool.not.i.i.i3.i560, label %_ZNSt6vectorIdSaIdEED2Ev.exit5.i565, label %if.then.i.i.i4.i562

if.then.i.i.i4.i562:                              ; preds = %_ZNSt6vectorIdSaIdEED2Ev.exit.i561
  %98 = bitcast double* %97 to i8*
  call void @_ZdlPv(i8* nonnull %98) #37
  br label %_ZNSt6vectorIdSaIdEED2Ev.exit5.i565

_ZNSt6vectorIdSaIdEED2Ev.exit5.i565:              ; preds = %if.then.i.i.i4.i562, %_ZNSt6vectorIdSaIdEED2Ev.exit.i561
  %99 = load double*, double** %_M_start.i24.i, align 8, !tbaa !51
  %tobool.not.i.i.i7.i564 = icmp eq double* %99, null
  br i1 %tobool.not.i.i.i7.i564, label %_ZNSt6vectorIdSaIdEED2Ev.exit9.i569, label %if.then.i.i.i8.i566

if.then.i.i.i8.i566:                              ; preds = %_ZNSt6vectorIdSaIdEED2Ev.exit5.i565
  %100 = bitcast double* %99 to i8*
  call void @_ZdlPv(i8* nonnull %100) #37
  br label %_ZNSt6vectorIdSaIdEED2Ev.exit9.i569

_ZNSt6vectorIdSaIdEED2Ev.exit9.i569:              ; preds = %if.then.i.i.i8.i566, %_ZNSt6vectorIdSaIdEED2Ev.exit5.i565
  %101 = load double*, double** %_M_start.i26.i, align 8, !tbaa !51
  %tobool.not.i.i.i11.i568 = icmp eq double* %101, null
  br i1 %tobool.not.i.i.i11.i568, label %_ZN9LSTMInputD2Ev.exit571, label %if.then.i.i.i12.i570

if.then.i.i.i12.i570:                             ; preds = %_ZNSt6vectorIdSaIdEED2Ev.exit9.i569
  %102 = bitcast double* %101 to i8*
  call void @_ZdlPv(i8* nonnull %102) #37
  br label %_ZN9LSTMInputD2Ev.exit571

_ZN9LSTMInputD2Ev.exit571:                        ; preds = %if.then.i.i.i12.i570, %_ZNSt6vectorIdSaIdEED2Ev.exit9.i569
  call void @llvm.lifetime.end.p0i8(i64 112, i8* nonnull %31) #37
  call void @llvm.lifetime.start.p0i8(i64 112, i8* nonnull %38) #37
  store i32 0, i32* %l117, align 8, !tbaa !57
  store i32 0, i32* %c118, align 4, !tbaa !64
  store i32 0, i32* %b119, align 8, !tbaa !60
  call void @llvm.memset.p0i8.i64(i8* nonnull align 8 dereferenceable(96) %50, i8 0, i64 96, i1 false)
  call void @llvm.lifetime.start.p0i8(i64 32, i8* nonnull %39) #37
  invoke void @_ZStplIcSt11char_traitsIcESaIcEENSt7__cxx1112basic_stringIT_T0_T1_EEPKS5_RKS8_(%"class.std::__cxx11::basic_string"* nonnull sret(%"class.std::__cxx11::basic_string") align 8 %ref.tmp124, i8* getelementptr inbounds ([6 x i8], [6 x i8]* @.str.17, i64 0, i64 0), %"class.std::__cxx11::basic_string"* nonnull align 8 dereferenceable(32) %path)
          to label %invoke.cont126 unwind label %lpad125

lpad74.loopexit:                                  ; preds = %_ZNSt16allocator_traitsISaIdEE8allocateERS0_m.exit.i.i.i.i
  %lpad.loopexit = landingpad { i8*, i32 }
          cleanup
  br label %ehcleanup114

lpad74.loopexit.split-lp:                         ; preds = %if.then.i.i511
  %lpad.loopexit.split-lp = landingpad { i8*, i32 }
          cleanup
  br label %ehcleanup114

lpad79:                                           ; preds = %for.body.i
  %103 = landingpad { i8*, i32 }
          cleanup
  call void @llvm.lifetime.end.p0i8(i64 16, i8* nonnull %36) #37
  call void @llvm.lifetime.end.p0i8(i64 16, i8* nonnull %35) #37
  %tobool.not.i.i.i.i583 = icmp eq double* %cond.i.i.i.i955, null
  br i1 %tobool.not.i.i.i.i583, label %ehcleanup114, label %if.then.i.i.i.i584

if.then.i.i.i.i584:                               ; preds = %lpad79
  %104 = bitcast double* %cond.i.i.i.i955 to i8*
  call void @_ZdlPv(i8* nonnull %104) #37
  br label %ehcleanup114

for.body96:                                       ; preds = %for.body96, %invoke.cont80
  %conv911212 = phi i64 [ %conv91, %for.body96 ], [ %conv911209, %invoke.cont80 ]
  %i86.01211 = phi i32 [ %inc104, %for.body96 ], [ %conv89, %invoke.cont80 ]
  %add.ptr.i588 = getelementptr inbounds double, double* %cond.i.i.i.i955, i64 %conv911212
  %105 = load double, double* %add.ptr.i588, align 8, !tbaa !61
  %call102 = call i32 (i8*, ...) @printf(i8* nonnull dereferenceable(1) getelementptr inbounds ([4 x i8], [4 x i8]* @.str.18, i64 0, i64 0), double %105)
  %inc104 = add i32 %i86.01211, 1
  %conv91 = zext i32 %inc104 to i64
  %cmp94 = icmp ugt i64 %sub.ptr.div.i, %conv91
  br i1 %cmp94, label %for.body96, label %for.cond.cleanup95, !llvm.loop !66

invoke.cont126:                                   ; preds = %_ZN9LSTMInputD2Ev.exit571
  invoke void @_Z18read_lstm_instanceRKNSt7__cxx1112basic_stringIcSt11char_traitsIcESaIcEEEPiS7_S7_RSt6vectorIdSaIdEESB_SB_SB_(%"class.std::__cxx11::basic_string"* nonnull align 8 dereferenceable(32) %ref.tmp124, i32* nonnull %l117, i32* nonnull %c118, i32* nonnull %b119, %"class.std::vector.3"* nonnull align 8 dereferenceable(24) %main_params120, %"class.std::vector.3"* nonnull align 8 dereferenceable(24) %extra_params121, %"class.std::vector.3"* nonnull align 8 dereferenceable(24) %state122, %"class.std::vector.3"* nonnull align 8 dereferenceable(24) %sequence123)
          to label %invoke.cont135 unwind label %lpad134

invoke.cont135:                                   ; preds = %invoke.cont126
  %106 = load i8*, i8** %_M_p.i.i.i.i631, align 8, !tbaa !17
  %cmp.i.i.i633 = icmp eq i8* %106, %arraydecay.i.i.i.i632
  br i1 %cmp.i.i.i633, label %_ZNSt7__cxx1112basic_stringIcSt11char_traitsIcESaIcEED2Ev.exit636, label %if.then.i.i634

if.then.i.i634:                                   ; preds = %invoke.cont135
  call void @_ZdlPv(i8* %106) #37
  br label %_ZNSt7__cxx1112basic_stringIcSt11char_traitsIcESaIcEED2Ev.exit636

_ZNSt7__cxx1112basic_stringIcSt11char_traitsIcESaIcEED2Ev.exit636: ; preds = %if.then.i.i634, %invoke.cont135
  call void @llvm.lifetime.end.p0i8(i64 32, i8* nonnull %39) #37
  %107 = load double*, double** %_M_finish.i637, align 8, !tbaa !49
  %108 = load double*, double** %_M_start.i638, align 8, !tbaa !51
  %sub.ptr.lhs.cast.i639 = ptrtoint double* %107 to i64
  %sub.ptr.rhs.cast.i640 = ptrtoint double* %108 to i64
  %sub.ptr.sub.i641 = sub i64 %sub.ptr.lhs.cast.i639, %sub.ptr.rhs.cast.i640
  %sub.ptr.div.i642 = ashr exact i64 %sub.ptr.sub.i641, 3
  %cmp.i.i663 = icmp ugt i64 %sub.ptr.div.i642, 1152921504606846975
  br i1 %cmp.i.i663, label %if.then.i.i664, label %_ZNSt6vectorIdSaIdEE17_S_check_init_lenEmRKS0_.exit.i666

if.then.i.i664:                                   ; preds = %_ZNSt7__cxx1112basic_stringIcSt11char_traitsIcESaIcEED2Ev.exit636
  invoke void @_ZSt20__throw_length_errorPKc(i8* getelementptr inbounds ([49 x i8], [49 x i8]* @.str.113, i64 0, i64 0)) #39
          to label %.noexc678 unwind label %lpad142.loopexit.split-lp

.noexc678:                                        ; preds = %if.then.i.i664
  unreachable

_ZNSt6vectorIdSaIdEE17_S_check_init_lenEmRKS0_.exit.i666: ; preds = %_ZNSt7__cxx1112basic_stringIcSt11char_traitsIcESaIcEED2Ev.exit636
  %cmp.not.i.i.i.i665 = icmp eq i64 %sub.ptr.sub.i641, 0
  br i1 %cmp.not.i.i.i.i665, label %invoke.cont143, label %_ZNSt16allocator_traitsISaIdEE8allocateERS0_m.exit.i.i.i.i667

_ZNSt16allocator_traitsISaIdEE8allocateERS0_m.exit.i.i.i.i667: ; preds = %_ZNSt6vectorIdSaIdEE17_S_check_init_lenEmRKS0_.exit.i666
  %call2.i.i.i.i3.i.i680 = invoke noalias nonnull i8* @_Znwm(i64 %sub.ptr.sub.i641) #41
          to label %for.body.i.i.preheader.i.i.i.i.i674 unwind label %lpad142.loopexit

for.body.i.i.preheader.i.i.i.i.i674:              ; preds = %_ZNSt16allocator_traitsISaIdEE8allocateERS0_m.exit.i.i.i.i667
  %109 = bitcast i8* %call2.i.i.i.i3.i.i680 to double*
  call void @llvm.memset.p0i8.i64(i8* nonnull align 8 %call2.i.i.i.i3.i.i680, i8 0, i64 %sub.ptr.sub.i641, i1 false)
  br label %invoke.cont143

invoke.cont143:                                   ; preds = %for.body.i.i.preheader.i.i.i.i.i674, %_ZNSt6vectorIdSaIdEE17_S_check_init_lenEmRKS0_.exit.i666
  %cond.i.i.i.i668960 = phi double* [ %109, %for.body.i.i.preheader.i.i.i.i.i674 ], [ null, %_ZNSt6vectorIdSaIdEE17_S_check_init_lenEmRKS0_.exit.i666 ]
  %110 = load i32, i32* %l117, align 8, !tbaa !57
  %mul148 = shl nsw i32 %110, 3
  %111 = load i32, i32* %b119, align 8, !tbaa !60
  %mul150345 = or i32 %mul148, 3
  %add153 = mul i32 %mul150345, %111
  %conv157 = sext i32 %add153 to i64
  %cmp.i.i702 = icmp slt i32 %add153, 0
  br i1 %cmp.i.i702, label %if.then.i.i703, label %_ZNSt6vectorIdSaIdEE17_S_check_init_lenEmRKS0_.exit.i705

if.then.i.i703:                                   ; preds = %invoke.cont143
  invoke void @_ZSt20__throw_length_errorPKc(i8* getelementptr inbounds ([49 x i8], [49 x i8]* @.str.113, i64 0, i64 0)) #39
          to label %.noexc718 unwind label %lpad159.loopexit.split-lp

.noexc718:                                        ; preds = %if.then.i.i703
  unreachable

_ZNSt6vectorIdSaIdEE17_S_check_init_lenEmRKS0_.exit.i705: ; preds = %invoke.cont143
  %cmp.not.i.i.i.i704 = icmp eq i32 %add153, 0
  br i1 %cmp.not.i.i.i.i704, label %invoke.cont160, label %_ZNSt16allocator_traitsISaIdEE8allocateERS0_m.exit.i.i.i.i707

_ZNSt16allocator_traitsISaIdEE8allocateERS0_m.exit.i.i.i.i707: ; preds = %_ZNSt6vectorIdSaIdEE17_S_check_init_lenEmRKS0_.exit.i705
  %mul.i.i.i.i.i.i706 = shl nuw nsw i64 %conv157, 3
  %call2.i.i.i.i3.i.i720 = invoke noalias nonnull i8* @_Znwm(i64 %mul.i.i.i.i.i.i706) #41
          to label %for.body.i.i.preheader.i.i.i.i.i714 unwind label %lpad159.loopexit

for.body.i.i.preheader.i.i.i.i.i714:              ; preds = %_ZNSt16allocator_traitsISaIdEE8allocateERS0_m.exit.i.i.i.i707
  %112 = bitcast i8* %call2.i.i.i.i3.i.i720 to double*
  %add.ptr.i.i.i710 = getelementptr double, double* %112, i64 %conv157
  call void @llvm.memset.p0i8.i64(i8* nonnull align 8 %call2.i.i.i.i3.i.i720, i8 0, i64 %mul.i.i.i.i.i.i706, i1 false)
  br label %invoke.cont160

invoke.cont160:                                   ; preds = %for.body.i.i.preheader.i.i.i.i.i714, %_ZNSt6vectorIdSaIdEE17_S_check_init_lenEmRKS0_.exit.i705
  %cond.i.i.i.i708965 = phi double* [ %112, %for.body.i.i.preheader.i.i.i.i.i714 ], [ null, %_ZNSt6vectorIdSaIdEE17_S_check_init_lenEmRKS0_.exit.i705 ]
  %__first.addr.0.lcssa.i.i.i.i.i.i.i715 = phi double* [ %add.ptr.i.i.i710, %for.body.i.i.preheader.i.i.i.i.i714 ], [ null, %_ZNSt6vectorIdSaIdEE17_S_check_init_lenEmRKS0_.exit.i705 ]
  call void @llvm.lifetime.start.p0i8(i64 16, i8* nonnull %41) #37
  call void @llvm.lifetime.start.p0i8(i64 16, i8* nonnull %42) #37
  %call165 = call i32 @gettimeofday(%struct.timeval* nonnull %start163, i8* null) #37
  br label %for.body.i739

for.body.i739:                                    ; preds = %.noexc740, %invoke.cont160
  %i.027.i731 = phi i32 [ 0, %invoke.cont160 ], [ %inc.i737, %.noexc740 ]
  %113 = load double*, double** %_M_finish.i.i723, align 8, !tbaa !49
  %114 = load double*, double** %_M_start.i26.i724, align 8, !tbaa !51
  %sub.ptr.lhs.cast.i.i732 = ptrtoint double* %113 to i64
  %sub.ptr.rhs.cast.i.i733 = ptrtoint double* %114 to i64
  %sub.ptr.sub.i.i734 = sub i64 %sub.ptr.lhs.cast.i.i732, %sub.ptr.rhs.cast.i.i733
  %sub.ptr.div.i.i735 = ashr exact i64 %sub.ptr.sub.i.i734, 3
  %add.ptr.i736 = getelementptr inbounds double, double* %cond.i.i.i.i708965, i64 %sub.ptr.div.i.i735
  %115 = load i32, i32* %l117, align 8, !tbaa !57
  %116 = load i32, i32* %c118, align 4, !tbaa !64
  %117 = load i32, i32* %b119, align 8, !tbaa !60
  %118 = load double*, double** %_M_start.i24.i728, align 8, !tbaa !51
  %119 = load double*, double** %_M_start.i23.i729, align 8, !tbaa !51
  %120 = load double*, double** %_M_start.i22.i730, align 8, !tbaa !51
  invoke void @adept_dlstm_objective(i32 %115, i32 %116, i32 %117, double* %114, double* %cond.i.i.i.i708965, double* %118, double* %add.ptr.i736, double* %119, double* %120, double* undef, double* undef)
          to label %.noexc740 unwind label %lpad166

.noexc740:                                        ; preds = %for.body.i739
  %inc.i737 = add nuw nsw i32 %i.027.i731, 1
  %exitcond.not.i738 = icmp eq i32 %inc.i737, 100
  br i1 %exitcond.not.i738, label %invoke.cont167, label %for.body.i739, !llvm.loop !67

invoke.cont167:                                   ; preds = %.noexc740
  %call168 = call i32 @gettimeofday(%struct.timeval* nonnull %end164, i8* null) #37
  %121 = load i64, i64* %tv_sec.i741, align 8, !tbaa !44
  %122 = load i64, i64* %tv_sec1.i742, align 8, !tbaa !44
  %sub.i743 = sub nsw i64 %121, %122
  %conv.i744 = sitofp i64 %sub.i743 to double
  %123 = load i64, i64* %tv_usec.i745, align 8, !tbaa !46
  %124 = load i64, i64* %tv_usec2.i746, align 8, !tbaa !46
  %sub3.i747 = sub nsw i64 %123, %124
  %conv4.i748 = sitofp i64 %sub3.i747 to double
  %mul.i749 = fmul fast double %conv4.i748, 0x3EB0C6F7A0B5ED8D
  %add.i750 = fadd fast double %mul.i749, %conv.i744
  %conv5.i751 = fptrunc double %add.i750 to float
  %conv170 = fpext float %conv5.i751 to double
  %call172 = call i32 (i8*, ...) @printf(i8* nonnull dereferenceable(1) getelementptr inbounds ([22 x i8], [22 x i8]* @.str.21, i64 0, i64 0), double %conv170)
  %sub.ptr.lhs.cast.i754 = ptrtoint double* %__first.addr.0.lcssa.i.i.i.i.i.i.i715 to i64
  %sub.ptr.rhs.cast.i755 = ptrtoint double* %cond.i.i.i.i708965 to i64
  %sub.ptr.sub.i756 = sub i64 %sub.ptr.lhs.cast.i754, %sub.ptr.rhs.cast.i755
  %sub.ptr.div.i757 = ashr exact i64 %sub.ptr.sub.i756, 3
  %125 = trunc i64 %sub.ptr.div.i757 to i32
  %conv177 = add i32 %125, -5
  %conv1791213 = zext i32 %conv177 to i64
  %cmp1821214 = icmp ugt i64 %sub.ptr.div.i757, %conv1791213
  br i1 %cmp1821214, label %for.body184, label %for.cond.cleanup183

for.cond.cleanup183:                              ; preds = %for.body184, %invoke.cont167
  %putchar350 = call i32 @putchar(i32 10)
  call void @llvm.lifetime.end.p0i8(i64 16, i8* nonnull %42) #37
  call void @llvm.lifetime.end.p0i8(i64 16, i8* nonnull %41) #37
  %tobool.not.i.i.i.i777 = icmp eq double* %cond.i.i.i.i708965, null
  br i1 %tobool.not.i.i.i.i777, label %_ZN10LSTMOutputD2Ev.exit780, label %if.then.i.i.i.i778

if.then.i.i.i.i778:                               ; preds = %for.cond.cleanup183
  %126 = bitcast double* %cond.i.i.i.i708965 to i8*
  call void @_ZdlPv(i8* nonnull %126) #37
  br label %_ZN10LSTMOutputD2Ev.exit780

_ZN10LSTMOutputD2Ev.exit780:                      ; preds = %if.then.i.i.i.i778, %for.cond.cleanup183
  %tobool.not.i.i.i782 = icmp eq double* %cond.i.i.i.i668960, null
  br i1 %tobool.not.i.i.i782, label %_ZNSt6vectorIdSaIdEED2Ev.exit785, label %if.then.i.i.i784

if.then.i.i.i784:                                 ; preds = %_ZN10LSTMOutputD2Ev.exit780
  %127 = bitcast double* %cond.i.i.i.i668960 to i8*
  call void @_ZdlPv(i8* nonnull %127) #37
  br label %_ZNSt6vectorIdSaIdEED2Ev.exit785

_ZNSt6vectorIdSaIdEED2Ev.exit785:                 ; preds = %if.then.i.i.i784, %_ZN10LSTMOutputD2Ev.exit780
  %128 = load double*, double** %_M_start.i22.i730, align 8, !tbaa !51
  %tobool.not.i.i.i.i787 = icmp eq double* %128, null
  br i1 %tobool.not.i.i.i.i787, label %_ZNSt6vectorIdSaIdEED2Ev.exit.i791, label %if.then.i.i.i.i788

if.then.i.i.i.i788:                               ; preds = %_ZNSt6vectorIdSaIdEED2Ev.exit785
  %129 = bitcast double* %128 to i8*
  call void @_ZdlPv(i8* nonnull %129) #37
  br label %_ZNSt6vectorIdSaIdEED2Ev.exit.i791

_ZNSt6vectorIdSaIdEED2Ev.exit.i791:               ; preds = %if.then.i.i.i.i788, %_ZNSt6vectorIdSaIdEED2Ev.exit785
  %130 = load double*, double** %_M_start.i23.i729, align 8, !tbaa !51
  %tobool.not.i.i.i3.i790 = icmp eq double* %130, null
  br i1 %tobool.not.i.i.i3.i790, label %_ZNSt6vectorIdSaIdEED2Ev.exit5.i795, label %if.then.i.i.i4.i792

if.then.i.i.i4.i792:                              ; preds = %_ZNSt6vectorIdSaIdEED2Ev.exit.i791
  %131 = bitcast double* %130 to i8*
  call void @_ZdlPv(i8* nonnull %131) #37
  br label %_ZNSt6vectorIdSaIdEED2Ev.exit5.i795

_ZNSt6vectorIdSaIdEED2Ev.exit5.i795:              ; preds = %if.then.i.i.i4.i792, %_ZNSt6vectorIdSaIdEED2Ev.exit.i791
  %132 = load double*, double** %_M_start.i24.i728, align 8, !tbaa !51
  %tobool.not.i.i.i7.i794 = icmp eq double* %132, null
  br i1 %tobool.not.i.i.i7.i794, label %_ZNSt6vectorIdSaIdEED2Ev.exit9.i799, label %if.then.i.i.i8.i796

if.then.i.i.i8.i796:                              ; preds = %_ZNSt6vectorIdSaIdEED2Ev.exit5.i795
  %133 = bitcast double* %132 to i8*
  call void @_ZdlPv(i8* nonnull %133) #37
  br label %_ZNSt6vectorIdSaIdEED2Ev.exit9.i799

_ZNSt6vectorIdSaIdEED2Ev.exit9.i799:              ; preds = %if.then.i.i.i8.i796, %_ZNSt6vectorIdSaIdEED2Ev.exit5.i795
  %134 = load double*, double** %_M_start.i26.i724, align 8, !tbaa !51
  %tobool.not.i.i.i11.i798 = icmp eq double* %134, null
  br i1 %tobool.not.i.i.i11.i798, label %_ZN9LSTMInputD2Ev.exit801, label %if.then.i.i.i12.i800

if.then.i.i.i12.i800:                             ; preds = %_ZNSt6vectorIdSaIdEED2Ev.exit9.i799
  %135 = bitcast double* %134 to i8*
  call void @_ZdlPv(i8* nonnull %135) #37
  br label %_ZN9LSTMInputD2Ev.exit801

_ZN9LSTMInputD2Ev.exit801:                        ; preds = %if.then.i.i.i12.i800, %_ZNSt6vectorIdSaIdEED2Ev.exit9.i799
  call void @llvm.lifetime.end.p0i8(i64 112, i8* nonnull %38) #37
  call void @llvm.lifetime.start.p0i8(i64 112, i8* nonnull %43) #37
  store i32 0, i32* %l207, align 8, !tbaa !57
  store i32 0, i32* %c208, align 4, !tbaa !64
  store i32 0, i32* %b209, align 8, !tbaa !60
  call void @llvm.memset.p0i8.i64(i8* nonnull align 8 dereferenceable(96) %51, i8 0, i64 96, i1 false)
  call void @llvm.lifetime.start.p0i8(i64 32, i8* nonnull %44) #37
  invoke void @_ZStplIcSt11char_traitsIcESaIcEENSt7__cxx1112basic_stringIT_T0_T1_EEPKS5_RKS8_(%"class.std::__cxx11::basic_string"* nonnull sret(%"class.std::__cxx11::basic_string") align 8 %ref.tmp214, i8* getelementptr inbounds ([6 x i8], [6 x i8]* @.str.17, i64 0, i64 0), %"class.std::__cxx11::basic_string"* nonnull align 8 dereferenceable(32) %path)
          to label %invoke.cont216 unwind label %lpad215

ehcleanup114:                                     ; preds = %if.then.i.i.i.i584, %lpad79, %lpad74.loopexit.split-lp, %lpad74.loopexit, %ehcleanup54
  %.pn339.pn = phi { i8*, i32 } [ %.pn336, %ehcleanup54 ], [ %103, %lpad79 ], [ %103, %if.then.i.i.i.i584 ], [ %lpad.loopexit, %lpad74.loopexit ], [ %lpad.loopexit.split-lp, %lpad74.loopexit.split-lp ]
  %136 = load double*, double** %_M_start.i22.i, align 8, !tbaa !51
  %tobool.not.i.i.i.i810 = icmp eq double* %136, null
  br i1 %tobool.not.i.i.i.i810, label %_ZNSt6vectorIdSaIdEED2Ev.exit.i814, label %if.then.i.i.i.i811

if.then.i.i.i.i811:                               ; preds = %ehcleanup114
  %137 = bitcast double* %136 to i8*
  call void @_ZdlPv(i8* nonnull %137) #37
  br label %_ZNSt6vectorIdSaIdEED2Ev.exit.i814

_ZNSt6vectorIdSaIdEED2Ev.exit.i814:               ; preds = %if.then.i.i.i.i811, %ehcleanup114
  %138 = load double*, double** %_M_start.i23.i, align 8, !tbaa !51
  %tobool.not.i.i.i3.i813 = icmp eq double* %138, null
  br i1 %tobool.not.i.i.i3.i813, label %_ZNSt6vectorIdSaIdEED2Ev.exit5.i818, label %if.then.i.i.i4.i815

if.then.i.i.i4.i815:                              ; preds = %_ZNSt6vectorIdSaIdEED2Ev.exit.i814
  %139 = bitcast double* %138 to i8*
  call void @_ZdlPv(i8* nonnull %139) #37
  br label %_ZNSt6vectorIdSaIdEED2Ev.exit5.i818

_ZNSt6vectorIdSaIdEED2Ev.exit5.i818:              ; preds = %if.then.i.i.i4.i815, %_ZNSt6vectorIdSaIdEED2Ev.exit.i814
  %140 = load double*, double** %_M_start.i24.i, align 8, !tbaa !51
  %tobool.not.i.i.i7.i817 = icmp eq double* %140, null
  br i1 %tobool.not.i.i.i7.i817, label %_ZNSt6vectorIdSaIdEED2Ev.exit9.i822, label %if.then.i.i.i8.i819

if.then.i.i.i8.i819:                              ; preds = %_ZNSt6vectorIdSaIdEED2Ev.exit5.i818
  %141 = bitcast double* %140 to i8*
  call void @_ZdlPv(i8* nonnull %141) #37
  br label %_ZNSt6vectorIdSaIdEED2Ev.exit9.i822

_ZNSt6vectorIdSaIdEED2Ev.exit9.i822:              ; preds = %if.then.i.i.i8.i819, %_ZNSt6vectorIdSaIdEED2Ev.exit5.i818
  %142 = load double*, double** %_M_start.i26.i, align 8, !tbaa !51
  %tobool.not.i.i.i11.i821 = icmp eq double* %142, null
  br i1 %tobool.not.i.i.i11.i821, label %_ZN9LSTMInputD2Ev.exit824, label %if.then.i.i.i12.i823

if.then.i.i.i12.i823:                             ; preds = %_ZNSt6vectorIdSaIdEED2Ev.exit9.i822
  %143 = bitcast double* %142 to i8*
  call void @_ZdlPv(i8* nonnull %143) #37
  br label %_ZN9LSTMInputD2Ev.exit824

_ZN9LSTMInputD2Ev.exit824:                        ; preds = %if.then.i.i.i12.i823, %_ZNSt6vectorIdSaIdEED2Ev.exit9.i822
  call void @llvm.lifetime.end.p0i8(i64 112, i8* nonnull %31) #37
  br label %ehcleanup296

lpad125:                                          ; preds = %_ZN9LSTMInputD2Ev.exit571
  %144 = landingpad { i8*, i32 }
          cleanup
  br label %ehcleanup137

lpad134:                                          ; preds = %invoke.cont126
  %145 = landingpad { i8*, i32 }
          cleanup
  %146 = load i8*, i8** %_M_p.i.i.i.i631, align 8, !tbaa !17
  %cmp.i.i.i827 = icmp eq i8* %146, %arraydecay.i.i.i.i632
  br i1 %cmp.i.i.i827, label %ehcleanup137, label %if.then.i.i828

if.then.i.i828:                                   ; preds = %lpad134
  call void @_ZdlPv(i8* %146) #37
  br label %ehcleanup137

ehcleanup137:                                     ; preds = %if.then.i.i828, %lpad134, %lpad125
  %.pn343 = phi { i8*, i32 } [ %144, %lpad125 ], [ %145, %lpad134 ], [ %145, %if.then.i.i828 ]
  call void @llvm.lifetime.end.p0i8(i64 32, i8* nonnull %39) #37
  br label %ehcleanup204

lpad142.loopexit:                                 ; preds = %_ZNSt16allocator_traitsISaIdEE8allocateERS0_m.exit.i.i.i.i667
  %lpad.loopexit981 = landingpad { i8*, i32 }
          cleanup
  br label %ehcleanup204

lpad142.loopexit.split-lp:                        ; preds = %if.then.i.i664
  %lpad.loopexit.split-lp982 = landingpad { i8*, i32 }
          cleanup
  br label %ehcleanup204

lpad159.loopexit:                                 ; preds = %_ZNSt16allocator_traitsISaIdEE8allocateERS0_m.exit.i.i.i.i707
  %lpad.loopexit984 = landingpad { i8*, i32 }
          cleanup
  br label %ehcleanup200

lpad159.loopexit.split-lp:                        ; preds = %if.then.i.i703
  %lpad.loopexit.split-lp985 = landingpad { i8*, i32 }
          cleanup
  br label %ehcleanup200

lpad166:                                          ; preds = %for.body.i739
  %147 = landingpad { i8*, i32 }
          cleanup
  call void @llvm.lifetime.end.p0i8(i64 16, i8* nonnull %42) #37
  call void @llvm.lifetime.end.p0i8(i64 16, i8* nonnull %41) #37
  %tobool.not.i.i.i.i805 = icmp eq double* %cond.i.i.i.i708965, null
  br i1 %tobool.not.i.i.i.i805, label %ehcleanup200, label %if.then.i.i.i.i806

if.then.i.i.i.i806:                               ; preds = %lpad166
  %148 = bitcast double* %cond.i.i.i.i708965 to i8*
  call void @_ZdlPv(i8* nonnull %148) #37
  br label %ehcleanup200

for.body184:                                      ; preds = %for.body184, %invoke.cont167
  %conv1791216 = phi i64 [ %conv179, %for.body184 ], [ %conv1791213, %invoke.cont167 ]
  %i173.01215 = phi i32 [ %inc192, %for.body184 ], [ %conv177, %invoke.cont167 ]
  %add.ptr.i803 = getelementptr inbounds double, double* %cond.i.i.i.i708965, i64 %conv1791216
  %149 = load double, double* %add.ptr.i803, align 8, !tbaa !61
  %call190 = call i32 (i8*, ...) @printf(i8* nonnull dereferenceable(1) getelementptr inbounds ([4 x i8], [4 x i8]* @.str.18, i64 0, i64 0), double %149)
  %inc192 = add i32 %i173.01215, 1
  %conv179 = zext i32 %inc192 to i64
  %cmp182 = icmp ugt i64 %sub.ptr.div.i757, %conv179
  br i1 %cmp182, label %for.body184, label %for.cond.cleanup183, !llvm.loop !68

invoke.cont216:                                   ; preds = %_ZN9LSTMInputD2Ev.exit801
  invoke void @_Z18read_lstm_instanceRKNSt7__cxx1112basic_stringIcSt11char_traitsIcESaIcEEEPiS7_S7_RSt6vectorIdSaIdEESB_SB_SB_(%"class.std::__cxx11::basic_string"* nonnull align 8 dereferenceable(32) %ref.tmp214, i32* nonnull %l207, i32* nonnull %c208, i32* nonnull %b209, %"class.std::vector.3"* nonnull align 8 dereferenceable(24) %main_params210, %"class.std::vector.3"* nonnull align 8 dereferenceable(24) %extra_params211, %"class.std::vector.3"* nonnull align 8 dereferenceable(24) %state212, %"class.std::vector.3"* nonnull align 8 dereferenceable(24) %sequence213)
          to label %invoke.cont225 unwind label %lpad224

invoke.cont225:                                   ; preds = %invoke.cont216
  %150 = load i8*, i8** %_M_p.i.i.i.i764, align 8, !tbaa !17
  %cmp.i.i.i766 = icmp eq i8* %150, %arraydecay.i.i.i.i765
  br i1 %cmp.i.i.i766, label %_ZNSt7__cxx1112basic_stringIcSt11char_traitsIcESaIcEED2Ev.exit769, label %if.then.i.i767

if.then.i.i767:                                   ; preds = %invoke.cont225
  call void @_ZdlPv(i8* %150) #37
  br label %_ZNSt7__cxx1112basic_stringIcSt11char_traitsIcESaIcEED2Ev.exit769

_ZNSt7__cxx1112basic_stringIcSt11char_traitsIcESaIcEED2Ev.exit769: ; preds = %if.then.i.i767, %invoke.cont225
  call void @llvm.lifetime.end.p0i8(i64 32, i8* nonnull %44) #37
  %151 = load double*, double** %_M_finish.i758, align 8, !tbaa !49
  %152 = load double*, double** %_M_start.i759, align 8, !tbaa !51
  %sub.ptr.lhs.cast.i760 = ptrtoint double* %151 to i64
  %sub.ptr.rhs.cast.i761 = ptrtoint double* %152 to i64
  %sub.ptr.sub.i762 = sub i64 %sub.ptr.lhs.cast.i760, %sub.ptr.rhs.cast.i761
  %sub.ptr.div.i763 = ashr exact i64 %sub.ptr.sub.i762, 3
  %cmp.i.i682 = icmp ugt i64 %sub.ptr.div.i763, 1152921504606846975
  br i1 %cmp.i.i682, label %if.then.i.i683, label %_ZNSt6vectorIdSaIdEE17_S_check_init_lenEmRKS0_.exit.i685

if.then.i.i683:                                   ; preds = %_ZNSt7__cxx1112basic_stringIcSt11char_traitsIcESaIcEED2Ev.exit769
  invoke void @_ZSt20__throw_length_errorPKc(i8* getelementptr inbounds ([49 x i8], [49 x i8]* @.str.113, i64 0, i64 0)) #39
          to label %.noexc698 unwind label %lpad232.loopexit.split-lp

.noexc698:                                        ; preds = %if.then.i.i683
  unreachable

_ZNSt6vectorIdSaIdEE17_S_check_init_lenEmRKS0_.exit.i685: ; preds = %_ZNSt7__cxx1112basic_stringIcSt11char_traitsIcESaIcEED2Ev.exit769
  %cmp.not.i.i.i.i684 = icmp eq i64 %sub.ptr.sub.i762, 0
  br i1 %cmp.not.i.i.i.i684, label %invoke.cont233, label %_ZNSt16allocator_traitsISaIdEE8allocateERS0_m.exit.i.i.i.i687

_ZNSt16allocator_traitsISaIdEE8allocateERS0_m.exit.i.i.i.i687: ; preds = %_ZNSt6vectorIdSaIdEE17_S_check_init_lenEmRKS0_.exit.i685
  %call2.i.i.i.i3.i.i700 = invoke noalias nonnull i8* @_Znwm(i64 %sub.ptr.sub.i762) #41
          to label %for.body.i.i.preheader.i.i.i.i.i694 unwind label %lpad232.loopexit

for.body.i.i.preheader.i.i.i.i.i694:              ; preds = %_ZNSt16allocator_traitsISaIdEE8allocateERS0_m.exit.i.i.i.i687
  %153 = bitcast i8* %call2.i.i.i.i3.i.i700 to double*
  call void @llvm.memset.p0i8.i64(i8* nonnull align 8 %call2.i.i.i.i3.i.i700, i8 0, i64 %sub.ptr.sub.i762, i1 false)
  br label %invoke.cont233

invoke.cont233:                                   ; preds = %for.body.i.i.preheader.i.i.i.i.i694, %_ZNSt6vectorIdSaIdEE17_S_check_init_lenEmRKS0_.exit.i685
  %cond.i.i.i.i688970 = phi double* [ %153, %for.body.i.i.preheader.i.i.i.i.i694 ], [ null, %_ZNSt6vectorIdSaIdEE17_S_check_init_lenEmRKS0_.exit.i685 ]
  %154 = load i32, i32* %l207, align 8, !tbaa !57
  %mul238 = shl nsw i32 %154, 3
  %155 = load i32, i32* %b209, align 8, !tbaa !60
  %mul240359 = or i32 %mul238, 3
  %add243 = mul i32 %mul240359, %155
  %conv247 = sext i32 %add243 to i64
  %cmp.i.i643 = icmp slt i32 %add243, 0
  br i1 %cmp.i.i643, label %if.then.i.i644, label %_ZNSt6vectorIdSaIdEE17_S_check_init_lenEmRKS0_.exit.i646

if.then.i.i644:                                   ; preds = %invoke.cont233
  invoke void @_ZSt20__throw_length_errorPKc(i8* getelementptr inbounds ([49 x i8], [49 x i8]* @.str.113, i64 0, i64 0)) #39
          to label %.noexc659 unwind label %lpad249.loopexit.split-lp

.noexc659:                                        ; preds = %if.then.i.i644
  unreachable

_ZNSt6vectorIdSaIdEE17_S_check_init_lenEmRKS0_.exit.i646: ; preds = %invoke.cont233
  %cmp.not.i.i.i.i645 = icmp eq i32 %add243, 0
  br i1 %cmp.not.i.i.i.i645, label %invoke.cont250, label %_ZNSt16allocator_traitsISaIdEE8allocateERS0_m.exit.i.i.i.i648

_ZNSt16allocator_traitsISaIdEE8allocateERS0_m.exit.i.i.i.i648: ; preds = %_ZNSt6vectorIdSaIdEE17_S_check_init_lenEmRKS0_.exit.i646
  %mul.i.i.i.i.i.i647 = shl nuw nsw i64 %conv247, 3
  %call2.i.i.i.i3.i.i661 = invoke noalias nonnull i8* @_Znwm(i64 %mul.i.i.i.i.i.i647) #41
          to label %for.body.i.i.preheader.i.i.i.i.i655 unwind label %lpad249.loopexit

for.body.i.i.preheader.i.i.i.i.i655:              ; preds = %_ZNSt16allocator_traitsISaIdEE8allocateERS0_m.exit.i.i.i.i648
  %156 = bitcast i8* %call2.i.i.i.i3.i.i661 to double*
  %add.ptr.i.i.i651 = getelementptr double, double* %156, i64 %conv247
  call void @llvm.memset.p0i8.i64(i8* nonnull align 8 %call2.i.i.i.i3.i.i661, i8 0, i64 %mul.i.i.i.i.i.i647, i1 false)
  br label %invoke.cont250

invoke.cont250:                                   ; preds = %for.body.i.i.preheader.i.i.i.i.i655, %_ZNSt6vectorIdSaIdEE17_S_check_init_lenEmRKS0_.exit.i646
  %cond.i.i.i.i649978 = phi double* [ %156, %for.body.i.i.preheader.i.i.i.i.i655 ], [ null, %_ZNSt6vectorIdSaIdEE17_S_check_init_lenEmRKS0_.exit.i646 ]
  %__first.addr.0.lcssa.i.i.i.i.i.i.i656 = phi double* [ %add.ptr.i.i.i651, %for.body.i.i.preheader.i.i.i.i.i655 ], [ null, %_ZNSt6vectorIdSaIdEE17_S_check_init_lenEmRKS0_.exit.i646 ]
  call void @llvm.lifetime.start.p0i8(i64 16, i8* nonnull %46) #37
  call void @llvm.lifetime.start.p0i8(i64 16, i8* nonnull %47) #37
  %call255 = call i32 @gettimeofday(%struct.timeval* nonnull %start253, i8* null) #37
  br label %for.body.i630

for.body.i630:                                    ; preds = %for.body.i630, %invoke.cont250
  %i.027.i622 = phi i32 [ 0, %invoke.cont250 ], [ %inc.i628, %for.body.i630 ]
  %157 = load double*, double** %_M_finish.i.i614, align 8, !tbaa !49
  %158 = load double*, double** %_M_start.i26.i615, align 8, !tbaa !51
  %sub.ptr.lhs.cast.i.i623 = ptrtoint double* %157 to i64
  %sub.ptr.rhs.cast.i.i624 = ptrtoint double* %158 to i64
  %sub.ptr.sub.i.i625 = sub i64 %sub.ptr.lhs.cast.i.i623, %sub.ptr.rhs.cast.i.i624
  %sub.ptr.div.i.i626 = ashr exact i64 %sub.ptr.sub.i.i625, 3
  %add.ptr.i627 = getelementptr inbounds double, double* %cond.i.i.i.i649978, i64 %sub.ptr.div.i.i626
  call void @llvm.lifetime.start.p0i8(i64 8, i8* nonnull %48) #37
  store double 0.000000e+00, double* %loss.i, align 8, !tbaa !61
  call void @llvm.lifetime.start.p0i8(i64 8, i8* nonnull %49) #37
  store double 1.000000e+00, double* %lossb.i612, align 8, !tbaa !61
  %159 = load i32, i32* %l207, align 8, !tbaa !57
  %160 = load i32, i32* %c208, align 4, !tbaa !64
  %161 = load i32, i32* %b209, align 8, !tbaa !60
  %162 = load double*, double** %_M_start.i24.i619, align 8, !tbaa !51
  %163 = load double*, double** %_M_start.i23.i620, align 8, !tbaa !51
  %164 = load double*, double** %_M_start.i22.i621, align 8, !tbaa !51
  %165 = load i32, i32* @enzyme_const, align 4, !tbaa !47
  %166 = load i32, i32* @enzyme_dup, align 4, !tbaa !47
  %167 = load i32, i32* @enzyme_dupnoneed, align 4, !tbaa !47
  call void @diffelstm_objective(i32 %159, i32 %160, i32 %161, double* %158, double* %cond.i.i.i.i649978, double* %162, double* %add.ptr.i627, double* %163, double* %164, double* %loss.i, double* %lossb.i612)
  call void @llvm.lifetime.end.p0i8(i64 8, i8* nonnull %49) #37
  call void @llvm.lifetime.end.p0i8(i64 8, i8* nonnull %48) #37
  %inc.i628 = add nuw nsw i32 %i.027.i622, 1
  %exitcond.not.i629 = icmp eq i32 %inc.i628, 100
  br i1 %exitcond.not.i629, label %_Z18calculate_jacobianIXadL_Z15dlstm_objectiveEEEvR9LSTMInputR10LSTMOutput.exit, label %for.body.i630, !llvm.loop !69

_Z18calculate_jacobianIXadL_Z15dlstm_objectiveEEEvR9LSTMInputR10LSTMOutput.exit: ; preds = %for.body.i630
  %call258 = call i32 @gettimeofday(%struct.timeval* nonnull %end254, i8* null) #37
  %168 = load i64, i64* %tv_sec.i601, align 8, !tbaa !44
  %169 = load i64, i64* %tv_sec1.i602, align 8, !tbaa !44
  %sub.i603 = sub nsw i64 %168, %169
  %conv.i604 = sitofp i64 %sub.i603 to double
  %170 = load i64, i64* %tv_usec.i605, align 8, !tbaa !46
  %171 = load i64, i64* %tv_usec2.i606, align 8, !tbaa !46
  %sub3.i607 = sub nsw i64 %170, %171
  %conv4.i608 = sitofp i64 %sub3.i607 to double
  %mul.i609 = fmul fast double %conv4.i608, 0x3EB0C6F7A0B5ED8D
  %add.i610 = fadd fast double %mul.i609, %conv.i604
  %conv5.i611 = fptrunc double %add.i610 to float
  %conv260 = fpext float %conv5.i611 to double
  %call262 = call i32 (i8*, ...) @printf(i8* nonnull dereferenceable(1) getelementptr inbounds ([23 x i8], [23 x i8]* @.str.22, i64 0, i64 0), double %conv260)
  %sub.ptr.lhs.cast.i597 = ptrtoint double* %__first.addr.0.lcssa.i.i.i.i.i.i.i656 to i64
  %sub.ptr.rhs.cast.i598 = ptrtoint double* %cond.i.i.i.i649978 to i64
  %sub.ptr.sub.i599 = sub i64 %sub.ptr.lhs.cast.i597, %sub.ptr.rhs.cast.i598
  %sub.ptr.div.i600 = ashr exact i64 %sub.ptr.sub.i599, 3
  %172 = trunc i64 %sub.ptr.div.i600 to i32
  %conv267 = add i32 %172, -5
  %conv2691217 = zext i32 %conv267 to i64
  %cmp2721218 = icmp ugt i64 %sub.ptr.div.i600, %conv2691217
  br i1 %cmp2721218, label %for.body274, label %for.cond.cleanup273

for.cond.cleanup273:                              ; preds = %for.body274, %_Z18calculate_jacobianIXadL_Z15dlstm_objectiveEEEvR9LSTMInputR10LSTMOutput.exit
  %putchar360 = call i32 @putchar(i32 10)
  call void @llvm.lifetime.end.p0i8(i64 16, i8* nonnull %47) #37
  call void @llvm.lifetime.end.p0i8(i64 16, i8* nonnull %46) #37
  %tobool.not.i.i.i.i578 = icmp eq double* %cond.i.i.i.i649978, null
  br i1 %tobool.not.i.i.i.i578, label %_ZN10LSTMOutputD2Ev.exit581, label %if.then.i.i.i.i579

if.then.i.i.i.i579:                               ; preds = %for.cond.cleanup273
  %173 = bitcast double* %cond.i.i.i.i649978 to i8*
  call void @_ZdlPv(i8* nonnull %173) #37
  br label %_ZN10LSTMOutputD2Ev.exit581

_ZN10LSTMOutputD2Ev.exit581:                      ; preds = %if.then.i.i.i.i579, %for.cond.cleanup273
  %tobool.not.i.i.i573 = icmp eq double* %cond.i.i.i.i688970, null
  br i1 %tobool.not.i.i.i573, label %_ZNSt6vectorIdSaIdEED2Ev.exit576, label %if.then.i.i.i575

if.then.i.i.i575:                                 ; preds = %_ZN10LSTMOutputD2Ev.exit581
  %174 = bitcast double* %cond.i.i.i.i688970 to i8*
  call void @_ZdlPv(i8* nonnull %174) #37
  br label %_ZNSt6vectorIdSaIdEED2Ev.exit576

_ZNSt6vectorIdSaIdEED2Ev.exit576:                 ; preds = %if.then.i.i.i575, %_ZN10LSTMOutputD2Ev.exit581
  %175 = load double*, double** %_M_start.i22.i621, align 8, !tbaa !51
  %tobool.not.i.i.i.i525 = icmp eq double* %175, null
  br i1 %tobool.not.i.i.i.i525, label %_ZNSt6vectorIdSaIdEED2Ev.exit.i529, label %if.then.i.i.i.i526

if.then.i.i.i.i526:                               ; preds = %_ZNSt6vectorIdSaIdEED2Ev.exit576
  %176 = bitcast double* %175 to i8*
  call void @_ZdlPv(i8* nonnull %176) #37
  br label %_ZNSt6vectorIdSaIdEED2Ev.exit.i529

_ZNSt6vectorIdSaIdEED2Ev.exit.i529:               ; preds = %if.then.i.i.i.i526, %_ZNSt6vectorIdSaIdEED2Ev.exit576
  %177 = load double*, double** %_M_start.i23.i620, align 8, !tbaa !51
  %tobool.not.i.i.i3.i528 = icmp eq double* %177, null
  br i1 %tobool.not.i.i.i3.i528, label %_ZNSt6vectorIdSaIdEED2Ev.exit5.i533, label %if.then.i.i.i4.i530

if.then.i.i.i4.i530:                              ; preds = %_ZNSt6vectorIdSaIdEED2Ev.exit.i529
  %178 = bitcast double* %177 to i8*
  call void @_ZdlPv(i8* nonnull %178) #37
  br label %_ZNSt6vectorIdSaIdEED2Ev.exit5.i533

_ZNSt6vectorIdSaIdEED2Ev.exit5.i533:              ; preds = %if.then.i.i.i4.i530, %_ZNSt6vectorIdSaIdEED2Ev.exit.i529
  %179 = load double*, double** %_M_start.i24.i619, align 8, !tbaa !51
  %tobool.not.i.i.i7.i532 = icmp eq double* %179, null
  br i1 %tobool.not.i.i.i7.i532, label %_ZNSt6vectorIdSaIdEED2Ev.exit9.i537, label %if.then.i.i.i8.i534

if.then.i.i.i8.i534:                              ; preds = %_ZNSt6vectorIdSaIdEED2Ev.exit5.i533
  %180 = bitcast double* %179 to i8*
  call void @_ZdlPv(i8* nonnull %180) #37
  br label %_ZNSt6vectorIdSaIdEED2Ev.exit9.i537

_ZNSt6vectorIdSaIdEED2Ev.exit9.i537:              ; preds = %if.then.i.i.i8.i534, %_ZNSt6vectorIdSaIdEED2Ev.exit5.i533
  %181 = load double*, double** %_M_start.i26.i615, align 8, !tbaa !51
  %tobool.not.i.i.i11.i536 = icmp eq double* %181, null
  br i1 %tobool.not.i.i.i11.i536, label %_ZN9LSTMInputD2Ev.exit539, label %if.then.i.i.i12.i538

if.then.i.i.i12.i538:                             ; preds = %_ZNSt6vectorIdSaIdEED2Ev.exit9.i537
  %182 = bitcast double* %181 to i8*
  call void @_ZdlPv(i8* nonnull %182) #37
  br label %_ZN9LSTMInputD2Ev.exit539

_ZN9LSTMInputD2Ev.exit539:                        ; preds = %if.then.i.i.i12.i538, %_ZNSt6vectorIdSaIdEED2Ev.exit9.i537
  call void @llvm.lifetime.end.p0i8(i64 112, i8* nonnull %43) #37
  %183 = load i8*, i8** %_M_p.i13.i.i.i.i483, align 8, !tbaa !17
  %cmp.i.i.i507 = icmp eq i8* %183, %30
  br i1 %cmp.i.i.i507, label %_ZNSt7__cxx1112basic_stringIcSt11char_traitsIcESaIcEED2Ev.exit510, label %if.then.i.i508

if.then.i.i508:                                   ; preds = %_ZN9LSTMInputD2Ev.exit539
  call void @_ZdlPv(i8* %183) #37
  br label %_ZNSt7__cxx1112basic_stringIcSt11char_traitsIcESaIcEED2Ev.exit510

_ZNSt7__cxx1112basic_stringIcSt11char_traitsIcESaIcEED2Ev.exit510: ; preds = %if.then.i.i508, %_ZN9LSTMInputD2Ev.exit539
  call void @llvm.lifetime.end.p0i8(i64 32, i8* nonnull %26) #37
  %incdec.ptr.i = getelementptr inbounds %"class.std::__cxx11::basic_string", %"class.std::__cxx11::basic_string"* %__begin1.sroa.0.01222, i64 1
  %cmp.i.not = icmp eq %"class.std::__cxx11::basic_string"* %incdec.ptr.i, %call.i.i.i8.i
  br i1 %cmp.i.not, label %for.cond.cleanup, label %for.body, !llvm.loop !70

ehcleanup200:                                     ; preds = %if.then.i.i.i.i806, %lpad166, %lpad159.loopexit.split-lp, %lpad159.loopexit
  %.pn346 = phi { i8*, i32 } [ %147, %lpad166 ], [ %147, %if.then.i.i.i.i806 ], [ %lpad.loopexit984, %lpad159.loopexit ], [ %lpad.loopexit.split-lp985, %lpad159.loopexit.split-lp ]
  %tobool.not.i.i.i494 = icmp eq double* %cond.i.i.i.i668960, null
  br i1 %tobool.not.i.i.i494, label %ehcleanup204, label %if.then.i.i.i496

if.then.i.i.i496:                                 ; preds = %ehcleanup200
  %184 = bitcast double* %cond.i.i.i.i668960 to i8*
  call void @_ZdlPv(i8* nonnull %184) #37
  br label %ehcleanup204

ehcleanup204:                                     ; preds = %if.then.i.i.i496, %ehcleanup200, %lpad142.loopexit.split-lp, %lpad142.loopexit, %ehcleanup137
  %.pn346.pn.pn = phi { i8*, i32 } [ %.pn343, %ehcleanup137 ], [ %.pn346, %ehcleanup200 ], [ %.pn346, %if.then.i.i.i496 ], [ %lpad.loopexit981, %lpad142.loopexit ], [ %lpad.loopexit.split-lp982, %lpad142.loopexit.split-lp ]
  %185 = load double*, double** %_M_start.i22.i730, align 8, !tbaa !51
  %tobool.not.i.i.i.i460 = icmp eq double* %185, null
  br i1 %tobool.not.i.i.i.i460, label %_ZNSt6vectorIdSaIdEED2Ev.exit.i464, label %if.then.i.i.i.i461

if.then.i.i.i.i461:                               ; preds = %ehcleanup204
  %186 = bitcast double* %185 to i8*
  call void @_ZdlPv(i8* nonnull %186) #37
  br label %_ZNSt6vectorIdSaIdEED2Ev.exit.i464

_ZNSt6vectorIdSaIdEED2Ev.exit.i464:               ; preds = %if.then.i.i.i.i461, %ehcleanup204
  %187 = load double*, double** %_M_start.i23.i729, align 8, !tbaa !51
  %tobool.not.i.i.i3.i463 = icmp eq double* %187, null
  br i1 %tobool.not.i.i.i3.i463, label %_ZNSt6vectorIdSaIdEED2Ev.exit5.i468, label %if.then.i.i.i4.i465

if.then.i.i.i4.i465:                              ; preds = %_ZNSt6vectorIdSaIdEED2Ev.exit.i464
  %188 = bitcast double* %187 to i8*
  call void @_ZdlPv(i8* nonnull %188) #37
  br label %_ZNSt6vectorIdSaIdEED2Ev.exit5.i468

_ZNSt6vectorIdSaIdEED2Ev.exit5.i468:              ; preds = %if.then.i.i.i4.i465, %_ZNSt6vectorIdSaIdEED2Ev.exit.i464
  %189 = load double*, double** %_M_start.i24.i728, align 8, !tbaa !51
  %tobool.not.i.i.i7.i467 = icmp eq double* %189, null
  br i1 %tobool.not.i.i.i7.i467, label %_ZNSt6vectorIdSaIdEED2Ev.exit9.i472, label %if.then.i.i.i8.i469

if.then.i.i.i8.i469:                              ; preds = %_ZNSt6vectorIdSaIdEED2Ev.exit5.i468
  %190 = bitcast double* %189 to i8*
  call void @_ZdlPv(i8* nonnull %190) #37
  br label %_ZNSt6vectorIdSaIdEED2Ev.exit9.i472

_ZNSt6vectorIdSaIdEED2Ev.exit9.i472:              ; preds = %if.then.i.i.i8.i469, %_ZNSt6vectorIdSaIdEED2Ev.exit5.i468
  %191 = load double*, double** %_M_start.i26.i724, align 8, !tbaa !51
  %tobool.not.i.i.i11.i471 = icmp eq double* %191, null
  br i1 %tobool.not.i.i.i11.i471, label %_ZN9LSTMInputD2Ev.exit474, label %if.then.i.i.i12.i473

if.then.i.i.i12.i473:                             ; preds = %_ZNSt6vectorIdSaIdEED2Ev.exit9.i472
  %192 = bitcast double* %191 to i8*
  call void @_ZdlPv(i8* nonnull %192) #37
  br label %_ZN9LSTMInputD2Ev.exit474

_ZN9LSTMInputD2Ev.exit474:                        ; preds = %if.then.i.i.i12.i473, %_ZNSt6vectorIdSaIdEED2Ev.exit9.i472
  call void @llvm.lifetime.end.p0i8(i64 112, i8* nonnull %38) #37
  br label %ehcleanup296

lpad215:                                          ; preds = %_ZN9LSTMInputD2Ev.exit801
  %193 = landingpad { i8*, i32 }
          cleanup
  br label %ehcleanup227

lpad224:                                          ; preds = %invoke.cont216
  %194 = landingpad { i8*, i32 }
          cleanup
  %195 = load i8*, i8** %_M_p.i.i.i.i764, align 8, !tbaa !17
  %cmp.i.i.i455 = icmp eq i8* %195, %arraydecay.i.i.i.i765
  br i1 %cmp.i.i.i455, label %ehcleanup227, label %if.then.i.i456

if.then.i.i456:                                   ; preds = %lpad224
  call void @_ZdlPv(i8* %195) #37
  br label %ehcleanup227

ehcleanup227:                                     ; preds = %if.then.i.i456, %lpad224, %lpad215
  %.pn351 = phi { i8*, i32 } [ %193, %lpad215 ], [ %194, %lpad224 ], [ %194, %if.then.i.i456 ]
  call void @llvm.lifetime.end.p0i8(i64 32, i8* nonnull %44) #37
  br label %ehcleanup294

lpad232.loopexit:                                 ; preds = %_ZNSt16allocator_traitsISaIdEE8allocateERS0_m.exit.i.i.i.i687
  %lpad.loopexit987 = landingpad { i8*, i32 }
          cleanup
  br label %ehcleanup294

lpad232.loopexit.split-lp:                        ; preds = %if.then.i.i683
  %lpad.loopexit.split-lp988 = landingpad { i8*, i32 }
          cleanup
  br label %ehcleanup294

lpad249.loopexit:                                 ; preds = %_ZNSt16allocator_traitsISaIdEE8allocateERS0_m.exit.i.i.i.i648
  %lpad.loopexit990 = landingpad { i8*, i32 }
          cleanup
  br label %lpad249

lpad249.loopexit.split-lp:                        ; preds = %if.then.i.i644
  %lpad.loopexit.split-lp991 = landingpad { i8*, i32 }
          cleanup
  br label %lpad249

lpad249:                                          ; preds = %lpad249.loopexit.split-lp, %lpad249.loopexit
  %lpad.phi992 = phi { i8*, i32 } [ %lpad.loopexit990, %lpad249.loopexit ], [ %lpad.loopexit.split-lp991, %lpad249.loopexit.split-lp ]
  %tobool.not.i.i.i450 = icmp eq double* %cond.i.i.i.i688970, null
  br i1 %tobool.not.i.i.i450, label %ehcleanup294, label %if.then.i.i.i452

if.then.i.i.i452:                                 ; preds = %lpad249
  %196 = bitcast double* %cond.i.i.i.i688970 to i8*
  call void @_ZdlPv(i8* nonnull %196) #37
  br label %ehcleanup294

for.body274:                                      ; preds = %for.body274, %_Z18calculate_jacobianIXadL_Z15dlstm_objectiveEEEvR9LSTMInputR10LSTMOutput.exit
  %conv2691220 = phi i64 [ %conv269, %for.body274 ], [ %conv2691217, %_Z18calculate_jacobianIXadL_Z15dlstm_objectiveEEEvR9LSTMInputR10LSTMOutput.exit ]
  %i263.01219 = phi i32 [ %inc282, %for.body274 ], [ %conv267, %_Z18calculate_jacobianIXadL_Z15dlstm_objectiveEEEvR9LSTMInputR10LSTMOutput.exit ]
  %add.ptr.i = getelementptr inbounds double, double* %cond.i.i.i.i649978, i64 %conv2691220
  %197 = load double, double* %add.ptr.i, align 8, !tbaa !61
  %call280 = call i32 (i8*, ...) @printf(i8* nonnull dereferenceable(1) getelementptr inbounds ([4 x i8], [4 x i8]* @.str.18, i64 0, i64 0), double %197)
  %inc282 = add i32 %i263.01219, 1
  %conv269 = zext i32 %inc282 to i64
  %cmp272 = icmp ugt i64 %sub.ptr.div.i600, %conv269
  br i1 %cmp272, label %for.body274, label %for.cond.cleanup273, !llvm.loop !71

ehcleanup294:                                     ; preds = %if.then.i.i.i452, %lpad249, %lpad232.loopexit.split-lp, %lpad232.loopexit, %ehcleanup227
  %.pn353.pn = phi { i8*, i32 } [ %.pn351, %ehcleanup227 ], [ %lpad.phi992, %lpad249 ], [ %lpad.phi992, %if.then.i.i.i452 ], [ %lpad.loopexit987, %lpad232.loopexit ], [ %lpad.loopexit.split-lp988, %lpad232.loopexit.split-lp ]
  %198 = load double*, double** %_M_start.i22.i621, align 8, !tbaa !51
  %tobool.not.i.i.i.i = icmp eq double* %198, null
  br i1 %tobool.not.i.i.i.i, label %_ZNSt6vectorIdSaIdEED2Ev.exit.i, label %if.then.i.i.i.i

if.then.i.i.i.i:                                  ; preds = %ehcleanup294
  %199 = bitcast double* %198 to i8*
  call void @_ZdlPv(i8* nonnull %199) #37
  br label %_ZNSt6vectorIdSaIdEED2Ev.exit.i

_ZNSt6vectorIdSaIdEED2Ev.exit.i:                  ; preds = %if.then.i.i.i.i, %ehcleanup294
  %200 = load double*, double** %_M_start.i23.i620, align 8, !tbaa !51
  %tobool.not.i.i.i3.i = icmp eq double* %200, null
  br i1 %tobool.not.i.i.i3.i, label %_ZNSt6vectorIdSaIdEED2Ev.exit5.i, label %if.then.i.i.i4.i

if.then.i.i.i4.i:                                 ; preds = %_ZNSt6vectorIdSaIdEED2Ev.exit.i
  %201 = bitcast double* %200 to i8*
  call void @_ZdlPv(i8* nonnull %201) #37
  br label %_ZNSt6vectorIdSaIdEED2Ev.exit5.i

_ZNSt6vectorIdSaIdEED2Ev.exit5.i:                 ; preds = %if.then.i.i.i4.i, %_ZNSt6vectorIdSaIdEED2Ev.exit.i
  %202 = load double*, double** %_M_start.i24.i619, align 8, !tbaa !51
  %tobool.not.i.i.i7.i = icmp eq double* %202, null
  br i1 %tobool.not.i.i.i7.i, label %_ZNSt6vectorIdSaIdEED2Ev.exit9.i, label %if.then.i.i.i8.i

if.then.i.i.i8.i:                                 ; preds = %_ZNSt6vectorIdSaIdEED2Ev.exit5.i
  %203 = bitcast double* %202 to i8*
  call void @_ZdlPv(i8* nonnull %203) #37
  br label %_ZNSt6vectorIdSaIdEED2Ev.exit9.i

_ZNSt6vectorIdSaIdEED2Ev.exit9.i:                 ; preds = %if.then.i.i.i8.i, %_ZNSt6vectorIdSaIdEED2Ev.exit5.i
  %204 = load double*, double** %_M_start.i26.i615, align 8, !tbaa !51
  %tobool.not.i.i.i11.i = icmp eq double* %204, null
  br i1 %tobool.not.i.i.i11.i, label %_ZN9LSTMInputD2Ev.exit, label %if.then.i.i.i12.i

if.then.i.i.i12.i:                                ; preds = %_ZNSt6vectorIdSaIdEED2Ev.exit9.i
  %205 = bitcast double* %204 to i8*
  call void @_ZdlPv(i8* nonnull %205) #37
  br label %_ZN9LSTMInputD2Ev.exit

_ZN9LSTMInputD2Ev.exit:                           ; preds = %if.then.i.i.i12.i, %_ZNSt6vectorIdSaIdEED2Ev.exit9.i
  call void @llvm.lifetime.end.p0i8(i64 112, i8* nonnull %43) #37
  br label %ehcleanup296

ehcleanup296:                                     ; preds = %_ZN9LSTMInputD2Ev.exit, %_ZN9LSTMInputD2Ev.exit474, %_ZN9LSTMInputD2Ev.exit824
  %.pn339.pn.pn = phi { i8*, i32 } [ %.pn339.pn, %_ZN9LSTMInputD2Ev.exit824 ], [ %.pn346.pn.pn, %_ZN9LSTMInputD2Ev.exit474 ], [ %.pn353.pn, %_ZN9LSTMInputD2Ev.exit ]
  %206 = load i8*, i8** %_M_p.i13.i.i.i.i483, align 8, !tbaa !17
  %cmp.i.i.i417 = icmp eq i8* %206, %30
  br i1 %cmp.i.i.i417, label %for.body.i.i.i.i.preheader, label %if.then.i.i418

if.then.i.i418:                                   ; preds = %ehcleanup296
  call void @_ZdlPv(i8* %206) #37
  br label %for.body.i.i.i.i.preheader

for.body.i.i.i.i.preheader:                       ; preds = %if.then.i.i418, %ehcleanup296, %lpad42
  %.pn339.pn.pn.pn = phi { i8*, i32 } [ %75, %lpad42 ], [ %.pn339.pn.pn, %ehcleanup296 ], [ %.pn339.pn.pn, %if.then.i.i418 ]
  call void @llvm.lifetime.end.p0i8(i64 32, i8* nonnull %26) #37
  br label %for.body.i.i.i.i

for.body.i.i.i.i:                                 ; preds = %_ZSt8_DestroyINSt7__cxx1112basic_stringIcSt11char_traitsIcESaIcEEEEvPT_.exit.i.i.i.i, %for.body.i.i.i.i.preheader
  %__first.addr.04.i.i.i.i = phi %"class.std::__cxx11::basic_string"* [ %incdec.ptr.i.i.i.i, %_ZSt8_DestroyINSt7__cxx1112basic_stringIcSt11char_traitsIcESaIcEEEEvPT_.exit.i.i.i.i ], [ %22, %for.body.i.i.i.i.preheader ]
  %_M_p.i.i.i.i.i.i.i.i.i = getelementptr inbounds %"class.std::__cxx11::basic_string", %"class.std::__cxx11::basic_string"* %__first.addr.04.i.i.i.i, i64 0, i32 0, i32 0
  %207 = load i8*, i8** %_M_p.i.i.i.i.i.i.i.i.i, align 8, !tbaa !17
  %208 = getelementptr inbounds %"class.std::__cxx11::basic_string", %"class.std::__cxx11::basic_string"* %__first.addr.04.i.i.i.i, i64 0, i32 2
  %arraydecay.i.i.i.i.i.i.i.i.i = bitcast %union.anon* %208 to i8*
  %cmp.i.i.i.i.i.i.i.i = icmp eq i8* %207, %arraydecay.i.i.i.i.i.i.i.i.i
  br i1 %cmp.i.i.i.i.i.i.i.i, label %_ZSt8_DestroyINSt7__cxx1112basic_stringIcSt11char_traitsIcESaIcEEEEvPT_.exit.i.i.i.i, label %if.then.i.i.i.i.i.i.i

if.then.i.i.i.i.i.i.i:                            ; preds = %for.body.i.i.i.i
  call void @_ZdlPv(i8* %207) #37
  br label %_ZSt8_DestroyINSt7__cxx1112basic_stringIcSt11char_traitsIcESaIcEEEEvPT_.exit.i.i.i.i

_ZSt8_DestroyINSt7__cxx1112basic_stringIcSt11char_traitsIcESaIcEEEEvPT_.exit.i.i.i.i: ; preds = %if.then.i.i.i.i.i.i.i, %for.body.i.i.i.i
  %incdec.ptr.i.i.i.i = getelementptr inbounds %"class.std::__cxx11::basic_string", %"class.std::__cxx11::basic_string"* %__first.addr.04.i.i.i.i, i64 1
  %cmp.not.i.i.i.i = icmp eq %"class.std::__cxx11::basic_string"* %incdec.ptr.i.i.i.i, %call.i.i.i8.i
  br i1 %cmp.not.i.i.i.i, label %_ZNSt6vectorINSt7__cxx1112basic_stringIcSt11char_traitsIcESaIcEEESaIS5_EED2Ev.exit, label %for.body.i.i.i.i, !llvm.loop !56

_ZNSt6vectorINSt7__cxx1112basic_stringIcSt11char_traitsIcESaIcEEESaIS5_EED2Ev.exit: ; preds = %_ZSt8_DestroyINSt7__cxx1112basic_stringIcSt11char_traitsIcESaIcEEEEvPT_.exit.i.i.i.i
  call void @_ZdlPv(i8* nonnull %call2.i.i.i.i7.i) #37
  br label %ehcleanup305

ehcleanup305:                                     ; preds = %_ZNSt6vectorINSt7__cxx1112basic_stringIcSt11char_traitsIcESaIcEEESaIS5_EED2Ev.exit, %cleanup.done
  %.pn339.pn.pn.pn.pn = phi { i8*, i32 } [ %.pn339.pn.pn.pn, %_ZNSt6vectorINSt7__cxx1112basic_stringIcSt11char_traitsIcESaIcEEESaIS5_EED2Ev.exit ], [ %.pn.pn.pn.pn952, %cleanup.done ]
  resume { i8*, i32 } %.pn339.pn.pn.pn.pn
}

; Function Attrs: uwtable
define linkonce_odr dso_local void @_ZStplIcSt11char_traitsIcESaIcEENSt7__cxx1112basic_stringIT_T0_T1_EEPKS5_RKS8_(%"class.std::__cxx11::basic_string"* noalias sret(%"class.std::__cxx11::basic_string") align 8 %agg.result, i8* %__lhs, %"class.std::__cxx11::basic_string"* nonnull align 8 dereferenceable(32) %__rhs) local_unnamed_addr #0 comdat personality i8* bitcast (i32 (...)* @__gxx_personality_v0 to i8*) {
entry:
  %call.i = tail call i64 @strlen(i8* nonnull dereferenceable(1) %__lhs) #37
  %0 = getelementptr inbounds %"class.std::__cxx11::basic_string", %"class.std::__cxx11::basic_string"* %agg.result, i64 0, i32 2
  %1 = bitcast %"class.std::__cxx11::basic_string"* %agg.result to %union.anon**
  store %union.anon* %0, %union.anon** %1, align 8, !tbaa !14
  %_M_string_length.i.i.i = getelementptr inbounds %"class.std::__cxx11::basic_string", %"class.std::__cxx11::basic_string"* %agg.result, i64 0, i32 1
  store i64 0, i64* %_M_string_length.i.i.i, align 8, !tbaa !19
  %.cast.i = bitcast %union.anon* %0 to i8*
  store i8 0, i8* %.cast.i, align 8, !tbaa !21
  %_M_string_length.i = getelementptr inbounds %"class.std::__cxx11::basic_string", %"class.std::__cxx11::basic_string"* %__rhs, i64 0, i32 1
  %2 = load i64, i64* %_M_string_length.i, align 8, !tbaa !19
  %add = add i64 %2, %call.i
  invoke void @_ZNSt7__cxx1112basic_stringIcSt11char_traitsIcESaIcEE7reserveEm(%"class.std::__cxx11::basic_string"* nonnull dereferenceable(32) %agg.result, i64 %add)
          to label %invoke.cont unwind label %lpad

invoke.cont:                                      ; preds = %entry
  %3 = load i64, i64* %_M_string_length.i.i.i, align 8, !tbaa !19
  %sub3.i.i = sub i64 4611686018427387903, %3
  %cmp.i.i = icmp ult i64 %sub3.i.i, %call.i
  br i1 %cmp.i.i, label %if.then.i.i14, label %_ZNKSt7__cxx1112basic_stringIcSt11char_traitsIcESaIcEE15_M_check_lengthEmmPKc.exit.i

if.then.i.i14:                                    ; preds = %invoke.cont
  invoke void @_ZSt20__throw_length_errorPKc(i8* getelementptr inbounds ([21 x i8], [21 x i8]* @.str.106, i64 0, i64 0)) #39
          to label %.noexc unwind label %lpad

.noexc:                                           ; preds = %if.then.i.i14
  unreachable

_ZNKSt7__cxx1112basic_stringIcSt11char_traitsIcESaIcEE15_M_check_lengthEmmPKc.exit.i: ; preds = %invoke.cont
  %call.i1516 = invoke nonnull align 8 dereferenceable(32) %"class.std::__cxx11::basic_string"* @_ZNSt7__cxx1112basic_stringIcSt11char_traitsIcESaIcEE9_M_appendEPKcm(%"class.std::__cxx11::basic_string"* nonnull dereferenceable(32) %agg.result, i8* %__lhs, i64 %call.i)
          to label %invoke.cont2 unwind label %lpad

invoke.cont2:                                     ; preds = %_ZNKSt7__cxx1112basic_stringIcSt11char_traitsIcESaIcEE15_M_check_lengthEmmPKc.exit.i
  %_M_p.i.i = getelementptr inbounds %"class.std::__cxx11::basic_string", %"class.std::__cxx11::basic_string"* %__rhs, i64 0, i32 0, i32 0
  %4 = load i8*, i8** %_M_p.i.i, align 8, !tbaa !17
  %5 = load i64, i64* %_M_string_length.i, align 8, !tbaa !19
  %call3.i12 = invoke nonnull align 8 dereferenceable(32) %"class.std::__cxx11::basic_string"* @_ZNSt7__cxx1112basic_stringIcSt11char_traitsIcESaIcEE9_M_appendEPKcm(%"class.std::__cxx11::basic_string"* nonnull dereferenceable(32) %agg.result, i8* %4, i64 %5)
          to label %nrvo.skipdtor unwind label %lpad

lpad:                                             ; preds = %invoke.cont2, %_ZNKSt7__cxx1112basic_stringIcSt11char_traitsIcESaIcEE15_M_check_lengthEmmPKc.exit.i, %if.then.i.i14, %entry
  %6 = landingpad { i8*, i32 }
          cleanup
  %_M_p.i.i.i.i = getelementptr inbounds %"class.std::__cxx11::basic_string", %"class.std::__cxx11::basic_string"* %agg.result, i64 0, i32 0, i32 0
  %7 = load i8*, i8** %_M_p.i.i.i.i, align 8, !tbaa !17
  %cmp.i.i.i = icmp eq i8* %7, %.cast.i
  br i1 %cmp.i.i.i, label %_ZNSt7__cxx1112basic_stringIcSt11char_traitsIcESaIcEED2Ev.exit, label %if.then.i.i

if.then.i.i:                                      ; preds = %lpad
  tail call void @_ZdlPv(i8* %7) #37
  br label %_ZNSt7__cxx1112basic_stringIcSt11char_traitsIcESaIcEED2Ev.exit

_ZNSt7__cxx1112basic_stringIcSt11char_traitsIcESaIcEED2Ev.exit: ; preds = %if.then.i.i, %lpad
  resume { i8*, i32 } %6

nrvo.skipdtor:                                    ; preds = %invoke.cont2
  ret void
}

; Function Attrs: nofree nounwind
declare dso_local noundef i32 @gettimeofday(%struct.timeval* nocapture noundef, i8* nocapture noundef) local_unnamed_addr #2

; Function Attrs: argmemonly nofree nosync nounwind willreturn writeonly
declare void @llvm.memset.p0i8.i64(i8* nocapture writeonly, i8, i64, i1 immarg) #13

; Function Attrs: nounwind readnone uwtable willreturn mustprogress
define dso_local double @sigmoid(double %x) local_unnamed_addr #14 {
entry:
  %fneg = fneg fast double %x
  %0 = tail call fast double @llvm.exp.f64(double %fneg)
  %add = fadd fast double %0, 1.000000e+00
  %div = fdiv fast double 1.000000e+00, %add
  ret double %div
}

; Function Attrs: nofree nosync nounwind readnone speculatable willreturn
declare double @llvm.exp.f64(double) #15

; Function Attrs: nounwind readonly uwtable willreturn mustprogress
define dso_local double @logsumexp(double* nocapture readonly %vect, i32 %sz) local_unnamed_addr #16 {
entry:
  %cmp8 = icmp sgt i32 %sz, 0
  br i1 %cmp8, label %for.body.preheader, label %for.end

for.body.preheader:                               ; preds = %entry
  %wide.trip.count = zext i32 %sz to i64
  br label %for.body

for.body:                                         ; preds = %for.body, %for.body.preheader
  %indvars.iv = phi i64 [ 0, %for.body.preheader ], [ %indvars.iv.next, %for.body ]
  %sum.09 = phi double [ 0.000000e+00, %for.body.preheader ], [ %add, %for.body ]
  %arrayidx = getelementptr inbounds double, double* %vect, i64 %indvars.iv
  %0 = load double, double* %arrayidx, align 8, !tbaa !61
  %1 = tail call fast double @llvm.exp.f64(double %0)
  %add = fadd fast double %1, %sum.09
  %indvars.iv.next = add nuw nsw i64 %indvars.iv, 1
  %exitcond.not = icmp eq i64 %indvars.iv.next, %wide.trip.count
  br i1 %exitcond.not, label %for.end.loopexit, label %for.body, !llvm.loop !72

for.end.loopexit:                                 ; preds = %for.body
  %phi.bo = fadd fast double %add, 2.000000e+00
  br label %for.end

for.end:                                          ; preds = %for.end.loopexit, %entry
  %sum.0.lcssa = phi double [ 2.000000e+00, %entry ], [ %phi.bo, %for.end.loopexit ]
  %2 = tail call fast double @llvm.log.f64(double %sum.0.lcssa)
  ret double %2
}

; Function Attrs: nofree nosync nounwind readnone speculatable willreturn
declare double @llvm.log.f64(double) #15

; Function Attrs: nounwind uwtable mustprogress
define dso_local void @lstm_model(i32 %hsize, double* noalias nocapture readonly %weight, double* noalias nocapture readonly %bias, double* noalias nocapture %hidden, double* noalias nocapture %cell, double* noalias nocapture readonly %input) local_unnamed_addr #6 {
entry:
  %mul = shl nsw i32 %hsize, 2
  %conv = sext i32 %mul to i64
  %mul1 = shl nsw i64 %conv, 3
  %call = tail call noalias i8* @malloc(i64 %mul1) #37
  %0 = bitcast i8* %call to double*
  %idxprom = sext i32 %hsize to i64
  %arrayidx2 = getelementptr inbounds double, double* %0, i64 %idxprom
  %mul3 = shl nsw i32 %hsize, 1
  %idxprom4 = sext i32 %mul3 to i64
  %arrayidx5 = getelementptr inbounds double, double* %0, i64 %idxprom4
  %mul6 = mul nsw i32 %hsize, 3
  %idxprom7 = sext i32 %mul6 to i64
  %arrayidx8 = getelementptr inbounds double, double* %0, i64 %idxprom7
  %cmp171 = icmp sgt i32 %hsize, 0
  br i1 %cmp171, label %for.body.preheader, label %for.end94

for.body.preheader:                               ; preds = %entry
  %wide.trip.count182 = zext i32 %hsize to i64
  br label %for.body

for.cond62.preheader:                             ; preds = %for.body
  br i1 %cmp171, label %for.body64.preheader, label %for.end94

for.body64.preheader:                             ; preds = %for.cond62.preheader
  %wide.trip.count175 = zext i32 %hsize to i64
  br label %for.body64

for.body:                                         ; preds = %for.body, %for.body.preheader
  %indvars.iv177 = phi i64 [ 0, %for.body.preheader ], [ %indvars.iv.next178, %for.body ]
  %arrayidx10 = getelementptr inbounds double, double* %input, i64 %indvars.iv177
  %1 = load double, double* %arrayidx10, align 8, !tbaa !61
  %arrayidx12 = getelementptr inbounds double, double* %weight, i64 %indvars.iv177
  %2 = load double, double* %arrayidx12, align 8, !tbaa !61
  %mul13 = fmul fast double %2, %1
  %arrayidx15 = getelementptr inbounds double, double* %bias, i64 %indvars.iv177
  %3 = load double, double* %arrayidx15, align 8, !tbaa !61
  %add = fadd fast double %mul13, %3
  %fneg.i = fneg fast double %add
  %4 = tail call fast double @llvm.exp.f64(double %fneg.i) #37
  %add.i = fadd fast double %4, 1.000000e+00
  %div.i = fdiv fast double 1.000000e+00, %add.i
  %arrayidx18 = getelementptr inbounds double, double* %0, i64 %indvars.iv177
  store double %div.i, double* %arrayidx18, align 8, !tbaa !61
  %arrayidx20 = getelementptr inbounds double, double* %hidden, i64 %indvars.iv177
  %5 = load double, double* %arrayidx20, align 8, !tbaa !61
  %6 = add nsw i64 %indvars.iv177, %idxprom
  %arrayidx23 = getelementptr inbounds double, double* %weight, i64 %6
  %7 = load double, double* %arrayidx23, align 8, !tbaa !61
  %mul24 = fmul fast double %7, %5
  %arrayidx27 = getelementptr inbounds double, double* %bias, i64 %6
  %8 = load double, double* %arrayidx27, align 8, !tbaa !61
  %add28 = fadd fast double %mul24, %8
  %fneg.i164 = fneg fast double %add28
  %9 = tail call fast double @llvm.exp.f64(double %fneg.i164) #37
  %add.i165 = fadd fast double %9, 1.000000e+00
  %div.i166 = fdiv fast double 1.000000e+00, %add.i165
  %arrayidx31 = getelementptr inbounds double, double* %arrayidx2, i64 %indvars.iv177
  store double %div.i166, double* %arrayidx31, align 8, !tbaa !61
  %10 = add nsw i64 %indvars.iv177, %idxprom4
  %arrayidx37 = getelementptr inbounds double, double* %weight, i64 %10
  %11 = load double, double* %arrayidx37, align 8, !tbaa !61
  %mul38 = fmul fast double %11, %1
  %arrayidx42 = getelementptr inbounds double, double* %bias, i64 %10
  %12 = load double, double* %arrayidx42, align 8, !tbaa !61
  %add43 = fadd fast double %mul38, %12
  %fneg.i161 = fneg fast double %add43
  %13 = tail call fast double @llvm.exp.f64(double %fneg.i161) #37
  %add.i162 = fadd fast double %13, 1.000000e+00
  %div.i163 = fdiv fast double 1.000000e+00, %add.i162
  %arrayidx46 = getelementptr inbounds double, double* %arrayidx5, i64 %indvars.iv177
  store double %div.i163, double* %arrayidx46, align 8, !tbaa !61
  %14 = add nsw i64 %indvars.iv177, %idxprom7
  %arrayidx52 = getelementptr inbounds double, double* %weight, i64 %14
  %15 = load double, double* %arrayidx52, align 8, !tbaa !61
  %mul53 = fmul fast double %15, %5
  %arrayidx57 = getelementptr inbounds double, double* %bias, i64 %14
  %16 = load double, double* %arrayidx57, align 8, !tbaa !61
  %add58 = fadd fast double %mul53, %16
  %call59 = tail call fast double @tanh(double %add58) #42
  %arrayidx61 = getelementptr inbounds double, double* %arrayidx8, i64 %indvars.iv177
  store double %call59, double* %arrayidx61, align 8, !tbaa !61
  %indvars.iv.next178 = add nuw nsw i64 %indvars.iv177, 1
  %exitcond183.not = icmp eq i64 %indvars.iv.next178, %wide.trip.count182
  br i1 %exitcond183.not, label %for.cond62.preheader, label %for.body, !llvm.loop !73

for.cond81.preheader:                             ; preds = %for.body64
  br i1 %cmp171, label %for.body83.preheader, label %for.end94

for.body83.preheader:                             ; preds = %for.cond81.preheader
  %wide.trip.count = zext i32 %hsize to i64
  br label %for.body83

for.body64:                                       ; preds = %for.body64, %for.body64.preheader
  %indvars.iv173 = phi i64 [ 0, %for.body64.preheader ], [ %indvars.iv.next174, %for.body64 ]
  %arrayidx66 = getelementptr inbounds double, double* %cell, i64 %indvars.iv173
  %17 = load double, double* %arrayidx66, align 8, !tbaa !61
  %arrayidx68 = getelementptr inbounds double, double* %0, i64 %indvars.iv173
  %18 = load double, double* %arrayidx68, align 8, !tbaa !61
  %mul69 = fmul fast double %18, %17
  %arrayidx71 = getelementptr inbounds double, double* %arrayidx2, i64 %indvars.iv173
  %19 = load double, double* %arrayidx71, align 8, !tbaa !61
  %arrayidx73 = getelementptr inbounds double, double* %arrayidx8, i64 %indvars.iv173
  %20 = load double, double* %arrayidx73, align 8, !tbaa !61
  %mul74 = fmul fast double %20, %19
  %add75 = fadd fast double %mul74, %mul69
  store double %add75, double* %arrayidx66, align 8, !tbaa !61
  %indvars.iv.next174 = add nuw nsw i64 %indvars.iv173, 1
  %exitcond176.not = icmp eq i64 %indvars.iv.next174, %wide.trip.count175
  br i1 %exitcond176.not, label %for.cond81.preheader, label %for.body64, !llvm.loop !74

for.body83:                                       ; preds = %for.body83, %for.body83.preheader
  %indvars.iv = phi i64 [ 0, %for.body83.preheader ], [ %indvars.iv.next, %for.body83 ]
  %arrayidx85 = getelementptr inbounds double, double* %arrayidx5, i64 %indvars.iv
  %21 = load double, double* %arrayidx85, align 8, !tbaa !61
  %arrayidx87 = getelementptr inbounds double, double* %cell, i64 %indvars.iv
  %22 = load double, double* %arrayidx87, align 8, !tbaa !61
  %call88 = tail call fast double @tanh(double %22) #42
  %mul89 = fmul fast double %call88, %21
  %arrayidx91 = getelementptr inbounds double, double* %hidden, i64 %indvars.iv
  store double %mul89, double* %arrayidx91, align 8, !tbaa !61
  %indvars.iv.next = add nuw nsw i64 %indvars.iv, 1
  %exitcond.not = icmp eq i64 %indvars.iv.next, %wide.trip.count
  br i1 %exitcond.not, label %for.end94, label %for.body83, !llvm.loop !75

for.end94:                                        ; preds = %for.body83, %for.cond81.preheader, %for.cond62.preheader, %entry
  tail call void @free(i8* %call) #37
  ret void
}

; Function Attrs: inaccessiblememonly nofree nounwind willreturn
declare dso_local noalias noundef i8* @malloc(i64) local_unnamed_addr #17

; Function Attrs: nofree nounwind readnone willreturn
declare dso_local double @tanh(double) local_unnamed_addr #18

; Function Attrs: inaccessiblemem_or_argmemonly nounwind willreturn
declare dso_local void @free(i8* nocapture noundef) local_unnamed_addr #19

; Function Attrs: nounwind uwtable mustprogress
define dso_local void @lstm_predict(i32 %l, i32 %b, double* noalias nocapture readonly %w, double* noalias nocapture readonly %w2, double* noalias nocapture %s, double* noalias nocapture readonly %x, double* noalias nocapture %x2) local_unnamed_addr #6 {
entry:
  %cmp86 = icmp sgt i32 %b, 0
  br i1 %cmp86, label %for.body.preheader, label %for.cond5.preheader

for.body.preheader:                               ; preds = %entry
  %wide.trip.count95 = zext i32 %b to i64
  br label %for.body

for.cond5.preheader:                              ; preds = %for.body, %entry
  %mul6 = shl nsw i32 %l, 1
  %mul7 = mul nsw i32 %mul6, %b
  %cmp8.not.not83 = icmp sgt i32 %mul7, 0
  br i1 %cmp8.not.not83, label %for.body9.lr.ph, label %for.cond27.preheader

for.body9.lr.ph:                                  ; preds = %for.cond5.preheader
  %0 = shl i32 %b, 1
  %1 = sext i32 %0 to i64
  %2 = sext i32 %b to i64
  %3 = zext i32 %mul7 to i64
  br label %for.body9

for.body:                                         ; preds = %for.body, %for.body.preheader
  %indvars.iv93 = phi i64 [ 0, %for.body.preheader ], [ %indvars.iv.next94, %for.body ]
  %arrayidx = getelementptr inbounds double, double* %x, i64 %indvars.iv93
  %4 = load double, double* %arrayidx, align 8, !tbaa !61
  %arrayidx2 = getelementptr inbounds double, double* %w2, i64 %indvars.iv93
  %5 = load double, double* %arrayidx2, align 8, !tbaa !61
  %mul = fmul fast double %5, %4
  %arrayidx4 = getelementptr inbounds double, double* %x2, i64 %indvars.iv93
  store double %mul, double* %arrayidx4, align 8, !tbaa !61
  %indvars.iv.next94 = add nuw nsw i64 %indvars.iv93, 1
  %exitcond96.not = icmp eq i64 %indvars.iv.next94, %wide.trip.count95
  br i1 %exitcond96.not, label %for.cond5.preheader, label %for.body, !llvm.loop !76

for.cond27.preheader:                             ; preds = %for.body9, %for.cond5.preheader
  %xp.0.lcssa = phi double* [ %x2, %for.cond5.preheader ], [ %arrayidx17, %for.body9 ]
  br i1 %cmp86, label %for.body29.lr.ph, label %for.end45

for.body29.lr.ph:                                 ; preds = %for.cond27.preheader
  %mul36 = shl nuw nsw i32 %b, 1
  %6 = zext i32 %b to i64
  %7 = sext i32 %mul36 to i64
  %wide.trip.count = zext i32 %b to i64
  br label %for.body29

for.body9:                                        ; preds = %for.body9, %for.body9.lr.ph
  %indvars.iv90 = phi i64 [ 0, %for.body9.lr.ph ], [ %indvars.iv.next91, %for.body9 ]
  %xp.085 = phi double* [ %x2, %for.body9.lr.ph ], [ %arrayidx17, %for.body9 ]
  %8 = trunc i64 %indvars.iv90 to i32
  %mul10 = shl nsw i32 %8, 2
  %idxprom11 = sext i32 %mul10 to i64
  %arrayidx12 = getelementptr inbounds double, double* %w, i64 %idxprom11
  %9 = add nsw i64 %indvars.iv90, %2
  %10 = trunc i64 %9 to i32
  %mul13 = shl nsw i32 %10, 2
  %idxprom14 = sext i32 %mul13 to i64
  %arrayidx15 = getelementptr inbounds double, double* %w, i64 %idxprom14
  %arrayidx17 = getelementptr inbounds double, double* %s, i64 %indvars.iv90
  %arrayidx20 = getelementptr inbounds double, double* %s, i64 %9
  tail call void @lstm_model(i32 %b, double* %arrayidx12, double* %arrayidx15, double* %arrayidx17, double* %arrayidx20, double* %xp.085)
  %indvars.iv.next91 = add i64 %indvars.iv90, %1
  %cmp8.not.not = icmp slt i64 %indvars.iv.next91, %3
  br i1 %cmp8.not.not, label %for.body9, label %for.cond27.preheader, !llvm.loop !77

for.body29:                                       ; preds = %for.body29, %for.body29.lr.ph
  %indvars.iv = phi i64 [ 0, %for.body29.lr.ph ], [ %indvars.iv.next, %for.body29 ]
  %arrayidx31 = getelementptr inbounds double, double* %xp.0.lcssa, i64 %indvars.iv
  %11 = load double, double* %arrayidx31, align 8, !tbaa !61
  %12 = add nuw nsw i64 %indvars.iv, %6
  %arrayidx34 = getelementptr inbounds double, double* %w2, i64 %12
  %13 = load double, double* %arrayidx34, align 8, !tbaa !61
  %mul35 = fmul fast double %13, %11
  %14 = add nsw i64 %indvars.iv, %7
  %arrayidx39 = getelementptr inbounds double, double* %w2, i64 %14
  %15 = load double, double* %arrayidx39, align 8, !tbaa !61
  %add40 = fadd fast double %mul35, %15
  %arrayidx42 = getelementptr inbounds double, double* %x2, i64 %indvars.iv
  store double %add40, double* %arrayidx42, align 8, !tbaa !61
  %indvars.iv.next = add nuw nsw i64 %indvars.iv, 1
  %exitcond.not = icmp eq i64 %indvars.iv.next, %wide.trip.count
  br i1 %exitcond.not, label %for.end45, label %for.body29, !llvm.loop !78

for.end45:                                        ; preds = %for.body29, %for.cond27.preheader
  ret void
}

; Function Attrs: nounwind uwtable mustprogress
define dso_local void @lstm_objective(i32 %l, i32 %c, i32 %b, double* noalias nocapture readonly %main_params, double* noalias nocapture readonly %extra_params, double* noalias nocapture %state, double* noalias nocapture readonly %sequence, double* noalias nocapture %loss) #6 {
entry:
  %conv = zext i32 %b to i64
  %mul = shl nuw nsw i64 %conv, 3
  %call = tail call noalias i8* @malloc(i64 %mul) #37
  %0 = bitcast i8* %call to double*
  %call3 = tail call noalias i8* @malloc(i64 %mul) #37
  %1 = bitcast i8* %call3 to double*
  %cmp = icmp sgt i32 %b, 0
  tail call void @llvm.assume(i1 %cmp)
  %sub = add nsw i32 %c, -1
  %mul4 = mul nsw i32 %sub, %b
  %cmp6.not.not83 = icmp sgt i32 %mul4, 0
  br i1 %cmp6.not.not83, label %for.body.preheader.i.lr.ph, label %for.end32

for.body.preheader.i.lr.ph:                       ; preds = %entry
  %mul6.i = shl nsw i32 %l, 1
  %mul7.i = mul nsw i32 %mul6.i, %b
  %cmp8.not.not83.i = icmp sgt i32 %mul7.i, 0
  %2 = shl nuw i32 %b, 1
  %3 = sext i32 %2 to i64
  %4 = zext i32 %mul7.i to i64
  %5 = zext i32 %2 to i64
  br label %for.body.preheader.i

for.body.preheader.i:                             ; preds = %for.end28, %for.body.preheader.i.lr.ph
  %indvars.iv94 = phi i64 [ 0, %for.body.preheader.i.lr.ph ], [ %indvars.iv.next95, %for.end28 ]
  %t.087 = phi i32 [ 0, %for.body.preheader.i.lr.ph ], [ %add, %for.end28 ]
  %total.086 = phi double [ 0.000000e+00, %for.body.preheader.i.lr.ph ], [ %add25, %for.end28 ]
  %input.084 = phi double* [ %sequence, %for.body.preheader.i.lr.ph ], [ %arrayidx16, %for.end28 ]
  tail call void @llvm.experimental.noalias.scope.decl(metadata !79)
  tail call void @llvm.experimental.noalias.scope.decl(metadata !82)
  tail call void @llvm.experimental.noalias.scope.decl(metadata !84)
  tail call void @llvm.experimental.noalias.scope.decl(metadata !86)
  br label %for.body.i

for.cond5.preheader.i:                            ; preds = %for.body.i
  br i1 %cmp8.not.not83.i, label %for.body9.i, label %for.body29.lr.ph.i

for.body.i:                                       ; preds = %for.body.i, %for.body.preheader.i
  %indvars.iv93.i = phi i64 [ 0, %for.body.preheader.i ], [ %indvars.iv.next94.i, %for.body.i ]
  %arrayidx.i = getelementptr inbounds double, double* %input.084, i64 %indvars.iv93.i
  %6 = load double, double* %arrayidx.i, align 8, !tbaa !61, !alias.scope !84, !noalias !88
  %arrayidx2.i = getelementptr inbounds double, double* %extra_params, i64 %indvars.iv93.i
  %7 = load double, double* %arrayidx2.i, align 8, !tbaa !61, !alias.scope !79, !noalias !90
  %mul.i = fmul fast double %7, %6
  %arrayidx4.i = getelementptr inbounds double, double* %0, i64 %indvars.iv93.i
  store double %mul.i, double* %arrayidx4.i, align 8, !tbaa !61, !alias.scope !86, !noalias !91
  %indvars.iv.next94.i = add nuw nsw i64 %indvars.iv93.i, 1
  %exitcond96.not.i = icmp eq i64 %indvars.iv.next94.i, %conv
  br i1 %exitcond96.not.i, label %for.cond5.preheader.i, label %for.body.i, !llvm.loop !76

for.body29.lr.ph.i:                               ; preds = %for.body9.i, %for.cond5.preheader.i
  %xp.0.lcssa.i = phi double* [ %0, %for.cond5.preheader.i ], [ %arrayidx17.i, %for.body9.i ]
  br label %for.body29.i

for.body9.i:                                      ; preds = %for.body9.i, %for.cond5.preheader.i
  %indvars.iv90.i = phi i64 [ %indvars.iv.next91.i, %for.body9.i ], [ 0, %for.cond5.preheader.i ]
  %xp.085.i = phi double* [ %arrayidx17.i, %for.body9.i ], [ %0, %for.cond5.preheader.i ]
  %8 = trunc i64 %indvars.iv90.i to i32
  %mul10.i = shl nsw i32 %8, 2
  %idxprom11.i = sext i32 %mul10.i to i64
  %arrayidx12.i = getelementptr inbounds double, double* %main_params, i64 %idxprom11.i
  %9 = add nsw i64 %indvars.iv90.i, %conv
  %10 = trunc i64 %9 to i32
  %mul13.i = shl nsw i32 %10, 2
  %idxprom14.i = sext i32 %mul13.i to i64
  %arrayidx15.i = getelementptr inbounds double, double* %main_params, i64 %idxprom14.i
  %arrayidx17.i = getelementptr inbounds double, double* %state, i64 %indvars.iv90.i
  %arrayidx20.i = getelementptr inbounds double, double* %state, i64 %9
  tail call void @lstm_model(i32 %b, double* %arrayidx12.i, double* %arrayidx15.i, double* %arrayidx17.i, double* %arrayidx20.i, double* %xp.085.i) #37, !noalias !92
  %indvars.iv.next91.i = add i64 %indvars.iv90.i, %3
  %cmp8.not.not.i = icmp slt i64 %indvars.iv.next91.i, %4
  br i1 %cmp8.not.not.i, label %for.body9.i, label %for.body29.lr.ph.i, !llvm.loop !77

for.body29.i:                                     ; preds = %for.body29.i, %for.body29.lr.ph.i
  %indvars.iv.i = phi i64 [ 0, %for.body29.lr.ph.i ], [ %indvars.iv.next.i, %for.body29.i ]
  %arrayidx31.i = getelementptr inbounds double, double* %xp.0.lcssa.i, i64 %indvars.iv.i
  %11 = load double, double* %arrayidx31.i, align 8, !tbaa !61, !alias.scope !93, !noalias !94
  %12 = add nuw nsw i64 %indvars.iv.i, %conv
  %arrayidx34.i = getelementptr inbounds double, double* %extra_params, i64 %12
  %13 = load double, double* %arrayidx34.i, align 8, !tbaa !61, !alias.scope !79, !noalias !90
  %mul35.i = fmul fast double %13, %11
  %14 = add nuw nsw i64 %indvars.iv.i, %5
  %arrayidx39.i = getelementptr inbounds double, double* %extra_params, i64 %14
  %15 = load double, double* %arrayidx39.i, align 8, !tbaa !61, !alias.scope !79, !noalias !90
  %add40.i = fadd fast double %mul35.i, %15
  %arrayidx42.i = getelementptr inbounds double, double* %0, i64 %indvars.iv.i
  store double %add40.i, double* %arrayidx42.i, align 8, !tbaa !61, !alias.scope !86, !noalias !91
  %indvars.iv.next.i = add nuw nsw i64 %indvars.iv.i, 1
  %exitcond.not.i = icmp eq i64 %indvars.iv.next.i, %conv
  br i1 %exitcond.not.i, label %for.body.i77, label %for.body29.i, !llvm.loop !78

for.body.i77:                                     ; preds = %for.body.i77, %for.body29.i
  %indvars.iv.i73 = phi i64 [ %indvars.iv.next.i75, %for.body.i77 ], [ 0, %for.body29.i ]
  %sum.09.i = phi double [ %add.i, %for.body.i77 ], [ 0.000000e+00, %for.body29.i ]
  %arrayidx.i74 = getelementptr inbounds double, double* %0, i64 %indvars.iv.i73
  %16 = load double, double* %arrayidx.i74, align 8, !tbaa !61
  %17 = tail call fast double @llvm.exp.f64(double %16) #37
  %add.i = fadd fast double %17, %sum.09.i
  %indvars.iv.next.i75 = add nuw nsw i64 %indvars.iv.i73, 1
  %exitcond.not.i76 = icmp eq i64 %indvars.iv.next.i75, %conv
  br i1 %exitcond.not.i76, label %for.body10.preheader, label %for.body.i77, !llvm.loop !72

for.body10.preheader:                             ; preds = %for.body.i77
  %phi.bo.i = fadd fast double %add.i, 2.000000e+00
  %18 = tail call fast double @llvm.log.f64(double %phi.bo.i) #37
  br label %for.body10

for.body10:                                       ; preds = %for.body10, %for.body10.preheader
  %indvars.iv = phi i64 [ 0, %for.body10.preheader ], [ %indvars.iv.next, %for.body10 ]
  %arrayidx11 = getelementptr inbounds double, double* %0, i64 %indvars.iv
  %19 = load double, double* %arrayidx11, align 8, !tbaa !61
  %sub12 = fsub fast double %19, %18
  %arrayidx14 = getelementptr inbounds double, double* %1, i64 %indvars.iv
  store double %sub12, double* %arrayidx14, align 8, !tbaa !61
  %indvars.iv.next = add nuw nsw i64 %indvars.iv, 1
  %exitcond.not = icmp eq i64 %indvars.iv.next, %conv
  br i1 %exitcond.not, label %for.body19.preheader, label %for.body10, !llvm.loop !95

for.body19.preheader:                             ; preds = %for.body10
  %indvars.iv.next95 = add i64 %indvars.iv94, %conv
  %add = add nuw nsw i32 %t.087, %b
  %arrayidx16 = getelementptr inbounds double, double* %sequence, i64 %indvars.iv.next95
  br label %for.body19

for.body19:                                       ; preds = %for.body19, %for.body19.preheader
  %indvars.iv90 = phi i64 [ 0, %for.body19.preheader ], [ %indvars.iv.next91, %for.body19 ]
  %total.181 = phi double [ %total.086, %for.body19.preheader ], [ %add25, %for.body19 ]
  %arrayidx21 = getelementptr inbounds double, double* %arrayidx16, i64 %indvars.iv90
  %20 = load double, double* %arrayidx21, align 8, !tbaa !61
  %arrayidx23 = getelementptr inbounds double, double* %1, i64 %indvars.iv90
  %21 = load double, double* %arrayidx23, align 8, !tbaa !61
  %mul24 = fmul fast double %21, %20
  %add25 = fadd fast double %mul24, %total.181
  %indvars.iv.next91 = add nuw nsw i64 %indvars.iv90, 1
  %exitcond93.not = icmp eq i64 %indvars.iv.next91, %conv
  br i1 %exitcond93.not, label %for.end28, label %for.body19, !llvm.loop !96

for.end28:                                        ; preds = %for.body19
  %22 = trunc i64 %indvars.iv.next95 to i32
  %cmp6.not.not = icmp sgt i32 %mul4, %22
  br i1 %cmp6.not.not, label %for.body.preheader.i, label %for.end32.loopexit, !llvm.loop !97

for.end32.loopexit:                               ; preds = %for.end28
  %phi.cast = sitofp i32 %add to double
  br label %for.end32

for.end32:                                        ; preds = %for.end32.loopexit, %entry
  %count.0.lcssa = phi double [ 0.000000e+00, %entry ], [ %phi.cast, %for.end32.loopexit ]
  %total.0.lcssa = phi double [ 0.000000e+00, %entry ], [ %add25, %for.end32.loopexit ]
  %fneg = fneg fast double %total.0.lcssa
  %div = fdiv fast double %fneg, %count.0.lcssa
  store double %div, double* %loss, align 8, !tbaa !61
  tail call void @free(i8* %call) #37
  tail call void @free(i8* %call3) #37
  ret void
}

; Function Attrs: nofree nosync nounwind willreturn
declare void @llvm.assume(i1 noundef) #20

; Function Attrs: nounwind uwtable mustprogress
define dso_local void @dlstm_objective(i32 %l, i32 %c, i32 %b, double* %main_params, double* %dmain_params, double* %extra_params, double* %dextra_params, double* %state, double* %sequence, double* %loss, double* %dloss) local_unnamed_addr #6 {
entry:
  %0 = load i32, i32* @enzyme_const, align 4, !tbaa !47
  %1 = load i32, i32* @enzyme_dup, align 4, !tbaa !47
  %2 = load i32, i32* @enzyme_dupnoneed, align 4, !tbaa !47
  call void @diffelstm_objective(i32 %l, i32 %c, i32 %b, double* %main_params, double* %dmain_params, double* %extra_params, double* %dextra_params, double* %state, double* %sequence, double* %loss, double* %dloss)
  ret void
}

; Function Attrs: nounwind
declare dso_local void @__enzyme_autodiff(...) local_unnamed_addr #7

; Function Attrs: nofree nounwind uwtable willreturn writeonly mustprogress
define dso_local void @sigmoid_b(double %x, double* nocapture %xb, double %sigmoidb) local_unnamed_addr #21 {
entry:
  %fneg = fneg fast double %x
  %0 = tail call fast double @llvm.exp.f64(double %fneg)
  %add = fadd fast double %0, 1.000000e+00
  %mul = fmul fast double %0, %sigmoidb
  %mul2 = fmul fast double %add, %add
  %div = fdiv fast double %mul, %mul2
  store double %div, double* %xb, align 8, !tbaa !61
  ret void
}

; Function Attrs: nounwind readnone uwtable willreturn mustprogress
define dso_local double @sigmoid_nodiff(double %x) local_unnamed_addr #14 {
entry:
  %fneg = fneg fast double %x
  %0 = tail call fast double @llvm.exp.f64(double %fneg)
  %add = fadd fast double %0, 1.000000e+00
  %div = fdiv fast double 1.000000e+00, %add
  ret double %div
}

; Function Attrs: nofree nounwind uwtable mustprogress
define dso_local void @logsumexp_b(double* nocapture readonly %vect, double* nocapture %vectb, i32 %sz, double %logsumexpb) local_unnamed_addr #22 {
entry:
  %cmp33 = icmp sgt i32 %sz, 0
  br i1 %cmp33, label %for.body.preheader, label %for.end13

for.body.preheader:                               ; preds = %entry
  %wide.trip.count = zext i32 %sz to i64
  br label %for.body

for.body:                                         ; preds = %for.body, %for.body.preheader
  %indvars.iv36 = phi i64 [ 0, %for.body.preheader ], [ %indvars.iv.next37, %for.body ]
  %sum.035 = phi double [ 0.000000e+00, %for.body.preheader ], [ %add, %for.body ]
  %arrayidx = getelementptr inbounds double, double* %vect, i64 %indvars.iv36
  %0 = load double, double* %arrayidx, align 8, !tbaa !61
  %1 = tail call fast double @llvm.exp.f64(double %0)
  %add = fadd fast double %1, %sum.035
  %indvars.iv.next37 = add nuw nsw i64 %indvars.iv36, 1
  %exitcond.not = icmp eq i64 %indvars.iv.next37, %wide.trip.count
  br i1 %exitcond.not, label %for.end, label %for.body, !llvm.loop !98

for.end:                                          ; preds = %for.body
  br i1 %cmp33, label %for.body4.lr.ph, label %for.end13

for.body4.lr.ph:                                  ; preds = %for.end
  %phi.bo = fadd fast double %add, 2.000000e+00
