; ModuleID = 'nn.cpp'
source_filename = "nn.cpp"
target datalayout = "e-m:e-p270:32:32-p271:32:32-p272:64:64-i64:64-f80:128-n8:16:32:64-S128"
target triple = "x86_64-unknown-linux-gnu"

%"class.std::ios_base::Init" = type { i8 }
%"class.std::__cxx11::basic_string" = type { %"struct.std::__cxx11::basic_string<char>::_Alloc_hider", i64, %union.anon }
%"struct.std::__cxx11::basic_string<char>::_Alloc_hider" = type { i8* }
%union.anon = type { i64, [8 x i8] }
%"class.adept::Stack" = type <{ %"class.adept::internal::StackStorageOrig", double*, %"class.std::vector", %"class.std::vector", %"class.std::__cxx11::list", %"struct.std::_List_iterator", i32, i32, i32, i32, i8, i8, i8, i8, i8, [3 x i8] }>
%"class.adept::internal::StackStorageOrig" = type { %"struct.adept::internal::Statement"*, double*, i32*, i32, i32, i32, i32 }
%"struct.adept::internal::Statement" = type { i32, i32 }
%"class.std::vector" = type { %"struct.std::_Vector_base" }
%"struct.std::_Vector_base" = type { %"struct.std::_Vector_base<int, std::allocator<int>>::_Vector_impl" }
%"struct.std::_Vector_base<int, std::allocator<int>>::_Vector_impl" = type { %"struct.std::_Vector_base<int, std::allocator<int>>::_Vector_impl_data" }
%"struct.std::_Vector_base<int, std::allocator<int>>::_Vector_impl_data" = type { i32*, i32*, i32* }
%"class.std::__cxx11::list" = type { %"class.std::__cxx11::_List_base" }
%"class.std::__cxx11::_List_base" = type { %"struct.std::__cxx11::_List_base<adept::Gap, std::allocator<adept::Gap>>::_List_impl" }
%"struct.std::__cxx11::_List_base<adept::Gap, std::allocator<adept::Gap>>::_List_impl" = type { %"struct.std::__detail::_List_node_header" }
%"struct.std::__detail::_List_node_header" = type { %"struct.std::__detail::_List_node_base", i64 }
%"struct.std::__detail::_List_node_base" = type { %"struct.std::__detail::_List_node_base"*, %"struct.std::__detail::_List_node_base"* }
%"struct.std::_List_iterator" = type { %"struct.std::__detail::_List_node_base"* }
%"struct.adept::internal::EndIndex" = type { i8 }
%"class.adept::internal::AllIndex" = type { i8 }
%struct._IO_FILE = type { i32, i8*, i8*, i8*, i8*, i8*, i8*, i8*, i8*, i8*, i8*, i8*, %struct._IO_marker*, %struct._IO_FILE*, i32, i32, i64, i16, i8, [1 x i8], i8*, i64, %struct._IO_codecvt*, %struct._IO_wide_data*, %struct._IO_FILE*, i8*, i64, i32, [20 x i8] }
%struct._IO_marker = type opaque
%struct._IO_codecvt = type opaque
%struct._IO_wide_data = type opaque
%"class.std::basic_ostream" = type { i32 (...)**, %"class.std::basic_ios" }
%"class.std::basic_ios" = type { %"class.std::ios_base", %"class.std::basic_ostream"*, i8, i8, %"class.std::basic_streambuf"*, %"class.std::ctype"*, %"class.std::num_put"*, %"class.std::num_get"* }
%"class.std::ios_base" = type { i32 (...)**, i64, i64, i32, i32, i32, %"struct.std::ios_base::_Callback_list"*, %"struct.std::ios_base::_Words", [8 x %"struct.std::ios_base::_Words"], i32, %"struct.std::ios_base::_Words"*, %"class.std::locale" }
%"struct.std::ios_base::_Callback_list" = type { %"struct.std::ios_base::_Callback_list"*, void (i32, %"class.std::ios_base"*, i32)*, i32, i32 }
%"struct.std::ios_base::_Words" = type { i8*, i64 }
%"class.std::locale" = type { %"class.std::locale::_Impl"* }
%"class.std::locale::_Impl" = type { i32, %"class.std::locale::facet"**, i64, %"class.std::locale::facet"**, i8** }
%"class.std::locale::facet" = type <{ i32 (...)**, i32, [4 x i8] }>
%"class.std::basic_streambuf" = type { i32 (...)**, i8*, i8*, i8*, i8*, i8*, i8*, %"class.std::locale" }
%"class.std::ctype" = type <{ %"class.std::locale::facet.base", [4 x i8], %struct.__locale_struct*, i8, [7 x i8], i32*, i32*, i16*, i8, [256 x i8], [256 x i8], i8, [6 x i8] }>
%"class.std::locale::facet.base" = type <{ i32 (...)**, i32 }>
%struct.__locale_struct = type { [13 x %struct.__locale_data*], i16*, i32*, i32*, [13 x i8*] }
%struct.__locale_data = type opaque
%"class.std::num_put" = type { %"class.std::locale::facet.base", [4 x i8] }
%"class.std::num_get" = type { %"class.std::locale::facet.base", [4 x i8] }
%"class.adept::invalid_operation" = type { %"class.adept::array_exception" }
%"class.adept::array_exception" = type { %"class.adept::exception" }
%"class.adept::exception" = type { %"class.std::exception", %"class.std::__cxx11::basic_string" }
%"class.std::exception" = type { i32 (...)** }
%"struct.adept::Gap" = type { i32, i32 }
%"struct.std::_List_node" = type { %"struct.std::__detail::_List_node_base", %"struct.__gnu_cxx::__aligned_membuf" }
%"struct.__gnu_cxx::__aligned_membuf" = type { [8 x i8] }
%"class.adept::Array" = type { float*, %"class.adept::Storage"*, %"class.adept::ExpressionSize", %"class.adept::ExpressionSize" }
%"class.adept::Storage" = type <{ float*, i32, i32, i32, [4 x i8] }>
%"class.adept::ExpressionSize" = type { [2 x i32] }
%"class.adept::SpecialMatrix" = type { float*, %"class.adept::Storage"*, i32, i32 }
%"class.adept::SpecialMatrix.9" = type { float*, %"class.adept::Storage"*, i32, i32 }
%"class.adept::Array.12" = type { double*, %"class.adept::Storage.14"*, %"class.adept::ExpressionSize", %"class.adept::ExpressionSize" }
%"class.adept::Storage.14" = type <{ double*, i32, i32, i32, [4 x i8] }>
%"class.adept::SpecialMatrix.15" = type { double*, %"class.adept::Storage.14"*, i32, i32 }
%"class.adept::SpecialMatrix.17" = type { double*, %"class.adept::Storage.14"*, i32, i32 }
%"struct.adept::Block" = type { [2 x double] }
%"class.std::__cxx11::basic_stringstream" = type { %"class.std::basic_iostream.base", %"class.std::__cxx11::basic_stringbuf", %"class.std::basic_ios" }
%"class.std::basic_iostream.base" = type { %"class.std::basic_istream.base", %"class.std::basic_ostream.base" }
%"class.std::basic_istream.base" = type { i32 (...)**, i64 }
%"class.std::basic_ostream.base" = type { i32 (...)** }
%"class.std::__cxx11::basic_stringbuf" = type { %"class.std::basic_streambuf", i32, %"class.std::__cxx11::basic_string" }
%"class.adept::Array.25" = type { float*, %"class.adept::Storage"*, %"class.adept::ExpressionSize.27", %"class.adept::ExpressionSize.27" }
%"class.adept::ExpressionSize.27" = type { [1 x i32] }
%"class.adept::Array.28" = type { double*, %"class.adept::Storage.14"*, %"class.adept::ExpressionSize.27", %"class.adept::ExpressionSize.27" }
%struct.mnist_label_file_header_t_ = type { i32, i32 }
%struct.mnist_image_t_ = type { [100 x i8] }
%struct.mnist_image_file_header_t_ = type { i32, i32, i32, i32 }
%struct.mnist_dataset_t_ = type { %struct.mnist_image_t_*, i8*, i32 }
%struct.neural_network_t_ = type { [10 x float], [10 x [100 x float]] }
%"class.adept::FixedArray" = type { %"struct.adept::internal::GradientIndex.31", [10 x float] }
%"struct.adept::internal::GradientIndex.31" = type { i32 }
%"struct.adept::internal::BinaryOperation.58" = type { %"class.adept::Active"*, %"class.adept::ActiveReference"* }
%"class.adept::Active" = type <{ double, i32, [4 x i8] }>
%"class.adept::ActiveReference" = type <{ float*, i32, [4 x i8] }>
%"struct.adept::internal::NoAlias" = type { %"struct.adept::internal::BinaryOperation.61"* }
%"struct.adept::internal::BinaryOperation.61" = type { %"class.adept::FixedArray"*, %"class.adept::Active"* }
%"struct.adept::internal::BinaryOperation.63" = type { %"class.adept::ActiveReference"*, %"class.adept::Active"* }
%"struct.adept::internal::UnaryOperation" = type { %"struct.adept::internal::BinaryOperation" }
%"struct.adept::internal::BinaryOperation" = type { %"class.adept::ActiveReference"*, %"class.adept::Active"* }
%"struct.adept::Expression.33" = type { i8 }
%"struct.adept::Expression.34" = type { i8 }
%"struct.adept::Expression.59" = type { i8 }
%"struct.adept::Expression.60" = type { i8 }
%"struct.adept::Expression.64" = type { i8 }
%struct.neural_network_gradient_t_ = type { [10 x float], [10 x [100 x float]] }
%"struct.adept::internal::BinaryOperation.50" = type { %"class.adept::ActiveReference"*, %"struct.adept::internal::BinaryOpScalarRight"* }
%"struct.adept::internal::BinaryOpScalarRight" = type { %"class.adept::ActiveConstReference"*, %"struct.adept::internal::Packet.44" }
%"class.adept::ActiveConstReference" = type <{ float*, i32, [4 x i8] }>
%"struct.adept::internal::Packet.44" = type { %union.anon.45 }
%union.anon.45 = type { <4 x float> }
%"struct.adept::internal::UnaryOperation.46" = type { %"struct.adept::internal::UnaryOperation.48" }
%"struct.adept::internal::UnaryOperation.48" = type { %"class.adept::ActiveReference"* }
%struct.aneural_network_t_ = type { %"class.adept::FixedArray", %"class.adept::FixedArray.36" }
%"class.adept::FixedArray.36" = type { %"struct.adept::internal::GradientIndex.31", [1000 x float] }
%"struct.adept::Expression.30" = type { i8 }
%"struct.adept::Expression.51" = type { i8 }
%"struct.adept::Expression.47" = type { i8 }
%struct.timeval = type { i64, i64 }
%"class.adept::stack_already_active" = type { %"class.adept::autodiff_exception" }
%"class.adept::autodiff_exception" = type { %"class.adept::exception" }
%"class.adept::gradients_not_initialized" = type { %"class.adept::autodiff_exception" }
%"class.adept::feature_not_available" = type { %"class.adept::exception" }
%"class.adept::dependents_or_independents_not_identified" = type { %"class.adept::autodiff_exception" }
%"class.adept::invalid_dimension" = type { %"class.adept::array_exception" }
%"class.adept::gradient_out_of_range" = type { %"class.adept::autodiff_exception" }
%"class.std::bad_alloc" = type { %"class.std::exception" }

$_ZN5adept17invalid_operationC2ERKNSt7__cxx1112basic_stringIcSt11char_traitsIcESaIcEEE = comdat any

$_ZN5adept3invIfEENS_5ArrayILi2ET_Lb0EEERKS3_ = comdat any

$_ZN5adept3invIfLNS_8internal21SymmMatrixOrientationE0EEENS_13SpecialMatrixIT_NS1_10SymmEngineIXT0_EEELb0EEERKS7_ = comdat any

$_ZN5adept3invIfLNS_8internal21SymmMatrixOrientationE1EEENS_13SpecialMatrixIT_NS1_10SymmEngineIXT0_EEELb0EEERKS7_ = comdat any

$_ZN5adept3invIdEENS_5ArrayILi2ET_Lb0EEERKS3_ = comdat any

$_ZN5adept3invIdLNS_8internal21SymmMatrixOrientationE0EEENS_13SpecialMatrixIT_NS1_10SymmEngineIXT0_EEELb0EEERKS7_ = comdat any

$_ZN5adept3invIdLNS_8internal21SymmMatrixOrientationE1EEENS_13SpecialMatrixIT_NS1_10SymmEngineIXT0_EEELb0EEERKS7_ = comdat any

$_ZN5adept5solveIfEENS_5ArrayILi1ET_Lb0EEERKNS1_ILi2ES2_Lb0EEERKS3_ = comdat any

$_ZN5adept5solveIfLNS_8internal21SymmMatrixOrientationE0EEENS_5ArrayILi1ET_Lb0EEERKNS_13SpecialMatrixIS4_NS1_10SymmEngineIXT0_EEELb0EEERKS5_ = comdat any

$_ZN5adept5solveIfLNS_8internal21SymmMatrixOrientationE1EEENS_5ArrayILi1ET_Lb0EEERKNS_13SpecialMatrixIS4_NS1_10SymmEngineIXT0_EEELb0EEERKS5_ = comdat any

$_ZN5adept5solveIfEENS_5ArrayILi2ET_Lb0EEERKS3_S5_ = comdat any

$_ZN5adept5solveIfLNS_8internal21SymmMatrixOrientationE0EEENS_5ArrayILi2ET_Lb0EEERKNS_13SpecialMatrixIS4_NS1_10SymmEngineIXT0_EEELb0EEERKS5_ = comdat any

$_ZN5adept5solveIfLNS_8internal21SymmMatrixOrientationE1EEENS_5ArrayILi2ET_Lb0EEERKNS_13SpecialMatrixIS4_NS1_10SymmEngineIXT0_EEELb0EEERKS5_ = comdat any

$_ZN5adept5solveIdEENS_5ArrayILi1ET_Lb0EEERKNS1_ILi2ES2_Lb0EEERKS3_ = comdat any

$_ZN5adept5solveIdLNS_8internal21SymmMatrixOrientationE0EEENS_5ArrayILi1ET_Lb0EEERKNS_13SpecialMatrixIS4_NS1_10SymmEngineIXT0_EEELb0EEERKS5_ = comdat any

$_ZN5adept5solveIdLNS_8internal21SymmMatrixOrientationE1EEENS_5ArrayILi1ET_Lb0EEERKNS_13SpecialMatrixIS4_NS1_10SymmEngineIXT0_EEELb0EEERKS5_ = comdat any

$_ZN5adept5solveIdEENS_5ArrayILi2ET_Lb0EEERKS3_S5_ = comdat any

$_ZN5adept5solveIdLNS_8internal21SymmMatrixOrientationE0EEENS_5ArrayILi2ET_Lb0EEERKNS_13SpecialMatrixIS4_NS1_10SymmEngineIXT0_EEELb0EEERKS5_ = comdat any

$_ZN5adept5solveIdLNS_8internal21SymmMatrixOrientationE1EEENS_5ArrayILi2ET_Lb0EEERKNS_13SpecialMatrixIS4_NS1_10SymmEngineIXT0_EEELb0EEERKS5_ = comdat any

$_ZN5adept6ActiveIdEaSIfNS_15ActiveReferenceIfEEEENS_8internal9enable_ifIXaasrT0_9is_activeeqsrS7_4rankLi0EERS1_E4typeERKNS_10ExpressionIT_S7_EE = comdat any

$_ZN5adept15ActiveReferenceIfEaSIdNS_8internal14UnaryOperationIdNS3_3ExpENS3_15BinaryOperationIdS1_NS3_8SubtractENS_6ActiveIdEEEEEEEENS3_9enable_ifIXaasrT0_9is_activeeqsrSD_4rankLi0EERS1_E4typeERKNS_10ExpressionIT_SD_EE = comdat any

$_ZN5adept6ActiveIdED2Ev = comdat any

$_ZN5adept5StackC2Eb = comdat any

$_ZN5adept17invalid_operationD0Ev = comdat any

$_ZNK5adept9exception4whatEv = comdat any

$_ZN5adept15array_exceptionD0Ev = comdat any

$_ZN5adept9exceptionD0Ev = comdat any

$__clang_call_terminate = comdat any

$_ZN5adept20stack_already_activeD0Ev = comdat any

$_ZN5adept25gradients_not_initializedD0Ev = comdat any

$_ZN5adept21feature_not_availableD0Ev = comdat any

$_ZN5adept41dependents_or_independents_not_identifiedD0Ev = comdat any

$_ZN5adept5Stack13new_recordingEv = comdat any

$_ZN5adept6ActiveIdEC2IfNS_8internal14UnaryOperationIfNS3_10UnaryMinusENS4_IfNS3_3LogENS_15ActiveReferenceIfEEEEEEEERKNS_10ExpressionIT_T0_EEPNS3_9enable_ifIXaaeqsrSD_4rankLi0EsrSD_9is_activeEvE4typeE = comdat any

$_ZN5adept8internal18exception_locationB5cxx11EPKci = comdat any

$_ZN5adept9exceptionD2Ev = comdat any

$_ZN5adept10FixedArrayIfLb1ELi10ELi0ELi0ELi0ELi0ELi0ELi0EE18assign_expression_ILi1ELb1ELb1ENS_10ExpressionIfS1_EEEENS_8internal9enable_ifIXaaT0_T1_EvE4typeERKT2_ = comdat any

$_ZN5adept17invalid_dimensionC2ERKNSt7__cxx1112basic_stringIcSt11char_traitsIcESaIcEEE = comdat any

$_ZN5adept17invalid_dimensionD0Ev = comdat any

$_ZN5adept15ActiveReferenceIfEaSIfNS_8internal15BinaryOperationIfS1_NS3_3AddENS3_19BinaryOpScalarRightIfNS_20ActiveConstReferenceIfEENS3_8MultiplyEfEEEEEENS3_9enable_ifIXaasrT0_9is_activeeqsrSD_4rankLi0EERS1_E4typeERKNS_10ExpressionIT_SD_EE = comdat any

$_ZN5adept5Stack13set_gradientsIdEENS_8internal9enable_ifIXsr8internal17is_floating_pointIT_EE5valueEvE4typeEiiPKS4_ = comdat any

$_ZN5adept21gradient_out_of_rangeD0Ev = comdat any

$_ZNK5adept5Stack13get_gradientsIfEENS_8internal9enable_ifIXsr8internal17is_floating_pointIT_EE5valueEvE4typeEiiPS4_ = comdat any

$_ZN5adept5ArrayILi1EdLb0EE6resizeEPKib = comdat any

$_ZN5adept7StorageIdE11remove_linkEv = comdat any

$_ZN5adept6ActiveIdEaSIdNS_8internal15BinaryOperationIdS1_NS3_3AddENS_15ActiveReferenceIfEEEEEENS3_9enable_ifIXaasrT0_9is_activeeqsrSA_4rankLi0EERS1_E4typeERKNS_10ExpressionIT_SA_EE = comdat any

$_ZN5adept10FixedArrayIfLb1ELi10ELi0ELi0ELi0ELi0ELi0ELi0EE18assign_expression_ILi1ELb1ELb1ENS_10ExpressionIdNS_8internal7NoAliasIdNS4_15BinaryOperationIdS1_NS4_6DivideENS_6ActiveIdEEEEEEEEEENS4_9enable_ifIXaaT0_T1_EvE4typeERKT2_ = comdat any

$_ZN5adept15ActiveReferenceIfEaSIdNS_8internal15BinaryOperationIdS1_NS3_6DivideENS_6ActiveIdEEEEEENS3_9enable_ifIXaasrT0_9is_activeeqsrSA_4rankLi0EERS1_E4typeERKNS_10ExpressionIT_SA_EE = comdat any

$_ZTWN5adept21_stack_current_threadE = comdat any

$_ZTSN5adept17invalid_operationE = comdat any

$_ZTSN5adept15array_exceptionE = comdat any

$_ZTSN5adept9exceptionE = comdat any

$_ZTIN5adept9exceptionE = comdat any

$_ZTIN5adept15array_exceptionE = comdat any

$_ZTIN5adept17invalid_operationE = comdat any

$_ZTSN5adept20stack_already_activeE = comdat any

$_ZTSN5adept18autodiff_exceptionE = comdat any

$_ZTIN5adept18autodiff_exceptionE = comdat any

$_ZTIN5adept20stack_already_activeE = comdat any

$_ZTSN5adept25gradients_not_initializedE = comdat any

$_ZTIN5adept25gradients_not_initializedE = comdat any

$_ZTSN5adept21feature_not_availableE = comdat any

$_ZTIN5adept21feature_not_availableE = comdat any

$_ZTSN5adept41dependents_or_independents_not_identifiedE = comdat any

$_ZTIN5adept41dependents_or_independents_not_identifiedE = comdat any

$_ZTVN5adept17invalid_operationE = comdat any

$_ZTVN5adept15array_exceptionE = comdat any

$_ZTVN5adept9exceptionE = comdat any

$_ZTVN5adept20stack_already_activeE = comdat any

$_ZTVN5adept25gradients_not_initializedE = comdat any

$_ZTVN5adept21feature_not_availableE = comdat any

$_ZTVN5adept41dependents_or_independents_not_identifiedE = comdat any

$_ZTSN5adept17invalid_dimensionE = comdat any

$_ZTIN5adept17invalid_dimensionE = comdat any

$_ZTVN5adept17invalid_dimensionE = comdat any

$_ZTSN5adept21gradient_out_of_rangeE = comdat any

$_ZTIN5adept21gradient_out_of_rangeE = comdat any

$_ZTVN5adept21gradient_out_of_rangeE = comdat any

@_ZStL8__ioinit = internal global %"class.std::ios_base::Init" zeroinitializer, align 1
@__dso_handle = external hidden global i8
@_ZN5adept8internal21array_row_major_orderE = dso_local local_unnamed_addr global i8 1, align 1
@_ZN5adept8internal17array_print_styleE = dso_local local_unnamed_addr global i32 2, align 4
@_ZN5adept8internal16vector_separatorB5cxx11E = dso_local global %"class.std::__cxx11::basic_string" zeroinitializer, align 8
@.str = private unnamed_addr constant [3 x i8] c", \00", align 1
@_ZN5adept8internal19vector_print_beforeB5cxx11E = dso_local global %"class.std::__cxx11::basic_string" zeroinitializer, align 8
@.str.3 = private unnamed_addr constant [2 x i8] c"{\00", align 1
@_ZN5adept8internal18vector_print_afterB5cxx11E = dso_local global %"class.std::__cxx11::basic_string" zeroinitializer, align 8
@.str.5 = private unnamed_addr constant [2 x i8] c"}\00", align 1
@_ZN5adept8internal21array_opening_bracketB5cxx11E = dso_local global %"class.std::__cxx11::basic_string" zeroinitializer, align 8
@_ZN5adept8internal21array_closing_bracketB5cxx11E = dso_local global %"class.std::__cxx11::basic_string" zeroinitializer, align 8
@_ZN5adept8internal26array_contiguous_separatorB5cxx11E = dso_local global %"class.std::__cxx11::basic_string" zeroinitializer, align 8
@_ZN5adept8internal30array_non_contiguous_separatorB5cxx11E = dso_local global %"class.std::__cxx11::basic_string" zeroinitializer, align 8
@.str.10 = private unnamed_addr constant [3 x i8] c",\0A\00", align 1
@_ZN5adept8internal18array_print_beforeB5cxx11E = dso_local global %"class.std::__cxx11::basic_string" zeroinitializer, align 8
@.str.12 = private unnamed_addr constant [3 x i8] c"\0A{\00", align 1
@_ZN5adept8internal17array_print_afterB5cxx11E = dso_local global %"class.std::__cxx11::basic_string" zeroinitializer, align 8
@_ZN5adept8internal24array_print_empty_beforeB5cxx11E = dso_local global %"class.std::__cxx11::basic_string" zeroinitializer, align 8
@.str.15 = private unnamed_addr constant [13 x i8] c"(empty rank-\00", align 1
@_ZN5adept8internal23array_print_empty_afterB5cxx11E = dso_local global %"class.std::__cxx11::basic_string" zeroinitializer, align 8
@.str.17 = private unnamed_addr constant [8 x i8] c" array)\00", align 1
@_ZN5adept8internal18array_print_indentE = dso_local local_unnamed_addr global i8 1, align 1
@_ZN5adept8internal22array_print_empty_rankE = dso_local local_unnamed_addr global i8 1, align 1
@.str.18 = private unnamed_addr constant [2 x i8] c" \00", align 1
@.str.19 = private unnamed_addr constant [1 x i8] zeroinitializer, align 1
@.str.20 = private unnamed_addr constant [2 x i8] c"\0A\00", align 1
@.str.21 = private unnamed_addr constant [6 x i8] c"empty\00", align 1
@.str.22 = private unnamed_addr constant [2 x i8] c"[\00", align 1
@.str.23 = private unnamed_addr constant [2 x i8] c"]\00", align 1
@.str.24 = private unnamed_addr constant [3 x i8] c";\0A\00", align 1
@.str.25 = private unnamed_addr constant [33 x i8] c"Array print style not understood\00", align 1
@_ZTVN10__cxxabiv120__si_class_type_infoE = external dso_local global i8*
@_ZTSN5adept17invalid_operationE = linkonce_odr dso_local constant [28 x i8] c"N5adept17invalid_operationE\00", comdat, align 1
@_ZTSN5adept15array_exceptionE = linkonce_odr dso_local constant [26 x i8] c"N5adept15array_exceptionE\00", comdat, align 1
@_ZTSN5adept9exceptionE = linkonce_odr dso_local constant [19 x i8] c"N5adept9exceptionE\00", comdat, align 1
@_ZTISt9exception = external dso_local constant i8*
@_ZTIN5adept9exceptionE = linkonce_odr dso_local constant { i8*, i8*, i8* } { i8* bitcast (i8** getelementptr inbounds (i8*, i8** @_ZTVN10__cxxabiv120__si_class_type_infoE, i64 2) to i8*), i8* getelementptr inbounds ([19 x i8], [19 x i8]* @_ZTSN5adept9exceptionE, i32 0, i32 0), i8* bitcast (i8** @_ZTISt9exception to i8*) }, comdat, align 8
@_ZTIN5adept15array_exceptionE = linkonce_odr dso_local constant { i8*, i8*, i8* } { i8* bitcast (i8** getelementptr inbounds (i8*, i8** @_ZTVN10__cxxabiv120__si_class_type_infoE, i64 2) to i8*), i8* getelementptr inbounds ([26 x i8], [26 x i8]* @_ZTSN5adept15array_exceptionE, i32 0, i32 0), i8* bitcast ({ i8*, i8*, i8* }* @_ZTIN5adept9exceptionE to i8*) }, comdat, align 8
@_ZTIN5adept17invalid_operationE = linkonce_odr dso_local constant { i8*, i8*, i8* } { i8* bitcast (i8** getelementptr inbounds (i8*, i8** @_ZTVN10__cxxabiv120__si_class_type_infoE, i64 2) to i8*), i8* getelementptr inbounds ([28 x i8], [28 x i8]* @_ZTSN5adept17invalid_operationE, i32 0, i32 0), i8* bitcast ({ i8*, i8*, i8* }* @_ZTIN5adept15array_exceptionE to i8*) }, comdat, align 8
@_ZN5adept21_stack_current_threadE = dso_local thread_local global %"class.adept::Stack"* null, align 8
@_ZN5adept28_stack_current_thread_unsafeE = dso_local local_unnamed_addr global %"class.adept::Stack"* null, align 8
@.str.26 = private unnamed_addr constant [78 x i8] c"Attempt to activate an adept::Stack when one is already active in this thread\00", align 1
@_ZTSN5adept20stack_already_activeE = linkonce_odr dso_local constant [31 x i8] c"N5adept20stack_already_activeE\00", comdat, align 1
@_ZTSN5adept18autodiff_exceptionE = linkonce_odr dso_local constant [29 x i8] c"N5adept18autodiff_exceptionE\00", comdat, align 1
@_ZTIN5adept18autodiff_exceptionE = linkonce_odr dso_local constant { i8*, i8*, i8* } { i8* bitcast (i8** getelementptr inbounds (i8*, i8** @_ZTVN10__cxxabiv120__si_class_type_infoE, i64 2) to i8*), i8* getelementptr inbounds ([29 x i8], [29 x i8]* @_ZTSN5adept18autodiff_exceptionE, i32 0, i32 0), i8* bitcast ({ i8*, i8*, i8* }* @_ZTIN5adept9exceptionE to i8*) }, comdat, align 8
@_ZTIN5adept20stack_already_activeE = linkonce_odr dso_local constant { i8*, i8*, i8* } { i8* bitcast (i8** getelementptr inbounds (i8*, i8** @_ZTVN10__cxxabiv120__si_class_type_infoE, i64 2) to i8*), i8* getelementptr inbounds ([31 x i8], [31 x i8]* @_ZTSN5adept20stack_already_activeE, i32 0, i32 0), i8* bitcast ({ i8*, i8*, i8* }* @_ZTIN5adept18autodiff_exceptionE to i8*) }, comdat, align 8
@.str.27 = private unnamed_addr constant [107 x i8] c"Gradients not initialized: at least one call to set_gradient(s) is needed before a forward or reverse pass\00", align 1
@_ZTSN5adept25gradients_not_initializedE = linkonce_odr dso_local constant [36 x i8] c"N5adept25gradients_not_initializedE\00", comdat, align 1
@_ZTIN5adept25gradients_not_initializedE = linkonce_odr dso_local constant { i8*, i8*, i8* } { i8* bitcast (i8** getelementptr inbounds (i8*, i8** @_ZTVN10__cxxabiv120__si_class_type_infoE, i64 2) to i8*), i8* getelementptr inbounds ([36 x i8], [36 x i8]* @_ZTSN5adept25gradients_not_initializedE, i32 0, i32 0), i8* bitcast ({ i8*, i8*, i8* }* @_ZTIN5adept18autodiff_exceptionE to i8*) }, comdat, align 8
@.str.28 = private unnamed_addr constant [5 x i8] c": d[\00", align 1
@.str.29 = private unnamed_addr constant [5 x i8] c"] = \00", align 1
@.str.30 = private unnamed_addr constant [3 x i8] c"0\0A\00", align 1
@.str.31 = private unnamed_addr constant [4 x i8] c" + \00", align 1
@.str.32 = private unnamed_addr constant [4 x i8] c"*d[\00", align 1
@.str.33 = private unnamed_addr constant [2 x i8] c":\00", align 1
@.str.34 = private unnamed_addr constant [26 x i8] c"No gradients initialized\0A\00", align 1
@.str.35 = private unnamed_addr constant [2 x i8] c"-\00", align 1
@.str.36 = private unnamed_addr constant [42 x i8] c"Automatic Differentiation Stack (address \00", align 1
@.str.37 = private unnamed_addr constant [4 x i8] c"):\0A\00", align 1
@.str.38 = private unnamed_addr constant [37 x i8] c"   Currently attached - thread safe\0A\00", align 1
@.str.39 = private unnamed_addr constant [39 x i8] c"   Currently attached - thread unsafe\0A\00", align 1
@.str.40 = private unnamed_addr constant [23 x i8] c"   Currently detached\0A\00", align 1
@.str.41 = private unnamed_addr constant [22 x i8] c"   Recording status:\0A\00", align 1
@.str.42 = private unnamed_addr constant [23 x i8] c"      Recording is ON\0A\00", align 1
@.str.43 = private unnamed_addr constant [27 x i8] c"      Recording is PAUSED\0A\00", align 1
@.str.44 = private unnamed_addr constant [7 x i8] c"      \00", align 1
@.str.45 = private unnamed_addr constant [14 x i8] c" statements (\00", align 1
@.str.46 = private unnamed_addr constant [12 x i8] c" allocated)\00", align 1
@.str.47 = private unnamed_addr constant [6 x i8] c" and \00", align 1
@.str.48 = private unnamed_addr constant [14 x i8] c" operations (\00", align 1
@.str.49 = private unnamed_addr constant [13 x i8] c" allocated)\0A\00", align 1
@.str.50 = private unnamed_addr constant [33 x i8] c" gradients currently registered \00", align 1
@.str.51 = private unnamed_addr constant [16 x i8] c"and a total of \00", align 1
@.str.52 = private unnamed_addr constant [24 x i8] c" needed (current index \00", align 1
@.str.53 = private unnamed_addr constant [3 x i8] c")\0A\00", align 1
@.str.54 = private unnamed_addr constant [33 x i8] c"      Gradient list has no gaps\0A\00", align 1
@.str.55 = private unnamed_addr constant [25 x i8] c"      Gradient list has \00", align 1
@.str.56 = private unnamed_addr constant [8 x i8] c" gaps (\00", align 1
@.str.57 = private unnamed_addr constant [24 x i8] c"   Computation status:\0A\00", align 1
@.str.58 = private unnamed_addr constant [22 x i8] c" gradients assigned (\00", align 1
@.str.59 = private unnamed_addr constant [29 x i8] c"      0 gradients assigned (\00", align 1
@.str.60 = private unnamed_addr constant [22 x i8] c"      Jacobian size: \00", align 1
@.str.61 = private unnamed_addr constant [2 x i8] c"x\00", align 1
@.str.62 = private unnamed_addr constant [27 x i8] c"      Independent indices:\00", align 1
@.str.63 = private unnamed_addr constant [28 x i8] c"\0A      Dependent indices:  \00", align 1
@.str.64 = private unnamed_addr constant [51 x i8] c"      Parallel Jacobian calculation not available\0A\00", align 1
@_ZN5adept8internal26n_storage_objects_created_E = dso_local local_unnamed_addr global i32 0, align 4
@_ZN5adept8internal26n_storage_objects_deleted_E = dso_local local_unnamed_addr global i32 0, align 4
@.str.65 = private unnamed_addr constant [74 x i8] c"Cannot perform matrix-matrix multiplication because compiled without BLAS\00", align 1
@_ZTSN5adept21feature_not_availableE = linkonce_odr dso_local constant [32 x i8] c"N5adept21feature_not_availableE\00", comdat, align 1
@_ZTIN5adept21feature_not_availableE = linkonce_odr dso_local constant { i8*, i8*, i8* } { i8* bitcast (i8** getelementptr inbounds (i8*, i8** @_ZTVN10__cxxabiv120__si_class_type_infoE, i64 2) to i8*), i8* getelementptr inbounds ([32 x i8], [32 x i8]* @_ZTSN5adept21feature_not_availableE, i32 0, i32 0), i8* bitcast ({ i8*, i8*, i8* }* @_ZTIN5adept9exceptionE to i8*) }, comdat, align 8
@.str.66 = private unnamed_addr constant [74 x i8] c"Cannot perform matrix-vector multiplication because compiled without BLAS\00", align 1
@.str.67 = private unnamed_addr constant [84 x i8] c"Cannot perform symmetric matrix-matrix multiplication because compiled without BLAS\00", align 1
@.str.68 = private unnamed_addr constant [84 x i8] c"Cannot perform symmetric matrix-vector multiplication because compiled without BLAS\00", align 1
@.str.69 = private unnamed_addr constant [79 x i8] c"Cannot perform band matrix-vector multiplication because compiled without BLAS\00", align 1
@_ZN5adept3endE = dso_local local_unnamed_addr global %"struct.adept::internal::EndIndex" zeroinitializer, align 1
@_ZN5adept2__E = dso_local local_unnamed_addr global %"class.adept::internal::AllIndex" zeroinitializer, align 1
@.str.70 = private unnamed_addr constant [53 x i8] c"Cannot invert matrix because compiled without LAPACK\00", align 1
@.str.71 = private unnamed_addr constant [80 x i8] c"Dependent or independent variables not identified before a Jacobian computation\00", align 1
@_ZTSN5adept41dependents_or_independents_not_identifiedE = linkonce_odr dso_local constant [52 x i8] c"N5adept41dependents_or_independents_not_identifiedE\00", comdat, align 1
@_ZTIN5adept41dependents_or_independents_not_identifiedE = linkonce_odr dso_local constant { i8*, i8*, i8* } { i8* bitcast (i8** getelementptr inbounds (i8*, i8** @_ZTVN10__cxxabiv120__si_class_type_infoE, i64 2) to i8*), i8* getelementptr inbounds ([52 x i8], [52 x i8]* @_ZTSN5adept41dependents_or_independents_not_identifiedE, i32 0, i32 0), i8* bitcast ({ i8*, i8*, i8* }* @_ZTIN5adept18autodiff_exceptionE to i8*) }, comdat, align 8
@.str.72 = private unnamed_addr constant [6 x i8] c"2.0.6\00", align 1
@.str.73 = private unnamed_addr constant [8 x i8] c"unknown\00", align 1
@.str.74 = private unnamed_addr constant [9 x i8] c" [4.2.1]\00", align 1
@.str.75 = private unnamed_addr constant [15 x i8] c"Adept version \00", align 1
@.str.76 = private unnamed_addr constant [3 x i8] c":\0A\00", align 1
@.str.77 = private unnamed_addr constant [17 x i8] c"  Compiled with \00", align 1
@.str.78 = private unnamed_addr constant [19 x i8] c"  Compiler flags \22\00", align 1
@.str.79 = private unnamed_addr constant [3 x i8] c"\22\0A\00", align 1
@.str.80 = private unnamed_addr constant [41 x i8] c"  Jacobians processed in blocks of size \00", align 1
@.str.81 = private unnamed_addr constant [62 x i8] c"Cannot solve linear equations because compiled without LAPACK\00", align 1
@.str.82 = private unnamed_addr constant [47 x i8] c"linspace(x1,x2,n) with n=1 only valid if x1=x2\00", align 1
@.str.83 = private unnamed_addr constant [3 x i8] c"rb\00", align 1
@stderr = external dso_local local_unnamed_addr global %struct._IO_FILE*, align 8
@.str.84 = private unnamed_addr constant [25 x i8] c"Could not open file: %s\0A\00", align 1
@.str.85 = private unnamed_addr constant [43 x i8] c"Could not read label file header from: %s\0A\00", align 1
@.str.86 = private unnamed_addr constant [57 x i8] c"Invalid header read from label file: %s (%08X not %08X)\0A\00", align 1
@.str.87 = private unnamed_addr constant [42 x i8] c"Could not allocated memory for %d labels\0A\00", align 1
@.str.88 = private unnamed_addr constant [35 x i8] c"Could not read %d labels from: %s\0A\00", align 1
@.str.89 = private unnamed_addr constant [43 x i8] c"Could not read image file header from: %s\0A\00", align 1
@.str.90 = private unnamed_addr constant [57 x i8] c"Invalid header read from image file: %s (%08X not %08X)\0A\00", align 1
@.str.91 = private unnamed_addr constant [59 x i8] c"Invalid number of image rows in image file %s (%d not %d)\0A\00", align 1
@.str.92 = private unnamed_addr constant [62 x i8] c"Invalid number of image columns in image file %s (%d not %d)\0A\00", align 1
@.str.93 = private unnamed_addr constant [42 x i8] c"Could not allocated memory for %d images\0A\00", align 1
@.str.94 = private unnamed_addr constant [35 x i8] c"Could not read %d images from: %s\0A\00", align 1
@.str.95 = private unnamed_addr constant [61 x i8] c"Number of images does not match number of labels (%d != %d)\0A\00", align 1
@.str.96 = private unnamed_addr constant [29 x i8] c"data/train-images-idx3-ubyte\00", align 1
@train_images_file = dso_local local_unnamed_addr global i8* getelementptr inbounds ([29 x i8], [29 x i8]* @.str.96, i64 0, i64 0), align 8
@.str.97 = private unnamed_addr constant [29 x i8] c"data/train-labels-idx1-ubyte\00", align 1
@train_labels_file = dso_local local_unnamed_addr global i8* getelementptr inbounds ([29 x i8], [29 x i8]* @.str.97, i64 0, i64 0), align 8
@.str.98 = private unnamed_addr constant [28 x i8] c"data/t10k-images-idx3-ubyte\00", align 1
@test_images_file = dso_local local_unnamed_addr global i8* getelementptr inbounds ([28 x i8], [28 x i8]* @.str.98, i64 0, i64 0), align 8
@.str.99 = private unnamed_addr constant [28 x i8] c"data/t10k-labels-idx1-ubyte\00", align 1
@test_labels_file = dso_local local_unnamed_addr global i8* getelementptr inbounds ([28 x i8], [28 x i8]* @.str.99, i64 0, i64 0), align 8
@_ZSt4cout = external dso_local global %"class.std::basic_ostream", align 8
@.str.100 = private unnamed_addr constant [8 x i8] c"Size = \00", align 1
@.str.101 = private unnamed_addr constant [12 x i8] c" Batches = \00", align 1
@.str.102 = private unnamed_addr constant [45 x i8] c"Step %04d\09Average Loss: %.2f\09Accuracy: %.3f\0A\00", align 1
@.str.103 = private unnamed_addr constant [7 x i8] c"%0.6f\0A\00", align 1
@.str.108 = private unnamed_addr constant [28 x i8] c"A misuse of arrays occurred\00", align 1
@_ZTVN5adept17invalid_operationE = linkonce_odr dso_local unnamed_addr constant { [5 x i8*] } { [5 x i8*] [i8* null, i8* bitcast ({ i8*, i8*, i8* }* @_ZTIN5adept17invalid_operationE to i8*), i8* bitcast (void (%"class.adept::exception"*)* @_ZN5adept9exceptionD2Ev to i8*), i8* bitcast (void (%"class.adept::invalid_operation"*)* @_ZN5adept17invalid_operationD0Ev to i8*), i8* bitcast (i8* (%"class.adept::exception"*)* @_ZNK5adept9exception4whatEv to i8*)] }, comdat, align 8
@_ZTVN5adept15array_exceptionE = linkonce_odr dso_local unnamed_addr constant { [5 x i8*] } { [5 x i8*] [i8* null, i8* bitcast ({ i8*, i8*, i8* }* @_ZTIN5adept15array_exceptionE to i8*), i8* bitcast (void (%"class.adept::exception"*)* @_ZN5adept9exceptionD2Ev to i8*), i8* bitcast (void (%"class.adept::array_exception"*)* @_ZN5adept15array_exceptionD0Ev to i8*), i8* bitcast (i8* (%"class.adept::exception"*)* @_ZNK5adept9exception4whatEv to i8*)] }, comdat, align 8
@_ZTVN5adept9exceptionE = linkonce_odr dso_local unnamed_addr constant { [5 x i8*] } { [5 x i8*] [i8* null, i8* bitcast ({ i8*, i8*, i8* }* @_ZTIN5adept9exceptionE to i8*), i8* bitcast (void (%"class.adept::exception"*)* @_ZN5adept9exceptionD2Ev to i8*), i8* bitcast (void (%"class.adept::exception"*)* @_ZN5adept9exceptionD0Ev to i8*), i8* bitcast (i8* (%"class.adept::exception"*)* @_ZNK5adept9exception4whatEv to i8*)] }, comdat, align 8
@_ZTVN5adept20stack_already_activeE = linkonce_odr dso_local unnamed_addr constant { [5 x i8*] } { [5 x i8*] [i8* null, i8* bitcast ({ i8*, i8*, i8* }* @_ZTIN5adept20stack_already_activeE to i8*), i8* bitcast (void (%"class.adept::exception"*)* @_ZN5adept9exceptionD2Ev to i8*), i8* bitcast (void (%"class.adept::stack_already_active"*)* @_ZN5adept20stack_already_activeD0Ev to i8*), i8* bitcast (i8* (%"class.adept::exception"*)* @_ZNK5adept9exception4whatEv to i8*)] }, comdat, align 8
@_ZTVN5adept25gradients_not_initializedE = linkonce_odr dso_local unnamed_addr constant { [5 x i8*] } { [5 x i8*] [i8* null, i8* bitcast ({ i8*, i8*, i8* }* @_ZTIN5adept25gradients_not_initializedE to i8*), i8* bitcast (void (%"class.adept::exception"*)* @_ZN5adept9exceptionD2Ev to i8*), i8* bitcast (void (%"class.adept::gradients_not_initialized"*)* @_ZN5adept25gradients_not_initializedD0Ev to i8*), i8* bitcast (i8* (%"class.adept::exception"*)* @_ZNK5adept9exception4whatEv to i8*)] }, comdat, align 8
@_ZTVN5adept21feature_not_availableE = linkonce_odr dso_local unnamed_addr constant { [5 x i8*] } { [5 x i8*] [i8* null, i8* bitcast ({ i8*, i8*, i8* }* @_ZTIN5adept21feature_not_availableE to i8*), i8* bitcast (void (%"class.adept::exception"*)* @_ZN5adept9exceptionD2Ev to i8*), i8* bitcast (void (%"class.adept::feature_not_available"*)* @_ZN5adept21feature_not_availableD0Ev to i8*), i8* bitcast (i8* (%"class.adept::exception"*)* @_ZNK5adept9exception4whatEv to i8*)] }, comdat, align 8
@_ZTVN5adept41dependents_or_independents_not_identifiedE = linkonce_odr dso_local unnamed_addr constant { [5 x i8*] } { [5 x i8*] [i8* null, i8* bitcast ({ i8*, i8*, i8* }* @_ZTIN5adept41dependents_or_independents_not_identifiedE to i8*), i8* bitcast (void (%"class.adept::exception"*)* @_ZN5adept9exceptionD2Ev to i8*), i8* bitcast (void (%"class.adept::dependents_or_independents_not_identified"*)* @_ZN5adept41dependents_or_independents_not_identifiedD0Ev to i8*), i8* bitcast (i8* (%"class.adept::exception"*)* @_ZNK5adept9exception4whatEv to i8*)] }, comdat, align 8
@enzyme_const = external dso_local local_unnamed_addr global i32, align 4
@.str.117 = private unnamed_addr constant [6 x i8] c" (in \00", align 1
@.str.118 = private unnamed_addr constant [2 x i8] c")\00", align 1
@_ZTSN5adept17invalid_dimensionE = linkonce_odr dso_local constant [28 x i8] c"N5adept17invalid_dimensionE\00", comdat, align 1
@_ZTIN5adept17invalid_dimensionE = linkonce_odr dso_local constant { i8*, i8*, i8* } { i8* bitcast (i8** getelementptr inbounds (i8*, i8** @_ZTVN10__cxxabiv120__si_class_type_infoE, i64 2) to i8*), i8* getelementptr inbounds ([28 x i8], [28 x i8]* @_ZTSN5adept17invalid_dimensionE, i32 0, i32 0), i8* bitcast ({ i8*, i8*, i8* }* @_ZTIN5adept15array_exceptionE to i8*) }, comdat, align 8
@_ZTVN5adept17invalid_dimensionE = linkonce_odr dso_local unnamed_addr constant { [5 x i8*] } { [5 x i8*] [i8* null, i8* bitcast ({ i8*, i8*, i8* }* @_ZTIN5adept17invalid_dimensionE to i8*), i8* bitcast (void (%"class.adept::exception"*)* @_ZN5adept9exceptionD2Ev to i8*), i8* bitcast (void (%"class.adept::invalid_dimension"*)* @_ZN5adept17invalid_dimensionD0Ev to i8*), i8* bitcast (i8* (%"class.adept::exception"*)* @_ZNK5adept9exception4whatEv to i8*)] }, comdat, align 8
@.str.122 = private unnamed_addr constant [99 x i8] c"Gradient index out of range: probably aReal objects have been created after a set_gradient(s) call\00", align 1
@_ZTSN5adept21gradient_out_of_rangeE = linkonce_odr dso_local constant [32 x i8] c"N5adept21gradient_out_of_rangeE\00", comdat, align 1
@_ZTIN5adept21gradient_out_of_rangeE = linkonce_odr dso_local constant { i8*, i8*, i8* } { i8* bitcast (i8** getelementptr inbounds (i8*, i8** @_ZTVN10__cxxabiv120__si_class_type_infoE, i64 2) to i8*), i8* getelementptr inbounds ([32 x i8], [32 x i8]* @_ZTSN5adept21gradient_out_of_rangeE, i32 0, i32 0), i8* bitcast ({ i8*, i8*, i8* }* @_ZTIN5adept18autodiff_exceptionE to i8*) }, comdat, align 8
@_ZTVN5adept21gradient_out_of_rangeE = linkonce_odr dso_local unnamed_addr constant { [5 x i8*] } { [5 x i8*] [i8* null, i8* bitcast ({ i8*, i8*, i8* }* @_ZTIN5adept21gradient_out_of_rangeE to i8*), i8* bitcast (void (%"class.adept::exception"*)* @_ZN5adept9exceptionD2Ev to i8*), i8* bitcast (void (%"class.adept::gradient_out_of_range"*)* @_ZN5adept21gradient_out_of_rangeD0Ev to i8*), i8* bitcast (i8* (%"class.adept::exception"*)* @_ZNK5adept9exception4whatEv to i8*)] }, comdat, align 8
@_ZTTNSt7__cxx1118basic_stringstreamIcSt11char_traitsIcESaIcEEE = external unnamed_addr constant [10 x i8*], align 8
@_ZTVNSt7__cxx1115basic_stringbufIcSt11char_traitsIcESaIcEEE = external dso_local unnamed_addr constant { [16 x i8*] }, align 8
@_ZTVSt15basic_streambufIcSt11char_traitsIcEE = external dso_local unnamed_addr constant { [16 x i8*] }, align 8
@_ZTISt9bad_alloc = external dso_local constant i8*
@_ZTVSt9bad_alloc = external dso_local unnamed_addr constant { [5 x i8*] }, align 8
@.str.124 = private unnamed_addr constant [49 x i8] c"cannot create std::vector larger than max_size()\00", align 1
@.str.125 = private unnamed_addr constant [35 x i8] c"Negative array dimension requested\00", align 1
@.str.126 = private unnamed_addr constant [89 x i8] c"/localhome/mha157/Enzyme/enzyme/build/benchmarks/adept2/src/adept2/include/adept/Array.h\00", align 1
@.str.127 = private unnamed_addr constant [58 x i8] c"Attempt to remove more links to a storage object than set\00", align 1
@.str.128 = private unnamed_addr constant [91 x i8] c"/localhome/mha157/Enzyme/enzyme/build/benchmarks/adept2/src/adept2/include/adept/Storage.h\00", align 1
@llvm.global_ctors = appending global [1 x { i32, void ()*, i8* }] [{ i32, void ()*, i8* } { i32 65535, void ()* @_GLOBAL__sub_I_nn.cpp, i8* null }]
@str = private unnamed_addr constant [8 x i8] c"Regular\00", align 1
@str.133 = private unnamed_addr constant [7 x i8] c"Enzyme\00", align 1
@str.134 = private unnamed_addr constant [6 x i8] c"Adept\00", align 1
@str.135 = private unnamed_addr constant [9 x i8] c"Tapenade\00", align 1

@_ZN5adept5StackD1Ev = dso_local unnamed_addr alias void (%"class.adept::Stack"*), void (%"class.adept::Stack"*)* @_ZN5adept5StackD2Ev
@_ZN5adept8internal16StackStorageOrigD1Ev = dso_local unnamed_addr alias void (%"class.adept::internal::StackStorageOrig"*), void (%"class.adept::internal::StackStorageOrig"*)* @_ZN5adept8internal16StackStorageOrigD2Ev

declare dso_local void @_ZNSt8ios_base4InitC1Ev(%"class.std::ios_base::Init"* nonnull dereferenceable(1)) unnamed_addr #0

; Function Attrs: nounwind
declare dso_local void @_ZNSt8ios_base4InitD1Ev(%"class.std::ios_base::Init"* nonnull dereferenceable(1)) unnamed_addr #1

; Function Attrs: nofree nounwind
declare dso_local i32 @__cxa_atexit(void (i8*)*, i8*, i8*) local_unnamed_addr #2

; Function Attrs: argmemonly nofree nosync nounwind willreturn
declare void @llvm.lifetime.start.p0i8(i64 immarg, i8* nocapture) #3

declare dso_local i32 @__gxx_personality_v0(...)

; Function Attrs: argmemonly nofree nosync nounwind willreturn
declare void @llvm.lifetime.end.p0i8(i64 immarg, i8* nocapture) #3

; Function Attrs: nounwind uwtable
declare dso_local void @_ZNSt7__cxx1112basic_stringIcSt11char_traitsIcESaIcEED2Ev(%"class.std::__cxx11::basic_string"* nonnull dereferenceable(32)) unnamed_addr #4 align 2

; Function Attrs: uwtable
define dso_local void @_ZN5adept21set_array_print_styleENS_15ArrayPrintStyleE(i32 %ps) local_unnamed_addr #5 personality i8* bitcast (i32 (...)* @__gxx_personality_v0 to i8*) {
entry:
  %__dnew.i.i.i.i = alloca i64, align 8
  %ref.tmp = alloca %"class.std::__cxx11::basic_string", align 8
  switch i32 %ps, label %sw.default [
    i32 0, label %sw.bb
    i32 1, label %sw.bb11
    i32 3, label %sw.bb23
    i32 2, label %sw.bb35
  ]

sw.bb:                                            ; preds = %entry
  %0 = load i64, i64* getelementptr inbounds (%"class.std::__cxx11::basic_string", %"class.std::__cxx11::basic_string"* @_ZN5adept8internal16vector_separatorB5cxx11E, i64 0, i32 1), align 8, !tbaa !2
  %call3.i.i = tail call nonnull align 8 dereferenceable(32) %"class.std::__cxx11::basic_string"* @_ZNSt7__cxx1112basic_stringIcSt11char_traitsIcESaIcEE10_M_replaceEmmPKcm(%"class.std::__cxx11::basic_string"* nonnull dereferenceable(32) @_ZN5adept8internal16vector_separatorB5cxx11E, i64 0, i64 %0, i8* getelementptr inbounds ([2 x i8], [2 x i8]* @.str.18, i64 0, i64 0), i64 1)
  %1 = load i64, i64* getelementptr inbounds (%"class.std::__cxx11::basic_string", %"class.std::__cxx11::basic_string"* @_ZN5adept8internal19vector_print_beforeB5cxx11E, i64 0, i32 1), align 8, !tbaa !2
  %call3.i.i57 = tail call nonnull align 8 dereferenceable(32) %"class.std::__cxx11::basic_string"* @_ZNSt7__cxx1112basic_stringIcSt11char_traitsIcESaIcEE10_M_replaceEmmPKcm(%"class.std::__cxx11::basic_string"* nonnull dereferenceable(32) @_ZN5adept8internal19vector_print_beforeB5cxx11E, i64 0, i64 %1, i8* getelementptr inbounds ([1 x i8], [1 x i8]* @.str.19, i64 0, i64 0), i64 0)
  %2 = load i64, i64* getelementptr inbounds (%"class.std::__cxx11::basic_string", %"class.std::__cxx11::basic_string"* @_ZN5adept8internal18vector_print_afterB5cxx11E, i64 0, i32 1), align 8, !tbaa !2
  %call3.i.i59 = tail call nonnull align 8 dereferenceable(32) %"class.std::__cxx11::basic_string"* @_ZNSt7__cxx1112basic_stringIcSt11char_traitsIcESaIcEE10_M_replaceEmmPKcm(%"class.std::__cxx11::basic_string"* nonnull dereferenceable(32) @_ZN5adept8internal18vector_print_afterB5cxx11E, i64 0, i64 %2, i8* getelementptr inbounds ([1 x i8], [1 x i8]* @.str.19, i64 0, i64 0), i64 0)
  %3 = load i64, i64* getelementptr inbounds (%"class.std::__cxx11::basic_string", %"class.std::__cxx11::basic_string"* @_ZN5adept8internal21array_opening_bracketB5cxx11E, i64 0, i32 1), align 8, !tbaa !2
  %call3.i.i61 = tail call nonnull align 8 dereferenceable(32) %"class.std::__cxx11::basic_string"* @_ZNSt7__cxx1112basic_stringIcSt11char_traitsIcESaIcEE10_M_replaceEmmPKcm(%"class.std::__cxx11::basic_string"* nonnull dereferenceable(32) @_ZN5adept8internal21array_opening_bracketB5cxx11E, i64 0, i64 %3, i8* getelementptr inbounds ([1 x i8], [1 x i8]* @.str.19, i64 0, i64 0), i64 0)
  %4 = load i64, i64* getelementptr inbounds (%"class.std::__cxx11::basic_string", %"class.std::__cxx11::basic_string"* @_ZN5adept8internal21array_closing_bracketB5cxx11E, i64 0, i32 1), align 8, !tbaa !2
  %call3.i.i63 = tail call nonnull align 8 dereferenceable(32) %"class.std::__cxx11::basic_string"* @_ZNSt7__cxx1112basic_stringIcSt11char_traitsIcESaIcEE10_M_replaceEmmPKcm(%"class.std::__cxx11::basic_string"* nonnull dereferenceable(32) @_ZN5adept8internal21array_closing_bracketB5cxx11E, i64 0, i64 %4, i8* getelementptr inbounds ([1 x i8], [1 x i8]* @.str.19, i64 0, i64 0), i64 0)
  %5 = load i64, i64* getelementptr inbounds (%"class.std::__cxx11::basic_string", %"class.std::__cxx11::basic_string"* @_ZN5adept8internal26array_contiguous_separatorB5cxx11E, i64 0, i32 1), align 8, !tbaa !2
  %call3.i.i65 = tail call nonnull align 8 dereferenceable(32) %"class.std::__cxx11::basic_string"* @_ZNSt7__cxx1112basic_stringIcSt11char_traitsIcESaIcEE10_M_replaceEmmPKcm(%"class.std::__cxx11::basic_string"* nonnull dereferenceable(32) @_ZN5adept8internal26array_contiguous_separatorB5cxx11E, i64 0, i64 %5, i8* getelementptr inbounds ([2 x i8], [2 x i8]* @.str.18, i64 0, i64 0), i64 1)
  %6 = load i64, i64* getelementptr inbounds (%"class.std::__cxx11::basic_string", %"class.std::__cxx11::basic_string"* @_ZN5adept8internal30array_non_contiguous_separatorB5cxx11E, i64 0, i32 1), align 8, !tbaa !2
  %call3.i.i67 = tail call nonnull align 8 dereferenceable(32) %"class.std::__cxx11::basic_string"* @_ZNSt7__cxx1112basic_stringIcSt11char_traitsIcESaIcEE10_M_replaceEmmPKcm(%"class.std::__cxx11::basic_string"* nonnull dereferenceable(32) @_ZN5adept8internal30array_non_contiguous_separatorB5cxx11E, i64 0, i64 %6, i8* getelementptr inbounds ([2 x i8], [2 x i8]* @.str.20, i64 0, i64 0), i64 1)
  %7 = load i64, i64* getelementptr inbounds (%"class.std::__cxx11::basic_string", %"class.std::__cxx11::basic_string"* @_ZN5adept8internal18array_print_beforeB5cxx11E, i64 0, i32 1), align 8, !tbaa !2
  %call3.i.i69 = tail call nonnull align 8 dereferenceable(32) %"class.std::__cxx11::basic_string"* @_ZNSt7__cxx1112basic_stringIcSt11char_traitsIcESaIcEE10_M_replaceEmmPKcm(%"class.std::__cxx11::basic_string"* nonnull dereferenceable(32) @_ZN5adept8internal18array_print_beforeB5cxx11E, i64 0, i64 %7, i8* getelementptr inbounds ([1 x i8], [1 x i8]* @.str.19, i64 0, i64 0), i64 0)
  %8 = load i64, i64* getelementptr inbounds (%"class.std::__cxx11::basic_string", %"class.std::__cxx11::basic_string"* @_ZN5adept8internal17array_print_afterB5cxx11E, i64 0, i32 1), align 8, !tbaa !2
  %call3.i.i71 = tail call nonnull align 8 dereferenceable(32) %"class.std::__cxx11::basic_string"* @_ZNSt7__cxx1112basic_stringIcSt11char_traitsIcESaIcEE10_M_replaceEmmPKcm(%"class.std::__cxx11::basic_string"* nonnull dereferenceable(32) @_ZN5adept8internal17array_print_afterB5cxx11E, i64 0, i64 %8, i8* getelementptr inbounds ([1 x i8], [1 x i8]* @.str.19, i64 0, i64 0), i64 0)
  %9 = load i64, i64* getelementptr inbounds (%"class.std::__cxx11::basic_string", %"class.std::__cxx11::basic_string"* @_ZN5adept8internal24array_print_empty_beforeB5cxx11E, i64 0, i32 1), align 8, !tbaa !2
  %call3.i.i73 = tail call nonnull align 8 dereferenceable(32) %"class.std::__cxx11::basic_string"* @_ZNSt7__cxx1112basic_stringIcSt11char_traitsIcESaIcEE10_M_replaceEmmPKcm(%"class.std::__cxx11::basic_string"* nonnull dereferenceable(32) @_ZN5adept8internal24array_print_empty_beforeB5cxx11E, i64 0, i64 %9, i8* getelementptr inbounds ([13 x i8], [13 x i8]* @.str.15, i64 0, i64 0), i64 12)
  %10 = load i64, i64* getelementptr inbounds (%"class.std::__cxx11::basic_string", %"class.std::__cxx11::basic_string"* @_ZN5adept8internal23array_print_empty_afterB5cxx11E, i64 0, i32 1), align 8, !tbaa !2
  %call3.i.i75 = tail call nonnull align 8 dereferenceable(32) %"class.std::__cxx11::basic_string"* @_ZNSt7__cxx1112basic_stringIcSt11char_traitsIcESaIcEE10_M_replaceEmmPKcm(%"class.std::__cxx11::basic_string"* nonnull dereferenceable(32) @_ZN5adept8internal23array_print_empty_afterB5cxx11E, i64 0, i64 %10, i8* getelementptr inbounds ([8 x i8], [8 x i8]* @.str.17, i64 0, i64 0), i64 7)
  br label %sw.epilog

sw.bb11:                                          ; preds = %entry
  %11 = load i64, i64* getelementptr inbounds (%"class.std::__cxx11::basic_string", %"class.std::__cxx11::basic_string"* @_ZN5adept8internal16vector_separatorB5cxx11E, i64 0, i32 1), align 8, !tbaa !2
  %call3.i.i77 = tail call nonnull align 8 dereferenceable(32) %"class.std::__cxx11::basic_string"* @_ZNSt7__cxx1112basic_stringIcSt11char_traitsIcESaIcEE10_M_replaceEmmPKcm(%"class.std::__cxx11::basic_string"* nonnull dereferenceable(32) @_ZN5adept8internal16vector_separatorB5cxx11E, i64 0, i64 %11, i8* getelementptr inbounds ([3 x i8], [3 x i8]* @.str, i64 0, i64 0), i64 2)
  %12 = load i64, i64* getelementptr inbounds (%"class.std::__cxx11::basic_string", %"class.std::__cxx11::basic_string"* @_ZN5adept8internal19vector_print_beforeB5cxx11E, i64 0, i32 1), align 8, !tbaa !2
  %call3.i.i79 = tail call nonnull align 8 dereferenceable(32) %"class.std::__cxx11::basic_string"* @_ZNSt7__cxx1112basic_stringIcSt11char_traitsIcESaIcEE10_M_replaceEmmPKcm(%"class.std::__cxx11::basic_string"* nonnull dereferenceable(32) @_ZN5adept8internal19vector_print_beforeB5cxx11E, i64 0, i64 %12, i8* getelementptr inbounds ([1 x i8], [1 x i8]* @.str.19, i64 0, i64 0), i64 0)
  %13 = load i64, i64* getelementptr inbounds (%"class.std::__cxx11::basic_string", %"class.std::__cxx11::basic_string"* @_ZN5adept8internal18vector_print_afterB5cxx11E, i64 0, i32 1), align 8, !tbaa !2
  %call3.i.i81 = tail call nonnull align 8 dereferenceable(32) %"class.std::__cxx11::basic_string"* @_ZNSt7__cxx1112basic_stringIcSt11char_traitsIcESaIcEE10_M_replaceEmmPKcm(%"class.std::__cxx11::basic_string"* nonnull dereferenceable(32) @_ZN5adept8internal18vector_print_afterB5cxx11E, i64 0, i64 %13, i8* getelementptr inbounds ([1 x i8], [1 x i8]* @.str.19, i64 0, i64 0), i64 0)
  %14 = load i64, i64* getelementptr inbounds (%"class.std::__cxx11::basic_string", %"class.std::__cxx11::basic_string"* @_ZN5adept8internal21array_opening_bracketB5cxx11E, i64 0, i32 1), align 8, !tbaa !2
  %call3.i.i83 = tail call nonnull align 8 dereferenceable(32) %"class.std::__cxx11::basic_string"* @_ZNSt7__cxx1112basic_stringIcSt11char_traitsIcESaIcEE10_M_replaceEmmPKcm(%"class.std::__cxx11::basic_string"* nonnull dereferenceable(32) @_ZN5adept8internal21array_opening_bracketB5cxx11E, i64 0, i64 %14, i8* getelementptr inbounds ([1 x i8], [1 x i8]* @.str.19, i64 0, i64 0), i64 0)
  %15 = load i64, i64* getelementptr inbounds (%"class.std::__cxx11::basic_string", %"class.std::__cxx11::basic_string"* @_ZN5adept8internal21array_closing_bracketB5cxx11E, i64 0, i32 1), align 8, !tbaa !2
  %call3.i.i85 = tail call nonnull align 8 dereferenceable(32) %"class.std::__cxx11::basic_string"* @_ZNSt7__cxx1112basic_stringIcSt11char_traitsIcESaIcEE10_M_replaceEmmPKcm(%"class.std::__cxx11::basic_string"* nonnull dereferenceable(32) @_ZN5adept8internal21array_closing_bracketB5cxx11E, i64 0, i64 %15, i8* getelementptr inbounds ([1 x i8], [1 x i8]* @.str.19, i64 0, i64 0), i64 0)
  %16 = load i64, i64* getelementptr inbounds (%"class.std::__cxx11::basic_string", %"class.std::__cxx11::basic_string"* @_ZN5adept8internal26array_contiguous_separatorB5cxx11E, i64 0, i32 1), align 8, !tbaa !2
  %call3.i.i87 = tail call nonnull align 8 dereferenceable(32) %"class.std::__cxx11::basic_string"* @_ZNSt7__cxx1112basic_stringIcSt11char_traitsIcESaIcEE10_M_replaceEmmPKcm(%"class.std::__cxx11::basic_string"* nonnull dereferenceable(32) @_ZN5adept8internal26array_contiguous_separatorB5cxx11E, i64 0, i64 %16, i8* getelementptr inbounds ([3 x i8], [3 x i8]* @.str, i64 0, i64 0), i64 2)
  %17 = load i64, i64* getelementptr inbounds (%"class.std::__cxx11::basic_string", %"class.std::__cxx11::basic_string"* @_ZN5adept8internal30array_non_contiguous_separatorB5cxx11E, i64 0, i32 1), align 8, !tbaa !2
  %call3.i.i89 = tail call nonnull align 8 dereferenceable(32) %"class.std::__cxx11::basic_string"* @_ZNSt7__cxx1112basic_stringIcSt11char_traitsIcESaIcEE10_M_replaceEmmPKcm(%"class.std::__cxx11::basic_string"* nonnull dereferenceable(32) @_ZN5adept8internal30array_non_contiguous_separatorB5cxx11E, i64 0, i64 %17, i8* getelementptr inbounds ([2 x i8], [2 x i8]* @.str.20, i64 0, i64 0), i64 1)
  %18 = load i64, i64* getelementptr inbounds (%"class.std::__cxx11::basic_string", %"class.std::__cxx11::basic_string"* @_ZN5adept8internal18array_print_beforeB5cxx11E, i64 0, i32 1), align 8, !tbaa !2
  %call3.i.i91 = tail call nonnull align 8 dereferenceable(32) %"class.std::__cxx11::basic_string"* @_ZNSt7__cxx1112basic_stringIcSt11char_traitsIcESaIcEE10_M_replaceEmmPKcm(%"class.std::__cxx11::basic_string"* nonnull dereferenceable(32) @_ZN5adept8internal18array_print_beforeB5cxx11E, i64 0, i64 %18, i8* getelementptr inbounds ([1 x i8], [1 x i8]* @.str.19, i64 0, i64 0), i64 0)
  %19 = load i64, i64* getelementptr inbounds (%"class.std::__cxx11::basic_string", %"class.std::__cxx11::basic_string"* @_ZN5adept8internal17array_print_afterB5cxx11E, i64 0, i32 1), align 8, !tbaa !2
  %call3.i.i93 = tail call nonnull align 8 dereferenceable(32) %"class.std::__cxx11::basic_string"* @_ZNSt7__cxx1112basic_stringIcSt11char_traitsIcESaIcEE10_M_replaceEmmPKcm(%"class.std::__cxx11::basic_string"* nonnull dereferenceable(32) @_ZN5adept8internal17array_print_afterB5cxx11E, i64 0, i64 %19, i8* getelementptr inbounds ([1 x i8], [1 x i8]* @.str.19, i64 0, i64 0), i64 0)
  %20 = load i64, i64* getelementptr inbounds (%"class.std::__cxx11::basic_string", %"class.std::__cxx11::basic_string"* @_ZN5adept8internal24array_print_empty_beforeB5cxx11E, i64 0, i32 1), align 8, !tbaa !2
  %call3.i.i95 = tail call nonnull align 8 dereferenceable(32) %"class.std::__cxx11::basic_string"* @_ZNSt7__cxx1112basic_stringIcSt11char_traitsIcESaIcEE10_M_replaceEmmPKcm(%"class.std::__cxx11::basic_string"* nonnull dereferenceable(32) @_ZN5adept8internal24array_print_empty_beforeB5cxx11E, i64 0, i64 %20, i8* getelementptr inbounds ([6 x i8], [6 x i8]* @.str.21, i64 0, i64 0), i64 5)
  %21 = load i64, i64* getelementptr inbounds (%"class.std::__cxx11::basic_string", %"class.std::__cxx11::basic_string"* @_ZN5adept8internal23array_print_empty_afterB5cxx11E, i64 0, i32 1), align 8, !tbaa !2
  %call3.i.i97 = tail call nonnull align 8 dereferenceable(32) %"class.std::__cxx11::basic_string"* @_ZNSt7__cxx1112basic_stringIcSt11char_traitsIcESaIcEE10_M_replaceEmmPKcm(%"class.std::__cxx11::basic_string"* nonnull dereferenceable(32) @_ZN5adept8internal23array_print_empty_afterB5cxx11E, i64 0, i64 %21, i8* getelementptr inbounds ([1 x i8], [1 x i8]* @.str.19, i64 0, i64 0), i64 0)
  br label %sw.epilog

sw.bb23:                                          ; preds = %entry
  %22 = load i64, i64* getelementptr inbounds (%"class.std::__cxx11::basic_string", %"class.std::__cxx11::basic_string"* @_ZN5adept8internal16vector_separatorB5cxx11E, i64 0, i32 1), align 8, !tbaa !2
  %call3.i.i99 = tail call nonnull align 8 dereferenceable(32) %"class.std::__cxx11::basic_string"* @_ZNSt7__cxx1112basic_stringIcSt11char_traitsIcESaIcEE10_M_replaceEmmPKcm(%"class.std::__cxx11::basic_string"* nonnull dereferenceable(32) @_ZN5adept8internal16vector_separatorB5cxx11E, i64 0, i64 %22, i8* getelementptr inbounds ([2 x i8], [2 x i8]* @.str.18, i64 0, i64 0), i64 1)
  %23 = load i64, i64* getelementptr inbounds (%"class.std::__cxx11::basic_string", %"class.std::__cxx11::basic_string"* @_ZN5adept8internal19vector_print_beforeB5cxx11E, i64 0, i32 1), align 8, !tbaa !2
  %call3.i.i101 = tail call nonnull align 8 dereferenceable(32) %"class.std::__cxx11::basic_string"* @_ZNSt7__cxx1112basic_stringIcSt11char_traitsIcESaIcEE10_M_replaceEmmPKcm(%"class.std::__cxx11::basic_string"* nonnull dereferenceable(32) @_ZN5adept8internal19vector_print_beforeB5cxx11E, i64 0, i64 %23, i8* getelementptr inbounds ([2 x i8], [2 x i8]* @.str.22, i64 0, i64 0), i64 1)
  %24 = load i64, i64* getelementptr inbounds (%"class.std::__cxx11::basic_string", %"class.std::__cxx11::basic_string"* @_ZN5adept8internal18vector_print_afterB5cxx11E, i64 0, i32 1), align 8, !tbaa !2
  %call3.i.i103 = tail call nonnull align 8 dereferenceable(32) %"class.std::__cxx11::basic_string"* @_ZNSt7__cxx1112basic_stringIcSt11char_traitsIcESaIcEE10_M_replaceEmmPKcm(%"class.std::__cxx11::basic_string"* nonnull dereferenceable(32) @_ZN5adept8internal18vector_print_afterB5cxx11E, i64 0, i64 %24, i8* getelementptr inbounds ([2 x i8], [2 x i8]* @.str.23, i64 0, i64 0), i64 1)
  %25 = load i64, i64* getelementptr inbounds (%"class.std::__cxx11::basic_string", %"class.std::__cxx11::basic_string"* @_ZN5adept8internal21array_opening_bracketB5cxx11E, i64 0, i32 1), align 8, !tbaa !2
  %call3.i.i105 = tail call nonnull align 8 dereferenceable(32) %"class.std::__cxx11::basic_string"* @_ZNSt7__cxx1112basic_stringIcSt11char_traitsIcESaIcEE10_M_replaceEmmPKcm(%"class.std::__cxx11::basic_string"* nonnull dereferenceable(32) @_ZN5adept8internal21array_opening_bracketB5cxx11E, i64 0, i64 %25, i8* getelementptr inbounds ([1 x i8], [1 x i8]* @.str.19, i64 0, i64 0), i64 0)
  %26 = load i64, i64* getelementptr inbounds (%"class.std::__cxx11::basic_string", %"class.std::__cxx11::basic_string"* @_ZN5adept8internal21array_closing_bracketB5cxx11E, i64 0, i32 1), align 8, !tbaa !2
  %call3.i.i107 = tail call nonnull align 8 dereferenceable(32) %"class.std::__cxx11::basic_string"* @_ZNSt7__cxx1112basic_stringIcSt11char_traitsIcESaIcEE10_M_replaceEmmPKcm(%"class.std::__cxx11::basic_string"* nonnull dereferenceable(32) @_ZN5adept8internal21array_closing_bracketB5cxx11E, i64 0, i64 %26, i8* getelementptr inbounds ([1 x i8], [1 x i8]* @.str.19, i64 0, i64 0), i64 0)
  %27 = load i64, i64* getelementptr inbounds (%"class.std::__cxx11::basic_string", %"class.std::__cxx11::basic_string"* @_ZN5adept8internal26array_contiguous_separatorB5cxx11E, i64 0, i32 1), align 8, !tbaa !2
  %call3.i.i109 = tail call nonnull align 8 dereferenceable(32) %"class.std::__cxx11::basic_string"* @_ZNSt7__cxx1112basic_stringIcSt11char_traitsIcESaIcEE10_M_replaceEmmPKcm(%"class.std::__cxx11::basic_string"* nonnull dereferenceable(32) @_ZN5adept8internal26array_contiguous_separatorB5cxx11E, i64 0, i64 %27, i8* getelementptr inbounds ([2 x i8], [2 x i8]* @.str.18, i64 0, i64 0), i64 1)
  %28 = load i64, i64* getelementptr inbounds (%"class.std::__cxx11::basic_string", %"class.std::__cxx11::basic_string"* @_ZN5adept8internal30array_non_contiguous_separatorB5cxx11E, i64 0, i32 1), align 8, !tbaa !2
  %call3.i.i111 = tail call nonnull align 8 dereferenceable(32) %"class.std::__cxx11::basic_string"* @_ZNSt7__cxx1112basic_stringIcSt11char_traitsIcESaIcEE10_M_replaceEmmPKcm(%"class.std::__cxx11::basic_string"* nonnull dereferenceable(32) @_ZN5adept8internal30array_non_contiguous_separatorB5cxx11E, i64 0, i64 %28, i8* getelementptr inbounds ([3 x i8], [3 x i8]* @.str.24, i64 0, i64 0), i64 2)
  %29 = load i64, i64* getelementptr inbounds (%"class.std::__cxx11::basic_string", %"class.std::__cxx11::basic_string"* @_ZN5adept8internal18array_print_beforeB5cxx11E, i64 0, i32 1), align 8, !tbaa !2
  %call3.i.i113 = tail call nonnull align 8 dereferenceable(32) %"class.std::__cxx11::basic_string"* @_ZNSt7__cxx1112basic_stringIcSt11char_traitsIcESaIcEE10_M_replaceEmmPKcm(%"class.std::__cxx11::basic_string"* nonnull dereferenceable(32) @_ZN5adept8internal18array_print_beforeB5cxx11E, i64 0, i64 %29, i8* getelementptr inbounds ([2 x i8], [2 x i8]* @.str.22, i64 0, i64 0), i64 1)
  %30 = load i64, i64* getelementptr inbounds (%"class.std::__cxx11::basic_string", %"class.std::__cxx11::basic_string"* @_ZN5adept8internal17array_print_afterB5cxx11E, i64 0, i32 1), align 8, !tbaa !2
  %call3.i.i115 = tail call nonnull align 8 dereferenceable(32) %"class.std::__cxx11::basic_string"* @_ZNSt7__cxx1112basic_stringIcSt11char_traitsIcESaIcEE10_M_replaceEmmPKcm(%"class.std::__cxx11::basic_string"* nonnull dereferenceable(32) @_ZN5adept8internal17array_print_afterB5cxx11E, i64 0, i64 %30, i8* getelementptr inbounds ([2 x i8], [2 x i8]* @.str.23, i64 0, i64 0), i64 1)
  %31 = load i64, i64* getelementptr inbounds (%"class.std::__cxx11::basic_string", %"class.std::__cxx11::basic_string"* @_ZN5adept8internal24array_print_empty_beforeB5cxx11E, i64 0, i32 1), align 8, !tbaa !2
  %call3.i.i117 = tail call nonnull align 8 dereferenceable(32) %"class.std::__cxx11::basic_string"* @_ZNSt7__cxx1112basic_stringIcSt11char_traitsIcESaIcEE10_M_replaceEmmPKcm(%"class.std::__cxx11::basic_string"* nonnull dereferenceable(32) @_ZN5adept8internal24array_print_empty_beforeB5cxx11E, i64 0, i64 %31, i8* getelementptr inbounds ([2 x i8], [2 x i8]* @.str.22, i64 0, i64 0), i64 1)
  %32 = load i64, i64* getelementptr inbounds (%"class.std::__cxx11::basic_string", %"class.std::__cxx11::basic_string"* @_ZN5adept8internal23array_print_empty_afterB5cxx11E, i64 0, i32 1), align 8, !tbaa !2
  %call3.i.i119 = tail call nonnull align 8 dereferenceable(32) %"class.std::__cxx11::basic_string"* @_ZNSt7__cxx1112basic_stringIcSt11char_traitsIcESaIcEE10_M_replaceEmmPKcm(%"class.std::__cxx11::basic_string"* nonnull dereferenceable(32) @_ZN5adept8internal23array_print_empty_afterB5cxx11E, i64 0, i64 %32, i8* getelementptr inbounds ([2 x i8], [2 x i8]* @.str.23, i64 0, i64 0), i64 1)
  br label %sw.epilog

sw.bb35:                                          ; preds = %entry
  %33 = load i64, i64* getelementptr inbounds (%"class.std::__cxx11::basic_string", %"class.std::__cxx11::basic_string"* @_ZN5adept8internal16vector_separatorB5cxx11E, i64 0, i32 1), align 8, !tbaa !2
  %call3.i.i121 = tail call nonnull align 8 dereferenceable(32) %"class.std::__cxx11::basic_string"* @_ZNSt7__cxx1112basic_stringIcSt11char_traitsIcESaIcEE10_M_replaceEmmPKcm(%"class.std::__cxx11::basic_string"* nonnull dereferenceable(32) @_ZN5adept8internal16vector_separatorB5cxx11E, i64 0, i64 %33, i8* getelementptr inbounds ([3 x i8], [3 x i8]* @.str, i64 0, i64 0), i64 2)
  %34 = load i64, i64* getelementptr inbounds (%"class.std::__cxx11::basic_string", %"class.std::__cxx11::basic_string"* @_ZN5adept8internal19vector_print_beforeB5cxx11E, i64 0, i32 1), align 8, !tbaa !2
  %call3.i.i123 = tail call nonnull align 8 dereferenceable(32) %"class.std::__cxx11::basic_string"* @_ZNSt7__cxx1112basic_stringIcSt11char_traitsIcESaIcEE10_M_replaceEmmPKcm(%"class.std::__cxx11::basic_string"* nonnull dereferenceable(32) @_ZN5adept8internal19vector_print_beforeB5cxx11E, i64 0, i64 %34, i8* getelementptr inbounds ([2 x i8], [2 x i8]* @.str.3, i64 0, i64 0), i64 1)
  %35 = load i64, i64* getelementptr inbounds (%"class.std::__cxx11::basic_string", %"class.std::__cxx11::basic_string"* @_ZN5adept8internal18vector_print_afterB5cxx11E, i64 0, i32 1), align 8, !tbaa !2
  %call3.i.i125 = tail call nonnull align 8 dereferenceable(32) %"class.std::__cxx11::basic_string"* @_ZNSt7__cxx1112basic_stringIcSt11char_traitsIcESaIcEE10_M_replaceEmmPKcm(%"class.std::__cxx11::basic_string"* nonnull dereferenceable(32) @_ZN5adept8internal18vector_print_afterB5cxx11E, i64 0, i64 %35, i8* getelementptr inbounds ([2 x i8], [2 x i8]* @.str.5, i64 0, i64 0), i64 1)
  %36 = load i64, i64* getelementptr inbounds (%"class.std::__cxx11::basic_string", %"class.std::__cxx11::basic_string"* @_ZN5adept8internal21array_opening_bracketB5cxx11E, i64 0, i32 1), align 8, !tbaa !2
  %call3.i.i127 = tail call nonnull align 8 dereferenceable(32) %"class.std::__cxx11::basic_string"* @_ZNSt7__cxx1112basic_stringIcSt11char_traitsIcESaIcEE10_M_replaceEmmPKcm(%"class.std::__cxx11::basic_string"* nonnull dereferenceable(32) @_ZN5adept8internal21array_opening_bracketB5cxx11E, i64 0, i64 %36, i8* getelementptr inbounds ([2 x i8], [2 x i8]* @.str.3, i64 0, i64 0), i64 1)
  %37 = load i64, i64* getelementptr inbounds (%"class.std::__cxx11::basic_string", %"class.std::__cxx11::basic_string"* @_ZN5adept8internal21array_closing_bracketB5cxx11E, i64 0, i32 1), align 8, !tbaa !2
  %call3.i.i129 = tail call nonnull align 8 dereferenceable(32) %"class.std::__cxx11::basic_string"* @_ZNSt7__cxx1112basic_stringIcSt11char_traitsIcESaIcEE10_M_replaceEmmPKcm(%"class.std::__cxx11::basic_string"* nonnull dereferenceable(32) @_ZN5adept8internal21array_closing_bracketB5cxx11E, i64 0, i64 %37, i8* getelementptr inbounds ([2 x i8], [2 x i8]* @.str.5, i64 0, i64 0), i64 1)
  %38 = load i64, i64* getelementptr inbounds (%"class.std::__cxx11::basic_string", %"class.std::__cxx11::basic_string"* @_ZN5adept8internal26array_contiguous_separatorB5cxx11E, i64 0, i32 1), align 8, !tbaa !2
  %call3.i.i131 = tail call nonnull align 8 dereferenceable(32) %"class.std::__cxx11::basic_string"* @_ZNSt7__cxx1112basic_stringIcSt11char_traitsIcESaIcEE10_M_replaceEmmPKcm(%"class.std::__cxx11::basic_string"* nonnull dereferenceable(32) @_ZN5adept8internal26array_contiguous_separatorB5cxx11E, i64 0, i64 %38, i8* getelementptr inbounds ([3 x i8], [3 x i8]* @.str, i64 0, i64 0), i64 2)
  %39 = load i64, i64* getelementptr inbounds (%"class.std::__cxx11::basic_string", %"class.std::__cxx11::basic_string"* @_ZN5adept8internal30array_non_contiguous_separatorB5cxx11E, i64 0, i32 1), align 8, !tbaa !2
  %call3.i.i133 = tail call nonnull align 8 dereferenceable(32) %"class.std::__cxx11::basic_string"* @_ZNSt7__cxx1112basic_stringIcSt11char_traitsIcESaIcEE10_M_replaceEmmPKcm(%"class.std::__cxx11::basic_string"* nonnull dereferenceable(32) @_ZN5adept8internal30array_non_contiguous_separatorB5cxx11E, i64 0, i64 %39, i8* getelementptr inbounds ([3 x i8], [3 x i8]* @.str.10, i64 0, i64 0), i64 2)
  %40 = load i64, i64* getelementptr inbounds (%"class.std::__cxx11::basic_string", %"class.std::__cxx11::basic_string"* @_ZN5adept8internal18array_print_beforeB5cxx11E, i64 0, i32 1), align 8, !tbaa !2
  %call3.i.i135 = tail call nonnull align 8 dereferenceable(32) %"class.std::__cxx11::basic_string"* @_ZNSt7__cxx1112basic_stringIcSt11char_traitsIcESaIcEE10_M_replaceEmmPKcm(%"class.std::__cxx11::basic_string"* nonnull dereferenceable(32) @_ZN5adept8internal18array_print_beforeB5cxx11E, i64 0, i64 %40, i8* getelementptr inbounds ([3 x i8], [3 x i8]* @.str.12, i64 0, i64 0), i64 2)
  %41 = load i64, i64* getelementptr inbounds (%"class.std::__cxx11::basic_string", %"class.std::__cxx11::basic_string"* @_ZN5adept8internal17array_print_afterB5cxx11E, i64 0, i32 1), align 8, !tbaa !2
  %call3.i.i137 = tail call nonnull align 8 dereferenceable(32) %"class.std::__cxx11::basic_string"* @_ZNSt7__cxx1112basic_stringIcSt11char_traitsIcESaIcEE10_M_replaceEmmPKcm(%"class.std::__cxx11::basic_string"* nonnull dereferenceable(32) @_ZN5adept8internal17array_print_afterB5cxx11E, i64 0, i64 %41, i8* getelementptr inbounds ([2 x i8], [2 x i8]* @.str.5, i64 0, i64 0), i64 1)
  %42 = load i64, i64* getelementptr inbounds (%"class.std::__cxx11::basic_string", %"class.std::__cxx11::basic_string"* @_ZN5adept8internal24array_print_empty_beforeB5cxx11E, i64 0, i32 1), align 8, !tbaa !2
  %call3.i.i139 = tail call nonnull align 8 dereferenceable(32) %"class.std::__cxx11::basic_string"* @_ZNSt7__cxx1112basic_stringIcSt11char_traitsIcESaIcEE10_M_replaceEmmPKcm(%"class.std::__cxx11::basic_string"* nonnull dereferenceable(32) @_ZN5adept8internal24array_print_empty_beforeB5cxx11E, i64 0, i64 %42, i8* getelementptr inbounds ([13 x i8], [13 x i8]* @.str.15, i64 0, i64 0), i64 12)
  %43 = load i64, i64* getelementptr inbounds (%"class.std::__cxx11::basic_string", %"class.std::__cxx11::basic_string"* @_ZN5adept8internal23array_print_empty_afterB5cxx11E, i64 0, i32 1), align 8, !tbaa !2
  %call3.i.i141 = tail call nonnull align 8 dereferenceable(32) %"class.std::__cxx11::basic_string"* @_ZNSt7__cxx1112basic_stringIcSt11char_traitsIcESaIcEE10_M_replaceEmmPKcm(%"class.std::__cxx11::basic_string"* nonnull dereferenceable(32) @_ZN5adept8internal23array_print_empty_afterB5cxx11E, i64 0, i64 %43, i8* getelementptr inbounds ([8 x i8], [8 x i8]* @.str.17, i64 0, i64 0), i64 7)
  br label %sw.epilog

sw.default:                                       ; preds = %entry
  %exception = tail call i8* @__cxa_allocate_exception(i64 40) #34
  %44 = bitcast %"class.std::__cxx11::basic_string"* %ref.tmp to i8*
  call void @llvm.lifetime.start.p0i8(i64 32, i8* nonnull %44) #34
  %45 = getelementptr inbounds %"class.std::__cxx11::basic_string", %"class.std::__cxx11::basic_string"* %ref.tmp, i64 0, i32 2
  %46 = bitcast %"class.std::__cxx11::basic_string"* %ref.tmp to %union.anon**
  store %union.anon* %45, %union.anon** %46, align 8, !tbaa !9
  %47 = bitcast %union.anon* %45 to i8*
  %48 = bitcast i64* %__dnew.i.i.i.i to i8*
  call void @llvm.lifetime.start.p0i8(i64 8, i8* nonnull %48) #34
  store i64 32, i64* %__dnew.i.i.i.i, align 8, !tbaa !10
  %call5.i.i.i9.i142 = invoke i8* @_ZNSt7__cxx1112basic_stringIcSt11char_traitsIcESaIcEE9_M_createERmm(%"class.std::__cxx11::basic_string"* nonnull dereferenceable(32) %ref.tmp, i64* nonnull align 8 dereferenceable(8) %__dnew.i.i.i.i, i64 0)
          to label %call5.i.i.i9.i.noexc unwind label %ehcleanup.thread

call5.i.i.i9.i.noexc:                             ; preds = %sw.default
  %_M_p.i13.i.i.i.i = getelementptr inbounds %"class.std::__cxx11::basic_string", %"class.std::__cxx11::basic_string"* %ref.tmp, i64 0, i32 0, i32 0
  store i8* %call5.i.i.i9.i142, i8** %_M_p.i13.i.i.i.i, align 8, !tbaa !11
  %49 = load i64, i64* %__dnew.i.i.i.i, align 8, !tbaa !10
  %_M_allocated_capacity.i.i.i.i.i = getelementptr inbounds %"class.std::__cxx11::basic_string", %"class.std::__cxx11::basic_string"* %ref.tmp, i64 0, i32 2, i32 0
  store i64 %49, i64* %_M_allocated_capacity.i.i.i.i.i, align 8, !tbaa !12
  call void @llvm.memcpy.p0i8.p0i8.i64(i8* nonnull align 1 dereferenceable(32) %call5.i.i.i9.i142, i8* nonnull align 1 dereferenceable(32) getelementptr inbounds ([33 x i8], [33 x i8]* @.str.25, i64 0, i64 0), i64 32, i1 false) #34
  %_M_string_length.i.i.i.i.i.i = getelementptr inbounds %"class.std::__cxx11::basic_string", %"class.std::__cxx11::basic_string"* %ref.tmp, i64 0, i32 1
  store i64 %49, i64* %_M_string_length.i.i.i.i.i.i, align 8, !tbaa !2
  %50 = load i8*, i8** %_M_p.i13.i.i.i.i, align 8, !tbaa !11
  %arrayidx.i.i.i.i.i = getelementptr inbounds i8, i8* %50, i64 %49
  store i8 0, i8* %arrayidx.i.i.i.i.i, align 1, !tbaa !12
  call void @llvm.lifetime.end.p0i8(i64 8, i8* nonnull %48) #34
  %51 = bitcast i8* %exception to %"class.adept::invalid_operation"*
  invoke void @_ZN5adept17invalid_operationC2ERKNSt7__cxx1112basic_stringIcSt11char_traitsIcESaIcEEE(%"class.adept::invalid_operation"* nonnull dereferenceable(40) %51, %"class.std::__cxx11::basic_string"* nonnull align 8 dereferenceable(32) %ref.tmp)
          to label %invoke.cont49 unwind label %lpad48

invoke.cont49:                                    ; preds = %call5.i.i.i9.i.noexc
  invoke void @__cxa_throw(i8* %exception, i8* bitcast ({ i8*, i8*, i8* }* @_ZTIN5adept17invalid_operationE to i8*), i8* bitcast (void (%"class.adept::exception"*)* @_ZN5adept9exceptionD2Ev to i8*)) #35
          to label %unreachable unwind label %lpad48

ehcleanup.thread:                                 ; preds = %sw.default
  %52 = landingpad { i8*, i32 }
          cleanup
  call void @llvm.lifetime.end.p0i8(i64 32, i8* nonnull %44) #34
  br label %cleanup.action

lpad48:                                           ; preds = %invoke.cont49, %call5.i.i.i9.i.noexc
  %cleanup.isactive.0 = phi i1 [ false, %invoke.cont49 ], [ true, %call5.i.i.i9.i.noexc ]
  %53 = landingpad { i8*, i32 }
          cleanup
  %54 = load i8*, i8** %_M_p.i13.i.i.i.i, align 8, !tbaa !11
  %cmp.i.i.i = icmp eq i8* %54, %47
  br i1 %cmp.i.i.i, label %ehcleanup, label %if.then.i.i

if.then.i.i:                                      ; preds = %lpad48
  call void @_ZdlPv(i8* %54) #34
  call void @llvm.lifetime.end.p0i8(i64 32, i8* nonnull %44) #34
  br i1 %cleanup.isactive.0, label %cleanup.action, label %eh.resume

ehcleanup:                                        ; preds = %lpad48
  call void @llvm.lifetime.end.p0i8(i64 32, i8* nonnull %44) #34
  br i1 %cleanup.isactive.0, label %cleanup.action, label %eh.resume

cleanup.action:                                   ; preds = %if.then.i.i, %ehcleanup.thread, %ehcleanup
  %.pn146 = phi { i8*, i32 } [ %52, %ehcleanup.thread ], [ %53, %ehcleanup ], [ %53, %if.then.i.i ]
  call void @__cxa_free_exception(i8* %exception) #34
  br label %eh.resume

sw.epilog:                                        ; preds = %sw.bb35, %sw.bb23, %sw.bb11, %sw.bb
  %.sink147 = phi i8 [ 1, %sw.bb35 ], [ 1, %sw.bb23 ], [ 0, %sw.bb11 ], [ 0, %sw.bb ]
  %.sink = phi i8 [ 1, %sw.bb35 ], [ 0, %sw.bb23 ], [ 0, %sw.bb11 ], [ 1, %sw.bb ]
  store i8 %.sink147, i8* @_ZN5adept8internal18array_print_indentE, align 1, !tbaa !13
  store i8 %.sink, i8* @_ZN5adept8internal22array_print_empty_rankE, align 1, !tbaa !13
  store i32 %ps, i32* @_ZN5adept8internal17array_print_styleE, align 4, !tbaa !15
  ret void

eh.resume:                                        ; preds = %if.then.i.i, %ehcleanup, %cleanup.action
  %.pn145 = phi { i8*, i32 } [ %53, %ehcleanup ], [ %.pn146, %cleanup.action ], [ %53, %if.then.i.i ]
  resume { i8*, i32 } %.pn145

unreachable:                                      ; preds = %invoke.cont49
  unreachable
}

declare dso_local i8* @__cxa_allocate_exception(i64) local_unnamed_addr

; Function Attrs: uwtable
define linkonce_odr dso_local void @_ZN5adept17invalid_operationC2ERKNSt7__cxx1112basic_stringIcSt11char_traitsIcESaIcEEE(%"class.adept::invalid_operation"* nonnull dereferenceable(40) %this, %"class.std::__cxx11::basic_string"* nonnull align 8 dereferenceable(32) %message) unnamed_addr #5 comdat align 2 personality i8* bitcast (i32 (...)* @__gxx_personality_v0 to i8*) {
entry:
  %__dnew.i.i.i.i = alloca i64, align 8
  %ref.tmp = alloca %"class.std::__cxx11::basic_string", align 8
  %0 = bitcast %"class.std::__cxx11::basic_string"* %ref.tmp to i8*
  call void @llvm.lifetime.start.p0i8(i64 32, i8* nonnull %0) #34
  %1 = getelementptr inbounds %"class.std::__cxx11::basic_string", %"class.std::__cxx11::basic_string"* %ref.tmp, i64 0, i32 2
  %2 = bitcast %"class.std::__cxx11::basic_string"* %ref.tmp to %union.anon**
  store %union.anon* %1, %union.anon** %2, align 8, !tbaa !9
  %3 = bitcast %union.anon* %1 to i8*
  %4 = bitcast i64* %__dnew.i.i.i.i to i8*
  call void @llvm.lifetime.start.p0i8(i64 8, i8* nonnull %4) #34
  store i64 27, i64* %__dnew.i.i.i.i, align 8, !tbaa !10
  %call5.i.i.i9.i15 = invoke i8* @_ZNSt7__cxx1112basic_stringIcSt11char_traitsIcESaIcEE9_M_createERmm(%"class.std::__cxx11::basic_string"* nonnull dereferenceable(32) %ref.tmp, i64* nonnull align 8 dereferenceable(8) %__dnew.i.i.i.i, i64 0)
          to label %call5.i.i.i9.i.noexc unwind label %lpad

call5.i.i.i9.i.noexc:                             ; preds = %entry
  %_M_p.i13.i.i.i.i = getelementptr inbounds %"class.std::__cxx11::basic_string", %"class.std::__cxx11::basic_string"* %ref.tmp, i64 0, i32 0, i32 0
  store i8* %call5.i.i.i9.i15, i8** %_M_p.i13.i.i.i.i, align 8, !tbaa !11
  %5 = load i64, i64* %__dnew.i.i.i.i, align 8, !tbaa !10
  %_M_allocated_capacity.i.i.i.i.i = getelementptr inbounds %"class.std::__cxx11::basic_string", %"class.std::__cxx11::basic_string"* %ref.tmp, i64 0, i32 2, i32 0
  store i64 %5, i64* %_M_allocated_capacity.i.i.i.i.i, align 8, !tbaa !12
  call void @llvm.memcpy.p0i8.p0i8.i64(i8* nonnull align 1 dereferenceable(27) %call5.i.i.i9.i15, i8* nonnull align 1 dereferenceable(27) getelementptr inbounds ([28 x i8], [28 x i8]* @.str.108, i64 0, i64 0), i64 27, i1 false) #34
  %_M_string_length.i.i.i.i.i.i = getelementptr inbounds %"class.std::__cxx11::basic_string", %"class.std::__cxx11::basic_string"* %ref.tmp, i64 0, i32 1
  store i64 %5, i64* %_M_string_length.i.i.i.i.i.i, align 8, !tbaa !2
  %6 = load i8*, i8** %_M_p.i13.i.i.i.i, align 8, !tbaa !11
  %arrayidx.i.i.i.i.i = getelementptr inbounds i8, i8* %6, i64 %5
  store i8 0, i8* %arrayidx.i.i.i.i.i, align 1, !tbaa !12
  call void @llvm.lifetime.end.p0i8(i64 8, i8* nonnull %4) #34
  %7 = getelementptr inbounds %"class.adept::invalid_operation", %"class.adept::invalid_operation"* %this, i64 0, i32 0, i32 0, i32 0, i32 0
  %message_.i.i = getelementptr inbounds %"class.adept::invalid_operation", %"class.adept::invalid_operation"* %this, i64 0, i32 0, i32 0, i32 1
  %8 = getelementptr inbounds %"class.adept::invalid_operation", %"class.adept::invalid_operation"* %this, i64 0, i32 0, i32 0, i32 1, i32 2
  %9 = bitcast %"class.std::__cxx11::basic_string"* %message_.i.i to %union.anon**
  store %union.anon* %8, %union.anon** %9, align 8, !tbaa !9
  %_M_string_length.i.i.i.i.i = getelementptr inbounds %"class.adept::invalid_operation", %"class.adept::invalid_operation"* %this, i64 0, i32 0, i32 0, i32 1, i32 1
  store i64 0, i64* %_M_string_length.i.i.i.i.i, align 8, !tbaa !2
  %.cast.i.i.i = bitcast %union.anon* %8 to i8*
  store i8 0, i8* %.cast.i.i.i, align 1, !tbaa !12
  store i32 (...)** bitcast (i8** getelementptr inbounds ({ [5 x i8*] }, { [5 x i8*] }* @_ZTVN5adept15array_exceptionE, i64 0, inrange i32 0, i64 2) to i32 (...)**), i32 (...)*** %7, align 8, !tbaa !17
  invoke void @_ZNSt7__cxx1112basic_stringIcSt11char_traitsIcESaIcEE9_M_assignERKS4_(%"class.std::__cxx11::basic_string"* nonnull dereferenceable(32) %message_.i.i, %"class.std::__cxx11::basic_string"* nonnull align 8 dereferenceable(32) %ref.tmp)
          to label %invoke.cont4 unwind label %lpad.i

lpad.i:                                           ; preds = %call5.i.i.i9.i.noexc
  %10 = landingpad { i8*, i32 }
          cleanup
  store i32 (...)** bitcast (i8** getelementptr inbounds ({ [5 x i8*] }, { [5 x i8*] }* @_ZTVN5adept9exceptionE, i64 0, inrange i32 0, i64 2) to i32 (...)**), i32 (...)*** %7, align 8, !tbaa !17
  %_M_p.i.i.i.i.i.i = getelementptr inbounds %"class.adept::invalid_operation", %"class.adept::invalid_operation"* %this, i64 0, i32 0, i32 0, i32 1, i32 0, i32 0
  %11 = load i8*, i8** %_M_p.i.i.i.i.i.i, align 8, !tbaa !11
  %cmp.i.i.i.i.i = icmp eq i8* %11, %.cast.i.i.i
  br i1 %cmp.i.i.i.i.i, label %_ZN5adept9exceptionD2Ev.exit.i, label %if.then.i.i.i.i

if.then.i.i.i.i:                                  ; preds = %lpad.i
  call void @_ZdlPv(i8* %11) #34
  br label %_ZN5adept9exceptionD2Ev.exit.i

_ZN5adept9exceptionD2Ev.exit.i:                   ; preds = %if.then.i.i.i.i, %lpad.i
  %12 = getelementptr inbounds %"class.adept::invalid_operation", %"class.adept::invalid_operation"* %this, i64 0, i32 0, i32 0, i32 0
  call void @_ZNSt9exceptionD2Ev(%"class.std::exception"* nonnull dereferenceable(8) %12) #34
  %13 = load i8*, i8** %_M_p.i13.i.i.i.i, align 8, !tbaa !11
  %cmp.i.i.i18 = icmp eq i8* %13, %3
  br i1 %cmp.i.i.i18, label %ehcleanup, label %if.then.i.i19

invoke.cont4:                                     ; preds = %call5.i.i.i9.i.noexc
  %14 = load i8*, i8** %_M_p.i13.i.i.i.i, align 8, !tbaa !11
  %cmp.i.i.i = icmp eq i8* %14, %3
  br i1 %cmp.i.i.i, label %_ZNSt7__cxx1112basic_stringIcSt11char_traitsIcESaIcEED2Ev.exit, label %if.then.i.i

if.then.i.i:                                      ; preds = %invoke.cont4
  call void @_ZdlPv(i8* %14) #34
  br label %_ZNSt7__cxx1112basic_stringIcSt11char_traitsIcESaIcEED2Ev.exit

_ZNSt7__cxx1112basic_stringIcSt11char_traitsIcESaIcEED2Ev.exit: ; preds = %invoke.cont4, %if.then.i.i
  call void @llvm.lifetime.end.p0i8(i64 32, i8* nonnull %0) #34
  store i32 (...)** bitcast (i8** getelementptr inbounds ({ [5 x i8*] }, { [5 x i8*] }* @_ZTVN5adept17invalid_operationE, i64 0, inrange i32 0, i64 2) to i32 (...)**), i32 (...)*** %7, align 8, !tbaa !17
  invoke void @_ZNSt7__cxx1112basic_stringIcSt11char_traitsIcESaIcEE9_M_assignERKS4_(%"class.std::__cxx11::basic_string"* nonnull dereferenceable(32) %message_.i.i, %"class.std::__cxx11::basic_string"* nonnull align 8 dereferenceable(32) %message)
          to label %invoke.cont8 unwind label %lpad7

invoke.cont8:                                     ; preds = %_ZNSt7__cxx1112basic_stringIcSt11char_traitsIcESaIcEED2Ev.exit
  ret void

lpad:                                             ; preds = %entry
  %15 = landingpad { i8*, i32 }
          cleanup
  br label %ehcleanup

if.then.i.i19:                                    ; preds = %_ZN5adept9exceptionD2Ev.exit.i
  call void @_ZdlPv(i8* %13) #34
  br label %ehcleanup

ehcleanup:                                        ; preds = %if.then.i.i19, %_ZN5adept9exceptionD2Ev.exit.i, %lpad
  %.pn = phi { i8*, i32 } [ %15, %lpad ], [ %10, %_ZN5adept9exceptionD2Ev.exit.i ], [ %10, %if.then.i.i19 ]
  call void @llvm.lifetime.end.p0i8(i64 32, i8* nonnull %0) #34
  br label %eh.resume

lpad7:                                            ; preds = %_ZNSt7__cxx1112basic_stringIcSt11char_traitsIcESaIcEED2Ev.exit
  %16 = landingpad { i8*, i32 }
          cleanup
  store i32 (...)** bitcast (i8** getelementptr inbounds ({ [5 x i8*] }, { [5 x i8*] }* @_ZTVN5adept9exceptionE, i64 0, inrange i32 0, i64 2) to i32 (...)**), i32 (...)*** %7, align 8, !tbaa !17
  %_M_p.i.i.i.i.i = getelementptr inbounds %"class.adept::invalid_operation", %"class.adept::invalid_operation"* %this, i64 0, i32 0, i32 0, i32 1, i32 0, i32 0
  %17 = load i8*, i8** %_M_p.i.i.i.i.i, align 8, !tbaa !11
  %cmp.i.i.i.i = icmp eq i8* %17, %.cast.i.i.i
  br i1 %cmp.i.i.i.i, label %_ZN5adept9exceptionD2Ev.exit, label %if.then.i.i.i

if.then.i.i.i:                                    ; preds = %lpad7
  call void @_ZdlPv(i8* %17) #34
  br label %_ZN5adept9exceptionD2Ev.exit

_ZN5adept9exceptionD2Ev.exit:                     ; preds = %lpad7, %if.then.i.i.i
  %18 = getelementptr inbounds %"class.adept::invalid_operation", %"class.adept::invalid_operation"* %this, i64 0, i32 0, i32 0, i32 0
  call void @_ZNSt9exceptionD2Ev(%"class.std::exception"* nonnull dereferenceable(8) %18) #34
  br label %eh.resume

eh.resume:                                        ; preds = %_ZN5adept9exceptionD2Ev.exit, %ehcleanup
  %.pn12 = phi { i8*, i32 } [ %16, %_ZN5adept9exceptionD2Ev.exit ], [ %.pn, %ehcleanup ]
  resume { i8*, i32 } %.pn12
}

declare dso_local void @__cxa_throw(i8*, i8*, i8*) local_unnamed_addr

declare dso_local void @__cxa_free_exception(i8*) local_unnamed_addr

; Function Attrs: nounwind uwtable
define dso_local void @_ZN5adept5StackD2Ev(%"class.adept::Stack"* nonnull readonly dereferenceable(149) %this) unnamed_addr #4 align 2 personality i32 (...)* @__gxx_personality_v0 {
entry:
  %is_thread_unsafe_ = getelementptr inbounds %"class.adept::Stack", %"class.adept::Stack"* %this, i64 0, i32 11
  %0 = load i8, i8* %is_thread_unsafe_, align 1, !tbaa !19, !range !25
  %tobool.not = icmp eq i8 %0, 0
  br i1 %tobool.not, label %if.else, label %if.then

if.then:                                          ; preds = %entry
  %1 = load %"class.adept::Stack"*, %"class.adept::Stack"** @_ZN5adept28_stack_current_thread_unsafeE, align 8, !tbaa !26
  %cmp = icmp eq %"class.adept::Stack"* %1, %this
  br i1 %cmp, label %if.then2, label %if.end6

if.then2:                                         ; preds = %if.then
  store %"class.adept::Stack"* null, %"class.adept::Stack"** @_ZN5adept28_stack_current_thread_unsafeE, align 8, !tbaa !26
  br label %if.end6

if.else:                                          ; preds = %entry
  %2 = load %"class.adept::Stack"*, %"class.adept::Stack"** @_ZN5adept21_stack_current_threadE, align 8, !tbaa !26
  %cmp3 = icmp eq %"class.adept::Stack"* %2, %this
  br i1 %cmp3, label %if.then4, label %if.end6

if.then4:                                         ; preds = %if.else
  store %"class.adept::Stack"* null, %"class.adept::Stack"** @_ZN5adept21_stack_current_threadE, align 8, !tbaa !26
  br label %if.end6

if.end6:                                          ; preds = %if.else, %if.then4, %if.then, %if.then2
  %gradient_ = getelementptr inbounds %"class.adept::Stack", %"class.adept::Stack"* %this, i64 0, i32 1
  %3 = load double*, double** %gradient_, align 8, !tbaa !27
  %tobool7.not = icmp eq double* %3, null
  br i1 %tobool7.not, label %if.end10, label %delete.notnull

delete.notnull:                                   ; preds = %if.end6
  %4 = bitcast double* %3 to i8*
  tail call void @_ZdaPv(i8* %4) #36
  br label %if.end10

if.end10:                                         ; preds = %delete.notnull, %if.end6
  %5 = getelementptr inbounds %"class.adept::Stack", %"class.adept::Stack"* %this, i64 0, i32 4, i32 0
  %6 = getelementptr inbounds %"class.std::__cxx11::_List_base", %"class.std::__cxx11::_List_base"* %5, i64 0, i32 0, i32 0, i32 0
  %_M_next.i.i = getelementptr inbounds %"class.std::__cxx11::_List_base", %"class.std::__cxx11::_List_base"* %5, i64 0, i32 0, i32 0, i32 0, i32 0
  %7 = load %"struct.std::__detail::_List_node_base"*, %"struct.std::__detail::_List_node_base"** %_M_next.i.i, align 8, !tbaa !28
  %cmp.not12.i.i = icmp eq %"struct.std::__detail::_List_node_base"* %7, %6
  br i1 %cmp.not12.i.i, label %_ZNSt7__cxx1110_List_baseIN5adept3GapESaIS2_EED2Ev.exit, label %while.body.i.i

while.body.i.i:                                   ; preds = %if.end10, %while.body.i.i
  %__cur.013.i.i = phi %"struct.std::__detail::_List_node_base"* [ %8, %while.body.i.i ], [ %7, %if.end10 ]
  %_M_next4.i.i = getelementptr inbounds %"struct.std::__detail::_List_node_base", %"struct.std::__detail::_List_node_base"* %__cur.013.i.i, i64 0, i32 0
  %8 = load %"struct.std::__detail::_List_node_base"*, %"struct.std::__detail::_List_node_base"** %_M_next4.i.i, align 8, !tbaa !28
  %9 = bitcast %"struct.std::__detail::_List_node_base"* %__cur.013.i.i to i8*
  tail call void @_ZdlPv(i8* %9) #34
  %cmp.not.i.i = icmp eq %"struct.std::__detail::_List_node_base"* %8, %6
  br i1 %cmp.not.i.i, label %_ZNSt7__cxx1110_List_baseIN5adept3GapESaIS2_EED2Ev.exit, label %while.body.i.i, !llvm.loop !30

_ZNSt7__cxx1110_List_baseIN5adept3GapESaIS2_EED2Ev.exit: ; preds = %while.body.i.i, %if.end10
  %_M_start.i.i = getelementptr inbounds %"class.adept::Stack", %"class.adept::Stack"* %this, i64 0, i32 3, i32 0, i32 0, i32 0, i32 0
  %10 = load i32*, i32** %_M_start.i.i, align 8, !tbaa !33
  %tobool.not.i.i.i = icmp eq i32* %10, null
  br i1 %tobool.not.i.i.i, label %_ZNSt6vectorIiSaIiEED2Ev.exit, label %if.then.i.i.i

if.then.i.i.i:                                    ; preds = %_ZNSt7__cxx1110_List_baseIN5adept3GapESaIS2_EED2Ev.exit
  %11 = bitcast i32* %10 to i8*
  tail call void @_ZdlPv(i8* nonnull %11) #34
  br label %_ZNSt6vectorIiSaIiEED2Ev.exit

_ZNSt6vectorIiSaIiEED2Ev.exit:                    ; preds = %_ZNSt7__cxx1110_List_baseIN5adept3GapESaIS2_EED2Ev.exit, %if.then.i.i.i
  %_M_start.i.i11 = getelementptr inbounds %"class.adept::Stack", %"class.adept::Stack"* %this, i64 0, i32 2, i32 0, i32 0, i32 0, i32 0
  %12 = load i32*, i32** %_M_start.i.i11, align 8, !tbaa !33
  %tobool.not.i.i.i12 = icmp eq i32* %12, null
  br i1 %tobool.not.i.i.i12, label %_ZNSt6vectorIiSaIiEED2Ev.exit14, label %if.then.i.i.i13

if.then.i.i.i13:                                  ; preds = %_ZNSt6vectorIiSaIiEED2Ev.exit
  %13 = bitcast i32* %12 to i8*
  tail call void @_ZdlPv(i8* nonnull %13) #34
  br label %_ZNSt6vectorIiSaIiEED2Ev.exit14

_ZNSt6vectorIiSaIiEED2Ev.exit14:                  ; preds = %_ZNSt6vectorIiSaIiEED2Ev.exit, %if.then.i.i.i13
  %statement_.i = getelementptr inbounds %"class.adept::Stack", %"class.adept::Stack"* %this, i64 0, i32 0, i32 0
  %14 = load %"struct.adept::internal::Statement"*, %"struct.adept::internal::Statement"** %statement_.i, align 8, !tbaa !35
  %tobool.not.i = icmp eq %"struct.adept::internal::Statement"* %14, null
  br i1 %tobool.not.i, label %if.end.i, label %delete.notnull.i

delete.notnull.i:                                 ; preds = %_ZNSt6vectorIiSaIiEED2Ev.exit14
  %15 = bitcast %"struct.adept::internal::Statement"* %14 to i8*
  tail call void @_ZdaPv(i8* %15) #36
  br label %if.end.i

if.end.i:                                         ; preds = %delete.notnull.i, %_ZNSt6vectorIiSaIiEED2Ev.exit14
  %multiplier_.i = getelementptr inbounds %"class.adept::Stack", %"class.adept::Stack"* %this, i64 0, i32 0, i32 1
  %16 = load double*, double** %multiplier_.i, align 8, !tbaa !37
  %tobool3.not.i = icmp eq double* %16, null
  br i1 %tobool3.not.i, label %if.end9.i, label %delete.notnull7.i

delete.notnull7.i:                                ; preds = %if.end.i
  %17 = bitcast double* %16 to i8*
  tail call void @_ZdaPv(i8* %17) #36
  br label %if.end9.i

if.end9.i:                                        ; preds = %delete.notnull7.i, %if.end.i
  %index_.i = getelementptr inbounds %"class.adept::Stack", %"class.adept::Stack"* %this, i64 0, i32 0, i32 2
  %18 = load i32*, i32** %index_.i, align 8, !tbaa !38
  %tobool10.not.i = icmp eq i32* %18, null
  br i1 %tobool10.not.i, label %_ZN5adept8internal16StackStorageOrigD2Ev.exit, label %delete.notnull14.i

delete.notnull14.i:                               ; preds = %if.end9.i
  %19 = bitcast i32* %18 to i8*
  tail call void @_ZdaPv(i8* %19) #36
  br label %_ZN5adept8internal16StackStorageOrigD2Ev.exit

_ZN5adept8internal16StackStorageOrigD2Ev.exit:    ; preds = %if.end9.i, %delete.notnull14.i
  ret void
}

; Function Attrs: nobuiltin nounwind
declare dso_local void @_ZdaPv(i8*) local_unnamed_addr #6

; Function Attrs: nounwind uwtable
define dso_local void @_ZN5adept8internal16StackStorageOrigD2Ev(%"class.adept::internal::StackStorageOrig"* nocapture nonnull readonly dereferenceable(40) %this) unnamed_addr #4 align 2 {
entry:
  %statement_ = getelementptr inbounds %"class.adept::internal::StackStorageOrig", %"class.adept::internal::StackStorageOrig"* %this, i64 0, i32 0
  %0 = load %"struct.adept::internal::Statement"*, %"struct.adept::internal::Statement"** %statement_, align 8, !tbaa !35
  %tobool.not = icmp eq %"struct.adept::internal::Statement"* %0, null
  br i1 %tobool.not, label %if.end, label %delete.notnull

delete.notnull:                                   ; preds = %entry
  %1 = bitcast %"struct.adept::internal::Statement"* %0 to i8*
  tail call void @_ZdaPv(i8* %1) #36
  br label %if.end

if.end:                                           ; preds = %delete.notnull, %entry
  %multiplier_ = getelementptr inbounds %"class.adept::internal::StackStorageOrig", %"class.adept::internal::StackStorageOrig"* %this, i64 0, i32 1
  %2 = load double*, double** %multiplier_, align 8, !tbaa !37
  %tobool3.not = icmp eq double* %2, null
  br i1 %tobool3.not, label %if.end9, label %delete.notnull7

delete.notnull7:                                  ; preds = %if.end
  %3 = bitcast double* %2 to i8*
  tail call void @_ZdaPv(i8* %3) #36
  br label %if.end9

if.end9:                                          ; preds = %delete.notnull7, %if.end
  %index_ = getelementptr inbounds %"class.adept::internal::StackStorageOrig", %"class.adept::internal::StackStorageOrig"* %this, i64 0, i32 2
  %4 = load i32*, i32** %index_, align 8, !tbaa !38
  %tobool10.not = icmp eq i32* %4, null
  br i1 %tobool10.not, label %if.end16, label %delete.notnull14

delete.notnull14:                                 ; preds = %if.end9
  %5 = bitcast i32* %4 to i8*
  tail call void @_ZdaPv(i8* %5) #36
  br label %if.end16

if.end16:                                         ; preds = %delete.notnull14, %if.end9
  ret void
}

; Function Attrs: uwtable
define dso_local void @_ZN5adept5Stack8activateEv(%"class.adept::Stack"* nonnull dereferenceable(149) %this) local_unnamed_addr #5 align 2 personality i8* bitcast (i32 (...)* @__gxx_personality_v0 to i8*) {
entry:
  %__dnew.i.i.i.i = alloca i64, align 8
  %ref.tmp = alloca %"class.std::__cxx11::basic_string", align 8
  %is_thread_unsafe_ = getelementptr inbounds %"class.adept::Stack", %"class.adept::Stack"* %this, i64 0, i32 11
  %0 = load i8, i8* %is_thread_unsafe_, align 1, !tbaa !19, !range !25
  %tobool = icmp ne i8 %0, 0
  %1 = load %"class.adept::Stack"*, %"class.adept::Stack"** @_ZN5adept28_stack_current_thread_unsafeE, align 8
  %tobool2 = icmp ne %"class.adept::Stack"* %1, null
  %or.cond = and i1 %tobool, %tobool2
  %cmp = icmp ne %"class.adept::Stack"* %1, %this
  %or.cond22 = and i1 %cmp, %or.cond
  br i1 %or.cond22, label %if.then, label %lor.lhs.false

lor.lhs.false:                                    ; preds = %entry
  %tobool5.not = xor i1 %tobool, true
  %2 = load %"class.adept::Stack"*, %"class.adept::Stack"** @_ZN5adept21_stack_current_threadE, align 8
  %tobool7 = icmp ne %"class.adept::Stack"* %2, null
  %or.cond23 = and i1 %tobool7, %tobool5.not
  %cmp9 = icmp ne %"class.adept::Stack"* %2, %this
  %or.cond24 = and i1 %cmp9, %or.cond23
  br i1 %or.cond24, label %if.then, label %if.else

if.then:                                          ; preds = %lor.lhs.false, %entry
  %exception = tail call i8* @__cxa_allocate_exception(i64 40) #34
  %3 = bitcast %"class.std::__cxx11::basic_string"* %ref.tmp to i8*
  call void @llvm.lifetime.start.p0i8(i64 32, i8* nonnull %3) #34
  %4 = getelementptr inbounds %"class.std::__cxx11::basic_string", %"class.std::__cxx11::basic_string"* %ref.tmp, i64 0, i32 2
  %5 = bitcast %"class.std::__cxx11::basic_string"* %ref.tmp to %union.anon**
  store %union.anon* %4, %union.anon** %5, align 8, !tbaa !9
  %6 = bitcast %union.anon* %4 to i8*
  %7 = bitcast i64* %__dnew.i.i.i.i to i8*
  call void @llvm.lifetime.start.p0i8(i64 8, i8* nonnull %7) #34
  store i64 77, i64* %__dnew.i.i.i.i, align 8, !tbaa !10
  %call5.i.i.i9.i26 = invoke i8* @_ZNSt7__cxx1112basic_stringIcSt11char_traitsIcESaIcEE9_M_createERmm(%"class.std::__cxx11::basic_string"* nonnull dereferenceable(32) %ref.tmp, i64* nonnull align 8 dereferenceable(8) %__dnew.i.i.i.i, i64 0)
          to label %call5.i.i.i9.i.noexc unwind label %ehcleanup.thread

call5.i.i.i9.i.noexc:                             ; preds = %if.then
  %_M_p.i13.i.i.i.i = getelementptr inbounds %"class.std::__cxx11::basic_string", %"class.std::__cxx11::basic_string"* %ref.tmp, i64 0, i32 0, i32 0
  store i8* %call5.i.i.i9.i26, i8** %_M_p.i13.i.i.i.i, align 8, !tbaa !11
  %8 = load i64, i64* %__dnew.i.i.i.i, align 8, !tbaa !10
  %_M_allocated_capacity.i.i.i.i.i = getelementptr inbounds %"class.std::__cxx11::basic_string", %"class.std::__cxx11::basic_string"* %ref.tmp, i64 0, i32 2, i32 0
  store i64 %8, i64* %_M_allocated_capacity.i.i.i.i.i, align 8, !tbaa !12
  call void @llvm.memcpy.p0i8.p0i8.i64(i8* nonnull align 1 dereferenceable(77) %call5.i.i.i9.i26, i8* nonnull align 1 dereferenceable(77) getelementptr inbounds ([78 x i8], [78 x i8]* @.str.26, i64 0, i64 0), i64 77, i1 false) #34
  %_M_string_length.i.i.i.i.i.i = getelementptr inbounds %"class.std::__cxx11::basic_string", %"class.std::__cxx11::basic_string"* %ref.tmp, i64 0, i32 1
  store i64 %8, i64* %_M_string_length.i.i.i.i.i.i, align 8, !tbaa !2
  %arrayidx.i.i.i.i.i = getelementptr inbounds i8, i8* %call5.i.i.i9.i26, i64 %8
  store i8 0, i8* %arrayidx.i.i.i.i.i, align 1, !tbaa !12
  call void @llvm.lifetime.end.p0i8(i64 8, i8* nonnull %7) #34
  %message_.i.i.i = getelementptr inbounds i8, i8* %exception, i64 8
  %9 = bitcast i8* %message_.i.i.i to %"class.std::__cxx11::basic_string"*
  %10 = getelementptr inbounds i8, i8* %exception, i64 24
  %11 = bitcast i8* %message_.i.i.i to i8**
  store i8* %10, i8** %11, align 8, !tbaa !9
  %_M_string_length.i.i.i.i.i.i27 = getelementptr inbounds i8, i8* %exception, i64 16
  %12 = bitcast i8* %_M_string_length.i.i.i.i.i.i27 to i64*
  store i64 0, i64* %12, align 8, !tbaa !2
  store i8 0, i8* %10, align 1, !tbaa !12
  %13 = bitcast i8* %exception to i32 (...)***
  store i32 (...)** bitcast (i8** getelementptr inbounds ({ [5 x i8*] }, { [5 x i8*] }* @_ZTVN5adept20stack_already_activeE, i64 0, inrange i32 0, i64 2) to i32 (...)**), i32 (...)*** %13, align 8, !tbaa !17
  invoke void @_ZNSt7__cxx1112basic_stringIcSt11char_traitsIcESaIcEE9_M_assignERKS4_(%"class.std::__cxx11::basic_string"* nonnull dereferenceable(32) %9, %"class.std::__cxx11::basic_string"* nonnull align 8 dereferenceable(32) %ref.tmp)
          to label %invoke.cont12 unwind label %lpad.i

lpad.i:                                           ; preds = %call5.i.i.i9.i.noexc
  %14 = landingpad { i8*, i32 }
          cleanup
  store i32 (...)** bitcast (i8** getelementptr inbounds ({ [5 x i8*] }, { [5 x i8*] }* @_ZTVN5adept9exceptionE, i64 0, inrange i32 0, i64 2) to i32 (...)**), i32 (...)*** %13, align 8, !tbaa !17
  %15 = load i8*, i8** %11, align 8, !tbaa !11
  %cmp.i.i.i.i.i = icmp eq i8* %15, %10
  br i1 %cmp.i.i.i.i.i, label %lpad11.body, label %if.then.i.i.i.i

if.then.i.i.i.i:                                  ; preds = %lpad.i
  call void @_ZdlPv(i8* %15) #34
  br label %lpad11.body

invoke.cont12:                                    ; preds = %call5.i.i.i9.i.noexc
  invoke void @__cxa_throw(i8* nonnull %exception, i8* bitcast ({ i8*, i8*, i8* }* @_ZTIN5adept20stack_already_activeE to i8*), i8* bitcast (void (%"class.adept::exception"*)* @_ZN5adept9exceptionD2Ev to i8*)) #35
          to label %unreachable unwind label %lpad11.body.thread

ehcleanup.thread:                                 ; preds = %if.then
  %16 = landingpad { i8*, i32 }
          cleanup
  call void @llvm.lifetime.end.p0i8(i64 32, i8* nonnull %3) #34
  br label %cleanup.action

lpad11.body:                                      ; preds = %lpad.i, %if.then.i.i.i.i
  %17 = bitcast i8* %exception to %"class.std::exception"*
  call void @_ZNSt9exceptionD2Ev(%"class.std::exception"* nonnull dereferenceable(8) %17) #34
  %18 = load i8*, i8** %_M_p.i13.i.i.i.i, align 8, !tbaa !11
  %cmp.i.i.i = icmp eq i8* %18, %6
  br i1 %cmp.i.i.i, label %ehcleanup, label %if.then.i.i.thread

if.then.i.i.thread:                               ; preds = %lpad11.body
  call void @_ZdlPv(i8* %18) #34
  call void @llvm.lifetime.end.p0i8(i64 32, i8* nonnull %3) #34
  br label %cleanup.action

lpad11.body.thread:                               ; preds = %invoke.cont12
  %19 = landingpad { i8*, i32 }
          cleanup
  %20 = load i8*, i8** %_M_p.i13.i.i.i.i, align 8, !tbaa !11
  %cmp.i.i.i34 = icmp eq i8* %20, %6
  br i1 %cmp.i.i.i34, label %ehcleanup.thread39, label %if.then.i.i

ehcleanup.thread39:                               ; preds = %lpad11.body.thread
  call void @llvm.lifetime.end.p0i8(i64 32, i8* nonnull %3) #34
  br label %eh.resume

if.then.i.i:                                      ; preds = %lpad11.body.thread
  call void @_ZdlPv(i8* %20) #34
  call void @llvm.lifetime.end.p0i8(i64 32, i8* nonnull %3) #34
  br label %eh.resume

ehcleanup:                                        ; preds = %lpad11.body
  call void @llvm.lifetime.end.p0i8(i64 32, i8* nonnull %3) #34
  br label %cleanup.action

cleanup.action:                                   ; preds = %if.then.i.i.thread, %ehcleanup, %ehcleanup.thread
  %.pn31 = phi { i8*, i32 } [ %16, %ehcleanup.thread ], [ %14, %ehcleanup ], [ %14, %if.then.i.i.thread ]
  call void @__cxa_free_exception(i8* %exception) #34
  br label %eh.resume

if.else:                                          ; preds = %lor.lhs.false
  %_ZN5adept21_stack_current_threadE.sink = select i1 %tobool, %"class.adept::Stack"** @_ZN5adept28_stack_current_thread_unsafeE, %"class.adept::Stack"** @_ZN5adept21_stack_current_threadE
  store %"class.adept::Stack"* %this, %"class.adept::Stack"** %_ZN5adept21_stack_current_threadE.sink, align 8, !tbaa !26
  ret void

eh.resume:                                        ; preds = %if.then.i.i, %ehcleanup.thread39, %cleanup.action
  %.pn30 = phi { i8*, i32 } [ %.pn31, %cleanup.action ], [ %19, %if.then.i.i ], [ %19, %ehcleanup.thread39 ]
  resume { i8*, i32 } %.pn30

unreachable:                                      ; preds = %invoke.cont12
  unreachable
}

; Function Attrs: norecurse nounwind readnone uwtable willreturn mustprogress
define dso_local i32 @_ZN5adept5Stack24set_max_jacobian_threadsEi(%"class.adept::Stack"* nocapture nonnull readnone dereferenceable(149) %this, i32 %n) local_unnamed_addr #7 align 2 {
entry:
  ret i32 1
}

; Function Attrs: norecurse nounwind readnone uwtable willreturn mustprogress
define dso_local i32 @_ZNK5adept5Stack20max_jacobian_threadsEv(%"class.adept::Stack"* nocapture nonnull readnone dereferenceable(149) %this) local_unnamed_addr #7 align 2 {
entry:
  ret i32 1
}

; Function Attrs: uwtable
define dso_local void @_ZN5adept5Stack15compute_adjointEv(%"class.adept::Stack"* nocapture nonnull readonly dereferenceable(149) %this) local_unnamed_addr #5 align 2 personality i8* bitcast (i32 (...)* @__gxx_personality_v0 to i8*) {
entry:
  %__dnew.i.i.i.i = alloca i64, align 8
  %ref.tmp = alloca %"class.std::__cxx11::basic_string", align 8
  %gradients_initialized_.i = getelementptr inbounds %"class.adept::Stack", %"class.adept::Stack"* %this, i64 0, i32 10
  %0 = load i8, i8* %gradients_initialized_.i, align 8, !tbaa !39, !range !25
  %tobool.i.not = icmp eq i8 %0, 0
  br i1 %tobool.i.not, label %if.else, label %if.then

if.then:                                          ; preds = %entry
  %n_statements_ = getelementptr inbounds %"class.adept::Stack", %"class.adept::Stack"* %this, i64 0, i32 0, i32 3
  %1 = load i32, i32* %n_statements_, align 8, !tbaa !40
  %cmp59 = icmp sgt i32 %1, 1
  br i1 %cmp59, label %for.body.lr.ph, label %for.cond.cleanup

for.body.lr.ph:                                   ; preds = %if.then
  %statement_ = getelementptr inbounds %"class.adept::Stack", %"class.adept::Stack"* %this, i64 0, i32 0, i32 0
  %2 = load %"struct.adept::internal::Statement"*, %"struct.adept::internal::Statement"** %statement_, align 8, !tbaa !35
  %gradient_ = getelementptr inbounds %"class.adept::Stack", %"class.adept::Stack"* %this, i64 0, i32 1
  %3 = load double*, double** %gradient_, align 8, !tbaa !27
  %multiplier_ = getelementptr inbounds %"class.adept::Stack", %"class.adept::Stack"* %this, i64 0, i32 0, i32 1
  %index_ = getelementptr inbounds %"class.adept::Stack", %"class.adept::Stack"* %this, i64 0, i32 0, i32 2
  %4 = zext i32 %1 to i64
  br label %for.body

for.cond.cleanup:                                 ; preds = %if.end, %if.then
  ret void

for.body:                                         ; preds = %for.body.lr.ph, %if.end
  %indvars.iv62 = phi i64 [ %4, %for.body.lr.ph ], [ %indvars.iv.next63, %if.end ]
  %ist.0.in60 = phi i32 [ %1, %for.body.lr.ph ], [ %ist.061, %if.end ]
  %ist.061 = add nsw i32 %ist.0.in60, -1
  %idxprom = sext i32 %ist.061 to i64
  %index = getelementptr inbounds %"struct.adept::internal::Statement", %"struct.adept::internal::Statement"* %2, i64 %idxprom, i32 0
  %5 = load i32, i32* %index, align 4, !tbaa !41
  %idxprom2 = sext i32 %5 to i64
  %arrayidx3 = getelementptr inbounds double, double* %3, i64 %idxprom2
  %6 = load double, double* %arrayidx3, align 8, !tbaa !43
  store double 0.000000e+00, double* %arrayidx3, align 8, !tbaa !43
  %cmp8 = fcmp fast une double %6, 0.000000e+00
  br i1 %cmp8, label %if.then9, label %if.end

if.then9:                                         ; preds = %for.body
  %sub11 = add nsw i32 %ist.0.in60, -2
  %7 = zext i32 %sub11 to i64
  %end_plus_one = getelementptr inbounds %"struct.adept::internal::Statement", %"struct.adept::internal::Statement"* %2, i64 %7, i32 1
  %8 = load i32, i32* %end_plus_one, align 4, !tbaa !45
  %end_plus_one15 = getelementptr inbounds %"struct.adept::internal::Statement", %"struct.adept::internal::Statement"* %2, i64 %idxprom, i32 1
  %9 = load i32, i32* %end_plus_one15, align 4, !tbaa !45
  %cmp1656 = icmp slt i32 %8, %9
  br i1 %cmp1656, label %for.body18.lr.ph, label %if.end

for.body18.lr.ph:                                 ; preds = %if.then9
  %10 = load double*, double** %multiplier_, align 8, !tbaa !37
  %11 = load i32*, i32** %index_, align 8, !tbaa !38
  %12 = sext i32 %8 to i64
  %13 = sext i32 %9 to i64
  br label %for.body18

for.body18:                                       ; preds = %for.body18.lr.ph, %for.body18
  %indvars.iv = phi i64 [ %12, %for.body18.lr.ph ], [ %indvars.iv.next, %for.body18 ]
  %arrayidx20 = getelementptr inbounds double, double* %10, i64 %indvars.iv
  %14 = load double, double* %arrayidx20, align 8, !tbaa !43
  %mul = fmul fast double %14, %6
  %arrayidx23 = getelementptr inbounds i32, i32* %11, i64 %indvars.iv
  %15 = load i32, i32* %arrayidx23, align 4, !tbaa !46
  %idxprom24 = sext i32 %15 to i64
  %arrayidx25 = getelementptr inbounds double, double* %3, i64 %idxprom24
  %16 = load double, double* %arrayidx25, align 8, !tbaa !43
  %add = fadd fast double %16, %mul
  store double %add, double* %arrayidx25, align 8, !tbaa !43
  %indvars.iv.next = add nsw i64 %indvars.iv, 1
  %cmp16 = icmp slt i64 %indvars.iv.next, %13
  br i1 %cmp16, label %for.body18, label %if.end, !llvm.loop !47

if.end:                                           ; preds = %for.body18, %if.then9, %for.body
  %cmp = icmp sgt i64 %indvars.iv62, 2
  %indvars.iv.next63 = add nsw i64 %indvars.iv62, -1
  br i1 %cmp, label %for.body, label %for.cond.cleanup, !llvm.loop !48

if.else:                                          ; preds = %entry
  %exception = tail call i8* @__cxa_allocate_exception(i64 40) #34
  %17 = bitcast %"class.std::__cxx11::basic_string"* %ref.tmp to i8*
  call void @llvm.lifetime.start.p0i8(i64 32, i8* nonnull %17) #34
  %18 = getelementptr inbounds %"class.std::__cxx11::basic_string", %"class.std::__cxx11::basic_string"* %ref.tmp, i64 0, i32 2
  %19 = bitcast %"class.std::__cxx11::basic_string"* %ref.tmp to %union.anon**
  store %union.anon* %18, %union.anon** %19, align 8, !tbaa !9
  %20 = bitcast %union.anon* %18 to i8*
  %21 = bitcast i64* %__dnew.i.i.i.i to i8*
  call void @llvm.lifetime.start.p0i8(i64 8, i8* nonnull %21) #34
  store i64 106, i64* %__dnew.i.i.i.i, align 8, !tbaa !10
  %call5.i.i.i9.i51 = invoke i8* @_ZNSt7__cxx1112basic_stringIcSt11char_traitsIcESaIcEE9_M_createERmm(%"class.std::__cxx11::basic_string"* nonnull dereferenceable(32) %ref.tmp, i64* nonnull align 8 dereferenceable(8) %__dnew.i.i.i.i, i64 0)
          to label %call5.i.i.i9.i.noexc unwind label %ehcleanup.thread

call5.i.i.i9.i.noexc:                             ; preds = %if.else
  %_M_p.i13.i.i.i.i = getelementptr inbounds %"class.std::__cxx11::basic_string", %"class.std::__cxx11::basic_string"* %ref.tmp, i64 0, i32 0, i32 0
  store i8* %call5.i.i.i9.i51, i8** %_M_p.i13.i.i.i.i, align 8, !tbaa !11
  %22 = load i64, i64* %__dnew.i.i.i.i, align 8, !tbaa !10
  %_M_allocated_capacity.i.i.i.i.i = getelementptr inbounds %"class.std::__cxx11::basic_string", %"class.std::__cxx11::basic_string"* %ref.tmp, i64 0, i32 2, i32 0
  store i64 %22, i64* %_M_allocated_capacity.i.i.i.i.i, align 8, !tbaa !12
  call void @llvm.memcpy.p0i8.p0i8.i64(i8* nonnull align 1 dereferenceable(106) %call5.i.i.i9.i51, i8* nonnull align 1 dereferenceable(106) getelementptr inbounds ([107 x i8], [107 x i8]* @.str.27, i64 0, i64 0), i64 106, i1 false) #34
  %_M_string_length.i.i.i.i.i.i50 = getelementptr inbounds %"class.std::__cxx11::basic_string", %"class.std::__cxx11::basic_string"* %ref.tmp, i64 0, i32 1
  store i64 %22, i64* %_M_string_length.i.i.i.i.i.i50, align 8, !tbaa !2
  %arrayidx.i.i.i.i.i = getelementptr inbounds i8, i8* %call5.i.i.i9.i51, i64 %22
  store i8 0, i8* %arrayidx.i.i.i.i.i, align 1, !tbaa !12
  call void @llvm.lifetime.end.p0i8(i64 8, i8* nonnull %21) #34
  %message_.i.i.i = getelementptr inbounds i8, i8* %exception, i64 8
  %23 = bitcast i8* %message_.i.i.i to %"class.std::__cxx11::basic_string"*
  %24 = getelementptr inbounds i8, i8* %exception, i64 24
  %25 = bitcast i8* %message_.i.i.i to i8**
  store i8* %24, i8** %25, align 8, !tbaa !9
  %_M_string_length.i.i.i.i.i.i = getelementptr inbounds i8, i8* %exception, i64 16
  %26 = bitcast i8* %_M_string_length.i.i.i.i.i.i to i64*
  store i64 0, i64* %26, align 8, !tbaa !2
  store i8 0, i8* %24, align 1, !tbaa !12
  %27 = bitcast i8* %exception to i32 (...)***
  store i32 (...)** bitcast (i8** getelementptr inbounds ({ [5 x i8*] }, { [5 x i8*] }* @_ZTVN5adept25gradients_not_initializedE, i64 0, inrange i32 0, i64 2) to i32 (...)**), i32 (...)*** %27, align 8, !tbaa !17
  invoke void @_ZNSt7__cxx1112basic_stringIcSt11char_traitsIcESaIcEE9_M_assignERKS4_(%"class.std::__cxx11::basic_string"* nonnull dereferenceable(32) %23, %"class.std::__cxx11::basic_string"* nonnull align 8 dereferenceable(32) %ref.tmp)
          to label %invoke.cont30 unwind label %lpad.i

lpad.i:                                           ; preds = %call5.i.i.i9.i.noexc
  %28 = landingpad { i8*, i32 }
          cleanup
  store i32 (...)** bitcast (i8** getelementptr inbounds ({ [5 x i8*] }, { [5 x i8*] }* @_ZTVN5adept9exceptionE, i64 0, inrange i32 0, i64 2) to i32 (...)**), i32 (...)*** %27, align 8, !tbaa !17
  %29 = load i8*, i8** %25, align 8, !tbaa !11
  %cmp.i.i.i.i.i = icmp eq i8* %29, %24
  br i1 %cmp.i.i.i.i.i, label %lpad29.body, label %if.then.i.i.i.i

if.then.i.i.i.i:                                  ; preds = %lpad.i
  call void @_ZdlPv(i8* %29) #34
  br label %lpad29.body

invoke.cont30:                                    ; preds = %call5.i.i.i9.i.noexc
  invoke void @__cxa_throw(i8* nonnull %exception, i8* bitcast ({ i8*, i8*, i8* }* @_ZTIN5adept25gradients_not_initializedE to i8*), i8* bitcast (void (%"class.adept::exception"*)* @_ZN5adept9exceptionD2Ev to i8*)) #35
          to label %unreachable unwind label %lpad29.body.thread

ehcleanup.thread:                                 ; preds = %if.else
  %30 = landingpad { i8*, i32 }
          cleanup
  call void @llvm.lifetime.end.p0i8(i64 32, i8* nonnull %17) #34
  br label %cleanup.action

lpad29.body:                                      ; preds = %lpad.i, %if.then.i.i.i.i
  %31 = bitcast i8* %exception to %"class.std::exception"*
  call void @_ZNSt9exceptionD2Ev(%"class.std::exception"* nonnull dereferenceable(8) %31) #34
  %32 = load i8*, i8** %_M_p.i13.i.i.i.i, align 8, !tbaa !11
  %cmp.i.i.i = icmp eq i8* %32, %20
  br i1 %cmp.i.i.i, label %ehcleanup, label %if.then.i.i.thread

if.then.i.i.thread:                               ; preds = %lpad29.body
  call void @_ZdlPv(i8* %32) #34
  call void @llvm.lifetime.end.p0i8(i64 32, i8* nonnull %17) #34
  br label %cleanup.action

lpad29.body.thread:                               ; preds = %invoke.cont30
  %33 = landingpad { i8*, i32 }
          cleanup
  %34 = load i8*, i8** %_M_p.i13.i.i.i.i, align 8, !tbaa !11
  %cmp.i.i.i66 = icmp eq i8* %34, %20
  br i1 %cmp.i.i.i66, label %ehcleanup.thread71, label %if.then.i.i

ehcleanup.thread71:                               ; preds = %lpad29.body.thread
  call void @llvm.lifetime.end.p0i8(i64 32, i8* nonnull %17) #34
  br label %eh.resume

if.then.i.i:                                      ; preds = %lpad29.body.thread
  call void @_ZdlPv(i8* %34) #34
  call void @llvm.lifetime.end.p0i8(i64 32, i8* nonnull %17) #34
  br label %eh.resume

ehcleanup:                                        ; preds = %lpad29.body
  call void @llvm.lifetime.end.p0i8(i64 32, i8* nonnull %17) #34
  br label %cleanup.action

cleanup.action:                                   ; preds = %if.then.i.i.thread, %ehcleanup, %ehcleanup.thread
  %.pn55 = phi { i8*, i32 } [ %30, %ehcleanup.thread ], [ %28, %ehcleanup ], [ %28, %if.then.i.i.thread ]
  call void @__cxa_free_exception(i8* %exception) #34
  br label %eh.resume

eh.resume:                                        ; preds = %if.then.i.i, %ehcleanup.thread71, %cleanup.action
  %.pn54 = phi { i8*, i32 } [ %.pn55, %cleanup.action ], [ %33, %if.then.i.i ], [ %33, %ehcleanup.thread71 ]
  resume { i8*, i32 } %.pn54

unreachable:                                      ; preds = %invoke.cont30
  unreachable
}

; Function Attrs: uwtable
define dso_local void @_ZN5adept5Stack22compute_tangent_linearEv(%"class.adept::Stack"* nocapture nonnull readonly dereferenceable(149) %this) local_unnamed_addr #5 align 2 personality i8* bitcast (i32 (...)* @__gxx_personality_v0 to i8*) {
entry:
  %__dnew.i.i.i.i = alloca i64, align 8
  %ref.tmp = alloca %"class.std::__cxx11::basic_string", align 8
  %gradients_initialized_.i = getelementptr inbounds %"class.adept::Stack", %"class.adept::Stack"* %this, i64 0, i32 10
  %0 = load i8, i8* %gradients_initialized_.i, align 8, !tbaa !39, !range !25
  %tobool.i.not = icmp eq i8 %0, 0
  br i1 %tobool.i.not, label %if.else, label %for.cond.preheader

for.cond.preheader:                               ; preds = %entry
  %n_statements_ = getelementptr inbounds %"class.adept::Stack", %"class.adept::Stack"* %this, i64 0, i32 0, i32 3
  %1 = load i32, i32* %n_statements_, align 8, !tbaa !40
  %cmp51 = icmp sgt i32 %1, 1
  br i1 %cmp51, label %for.body.lr.ph, label %for.cond.cleanup

for.body.lr.ph:                                   ; preds = %for.cond.preheader
  %statement_ = getelementptr inbounds %"class.adept::Stack", %"class.adept::Stack"* %this, i64 0, i32 0, i32 0
  %2 = load %"struct.adept::internal::Statement"*, %"struct.adept::internal::Statement"** %statement_, align 8, !tbaa !35
  %multiplier_ = getelementptr inbounds %"class.adept::Stack", %"class.adept::Stack"* %this, i64 0, i32 0, i32 1
  %gradient_ = getelementptr inbounds %"class.adept::Stack", %"class.adept::Stack"* %this, i64 0, i32 1
  %index_ = getelementptr inbounds %"class.adept::Stack", %"class.adept::Stack"* %this, i64 0, i32 0, i32 2
  %3 = load double*, double** %gradient_, align 8, !tbaa !27
  %wide.trip.count = zext i32 %1 to i64
  %end_plus_one.phi.trans.insert = getelementptr inbounds %"struct.adept::internal::Statement", %"struct.adept::internal::Statement"* %2, i64 0, i32 1
  %.pre = load i32, i32* %end_plus_one.phi.trans.insert, align 4, !tbaa !45
  br label %for.body

for.cond.cleanup:                                 ; preds = %for.cond.cleanup8, %for.cond.preheader
  ret void

for.body:                                         ; preds = %for.body.lr.ph, %for.cond.cleanup8
  %4 = phi i32 [ %.pre, %for.body.lr.ph ], [ %5, %for.cond.cleanup8 ]
  %indvars.iv53 = phi i64 [ 1, %for.body.lr.ph ], [ %indvars.iv.next54, %for.cond.cleanup8 ]
  %end_plus_one6 = getelementptr inbounds %"struct.adept::internal::Statement", %"struct.adept::internal::Statement"* %2, i64 %indvars.iv53, i32 1
  %5 = load i32, i32* %end_plus_one6, align 4, !tbaa !45
  %cmp748 = icmp slt i32 %4, %5
  br i1 %cmp748, label %for.body9.lr.ph, label %for.cond.cleanup8

for.body9.lr.ph:                                  ; preds = %for.body
  %6 = load double*, double** %multiplier_, align 8, !tbaa !37
  %7 = load i32*, i32** %index_, align 8, !tbaa !38
  %8 = sext i32 %4 to i64
  %9 = sext i32 %5 to i64
  br label %for.body9

for.cond.cleanup8:                                ; preds = %for.body9, %for.body
  %a.0.lcssa = phi double [ 0.000000e+00, %for.body ], [ %add, %for.body9 ]
  %index = getelementptr inbounds %"struct.adept::internal::Statement", %"struct.adept::internal::Statement"* %2, i64 %indvars.iv53, i32 0
  %10 = load i32, i32* %index, align 4, !tbaa !41
  %idxprom17 = sext i32 %10 to i64
  %arrayidx18 = getelementptr inbounds double, double* %3, i64 %idxprom17
  store double %a.0.lcssa, double* %arrayidx18, align 8, !tbaa !43
  %indvars.iv.next54 = add nuw nsw i64 %indvars.iv53, 1
  %exitcond.not = icmp eq i64 %indvars.iv.next54, %wide.trip.count
  br i1 %exitcond.not, label %for.cond.cleanup, label %for.body, !llvm.loop !49

for.body9:                                        ; preds = %for.body9.lr.ph, %for.body9
  %indvars.iv = phi i64 [ %8, %for.body9.lr.ph ], [ %indvars.iv.next, %for.body9 ]
  %a.049 = phi double [ 0.000000e+00, %for.body9.lr.ph ], [ %add, %for.body9 ]
  %arrayidx11 = getelementptr inbounds double, double* %6, i64 %indvars.iv
  %11 = load double, double* %arrayidx11, align 8, !tbaa !43
  %arrayidx13 = getelementptr inbounds i32, i32* %7, i64 %indvars.iv
  %12 = load i32, i32* %arrayidx13, align 4, !tbaa !46
  %idxprom14 = sext i32 %12 to i64
  %arrayidx15 = getelementptr inbounds double, double* %3, i64 %idxprom14
  %13 = load double, double* %arrayidx15, align 8, !tbaa !43
  %mul = fmul fast double %13, %11
  %add = fadd fast double %mul, %a.049
  %indvars.iv.next = add nsw i64 %indvars.iv, 1
  %cmp7 = icmp slt i64 %indvars.iv.next, %9
  br i1 %cmp7, label %for.body9, label %for.cond.cleanup8, !llvm.loop !50

if.else:                                          ; preds = %entry
  %exception = tail call i8* @__cxa_allocate_exception(i64 40) #34
  %14 = bitcast %"class.std::__cxx11::basic_string"* %ref.tmp to i8*
  call void @llvm.lifetime.start.p0i8(i64 32, i8* nonnull %14) #34
  %15 = getelementptr inbounds %"class.std::__cxx11::basic_string", %"class.std::__cxx11::basic_string"* %ref.tmp, i64 0, i32 2
  %16 = bitcast %"class.std::__cxx11::basic_string"* %ref.tmp to %union.anon**
  store %union.anon* %15, %union.anon** %16, align 8, !tbaa !9
  %17 = bitcast %union.anon* %15 to i8*
  %18 = bitcast i64* %__dnew.i.i.i.i to i8*
  call void @llvm.lifetime.start.p0i8(i64 8, i8* nonnull %18) #34
  store i64 106, i64* %__dnew.i.i.i.i, align 8, !tbaa !10
  %call5.i.i.i9.i43 = invoke i8* @_ZNSt7__cxx1112basic_stringIcSt11char_traitsIcESaIcEE9_M_createERmm(%"class.std::__cxx11::basic_string"* nonnull dereferenceable(32) %ref.tmp, i64* nonnull align 8 dereferenceable(8) %__dnew.i.i.i.i, i64 0)
          to label %call5.i.i.i9.i.noexc unwind label %ehcleanup.thread

call5.i.i.i9.i.noexc:                             ; preds = %if.else
  %_M_p.i13.i.i.i.i = getelementptr inbounds %"class.std::__cxx11::basic_string", %"class.std::__cxx11::basic_string"* %ref.tmp, i64 0, i32 0, i32 0
  store i8* %call5.i.i.i9.i43, i8** %_M_p.i13.i.i.i.i, align 8, !tbaa !11
  %19 = load i64, i64* %__dnew.i.i.i.i, align 8, !tbaa !10
  %_M_allocated_capacity.i.i.i.i.i = getelementptr inbounds %"class.std::__cxx11::basic_string", %"class.std::__cxx11::basic_string"* %ref.tmp, i64 0, i32 2, i32 0
  store i64 %19, i64* %_M_allocated_capacity.i.i.i.i.i, align 8, !tbaa !12
  call void @llvm.memcpy.p0i8.p0i8.i64(i8* nonnull align 1 dereferenceable(106) %call5.i.i.i9.i43, i8* nonnull align 1 dereferenceable(106) getelementptr inbounds ([107 x i8], [107 x i8]* @.str.27, i64 0, i64 0), i64 106, i1 false) #34
  %_M_string_length.i.i.i.i.i.i42 = getelementptr inbounds %"class.std::__cxx11::basic_string", %"class.std::__cxx11::basic_string"* %ref.tmp, i64 0, i32 1
  store i64 %19, i64* %_M_string_length.i.i.i.i.i.i42, align 8, !tbaa !2
  %arrayidx.i.i.i.i.i = getelementptr inbounds i8, i8* %call5.i.i.i9.i43, i64 %19
  store i8 0, i8* %arrayidx.i.i.i.i.i, align 1, !tbaa !12
  call void @llvm.lifetime.end.p0i8(i64 8, i8* nonnull %18) #34
  %message_.i.i.i = getelementptr inbounds i8, i8* %exception, i64 8
  %20 = bitcast i8* %message_.i.i.i to %"class.std::__cxx11::basic_string"*
  %21 = getelementptr inbounds i8, i8* %exception, i64 24
  %22 = bitcast i8* %message_.i.i.i to i8**
  store i8* %21, i8** %22, align 8, !tbaa !9
  %_M_string_length.i.i.i.i.i.i = getelementptr inbounds i8, i8* %exception, i64 16
  %23 = bitcast i8* %_M_string_length.i.i.i.i.i.i to i64*
  store i64 0, i64* %23, align 8, !tbaa !2
  store i8 0, i8* %21, align 1, !tbaa !12
  %24 = bitcast i8* %exception to i32 (...)***
  store i32 (...)** bitcast (i8** getelementptr inbounds ({ [5 x i8*] }, { [5 x i8*] }* @_ZTVN5adept25gradients_not_initializedE, i64 0, inrange i32 0, i64 2) to i32 (...)**), i32 (...)*** %24, align 8, !tbaa !17
  invoke void @_ZNSt7__cxx1112basic_stringIcSt11char_traitsIcESaIcEE9_M_assignERKS4_(%"class.std::__cxx11::basic_string"* nonnull dereferenceable(32) %20, %"class.std::__cxx11::basic_string"* nonnull align 8 dereferenceable(32) %ref.tmp)
          to label %invoke.cont24 unwind label %lpad.i

lpad.i:                                           ; preds = %call5.i.i.i9.i.noexc
  %25 = landingpad { i8*, i32 }
          cleanup
  store i32 (...)** bitcast (i8** getelementptr inbounds ({ [5 x i8*] }, { [5 x i8*] }* @_ZTVN5adept9exceptionE, i64 0, inrange i32 0, i64 2) to i32 (...)**), i32 (...)*** %24, align 8, !tbaa !17
  %26 = load i8*, i8** %22, align 8, !tbaa !11
  %cmp.i.i.i.i.i = icmp eq i8* %26, %21
  br i1 %cmp.i.i.i.i.i, label %lpad23.body, label %if.then.i.i.i.i

if.then.i.i.i.i:                                  ; preds = %lpad.i
  call void @_ZdlPv(i8* %26) #34
  br label %lpad23.body

invoke.cont24:                                    ; preds = %call5.i.i.i9.i.noexc
  invoke void @__cxa_throw(i8* nonnull %exception, i8* bitcast ({ i8*, i8*, i8* }* @_ZTIN5adept25gradients_not_initializedE to i8*), i8* bitcast (void (%"class.adept::exception"*)* @_ZN5adept9exceptionD2Ev to i8*)) #35
          to label %unreachable unwind label %lpad23.body.thread

ehcleanup.thread:                                 ; preds = %if.else
  %27 = landingpad { i8*, i32 }
          cleanup
  call void @llvm.lifetime.end.p0i8(i64 32, i8* nonnull %14) #34
  br label %cleanup.action

lpad23.body:                                      ; preds = %lpad.i, %if.then.i.i.i.i
  %28 = bitcast i8* %exception to %"class.std::exception"*
  call void @_ZNSt9exceptionD2Ev(%"class.std::exception"* nonnull dereferenceable(8) %28) #34
  %29 = load i8*, i8** %_M_p.i13.i.i.i.i, align 8, !tbaa !11
  %cmp.i.i.i = icmp eq i8* %29, %17
  br i1 %cmp.i.i.i, label %ehcleanup, label %if.then.i.i.thread

if.then.i.i.thread:                               ; preds = %lpad23.body
  call void @_ZdlPv(i8* %29) #34
  call void @llvm.lifetime.end.p0i8(i64 32, i8* nonnull %14) #34
  br label %cleanup.action

lpad23.body.thread:                               ; preds = %invoke.cont24
  %30 = landingpad { i8*, i32 }
          cleanup
  %31 = load i8*, i8** %_M_p.i13.i.i.i.i, align 8, !tbaa !11
  %cmp.i.i.i58 = icmp eq i8* %31, %17
  br i1 %cmp.i.i.i58, label %ehcleanup.thread63, label %if.then.i.i

ehcleanup.thread63:                               ; preds = %lpad23.body.thread
  call void @llvm.lifetime.end.p0i8(i64 32, i8* nonnull %14) #34
  br label %eh.resume

if.then.i.i:                                      ; preds = %lpad23.body.thread
  call void @_ZdlPv(i8* %31) #34
  call void @llvm.lifetime.end.p0i8(i64 32, i8* nonnull %14) #34
  br label %eh.resume

ehcleanup:                                        ; preds = %lpad23.body
  call void @llvm.lifetime.end.p0i8(i64 32, i8* nonnull %14) #34
  br label %cleanup.action

cleanup.action:                                   ; preds = %if.then.i.i.thread, %ehcleanup, %ehcleanup.thread
  %.pn47 = phi { i8*, i32 } [ %27, %ehcleanup.thread ], [ %25, %ehcleanup ], [ %25, %if.then.i.i.thread ]
  call void @__cxa_free_exception(i8* %exception) #34
  br label %eh.resume

eh.resume:                                        ; preds = %if.then.i.i, %ehcleanup.thread63, %cleanup.action
  %.pn46 = phi { i8*, i32 } [ %.pn47, %cleanup.action ], [ %30, %if.then.i.i ], [ %30, %ehcleanup.thread63 ]
  resume { i8*, i32 } %.pn46

unreachable:                                      ; preds = %invoke.cont24
  unreachable
}

; Function Attrs: nounwind uwtable
define dso_local i32 @_ZN5adept5Stack21do_register_gradientsERKi(%"class.adept::Stack"* nonnull dereferenceable(149) %this, i32* nocapture nonnull readonly align 4 dereferenceable(4) %n) local_unnamed_addr #4 align 2 personality i32 (...)* @__gxx_personality_v0 {
entry:
  %0 = load i32, i32* %n, align 4, !tbaa !46
  %n_gradients_registered_ = getelementptr inbounds %"class.adept::Stack", %"class.adept::Stack"* %this, i64 0, i32 9
  %1 = load i32, i32* %n_gradients_registered_, align 4, !tbaa !51
  %add = add nsw i32 %1, %0
  store i32 %add, i32* %n_gradients_registered_, align 4, !tbaa !51
  %gap_list_ = getelementptr inbounds %"class.adept::Stack", %"class.adept::Stack"* %this, i64 0, i32 4
  %2 = getelementptr inbounds %"class.std::__cxx11::list", %"class.std::__cxx11::list"* %gap_list_, i64 0, i32 0, i32 0, i32 0, i32 0
  %_M_next.i = getelementptr inbounds %"class.std::__cxx11::list", %"class.std::__cxx11::list"* %gap_list_, i64 0, i32 0, i32 0, i32 0, i32 0, i32 0
  %3 = load %"struct.std::__detail::_List_node_base"*, %"struct.std::__detail::_List_node_base"** %_M_next.i, align 8, !tbaa !28
  %cmp.i = icmp eq %"struct.std::__detail::_List_node_base"* %3, %2
  %.pre = load i32, i32* %n, align 4, !tbaa !46
  br i1 %cmp.i, label %if.end49, label %for.body

for.body:                                         ; preds = %entry, %for.inc
  %it.sroa.0.0110 = phi %"struct.std::__detail::_List_node_base"* [ %10, %for.inc ], [ %3, %entry ]
  %_M_storage.i.i = getelementptr inbounds %"struct.std::__detail::_List_node_base", %"struct.std::__detail::_List_node_base"* %it.sroa.0.0110, i64 1
  %4 = bitcast %"struct.std::__detail::_List_node_base"* %_M_storage.i.i to %"struct.adept::Gap"*
  %end = getelementptr inbounds %"struct.adept::Gap", %"struct.adept::Gap"* %4, i64 0, i32 1
  %5 = load i32, i32* %end, align 4, !tbaa !52
  %add9 = add nsw i32 %5, 1
  %start = bitcast %"struct.std::__detail::_List_node_base"* %_M_storage.i.i to i32*
  %6 = load i32, i32* %start, align 4, !tbaa !54
  %sub = sub i32 %add9, %6
  %cmp = icmp sgt i32 %sub, %.pre
  br i1 %cmp, label %if.then11, label %if.else

if.then11:                                        ; preds = %for.body
  %start.le = bitcast %"struct.std::__detail::_List_node_base"* %_M_storage.i.i to i32*
  %add16 = add nsw i32 %.pre, %6
  store i32 %add16, i32* %start.le, align 4, !tbaa !54
  br label %return

if.else:                                          ; preds = %for.body
  %cmp17 = icmp eq i32 %sub, %.pre
  br i1 %cmp17, label %if.then18, label %for.inc

if.then18:                                        ; preds = %if.else
  %_M_node.i83 = getelementptr inbounds %"class.adept::Stack", %"class.adept::Stack"* %this, i64 0, i32 5, i32 0
  %7 = load %"struct.std::__detail::_List_node_base"*, %"struct.std::__detail::_List_node_base"** %_M_node.i83, align 8, !tbaa !55
  %cmp.i85 = icmp eq %"struct.std::__detail::_List_node_base"* %7, %it.sroa.0.0110
  %_M_size.i.i.i77 = getelementptr inbounds %"class.adept::Stack", %"class.adept::Stack"* %this, i64 0, i32 4, i32 0, i32 0, i32 0, i32 1
  %8 = load i64, i64* %_M_size.i.i.i77, align 8, !tbaa !56
  %sub.i.i.i78 = add i64 %8, -1
  store i64 %sub.i.i.i78, i64* %_M_size.i.i.i77, align 8, !tbaa !56
  tail call void @_ZNSt8__detail15_List_node_base9_M_unhookEv(%"struct.std::__detail::_List_node_base"* nonnull dereferenceable(16) %it.sroa.0.0110) #34
  %9 = bitcast %"struct.std::__detail::_List_node_base"* %it.sroa.0.0110 to i8*
  tail call void @_ZdlPv(i8* nonnull %9) #34
  br i1 %cmp.i85, label %if.then22, label %return

if.then22:                                        ; preds = %if.then18
  store %"struct.std::__detail::_List_node_base"* %2, %"struct.std::__detail::_List_node_base"** %_M_node.i83, align 8, !tbaa.struct !60
  br label %return

for.inc:                                          ; preds = %if.else
  %_M_next.i73 = getelementptr inbounds %"struct.std::__detail::_List_node_base", %"struct.std::__detail::_List_node_base"* %it.sroa.0.0110, i64 0, i32 0
  %10 = load %"struct.std::__detail::_List_node_base"*, %"struct.std::__detail::_List_node_base"** %_M_next.i73, align 8, !tbaa !28
  %cmp.i80.not = icmp eq %"struct.std::__detail::_List_node_base"* %10, %2
  br i1 %cmp.i80.not, label %if.end49, label %for.body, !llvm.loop !61

if.end49:                                         ; preds = %for.inc, %entry
  %i_gradient_ = getelementptr inbounds %"class.adept::Stack", %"class.adept::Stack"* %this, i64 0, i32 6
  %11 = load i32, i32* %i_gradient_, align 8, !tbaa !62
  %add50 = add nsw i32 %11, %.pre
  store i32 %add50, i32* %i_gradient_, align 8, !tbaa !62
  %max_gradient_ = getelementptr inbounds %"class.adept::Stack", %"class.adept::Stack"* %this, i64 0, i32 8
  %12 = load i32, i32* %max_gradient_, align 8, !tbaa !63
  %cmp52 = icmp sgt i32 %add50, %12
  br i1 %cmp52, label %if.then53, label %if.end56

if.then53:                                        ; preds = %if.end49
  store i32 %add50, i32* %max_gradient_, align 8, !tbaa !63
  br label %if.end56

if.end56:                                         ; preds = %if.then53, %if.end49
  %13 = load i32, i32* %n, align 4, !tbaa !46
  %sub58 = sub nsw i32 %add50, %13
  br label %return

return:                                           ; preds = %if.then18, %if.then11, %if.then22, %if.end56
  %retval.3 = phi i32 [ %sub58, %if.end56 ], [ %6, %if.then22 ], [ %6, %if.then11 ], [ %6, %if.then18 ]
  ret i32 %retval.3
}

; Function Attrs: argmemonly nofree nosync nounwind willreturn
declare void @llvm.memcpy.p0i8.p0i8.i64(i8* noalias nocapture writeonly, i8* noalias nocapture readonly, i64, i1 immarg) #3

; Function Attrs: uwtable
define dso_local void @_ZN5adept5Stack27unregister_gradient_not_topERKi(%"class.adept::Stack"* nonnull dereferenceable(149) %this, i32* nocapture nonnull readonly align 4 dereferenceable(4) %gradient_index) local_unnamed_addr #5 align 2 personality i32 (...)* @__gxx_personality_v0 {
entry:
  %gap_list_ = getelementptr inbounds %"class.adept::Stack", %"class.adept::Stack"* %this, i64 0, i32 4
  %0 = getelementptr inbounds %"class.std::__cxx11::list", %"class.std::__cxx11::list"* %gap_list_, i64 0, i32 0, i32 0, i32 0, i32 0
  %_M_next.i = getelementptr inbounds %"class.std::__cxx11::list", %"class.std::__cxx11::list"* %gap_list_, i64 0, i32 0, i32 0, i32 0, i32 0, i32 0
  %1 = load %"struct.std::__detail::_List_node_base"*, %"struct.std::__detail::_List_node_base"** %_M_next.i, align 8, !tbaa !28
  %cmp.i = icmp eq %"struct.std::__detail::_List_node_base"* %1, %0
  br i1 %cmp.i, label %if.then15.if.then62_crit_edge, label %land.rhs

land.rhs:                                         ; preds = %entry
  %_M_node.i = getelementptr inbounds %"class.adept::Stack", %"class.adept::Stack"* %this, i64 0, i32 5, i32 0
  %2 = load %"struct.std::__detail::_List_node_base"*, %"struct.std::__detail::_List_node_base"** %_M_node.i, align 8, !tbaa !55
  %cmp.i165.not = icmp eq %"struct.std::__detail::_List_node_base"* %2, %0
  %3 = bitcast %"struct.std::__detail::_List_node_base"* %2 to %"struct.std::_List_node"*
  br i1 %cmp.i165.not, label %for.body.lr.ph, label %if.then

if.then:                                          ; preds = %land.rhs
  %_M_storage.i.i177 = getelementptr inbounds %"struct.std::__detail::_List_node_base", %"struct.std::__detail::_List_node_base"* %2, i64 1
  %4 = load i32, i32* %gradient_index, align 4, !tbaa !46
  %start = bitcast %"struct.std::__detail::_List_node_base"* %_M_storage.i.i177 to i32*
  %5 = load i32, i32* %start, align 4, !tbaa !54
  %sub = add nsw i32 %5, -1
  %cmp = icmp eq i32 %4, %sub
  br i1 %cmp, label %if.end75.thread248, label %if.else

if.end75.thread248:                               ; preds = %if.then
  store i32 %4, i32* %start, align 4, !tbaa !54
  br label %land.rhs77

if.else:                                          ; preds = %if.then
  %end = getelementptr inbounds %"struct.std::_List_node", %"struct.std::_List_node"* %3, i64 0, i32 1, i32 0, i64 4
  %6 = bitcast i8* %end to i32*
  %7 = load i32, i32* %6, align 4, !tbaa !52
  %add = add nsw i32 %7, 1
  %cmp9 = icmp eq i32 %4, %add
  br i1 %cmp9, label %if.then10, label %for.body.lr.ph

if.then10:                                        ; preds = %if.else
  store i32 %4, i32* %6, align 4, !tbaa !52
  br label %if.then113

if.then15.if.then62_crit_edge:                    ; preds = %entry
  %.pre = load i32, i32* %gradient_index, align 4, !tbaa !46
  br label %if.then62

for.body.lr.ph:                                   ; preds = %land.rhs, %if.else
  %8 = load i32, i32* %gradient_index, align 4, !tbaa !46
  br label %for.body

for.body:                                         ; preds = %for.body.lr.ph, %for.inc
  %it.sroa.0.0263 = phi %"struct.std::__detail::_List_node_base"* [ %1, %for.body.lr.ph ], [ %20, %for.inc ]
  %_M_storage.i.i205 = getelementptr inbounds %"struct.std::__detail::_List_node_base", %"struct.std::__detail::_List_node_base"* %it.sroa.0.0263, i64 1
  %9 = bitcast %"struct.std::__detail::_List_node_base"* %_M_storage.i.i205 to %"struct.adept::Gap"*
  %end25 = getelementptr inbounds %"struct.adept::Gap", %"struct.adept::Gap"* %9, i64 0, i32 1
  %10 = load i32, i32* %end25, align 4, !tbaa !52
  %add26 = add nsw i32 %10, 1
  %cmp27.not = icmp sgt i32 %8, %add26
  br i1 %cmp27.not, label %for.inc, label %if.then28

if.then28:                                        ; preds = %for.body
  %11 = bitcast %"struct.std::__detail::_List_node_base"* %_M_storage.i.i205 to %"struct.adept::Gap"*
  %end25.le = getelementptr inbounds %"struct.adept::Gap", %"struct.adept::Gap"* %11, i64 0, i32 1
  %start30 = bitcast %"struct.std::__detail::_List_node_base"* %_M_storage.i.i205 to i32*
  %12 = load i32, i32* %start30, align 4, !tbaa !54
  %sub31 = add nsw i32 %12, -1
  %cmp32 = icmp eq i32 %8, %sub31
  br i1 %cmp32, label %if.end75, label %if.else38

if.else38:                                        ; preds = %if.then28
  %cmp42 = icmp eq i32 %8, %add26
  br i1 %cmp42, label %if.then43, label %if.else48

if.then43:                                        ; preds = %if.else38
  store i32 %8, i32* %end25.le, align 4, !tbaa !52
  %most_recent_gap_47 = getelementptr inbounds %"class.adept::Stack", %"class.adept::Stack"* %this, i64 0, i32 5
  %13 = bitcast %"struct.std::_List_iterator"* %most_recent_gap_47 to i64*
  %14 = ptrtoint %"struct.std::__detail::_List_node_base"* %it.sroa.0.0263 to i64
  store i64 %14, i64* %13, align 8, !tbaa !26
  %15 = bitcast %"struct.std::__detail::_List_node_base"* %it.sroa.0.0263 to %"struct.std::_List_node"*
  br label %if.then113

if.else48:                                        ; preds = %if.else38
  %call2.i.i.i.i.i.i201 = tail call noalias nonnull i8* @_Znwm(i64 24) #37
  %_M_storage.i.i.i.i202 = getelementptr inbounds i8, i8* %call2.i.i.i.i.i.i201, i64 16
  %16 = bitcast i8* %_M_storage.i.i.i.i202 to i64*
  %ref.tmp51.sroa.4.0.insert.ext = zext i32 %8 to i64
  %ref.tmp51.sroa.4.0.insert.shift = shl nuw i64 %ref.tmp51.sroa.4.0.insert.ext, 32
  %ref.tmp51.sroa.0.0.insert.insert = or i64 %ref.tmp51.sroa.4.0.insert.shift, %ref.tmp51.sroa.4.0.insert.ext
  store i64 %ref.tmp51.sroa.0.0.insert.insert, i64* %16, align 4
  %17 = bitcast i8* %call2.i.i.i.i.i.i201 to %"struct.std::__detail::_List_node_base"*
  tail call void @_ZNSt8__detail15_List_node_base7_M_hookEPS0_(%"struct.std::__detail::_List_node_base"* nonnull dereferenceable(16) %17, %"struct.std::__detail::_List_node_base"* nonnull %it.sroa.0.0263) #34
  %_M_size.i.i.i203 = getelementptr inbounds %"class.adept::Stack", %"class.adept::Stack"* %this, i64 0, i32 4, i32 0, i32 0, i32 0, i32 1
  %18 = load i64, i64* %_M_size.i.i.i203, align 8, !tbaa !56
  %add.i.i.i204 = add i64 %18, 1
  store i64 %add.i.i.i204, i64* %_M_size.i.i.i203, align 8, !tbaa !56
  %ref.tmp49.sroa.0.0..sroa_idx = getelementptr inbounds %"class.adept::Stack", %"class.adept::Stack"* %this, i64 0, i32 5, i32 0
  %19 = bitcast %"struct.std::__detail::_List_node_base"** %ref.tmp49.sroa.0.0..sroa_idx to i8**
  store i8* %call2.i.i.i.i.i.i201, i8** %19, align 8, !tbaa.struct !60
  br label %if.end147

for.inc:                                          ; preds = %for.body
  %_M_next.i200 = getelementptr inbounds %"struct.std::__detail::_List_node_base", %"struct.std::__detail::_List_node_base"* %it.sroa.0.0263, i64 0, i32 0
  %20 = load %"struct.std::__detail::_List_node_base"*, %"struct.std::__detail::_List_node_base"** %_M_next.i200, align 8, !tbaa !28
  %cmp.i197.not = icmp eq %"struct.std::__detail::_List_node_base"* %20, %0
  br i1 %cmp.i197.not, label %if.then62, label %for.body, !llvm.loop !64

if.then62:                                        ; preds = %for.inc, %if.then15.if.then62_crit_edge
  %21 = phi i32 [ %.pre, %if.then15.if.then62_crit_edge ], [ %8, %for.inc ]
  %call2.i.i.i.i.i.i = tail call noalias nonnull i8* @_Znwm(i64 24) #37
  %_M_storage.i.i.i.i = getelementptr inbounds i8, i8* %call2.i.i.i.i.i.i, i64 16
  %22 = bitcast i8* %_M_storage.i.i.i.i to i64*
  %ref.tmp64.sroa.4.0.insert.ext = zext i32 %21 to i64
  %ref.tmp64.sroa.4.0.insert.shift = shl nuw i64 %ref.tmp64.sroa.4.0.insert.ext, 32
  %ref.tmp64.sroa.0.0.insert.insert = or i64 %ref.tmp64.sroa.4.0.insert.shift, %ref.tmp64.sroa.4.0.insert.ext
  store i64 %ref.tmp64.sroa.0.0.insert.insert, i64* %22, align 4
  %23 = bitcast i8* %call2.i.i.i.i.i.i to %"struct.std::__detail::_List_node_base"*
  tail call void @_ZNSt8__detail15_List_node_base7_M_hookEPS0_(%"struct.std::__detail::_List_node_base"* nonnull dereferenceable(16) %23, %"struct.std::__detail::_List_node_base"* nonnull %0) #34
  %_M_size.i.i.i194 = getelementptr inbounds %"class.adept::Stack", %"class.adept::Stack"* %this, i64 0, i32 4, i32 0, i32 0, i32 0, i32 1
  %24 = load i64, i64* %_M_size.i.i.i194, align 8, !tbaa !56
  %add.i.i.i = add i64 %24, 1
  store i64 %add.i.i.i, i64* %_M_size.i.i.i194, align 8, !tbaa !56
  %ref.tmp65.sroa.0.0..sroa_idx = getelementptr inbounds %"class.adept::Stack", %"class.adept::Stack"* %this, i64 0, i32 5, i32 0
  %_M_prev.i193 = getelementptr inbounds %"class.adept::Stack", %"class.adept::Stack"* %this, i64 0, i32 4, i32 0, i32 0, i32 0, i32 0, i32 1
  %25 = load %"struct.std::__detail::_List_node_base"*, %"struct.std::__detail::_List_node_base"** %_M_prev.i193, align 8, !tbaa !65
  store %"struct.std::__detail::_List_node_base"* %25, %"struct.std::__detail::_List_node_base"** %ref.tmp65.sroa.0.0..sroa_idx, align 8, !tbaa !55
  br label %if.end147

if.end75:                                         ; preds = %if.then28
  store i32 %8, i32* %start30, align 4, !tbaa !54
  %most_recent_gap_37 = getelementptr inbounds %"class.adept::Stack", %"class.adept::Stack"* %this, i64 0, i32 5
  %26 = bitcast %"struct.std::_List_iterator"* %most_recent_gap_37 to i64*
  %27 = ptrtoint %"struct.std::__detail::_List_node_base"* %it.sroa.0.0263 to i64
  store i64 %27, i64* %26, align 8, !tbaa !26
  %28 = bitcast %"struct.std::__detail::_List_node_base"* %it.sroa.0.0263 to %"struct.std::_List_node"*
  br label %land.rhs77

land.rhs77:                                       ; preds = %if.end75, %if.end75.thread248
  %29 = phi %"struct.std::_List_node"* [ %28, %if.end75 ], [ %3, %if.end75.thread248 ]
  %30 = phi %"struct.std::__detail::_List_node_base"* [ %it.sroa.0.0263, %if.end75 ], [ %2, %if.end75.thread248 ]
  %cmp.i189.not = icmp eq %"struct.std::__detail::_List_node_base"* %30, %1
  br i1 %cmp.i189.not, label %if.end147, label %if.then85

if.then85:                                        ; preds = %land.rhs77
  %_M_prev.i = getelementptr inbounds %"struct.std::__detail::_List_node_base", %"struct.std::__detail::_List_node_base"* %30, i64 0, i32 1
  %31 = load %"struct.std::__detail::_List_node_base"*, %"struct.std::__detail::_List_node_base"** %_M_prev.i, align 8, !tbaa !65
  %_M_storage.i.i184 = getelementptr inbounds %"struct.std::__detail::_List_node_base", %"struct.std::__detail::_List_node_base"* %31, i64 1
  %32 = bitcast %"struct.std::__detail::_List_node_base"* %_M_storage.i.i184 to %"struct.adept::Gap"*
  %end92 = getelementptr inbounds %"struct.adept::Gap", %"struct.adept::Gap"* %32, i64 0, i32 1
  %33 = load i32, i32* %end92, align 4, !tbaa !52
  %_M_storage.i.i183 = getelementptr inbounds %"struct.std::_List_node", %"struct.std::_List_node"* %29, i64 0, i32 1
  %start95 = bitcast %"struct.__gnu_cxx::__aligned_membuf"* %_M_storage.i.i183 to i32*
  %34 = load i32, i32* %start95, align 4, !tbaa !54
  %sub96 = add nsw i32 %34, -1
  %cmp97 = icmp eq i32 %33, %sub96
  br i1 %cmp97, label %if.then98, label %if.end147

if.then98:                                        ; preds = %if.then85
  %start100 = bitcast %"struct.std::__detail::_List_node_base"* %_M_storage.i.i184 to i32*
  %35 = load i32, i32* %start100, align 4, !tbaa !54
  store i32 %35, i32* %start95, align 4, !tbaa !54
  %_M_size.i.i.i175 = getelementptr inbounds %"class.adept::Stack", %"class.adept::Stack"* %this, i64 0, i32 4, i32 0, i32 0, i32 0, i32 1
  %36 = load i64, i64* %_M_size.i.i.i175, align 8, !tbaa !56
  %sub.i.i.i176 = add i64 %36, -1
  store i64 %sub.i.i.i176, i64* %_M_size.i.i.i175, align 8, !tbaa !56
  tail call void @_ZNSt8__detail15_List_node_base9_M_unhookEv(%"struct.std::__detail::_List_node_base"* nonnull dereferenceable(16) %31) #34
  %37 = bitcast %"struct.std::__detail::_List_node_base"* %31 to i8*
  tail call void @_ZdlPv(i8* nonnull %37) #34
  br label %if.end147

if.then113:                                       ; preds = %if.then10, %if.then43
  %38 = phi %"struct.std::_List_node"* [ %3, %if.then10 ], [ %15, %if.then43 ]
  %.ptr = phi %"struct.std::__detail::_List_node_base"* [ %2, %if.then10 ], [ %it.sroa.0.0263, %if.then43 ]
  %_M_next.i173 = getelementptr inbounds %"struct.std::__detail::_List_node_base", %"struct.std::__detail::_List_node_base"* %.ptr, i64 0, i32 0
  %39 = load %"struct.std::__detail::_List_node_base"*, %"struct.std::__detail::_List_node_base"** %_M_next.i173, align 8, !tbaa !28
  %cmp.i172.not = icmp eq %"struct.std::__detail::_List_node_base"* %39, %0
  br i1 %cmp.i172.not, label %if.end147, label %land.rhs124

land.rhs124:                                      ; preds = %if.then113
  %_M_storage.i.i169 = getelementptr inbounds %"struct.std::__detail::_List_node_base", %"struct.std::__detail::_List_node_base"* %39, i64 1
  %start126 = bitcast %"struct.std::__detail::_List_node_base"* %_M_storage.i.i169 to i32*
  %40 = load i32, i32* %start126, align 4, !tbaa !54
  %end129 = getelementptr inbounds %"struct.std::_List_node", %"struct.std::_List_node"* %38, i64 0, i32 1, i32 0, i64 4
  %41 = bitcast i8* %end129 to i32*
  %42 = load i32, i32* %41, align 4, !tbaa !52
  %add130 = add nsw i32 %42, 1
  %cmp131 = icmp eq i32 %40, %add130
  br i1 %cmp131, label %if.then133, label %if.end147

if.then133:                                       ; preds = %land.rhs124
  %43 = bitcast %"struct.std::__detail::_List_node_base"* %_M_storage.i.i169 to %"struct.adept::Gap"*
  %end135 = getelementptr inbounds %"struct.adept::Gap", %"struct.adept::Gap"* %43, i64 0, i32 1
  %44 = load i32, i32* %end135, align 4, !tbaa !52
  store i32 %44, i32* %41, align 4, !tbaa !52
  %_M_size.i.i.i = getelementptr inbounds %"class.adept::Stack", %"class.adept::Stack"* %this, i64 0, i32 4, i32 0, i32 0, i32 0, i32 1
  %45 = load i64, i64* %_M_size.i.i.i, align 8, !tbaa !56
  %sub.i.i.i = add i64 %45, -1
  store i64 %sub.i.i.i, i64* %_M_size.i.i.i, align 8, !tbaa !56
  tail call void @_ZNSt8__detail15_List_node_base9_M_unhookEv(%"struct.std::__detail::_List_node_base"* nonnull dereferenceable(16) %39) #34
  %46 = bitcast %"struct.std::__detail::_List_node_base"* %39 to i8*
  tail call void @_ZdlPv(i8* nonnull %46) #34
  br label %if.end147

if.end147:                                        ; preds = %if.then62, %if.else48, %land.rhs77, %land.rhs124, %if.then133, %if.then113, %if.then85, %if.then98
  ret void
}

; Function Attrs: uwtable
define dso_local void @_ZN5adept5Stack20unregister_gradientsERKiS2_(%"class.adept::Stack"* nonnull dereferenceable(149) %this, i32* nocapture nonnull readonly align 4 dereferenceable(4) %gradient_index, i32* nocapture nonnull readonly align 4 dereferenceable(4) %n) local_unnamed_addr #5 align 2 personality i32 (...)* @__gxx_personality_v0 {
entry:
  %0 = load i32, i32* %n, align 4, !tbaa !46
  %n_gradients_registered_ = getelementptr inbounds %"class.adept::Stack", %"class.adept::Stack"* %this, i64 0, i32 9
  %1 = load i32, i32* %n_gradients_registered_, align 4, !tbaa !51
  %sub = sub nsw i32 %1, %0
  store i32 %sub, i32* %n_gradients_registered_, align 4, !tbaa !51
  %2 = load i32, i32* %gradient_index, align 4, !tbaa !46
  %3 = load i32, i32* %n, align 4, !tbaa !46
  %add = add nsw i32 %3, %2
  %i_gradient_ = getelementptr inbounds %"class.adept::Stack", %"class.adept::Stack"* %this, i64 0, i32 6
  %4 = load i32, i32* %i_gradient_, align 8, !tbaa !62
  %cmp = icmp eq i32 %add, %4
  br i1 %cmp, label %if.then, label %if.else

if.then:                                          ; preds = %entry
  store i32 %2, i32* %i_gradient_, align 8, !tbaa !62
  %gap_list_ = getelementptr inbounds %"class.adept::Stack", %"class.adept::Stack"* %this, i64 0, i32 4
  %5 = getelementptr inbounds %"class.std::__cxx11::list", %"class.std::__cxx11::list"* %gap_list_, i64 0, i32 0, i32 0, i32 0, i32 0
  %_M_next.i = getelementptr inbounds %"class.std::__cxx11::list", %"class.std::__cxx11::list"* %gap_list_, i64 0, i32 0, i32 0, i32 0, i32 0, i32 0
  %6 = load %"struct.std::__detail::_List_node_base"*, %"struct.std::__detail::_List_node_base"** %_M_next.i, align 8, !tbaa !28
  %cmp.i = icmp eq %"struct.std::__detail::_List_node_base"* %6, %5
  br i1 %cmp.i, label %if.end192, label %if.then4

if.then4:                                         ; preds = %if.then
  %_M_prev.i.i = getelementptr inbounds %"class.adept::Stack", %"class.adept::Stack"* %this, i64 0, i32 4, i32 0, i32 0, i32 0, i32 0, i32 1
  %7 = bitcast %"struct.std::__detail::_List_node_base"** %_M_prev.i.i to %"struct.std::_List_node"**
  %8 = load %"struct.std::_List_node"*, %"struct.std::_List_node"** %7, align 8, !tbaa !65
  %end = getelementptr inbounds %"struct.std::_List_node", %"struct.std::_List_node"* %8, i64 0, i32 1, i32 0, i64 4
  %9 = bitcast i8* %end to i32*
  %10 = load i32, i32* %9, align 4, !tbaa !52
  %add8 = add nsw i32 %10, 1
  %cmp9 = icmp eq i32 %2, %add8
  %11 = getelementptr %"struct.std::_List_node", %"struct.std::_List_node"* %8, i64 0, i32 0
  br i1 %cmp9, label %if.then10, label %if.end192

if.then10:                                        ; preds = %if.then4
  %_M_storage.i.i.i = getelementptr inbounds %"struct.std::_List_node", %"struct.std::_List_node"* %8, i64 0, i32 1
  %start = bitcast %"struct.__gnu_cxx::__aligned_membuf"* %_M_storage.i.i.i to i32*
  %12 = load i32, i32* %start, align 4, !tbaa !54
  store i32 %12, i32* %i_gradient_, align 8, !tbaa !62
  %_M_node.i238 = getelementptr inbounds %"class.adept::Stack", %"class.adept::Stack"* %this, i64 0, i32 5, i32 0
  %13 = load %"struct.std::__detail::_List_node_base"*, %"struct.std::__detail::_List_node_base"** %_M_node.i238, align 8, !tbaa !55
  %cmp.i240 = icmp eq %"struct.std::__detail::_List_node_base"* %13, %11
  br i1 %cmp.i240, label %if.then17, label %if.end

if.then17:                                        ; preds = %if.then10
  store %"struct.std::__detail::_List_node_base"* %5, %"struct.std::__detail::_List_node_base"** %_M_node.i238, align 8, !tbaa.struct !60
  br label %if.end

if.end:                                           ; preds = %if.then17, %if.then10
  %_M_size.i.i.i259 = getelementptr inbounds %"class.adept::Stack", %"class.adept::Stack"* %this, i64 0, i32 4, i32 0, i32 0, i32 0, i32 1
  %14 = load i64, i64* %_M_size.i.i.i259, align 8, !tbaa !56
  %sub.i.i.i260 = add i64 %14, -1
  store i64 %sub.i.i.i260, i64* %_M_size.i.i.i259, align 8, !tbaa !56
  tail call void @_ZNSt8__detail15_List_node_base9_M_unhookEv(%"struct.std::__detail::_List_node_base"* nonnull dereferenceable(16) %11) #34
  %15 = bitcast %"struct.std::_List_node"* %8 to i8*
  tail call void @_ZdlPv(i8* nonnull %15) #34
  br label %if.end192

if.else:                                          ; preds = %entry
  %gap_list_25 = getelementptr inbounds %"class.adept::Stack", %"class.adept::Stack"* %this, i64 0, i32 4
  %16 = getelementptr inbounds %"class.std::__cxx11::list", %"class.std::__cxx11::list"* %gap_list_25, i64 0, i32 0, i32 0, i32 0, i32 0
  %_M_next.i261 = getelementptr inbounds %"class.std::__cxx11::list", %"class.std::__cxx11::list"* %gap_list_25, i64 0, i32 0, i32 0, i32 0, i32 0, i32 0
  %17 = load %"struct.std::__detail::_List_node_base"*, %"struct.std::__detail::_List_node_base"** %_M_next.i261, align 8, !tbaa !28
  %cmp.i262 = icmp eq %"struct.std::__detail::_List_node_base"* %17, %16
  br i1 %cmp.i262, label %if.then104, label %land.rhs

land.rhs:                                         ; preds = %if.else
  %_M_node.i270 = getelementptr inbounds %"class.adept::Stack", %"class.adept::Stack"* %this, i64 0, i32 5, i32 0
  %18 = load %"struct.std::__detail::_List_node_base"*, %"struct.std::__detail::_List_node_base"** %_M_node.i270, align 8, !tbaa !55
  %cmp.i272.not = icmp eq %"struct.std::__detail::_List_node_base"* %18, %16
  %19 = bitcast %"struct.std::__detail::_List_node_base"* %18 to %"struct.std::_List_node"*
  br i1 %cmp.i272.not, label %for.body.preheader, label %if.then33

if.then33:                                        ; preds = %land.rhs
  %_M_storage.i.i273 = getelementptr inbounds %"struct.std::__detail::_List_node_base", %"struct.std::__detail::_List_node_base"* %18, i64 1
  %start36 = bitcast %"struct.std::__detail::_List_node_base"* %_M_storage.i.i273 to i32*
  %20 = load i32, i32* %start36, align 4, !tbaa !54
  %sub37 = sub nsw i32 %20, %3
  %cmp38 = icmp eq i32 %2, %sub37
  br i1 %cmp38, label %if.end119.thread322, label %if.else42

if.end119.thread322:                              ; preds = %if.then33
  store i32 %2, i32* %start36, align 4, !tbaa !54
  br label %land.rhs121

if.else42:                                        ; preds = %if.then33
  %end43 = getelementptr inbounds %"struct.std::_List_node", %"struct.std::_List_node"* %19, i64 0, i32 1, i32 0, i64 4
  %21 = bitcast i8* %end43 to i32*
  %22 = load i32, i32* %21, align 4, !tbaa !52
  %add44 = add nsw i32 %22, 1
  %cmp45 = icmp eq i32 %2, %add44
  br i1 %cmp45, label %if.then46, label %for.body.preheader

for.body.preheader:                               ; preds = %land.rhs, %if.else42
  br label %for.body

if.then46:                                        ; preds = %if.else42
  %add48 = add nsw i32 %22, %3
  store i32 %add48, i32* %21, align 4, !tbaa !52
  br label %if.then157

for.body:                                         ; preds = %for.body.preheader, %for.inc
  %it54.sroa.0.0338 = phi %"struct.std::__detail::_List_node_base"* [ %34, %for.inc ], [ %17, %for.body.preheader ]
  %_M_storage.i.i282 = getelementptr inbounds %"struct.std::__detail::_List_node_base", %"struct.std::__detail::_List_node_base"* %it54.sroa.0.0338, i64 1
  %23 = bitcast %"struct.std::__detail::_List_node_base"* %_M_storage.i.i282 to %"struct.adept::Gap"*
  %end64 = getelementptr inbounds %"struct.adept::Gap", %"struct.adept::Gap"* %23, i64 0, i32 1
  %24 = load i32, i32* %end64, align 4, !tbaa !52
  %add65 = add nsw i32 %24, 1
  %cmp66.not = icmp sgt i32 %2, %add65
  br i1 %cmp66.not, label %for.inc, label %if.then67

if.then67:                                        ; preds = %for.body
  %25 = bitcast %"struct.std::__detail::_List_node_base"* %_M_storage.i.i282 to %"struct.adept::Gap"*
  %end64.le = getelementptr inbounds %"struct.adept::Gap", %"struct.adept::Gap"* %25, i64 0, i32 1
  %start69 = bitcast %"struct.std::__detail::_List_node_base"* %_M_storage.i.i282 to i32*
  %26 = load i32, i32* %start69, align 4, !tbaa !54
  %sub70 = sub nsw i32 %26, %3
  %cmp71 = icmp eq i32 %2, %sub70
  br i1 %cmp71, label %if.end119, label %if.else77

if.else77:                                        ; preds = %if.then67
  %cmp81 = icmp eq i32 %2, %add65
  br i1 %cmp81, label %if.then82, label %if.else87

if.then82:                                        ; preds = %if.else77
  %add85 = add nsw i32 %3, %24
  store i32 %add85, i32* %end64.le, align 4, !tbaa !52
  %most_recent_gap_86 = getelementptr inbounds %"class.adept::Stack", %"class.adept::Stack"* %this, i64 0, i32 5
  %27 = bitcast %"struct.std::_List_iterator"* %most_recent_gap_86 to i64*
  %28 = ptrtoint %"struct.std::__detail::_List_node_base"* %it54.sroa.0.0338 to i64
  store i64 %28, i64* %27, align 8, !tbaa !26
  %29 = bitcast %"struct.std::__detail::_List_node_base"* %it54.sroa.0.0338 to %"struct.std::_List_node"*
  br label %if.then157

if.else87:                                        ; preds = %if.else77
  %add91 = add i32 %2, -1
  %sub92 = add i32 %add91, %3
  %call2.i.i.i.i.i.i266 = tail call noalias nonnull i8* @_Znwm(i64 24) #37
  %_M_storage.i.i.i.i267 = getelementptr inbounds i8, i8* %call2.i.i.i.i.i.i266, i64 16
  %30 = bitcast i8* %_M_storage.i.i.i.i267 to i64*
  %ref.tmp90.sroa.4.0.insert.ext = zext i32 %sub92 to i64
  %ref.tmp90.sroa.4.0.insert.shift = shl nuw i64 %ref.tmp90.sroa.4.0.insert.ext, 32
  %ref.tmp90.sroa.0.0.insert.ext = zext i32 %2 to i64
  %ref.tmp90.sroa.0.0.insert.insert = or i64 %ref.tmp90.sroa.4.0.insert.shift, %ref.tmp90.sroa.0.0.insert.ext
  store i64 %ref.tmp90.sroa.0.0.insert.insert, i64* %30, align 4
  %31 = bitcast i8* %call2.i.i.i.i.i.i266 to %"struct.std::__detail::_List_node_base"*
  tail call void @_ZNSt8__detail15_List_node_base7_M_hookEPS0_(%"struct.std::__detail::_List_node_base"* nonnull dereferenceable(16) %31, %"struct.std::__detail::_List_node_base"* nonnull %it54.sroa.0.0338) #34
  %_M_size.i.i.i268 = getelementptr inbounds %"class.adept::Stack", %"class.adept::Stack"* %this, i64 0, i32 4, i32 0, i32 0, i32 0, i32 1
  %32 = load i64, i64* %_M_size.i.i.i268, align 8, !tbaa !56
  %add.i.i.i269 = add i64 %32, 1
  store i64 %add.i.i.i269, i64* %_M_size.i.i.i268, align 8, !tbaa !56
  %ref.tmp88.sroa.0.0..sroa_idx = getelementptr inbounds %"class.adept::Stack", %"class.adept::Stack"* %this, i64 0, i32 5, i32 0
  %33 = bitcast %"struct.std::__detail::_List_node_base"** %ref.tmp88.sroa.0.0..sroa_idx to i8**
  store i8* %call2.i.i.i.i.i.i266, i8** %33, align 8, !tbaa.struct !60
  br label %if.end192

for.inc:                                          ; preds = %for.body
  %_M_next.i265 = getelementptr inbounds %"struct.std::__detail::_List_node_base", %"struct.std::__detail::_List_node_base"* %it54.sroa.0.0338, i64 0, i32 0
  %34 = load %"struct.std::__detail::_List_node_base"*, %"struct.std::__detail::_List_node_base"** %_M_next.i265, align 8, !tbaa !28
  %cmp.i285.not = icmp eq %"struct.std::__detail::_List_node_base"* %34, %16
  br i1 %cmp.i285.not, label %if.then104, label %for.body, !llvm.loop !66

if.then104:                                       ; preds = %for.inc, %if.else
  %add107 = add i32 %2, -1
  %sub108 = add i32 %add107, %3
  %call2.i.i.i.i.i.i = tail call noalias nonnull i8* @_Znwm(i64 24) #37
  %_M_storage.i.i.i.i = getelementptr inbounds i8, i8* %call2.i.i.i.i.i.i, i64 16
  %35 = bitcast i8* %_M_storage.i.i.i.i to i64*
  %ref.tmp106.sroa.4.0.insert.ext = zext i32 %sub108 to i64
  %ref.tmp106.sroa.4.0.insert.shift = shl nuw i64 %ref.tmp106.sroa.4.0.insert.ext, 32
  %ref.tmp106.sroa.0.0.insert.ext = zext i32 %2 to i64
  %ref.tmp106.sroa.0.0.insert.insert = or i64 %ref.tmp106.sroa.4.0.insert.shift, %ref.tmp106.sroa.0.0.insert.ext
  store i64 %ref.tmp106.sroa.0.0.insert.insert, i64* %35, align 4
  %36 = bitcast i8* %call2.i.i.i.i.i.i to %"struct.std::__detail::_List_node_base"*
  tail call void @_ZNSt8__detail15_List_node_base7_M_hookEPS0_(%"struct.std::__detail::_List_node_base"* nonnull dereferenceable(16) %36, %"struct.std::__detail::_List_node_base"* nonnull %16) #34
  %_M_size.i.i.i257 = getelementptr inbounds %"class.adept::Stack", %"class.adept::Stack"* %this, i64 0, i32 4, i32 0, i32 0, i32 0, i32 1
  %37 = load i64, i64* %_M_size.i.i.i257, align 8, !tbaa !56
  %add.i.i.i = add i64 %37, 1
  store i64 %add.i.i.i, i64* %_M_size.i.i.i257, align 8, !tbaa !56
  %ref.tmp109.sroa.0.0..sroa_idx = getelementptr inbounds %"class.adept::Stack", %"class.adept::Stack"* %this, i64 0, i32 5, i32 0
  %_M_prev.i256 = getelementptr inbounds %"class.adept::Stack", %"class.adept::Stack"* %this, i64 0, i32 4, i32 0, i32 0, i32 0, i32 0, i32 1
  %38 = load %"struct.std::__detail::_List_node_base"*, %"struct.std::__detail::_List_node_base"** %_M_prev.i256, align 8, !tbaa !65
  store %"struct.std::__detail::_List_node_base"* %38, %"struct.std::__detail::_List_node_base"** %ref.tmp109.sroa.0.0..sroa_idx, align 8, !tbaa !55
  br label %if.end192

if.end119:                                        ; preds = %if.then67
  store i32 %2, i32* %start69, align 4, !tbaa !54
  %most_recent_gap_76 = getelementptr inbounds %"class.adept::Stack", %"class.adept::Stack"* %this, i64 0, i32 5
  %39 = bitcast %"struct.std::_List_iterator"* %most_recent_gap_76 to i64*
  %40 = ptrtoint %"struct.std::__detail::_List_node_base"* %it54.sroa.0.0338 to i64
  store i64 %40, i64* %39, align 8, !tbaa !26
  %41 = bitcast %"struct.std::__detail::_List_node_base"* %it54.sroa.0.0338 to %"struct.std::_List_node"*
  br label %land.rhs121

land.rhs121:                                      ; preds = %if.end119, %if.end119.thread322
  %42 = phi %"struct.std::_List_node"* [ %41, %if.end119 ], [ %19, %if.end119.thread322 ]
  %43 = phi %"struct.std::__detail::_List_node_base"* [ %it54.sroa.0.0338, %if.end119 ], [ %18, %if.end119.thread322 ]
  %cmp.i252.not = icmp eq %"struct.std::__detail::_List_node_base"* %43, %17
  br i1 %cmp.i252.not, label %if.end192, label %if.then129

if.then129:                                       ; preds = %land.rhs121
  %_M_prev.i249 = getelementptr inbounds %"struct.std::__detail::_List_node_base", %"struct.std::__detail::_List_node_base"* %43, i64 0, i32 1
  %44 = load %"struct.std::__detail::_List_node_base"*, %"struct.std::__detail::_List_node_base"** %_M_prev.i249, align 8, !tbaa !65
  %_M_storage.i.i246 = getelementptr inbounds %"struct.std::__detail::_List_node_base", %"struct.std::__detail::_List_node_base"* %44, i64 1
  %45 = bitcast %"struct.std::__detail::_List_node_base"* %_M_storage.i.i246 to %"struct.adept::Gap"*
  %end136 = getelementptr inbounds %"struct.adept::Gap", %"struct.adept::Gap"* %45, i64 0, i32 1
  %46 = load i32, i32* %end136, align 4, !tbaa !52
  %_M_storage.i.i245 = getelementptr inbounds %"struct.std::_List_node", %"struct.std::_List_node"* %42, i64 0, i32 1
  %start139 = bitcast %"struct.__gnu_cxx::__aligned_membuf"* %_M_storage.i.i245 to i32*
  %47 = load i32, i32* %start139, align 4, !tbaa !54
  %sub140 = add nsw i32 %47, -1
  %cmp141 = icmp eq i32 %46, %sub140
  br i1 %cmp141, label %if.then142, label %if.end192

if.then142:                                       ; preds = %if.then129
  %start144 = bitcast %"struct.std::__detail::_List_node_base"* %_M_storage.i.i246 to i32*
  %48 = load i32, i32* %start144, align 4, !tbaa !54
  store i32 %48, i32* %start139, align 4, !tbaa !54
  %_M_size.i.i.i234 = getelementptr inbounds %"class.adept::Stack", %"class.adept::Stack"* %this, i64 0, i32 4, i32 0, i32 0, i32 0, i32 1
  %49 = load i64, i64* %_M_size.i.i.i234, align 8, !tbaa !56
  %sub.i.i.i235 = add i64 %49, -1
  store i64 %sub.i.i.i235, i64* %_M_size.i.i.i234, align 8, !tbaa !56
  tail call void @_ZNSt8__detail15_List_node_base9_M_unhookEv(%"struct.std::__detail::_List_node_base"* nonnull dereferenceable(16) %44) #34
  %50 = bitcast %"struct.std::__detail::_List_node_base"* %44 to i8*
  tail call void @_ZdlPv(i8* nonnull %50) #34
  br label %if.end192

if.then157:                                       ; preds = %if.then46, %if.then82
  %51 = phi %"struct.std::_List_node"* [ %19, %if.then46 ], [ %29, %if.then82 ]
  %.ptr = phi %"struct.std::__detail::_List_node_base"* [ %18, %if.then46 ], [ %it54.sroa.0.0338, %if.then82 ]
  %_M_next.i232 = getelementptr inbounds %"struct.std::__detail::_List_node_base", %"struct.std::__detail::_List_node_base"* %.ptr, i64 0, i32 0
  %52 = load %"struct.std::__detail::_List_node_base"*, %"struct.std::__detail::_List_node_base"** %_M_next.i232, align 8, !tbaa !28
  %cmp.i231.not = icmp eq %"struct.std::__detail::_List_node_base"* %52, %16
  br i1 %cmp.i231.not, label %if.end192, label %land.rhs168

land.rhs168:                                      ; preds = %if.then157
  %_M_storage.i.i229 = getelementptr inbounds %"struct.std::__detail::_List_node_base", %"struct.std::__detail::_List_node_base"* %52, i64 1
  %start170 = bitcast %"struct.std::__detail::_List_node_base"* %_M_storage.i.i229 to i32*
  %53 = load i32, i32* %start170, align 4, !tbaa !54
  %end173 = getelementptr inbounds %"struct.std::_List_node", %"struct.std::_List_node"* %51, i64 0, i32 1, i32 0, i64 4
  %54 = bitcast i8* %end173 to i32*
  %55 = load i32, i32* %54, align 4, !tbaa !52
  %add174 = add nsw i32 %55, 1
  %cmp175 = icmp eq i32 %53, %add174
  br i1 %cmp175, label %if.then177, label %if.end192

if.then177:                                       ; preds = %land.rhs168
  %56 = bitcast %"struct.std::__detail::_List_node_base"* %_M_storage.i.i229 to %"struct.adept::Gap"*
  %end179 = getelementptr inbounds %"struct.adept::Gap", %"struct.adept::Gap"* %56, i64 0, i32 1
  %57 = load i32, i32* %end179, align 4, !tbaa !52
  store i32 %57, i32* %54, align 4, !tbaa !52
  %_M_size.i.i.i = getelementptr inbounds %"class.adept::Stack", %"class.adept::Stack"* %this, i64 0, i32 4, i32 0, i32 0, i32 0, i32 1
  %58 = load i64, i64* %_M_size.i.i.i, align 8, !tbaa !56
  %sub.i.i.i = add i64 %58, -1
  store i64 %sub.i.i.i, i64* %_M_size.i.i.i, align 8, !tbaa !56
  tail call void @_ZNSt8__detail15_List_node_base9_M_unhookEv(%"struct.std::__detail::_List_node_base"* nonnull dereferenceable(16) %52) #34
  %59 = bitcast %"struct.std::__detail::_List_node_base"* %52 to i8*
  tail call void @_ZdlPv(i8* nonnull %59) #34
  br label %if.end192

if.end192:                                        ; preds = %if.then104, %if.else87, %land.rhs121, %land.rhs168, %if.then177, %if.then157, %if.then129, %if.then142, %if.then4, %if.end, %if.then
  ret void
}

; Function Attrs: uwtable mustprogress
define dso_local void @_ZNK5adept5Stack16print_statementsERSo(%"class.adept::Stack"* nocapture nonnull readonly dereferenceable(149) %this, %"class.std::basic_ostream"* nonnull align 8 dereferenceable(8) %os) local_unnamed_addr #8 align 2 {
entry:
  %n_statements_ = getelementptr inbounds %"class.adept::Stack", %"class.adept::Stack"* %this, i64 0, i32 0, i32 3
  %0 = load i32, i32* %n_statements_, align 8, !tbaa !40
  %cmp67 = icmp sgt i32 %0, 1
  br i1 %cmp67, label %for.body.lr.ph, label %for.cond.cleanup

for.body.lr.ph:                                   ; preds = %entry
  %statement_ = getelementptr inbounds %"class.adept::Stack", %"class.adept::Stack"* %this, i64 0, i32 0, i32 0
  %multiplier_ = getelementptr inbounds %"class.adept::Stack", %"class.adept::Stack"* %this, i64 0, i32 0, i32 1
  %index_ = getelementptr inbounds %"class.adept::Stack", %"class.adept::Stack"* %this, i64 0, i32 0, i32 2
  br label %for.body

for.cond.cleanup:                                 ; preds = %if.end, %entry
  ret void

for.body:                                         ; preds = %for.body.lr.ph, %if.end
  %indvars.iv69 = phi i64 [ 1, %for.body.lr.ph ], [ %indvars.iv.next70, %if.end ]
  %1 = load %"struct.adept::internal::Statement"*, %"struct.adept::internal::Statement"** %statement_, align 8, !tbaa !35
  %2 = trunc i64 %indvars.iv69 to i32
  %call = tail call nonnull align 8 dereferenceable(8) %"class.std::basic_ostream"* @_ZNSolsEi(%"class.std::basic_ostream"* nonnull dereferenceable(8) %os, i32 %2)
  %call1.i = tail call nonnull align 8 dereferenceable(8) %"class.std::basic_ostream"* @_ZSt16__ostream_insertIcSt11char_traitsIcEERSt13basic_ostreamIT_T0_ES6_PKS3_l(%"class.std::basic_ostream"* nonnull align 8 dereferenceable(8) %call, i8* nonnull getelementptr inbounds ([5 x i8], [5 x i8]* @.str.28, i64 0, i64 0), i64 4)
  %index = getelementptr inbounds %"struct.adept::internal::Statement", %"struct.adept::internal::Statement"* %1, i64 %indvars.iv69, i32 0
  %3 = load i32, i32* %index, align 4, !tbaa !41
  %call3 = tail call nonnull align 8 dereferenceable(8) %"class.std::basic_ostream"* @_ZNSolsEi(%"class.std::basic_ostream"* nonnull dereferenceable(8) %call, i32 %3)
  %call1.i54 = tail call nonnull align 8 dereferenceable(8) %"class.std::basic_ostream"* @_ZSt16__ostream_insertIcSt11char_traitsIcEERSt13basic_ostreamIT_T0_ES6_PKS3_l(%"class.std::basic_ostream"* nonnull align 8 dereferenceable(8) %call3, i8* nonnull getelementptr inbounds ([5 x i8], [5 x i8]* @.str.29, i64 0, i64 0), i64 4)
  %4 = load %"struct.adept::internal::Statement"*, %"struct.adept::internal::Statement"** %statement_, align 8, !tbaa !35
  %5 = add nsw i64 %indvars.iv69, -1
  %end_plus_one = getelementptr inbounds %"struct.adept::internal::Statement", %"struct.adept::internal::Statement"* %4, i64 %5, i32 1
  %6 = load i32, i32* %end_plus_one, align 4, !tbaa !45
  %end_plus_one11 = getelementptr inbounds %"struct.adept::internal::Statement", %"struct.adept::internal::Statement"* %4, i64 %indvars.iv69, i32 1
  %7 = load i32, i32* %end_plus_one11, align 4, !tbaa !45
  %cmp12 = icmp eq i32 %6, %7
  br i1 %cmp12, label %if.then, label %for.cond19.preheader

for.cond19.preheader:                             ; preds = %for.body
  %end_plus_one20 = getelementptr inbounds %"struct.adept::internal::Statement", %"struct.adept::internal::Statement"* %1, i64 %indvars.iv69, i32 1
  %8 = load i32, i32* %end_plus_one20, align 4, !tbaa !45
  %cmp2165 = icmp slt i32 %6, %8
  br i1 %cmp2165, label %for.body23.preheader, label %for.cond.cleanup22

for.body23.preheader:                             ; preds = %for.cond19.preheader
  %9 = sext i32 %6 to i64
  br label %for.body23

if.then:                                          ; preds = %for.body
  %call1.i56 = tail call nonnull align 8 dereferenceable(8) %"class.std::basic_ostream"* @_ZSt16__ostream_insertIcSt11char_traitsIcEERSt13basic_ostreamIT_T0_ES6_PKS3_l(%"class.std::basic_ostream"* nonnull align 8 dereferenceable(8) %os, i8* nonnull getelementptr inbounds ([3 x i8], [3 x i8]* @.str.30, i64 0, i64 0), i64 2)
  br label %if.end

for.cond.cleanup22:                               ; preds = %for.body23, %for.cond19.preheader
  %call1.i58 = tail call nonnull align 8 dereferenceable(8) %"class.std::basic_ostream"* @_ZSt16__ostream_insertIcSt11char_traitsIcEERSt13basic_ostreamIT_T0_ES6_PKS3_l(%"class.std::basic_ostream"* nonnull align 8 dereferenceable(8) %os, i8* nonnull getelementptr inbounds ([2 x i8], [2 x i8]* @.str.20, i64 0, i64 0), i64 1)
  br label %if.end

for.body23:                                       ; preds = %for.body23.preheader, %for.body23
  %indvars.iv = phi i64 [ %9, %for.body23.preheader ], [ %indvars.iv.next, %for.body23 ]
  %call1.i60 = tail call nonnull align 8 dereferenceable(8) %"class.std::basic_ostream"* @_ZSt16__ostream_insertIcSt11char_traitsIcEERSt13basic_ostreamIT_T0_ES6_PKS3_l(%"class.std::basic_ostream"* nonnull align 8 dereferenceable(8) %os, i8* nonnull getelementptr inbounds ([4 x i8], [4 x i8]* @.str.31, i64 0, i64 0), i64 3)
  %10 = load double*, double** %multiplier_, align 8, !tbaa !37
  %arrayidx26 = getelementptr inbounds double, double* %10, i64 %indvars.iv
  %11 = load double, double* %arrayidx26, align 8, !tbaa !43
  %call.i = tail call nonnull align 8 dereferenceable(8) %"class.std::basic_ostream"* @_ZNSo9_M_insertIdEERSoT_(%"class.std::basic_ostream"* nonnull dereferenceable(8) %os, double %11)
  %call1.i62 = tail call nonnull align 8 dereferenceable(8) %"class.std::basic_ostream"* @_ZSt16__ostream_insertIcSt11char_traitsIcEERSt13basic_ostreamIT_T0_ES6_PKS3_l(%"class.std::basic_ostream"* nonnull align 8 dereferenceable(8) %call.i, i8* nonnull getelementptr inbounds ([4 x i8], [4 x i8]* @.str.32, i64 0, i64 0), i64 3)
  %12 = load i32*, i32** %index_, align 8, !tbaa !38
  %arrayidx30 = getelementptr inbounds i32, i32* %12, i64 %indvars.iv
  %13 = load i32, i32* %arrayidx30, align 4, !tbaa !46
  %call31 = tail call nonnull align 8 dereferenceable(8) %"class.std::basic_ostream"* @_ZNSolsEi(%"class.std::basic_ostream"* nonnull dereferenceable(8) %call.i, i32 %13)
  %call1.i64 = tail call nonnull align 8 dereferenceable(8) %"class.std::basic_ostream"* @_ZSt16__ostream_insertIcSt11char_traitsIcEERSt13basic_ostreamIT_T0_ES6_PKS3_l(%"class.std::basic_ostream"* nonnull align 8 dereferenceable(8) %call31, i8* nonnull getelementptr inbounds ([2 x i8], [2 x i8]* @.str.23, i64 0, i64 0), i64 1)
  %indvars.iv.next = add nsw i64 %indvars.iv, 1
  %14 = load i32, i32* %end_plus_one20, align 4, !tbaa !45
  %15 = sext i32 %14 to i64
  %cmp21 = icmp slt i64 %indvars.iv.next, %15
  br i1 %cmp21, label %for.body23, label %for.cond.cleanup22, !llvm.loop !67

if.end:                                           ; preds = %for.cond.cleanup22, %if.then
  %indvars.iv.next70 = add nuw nsw i64 %indvars.iv69, 1
  %16 = load i32, i32* %n_statements_, align 8, !tbaa !40
  %17 = sext i32 %16 to i64
  %cmp = icmp slt i64 %indvars.iv.next70, %17
  br i1 %cmp, label %for.body, label %for.cond.cleanup, !llvm.loop !68
}

declare dso_local nonnull align 8 dereferenceable(8) %"class.std::basic_ostream"* @_ZNSolsEi(%"class.std::basic_ostream"* nonnull dereferenceable(8), i32) local_unnamed_addr #0

; Function Attrs: uwtable mustprogress
define dso_local zeroext i1 @_ZNK5adept5Stack15print_gradientsERSo(%"class.adept::Stack"* nocapture nonnull readonly dereferenceable(149) %this, %"class.std::basic_ostream"* nonnull align 8 dereferenceable(8) %os) local_unnamed_addr #8 align 2 {
entry:
  %gradients_initialized_.i = getelementptr inbounds %"class.adept::Stack", %"class.adept::Stack"* %this, i64 0, i32 10
  %0 = load i8, i8* %gradients_initialized_.i, align 8, !tbaa !39, !range !25
  %tobool.i = icmp ne i8 %0, 0
  br i1 %tobool.i, label %for.cond.preheader, label %if.else

for.cond.preheader:                               ; preds = %entry
  %max_gradient_ = getelementptr inbounds %"class.adept::Stack", %"class.adept::Stack"* %this, i64 0, i32 8
  %1 = load i32, i32* %max_gradient_, align 8, !tbaa !63
  %cmp32 = icmp sgt i32 %1, 0
  br i1 %cmp32, label %for.body.lr.ph, label %for.cond.cleanup

for.body.lr.ph:                                   ; preds = %for.cond.preheader
  %gradient_ = getelementptr inbounds %"class.adept::Stack", %"class.adept::Stack"* %this, i64 0, i32 1
  br label %for.body

for.cond.cleanup:                                 ; preds = %if.end9, %for.cond.preheader
  %call1.i25 = tail call nonnull align 8 dereferenceable(8) %"class.std::basic_ostream"* @_ZSt16__ostream_insertIcSt11char_traitsIcEERSt13basic_ostreamIT_T0_ES6_PKS3_l(%"class.std::basic_ostream"* nonnull align 8 dereferenceable(8) %os, i8* nonnull getelementptr inbounds ([2 x i8], [2 x i8]* @.str.20, i64 0, i64 0), i64 1)
  br label %return

for.body:                                         ; preds = %for.body.lr.ph, %if.end9
  %indvars.iv = phi i64 [ 0, %for.body.lr.ph ], [ %indvars.iv.next, %if.end9 ]
  %2 = trunc i64 %indvars.iv to i32
  %rem = urem i32 %2, 10
  %cmp2 = icmp eq i32 %rem, 0
  br i1 %cmp2, label %if.then3, label %if.end9

if.then3:                                         ; preds = %for.body
  %cmp4.not = icmp eq i64 %indvars.iv, 0
  br i1 %cmp4.not, label %if.end, label %if.then5

if.then5:                                         ; preds = %if.then3
  %call1.i27 = tail call nonnull align 8 dereferenceable(8) %"class.std::basic_ostream"* @_ZSt16__ostream_insertIcSt11char_traitsIcEERSt13basic_ostreamIT_T0_ES6_PKS3_l(%"class.std::basic_ostream"* nonnull align 8 dereferenceable(8) %os, i8* nonnull getelementptr inbounds ([2 x i8], [2 x i8]* @.str.20, i64 0, i64 0), i64 1)
  br label %if.end

if.end:                                           ; preds = %if.then5, %if.then3
  %call7 = tail call nonnull align 8 dereferenceable(8) %"class.std::basic_ostream"* @_ZNSolsEi(%"class.std::basic_ostream"* nonnull dereferenceable(8) %os, i32 %2)
  %call1.i29 = tail call nonnull align 8 dereferenceable(8) %"class.std::basic_ostream"* @_ZSt16__ostream_insertIcSt11char_traitsIcEERSt13basic_ostreamIT_T0_ES6_PKS3_l(%"class.std::basic_ostream"* nonnull align 8 dereferenceable(8) %call7, i8* nonnull getelementptr inbounds ([2 x i8], [2 x i8]* @.str.33, i64 0, i64 0), i64 1)
  br label %if.end9

if.end9:                                          ; preds = %if.end, %for.body
  %call1.i31 = tail call nonnull align 8 dereferenceable(8) %"class.std::basic_ostream"* @_ZSt16__ostream_insertIcSt11char_traitsIcEERSt13basic_ostreamIT_T0_ES6_PKS3_l(%"class.std::basic_ostream"* nonnull align 8 dereferenceable(8) %os, i8* nonnull getelementptr inbounds ([2 x i8], [2 x i8]* @.str.18, i64 0, i64 0), i64 1)
  %3 = load double*, double** %gradient_, align 8, !tbaa !27
  %arrayidx = getelementptr inbounds double, double* %3, i64 %indvars.iv
  %4 = load double, double* %arrayidx, align 8, !tbaa !43
  %call.i = tail call nonnull align 8 dereferenceable(8) %"class.std::basic_ostream"* @_ZNSo9_M_insertIdEERSoT_(%"class.std::basic_ostream"* nonnull dereferenceable(8) %os, double %4)
  %indvars.iv.next = add nuw nsw i64 %indvars.iv, 1
  %5 = load i32, i32* %max_gradient_, align 8, !tbaa !63
  %6 = sext i32 %5 to i64
  %cmp = icmp slt i64 %indvars.iv.next, %6
  br i1 %cmp, label %for.body, label %for.cond.cleanup, !llvm.loop !69

if.else:                                          ; preds = %entry
  %call1.i = tail call nonnull align 8 dereferenceable(8) %"class.std::basic_ostream"* @_ZSt16__ostream_insertIcSt11char_traitsIcEERSt13basic_ostreamIT_T0_ES6_PKS3_l(%"class.std::basic_ostream"* nonnull align 8 dereferenceable(8) %os, i8* nonnull getelementptr inbounds ([26 x i8], [26 x i8]* @.str.34, i64 0, i64 0), i64 25)
  br label %return

return:                                           ; preds = %if.else, %for.cond.cleanup
  ret i1 %tobool.i
}

; Function Attrs: uwtable
define dso_local void @_ZNK5adept5Stack10print_gapsERSo(%"class.adept::Stack"* nonnull dereferenceable(149) %this, %"class.std::basic_ostream"* nonnull align 8 dereferenceable(8) %os) local_unnamed_addr #5 align 2 personality i32 (...)* @__gxx_personality_v0 {
entry:
  %gap_list_ = getelementptr inbounds %"class.adept::Stack", %"class.adept::Stack"* %this, i64 0, i32 4
  %_M_next.i = getelementptr inbounds %"class.std::__cxx11::list", %"class.std::__cxx11::list"* %gap_list_, i64 0, i32 0, i32 0, i32 0, i32 0, i32 0
  %it.sroa.0.022 = load %"struct.std::__detail::_List_node_base"*, %"struct.std::__detail::_List_node_base"** %_M_next.i, align 8, !tbaa !28
  %0 = getelementptr inbounds %"class.std::__cxx11::list", %"class.std::__cxx11::list"* %gap_list_, i64 0, i32 0, i32 0, i32 0, i32 0
  %cmp.i.not23 = icmp eq %"struct.std::__detail::_List_node_base"* %it.sroa.0.022, %0
  br i1 %cmp.i.not23, label %for.cond.cleanup, label %for.body

for.cond.cleanup:                                 ; preds = %for.body, %entry
  ret void

for.body:                                         ; preds = %entry, %for.body
  %it.sroa.0.024 = phi %"struct.std::__detail::_List_node_base"* [ %it.sroa.0.0, %for.body ], [ %it.sroa.0.022, %entry ]
  %_M_storage.i.i17 = getelementptr inbounds %"struct.std::__detail::_List_node_base", %"struct.std::__detail::_List_node_base"* %it.sroa.0.024, i64 1
  %1 = bitcast %"struct.std::__detail::_List_node_base"* %_M_storage.i.i17 to %"struct.adept::Gap"*
  %start = bitcast %"struct.std::__detail::_List_node_base"* %_M_storage.i.i17 to i32*
  %2 = load i32, i32* %start, align 4, !tbaa !54
  %call7 = tail call nonnull align 8 dereferenceable(8) %"class.std::basic_ostream"* @_ZNSolsEi(%"class.std::basic_ostream"* nonnull dereferenceable(8) %os, i32 %2)
  %call1.i16 = tail call nonnull align 8 dereferenceable(8) %"class.std::basic_ostream"* @_ZSt16__ostream_insertIcSt11char_traitsIcEERSt13basic_ostreamIT_T0_ES6_PKS3_l(%"class.std::basic_ostream"* nonnull align 8 dereferenceable(8) %call7, i8* nonnull getelementptr inbounds ([2 x i8], [2 x i8]* @.str.35, i64 0, i64 0), i64 1)
  %end = getelementptr inbounds %"struct.adept::Gap", %"struct.adept::Gap"* %1, i64 0, i32 1
  %3 = load i32, i32* %end, align 4, !tbaa !52
  %call10 = tail call nonnull align 8 dereferenceable(8) %"class.std::basic_ostream"* @_ZNSolsEi(%"class.std::basic_ostream"* nonnull dereferenceable(8) %call7, i32 %3)
  %call1.i = tail call nonnull align 8 dereferenceable(8) %"class.std::basic_ostream"* @_ZSt16__ostream_insertIcSt11char_traitsIcEERSt13basic_ostreamIT_T0_ES6_PKS3_l(%"class.std::basic_ostream"* nonnull align 8 dereferenceable(8) %call10, i8* nonnull getelementptr inbounds ([2 x i8], [2 x i8]* @.str.18, i64 0, i64 0), i64 1)
  %_M_next.i14 = getelementptr inbounds %"struct.std::__detail::_List_node_base", %"struct.std::__detail::_List_node_base"* %it.sroa.0.024, i64 0, i32 0
  %it.sroa.0.0 = load %"struct.std::__detail::_List_node_base"*, %"struct.std::__detail::_List_node_base"** %_M_next.i14, align 8, !tbaa !28
  %cmp.i.not = icmp eq %"struct.std::__detail::_List_node_base"* %it.sroa.0.0, %0
  br i1 %cmp.i.not, label %for.cond.cleanup, label %for.body, !llvm.loop !70
}

; Function Attrs: uwtable mustprogress
define dso_local void @_ZN5adept5Stack20initialize_gradientsEv(%"class.adept::Stack"* nocapture nonnull dereferenceable(149) %this) local_unnamed_addr #8 align 2 {
entry:
  %max_gradient_ = getelementptr inbounds %"class.adept::Stack", %"class.adept::Stack"* %this, i64 0, i32 8
  %0 = load i32, i32* %max_gradient_, align 8, !tbaa !63
  %cmp = icmp sgt i32 %0, 0
  br i1 %cmp, label %if.then, label %if.end15

if.then:                                          ; preds = %entry
  %n_allocated_gradients_ = getelementptr inbounds %"class.adept::Stack", %"class.adept::Stack"* %this, i64 0, i32 7
  %1 = load i32, i32* %n_allocated_gradients_, align 4, !tbaa !71
  %cmp3 = icmp slt i32 %1, %0
  br i1 %cmp3, label %if.then4, label %for.body.lr.ph

if.then4:                                         ; preds = %if.then
  %gradient_ = getelementptr inbounds %"class.adept::Stack", %"class.adept::Stack"* %this, i64 0, i32 1
  %2 = load double*, double** %gradient_, align 8, !tbaa !27
  %tobool.not = icmp eq double* %2, null
  br i1 %tobool.not, label %if.end11, label %delete.notnull

delete.notnull:                                   ; preds = %if.then4
  %3 = bitcast double* %2 to i8*
  tail call void @_ZdaPv(i8* %3) #36
  %.pre = load i32, i32* %max_gradient_, align 8, !tbaa !63
  br label %if.end11

if.end11:                                         ; preds = %if.then4, %delete.notnull
  %4 = phi i32 [ %.pre, %delete.notnull ], [ %0, %if.then4 ]
  %conv = sext i32 %4 to i64
  %5 = tail call { i64, i1 } @llvm.umul.with.overflow.i64(i64 %conv, i64 8)
  %6 = extractvalue { i64, i1 } %5, 1
  %7 = extractvalue { i64, i1 } %5, 0
  %8 = select i1 %6, i64 -1, i64 %7
  %call = tail call noalias nonnull i8* @_Znam(i64 %8) #38
  %9 = bitcast double** %gradient_ to i8**
  store i8* %call, i8** %9, align 8, !tbaa !27
  store i32 %4, i32* %n_allocated_gradients_, align 4, !tbaa !71
  %cmp1320 = icmp sgt i32 %4, 0
  br i1 %cmp1320, label %for.body.lr.ph, label %if.end15

for.body.lr.ph:                                   ; preds = %if.then, %if.end11
  %10 = phi i32 [ %4, %if.end11 ], [ %0, %if.then ]
  %gradient_14 = getelementptr inbounds %"class.adept::Stack", %"class.adept::Stack"* %this, i64 0, i32 1
  %11 = bitcast double** %gradient_14 to i8**
  %12 = load i8*, i8** %11, align 8, !tbaa !27
  %13 = zext i32 %10 to i64
  %14 = shl nuw nsw i64 %13, 3
  call void @llvm.memset.p0i8.i64(i8* align 8 %12, i8 0, i64 %14, i1 false)
  br label %if.end15

if.end15:                                         ; preds = %for.body.lr.ph, %if.end11, %entry
  %gradients_initialized_ = getelementptr inbounds %"class.adept::Stack", %"class.adept::Stack"* %this, i64 0, i32 10
  store i8 1, i8* %gradients_initialized_, align 8, !tbaa !39
  ret void
}

; Function Attrs: nofree nosync nounwind readnone speculatable willreturn
declare { i64, i1 } @llvm.umul.with.overflow.i64(i64, i64) #9

; Function Attrs: nobuiltin nofree allocsize(0)
declare dso_local nonnull i8* @_Znam(i64) local_unnamed_addr #10

; Function Attrs: uwtable
define dso_local void @_ZNK5adept5Stack12print_statusERSo(%"class.adept::Stack"* nonnull dereferenceable(149) %this, %"class.std::basic_ostream"* nonnull align 8 dereferenceable(8) %os) local_unnamed_addr #5 align 2 personality i32 (...)* @__gxx_personality_v0 {
entry:
  %call1.i = tail call nonnull align 8 dereferenceable(8) %"class.std::basic_ostream"* @_ZSt16__ostream_insertIcSt11char_traitsIcEERSt13basic_ostreamIT_T0_ES6_PKS3_l(%"class.std::basic_ostream"* nonnull align 8 dereferenceable(8) %os, i8* nonnull getelementptr inbounds ([42 x i8], [42 x i8]* @.str.36, i64 0, i64 0), i64 41)
  %0 = bitcast %"class.adept::Stack"* %this to i8*
  %call.i = tail call nonnull align 8 dereferenceable(8) %"class.std::basic_ostream"* @_ZNSo9_M_insertIPKvEERSoT_(%"class.std::basic_ostream"* nonnull dereferenceable(8) %os, i8* nonnull %0)
  %call1.i142 = tail call nonnull align 8 dereferenceable(8) %"class.std::basic_ostream"* @_ZSt16__ostream_insertIcSt11char_traitsIcEERSt13basic_ostreamIT_T0_ES6_PKS3_l(%"class.std::basic_ostream"* nonnull align 8 dereferenceable(8) %call.i, i8* nonnull getelementptr inbounds ([4 x i8], [4 x i8]* @.str.37, i64 0, i64 0), i64 3)
  %is_thread_unsafe_ = getelementptr inbounds %"class.adept::Stack", %"class.adept::Stack"* %this, i64 0, i32 11
  %1 = load i8, i8* %is_thread_unsafe_, align 1, !tbaa !19, !range !25
  %tobool = icmp ne i8 %1, 0
  %2 = load %"class.adept::Stack"*, %"class.adept::Stack"** @_ZN5adept21_stack_current_threadE, align 8
  %cmp = icmp ne %"class.adept::Stack"* %2, %this
  %3 = or i1 %tobool, %cmp
  br i1 %3, label %if.else, label %if.then

if.then:                                          ; preds = %entry
  %call1.i144 = tail call nonnull align 8 dereferenceable(8) %"class.std::basic_ostream"* @_ZSt16__ostream_insertIcSt11char_traitsIcEERSt13basic_ostreamIT_T0_ES6_PKS3_l(%"class.std::basic_ostream"* nonnull align 8 dereferenceable(8) %os, i8* nonnull getelementptr inbounds ([37 x i8], [37 x i8]* @.str.38, i64 0, i64 0), i64 36)
  br label %if.end13

if.else:                                          ; preds = %entry
  %4 = load %"class.adept::Stack"*, %"class.adept::Stack"** @_ZN5adept28_stack_current_thread_unsafeE, align 8
  %cmp8 = icmp eq %"class.adept::Stack"* %4, %this
  %or.cond110 = and i1 %tobool, %cmp8
  br i1 %or.cond110, label %if.then9, label %if.else11

if.then9:                                         ; preds = %if.else
  %call1.i146 = tail call nonnull align 8 dereferenceable(8) %"class.std::basic_ostream"* @_ZSt16__ostream_insertIcSt11char_traitsIcEERSt13basic_ostreamIT_T0_ES6_PKS3_l(%"class.std::basic_ostream"* nonnull align 8 dereferenceable(8) %os, i8* nonnull getelementptr inbounds ([39 x i8], [39 x i8]* @.str.39, i64 0, i64 0), i64 38)
  br label %if.end13

if.else11:                                        ; preds = %if.else
  %call1.i148 = tail call nonnull align 8 dereferenceable(8) %"class.std::basic_ostream"* @_ZSt16__ostream_insertIcSt11char_traitsIcEERSt13basic_ostreamIT_T0_ES6_PKS3_l(%"class.std::basic_ostream"* nonnull align 8 dereferenceable(8) %os, i8* nonnull getelementptr inbounds ([23 x i8], [23 x i8]* @.str.40, i64 0, i64 0), i64 22)
  br label %if.end13

if.end13:                                         ; preds = %if.then9, %if.else11, %if.then
  %call1.i150 = tail call nonnull align 8 dereferenceable(8) %"class.std::basic_ostream"* @_ZSt16__ostream_insertIcSt11char_traitsIcEERSt13basic_ostreamIT_T0_ES6_PKS3_l(%"class.std::basic_ostream"* nonnull align 8 dereferenceable(8) %os, i8* nonnull getelementptr inbounds ([22 x i8], [22 x i8]* @.str.41, i64 0, i64 0), i64 21)
  %is_recording_ = getelementptr inbounds %"class.adept::Stack", %"class.adept::Stack"* %this, i64 0, i32 12
  %5 = load i8, i8* %is_recording_, align 2, !tbaa !72, !range !25
  %tobool15.not = icmp eq i8 %5, 0
  br i1 %tobool15.not, label %if.else18, label %if.then16

if.then16:                                        ; preds = %if.end13
  %call1.i152 = tail call nonnull align 8 dereferenceable(8) %"class.std::basic_ostream"* @_ZSt16__ostream_insertIcSt11char_traitsIcEERSt13basic_ostreamIT_T0_ES6_PKS3_l(%"class.std::basic_ostream"* nonnull align 8 dereferenceable(8) %os, i8* nonnull getelementptr inbounds ([23 x i8], [23 x i8]* @.str.42, i64 0, i64 0), i64 22)
  br label %if.end20

if.else18:                                        ; preds = %if.end13
  %call1.i154 = tail call nonnull align 8 dereferenceable(8) %"class.std::basic_ostream"* @_ZSt16__ostream_insertIcSt11char_traitsIcEERSt13basic_ostreamIT_T0_ES6_PKS3_l(%"class.std::basic_ostream"* nonnull align 8 dereferenceable(8) %os, i8* nonnull getelementptr inbounds ([27 x i8], [27 x i8]* @.str.43, i64 0, i64 0), i64 26)
  br label %if.end20

if.end20:                                         ; preds = %if.else18, %if.then16
  %call1.i156 = tail call nonnull align 8 dereferenceable(8) %"class.std::basic_ostream"* @_ZSt16__ostream_insertIcSt11char_traitsIcEERSt13basic_ostreamIT_T0_ES6_PKS3_l(%"class.std::basic_ostream"* nonnull align 8 dereferenceable(8) %os, i8* nonnull getelementptr inbounds ([7 x i8], [7 x i8]* @.str.44, i64 0, i64 0), i64 6)
  %n_statements_.i = getelementptr inbounds %"class.adept::Stack", %"class.adept::Stack"* %this, i64 0, i32 0, i32 3
  %6 = load i32, i32* %n_statements_.i, align 8, !tbaa !40
  %sub = add nsw i32 %6, -1
  %call23 = tail call nonnull align 8 dereferenceable(8) %"class.std::basic_ostream"* @_ZNSolsEi(%"class.std::basic_ostream"* nonnull dereferenceable(8) %os, i32 %sub)
  %call1.i158 = tail call nonnull align 8 dereferenceable(8) %"class.std::basic_ostream"* @_ZSt16__ostream_insertIcSt11char_traitsIcEERSt13basic_ostreamIT_T0_ES6_PKS3_l(%"class.std::basic_ostream"* nonnull align 8 dereferenceable(8) %call23, i8* nonnull getelementptr inbounds ([14 x i8], [14 x i8]* @.str.45, i64 0, i64 0), i64 13)
  %n_allocated_statements_.i = getelementptr inbounds %"class.adept::Stack", %"class.adept::Stack"* %this, i64 0, i32 0, i32 4
  %7 = load i32, i32* %n_allocated_statements_.i, align 4, !tbaa !73
  %call26 = tail call nonnull align 8 dereferenceable(8) %"class.std::basic_ostream"* @_ZNSolsEi(%"class.std::basic_ostream"* nonnull dereferenceable(8) %call23, i32 %7)
  %call1.i160 = tail call nonnull align 8 dereferenceable(8) %"class.std::basic_ostream"* @_ZSt16__ostream_insertIcSt11char_traitsIcEERSt13basic_ostreamIT_T0_ES6_PKS3_l(%"class.std::basic_ostream"* nonnull align 8 dereferenceable(8) %call26, i8* nonnull getelementptr inbounds ([12 x i8], [12 x i8]* @.str.46, i64 0, i64 0), i64 11)
  %call1.i162 = tail call nonnull align 8 dereferenceable(8) %"class.std::basic_ostream"* @_ZSt16__ostream_insertIcSt11char_traitsIcEERSt13basic_ostreamIT_T0_ES6_PKS3_l(%"class.std::basic_ostream"* nonnull align 8 dereferenceable(8) %os, i8* nonnull getelementptr inbounds ([6 x i8], [6 x i8]* @.str.47, i64 0, i64 0), i64 5)
  %n_operations_.i = getelementptr inbounds %"class.adept::Stack", %"class.adept::Stack"* %this, i64 0, i32 0, i32 5
  %8 = load i32, i32* %n_operations_.i, align 8, !tbaa !74
  %call30 = tail call nonnull align 8 dereferenceable(8) %"class.std::basic_ostream"* @_ZNSolsEi(%"class.std::basic_ostream"* nonnull dereferenceable(8) %os, i32 %8)
  %call1.i164 = tail call nonnull align 8 dereferenceable(8) %"class.std::basic_ostream"* @_ZSt16__ostream_insertIcSt11char_traitsIcEERSt13basic_ostreamIT_T0_ES6_PKS3_l(%"class.std::basic_ostream"* nonnull align 8 dereferenceable(8) %call30, i8* nonnull getelementptr inbounds ([14 x i8], [14 x i8]* @.str.48, i64 0, i64 0), i64 13)
  %n_allocated_operations_.i = getelementptr inbounds %"class.adept::Stack", %"class.adept::Stack"* %this, i64 0, i32 0, i32 6
  %9 = load i32, i32* %n_allocated_operations_.i, align 4, !tbaa !75
  %call33 = tail call nonnull align 8 dereferenceable(8) %"class.std::basic_ostream"* @_ZNSolsEi(%"class.std::basic_ostream"* nonnull dereferenceable(8) %call30, i32 %9)
  %call1.i166 = tail call nonnull align 8 dereferenceable(8) %"class.std::basic_ostream"* @_ZSt16__ostream_insertIcSt11char_traitsIcEERSt13basic_ostreamIT_T0_ES6_PKS3_l(%"class.std::basic_ostream"* nonnull align 8 dereferenceable(8) %call33, i8* nonnull getelementptr inbounds ([13 x i8], [13 x i8]* @.str.49, i64 0, i64 0), i64 12)
  %call1.i168 = tail call nonnull align 8 dereferenceable(8) %"class.std::basic_ostream"* @_ZSt16__ostream_insertIcSt11char_traitsIcEERSt13basic_ostreamIT_T0_ES6_PKS3_l(%"class.std::basic_ostream"* nonnull align 8 dereferenceable(8) %os, i8* nonnull getelementptr inbounds ([7 x i8], [7 x i8]* @.str.44, i64 0, i64 0), i64 6)
  %n_gradients_registered_.i = getelementptr inbounds %"class.adept::Stack", %"class.adept::Stack"* %this, i64 0, i32 9
  %10 = load i32, i32* %n_gradients_registered_.i, align 4, !tbaa !51
  %call37 = tail call nonnull align 8 dereferenceable(8) %"class.std::basic_ostream"* @_ZNSolsEi(%"class.std::basic_ostream"* nonnull dereferenceable(8) %os, i32 %10)
  %call1.i170 = tail call nonnull align 8 dereferenceable(8) %"class.std::basic_ostream"* @_ZSt16__ostream_insertIcSt11char_traitsIcEERSt13basic_ostreamIT_T0_ES6_PKS3_l(%"class.std::basic_ostream"* nonnull align 8 dereferenceable(8) %call37, i8* nonnull getelementptr inbounds ([33 x i8], [33 x i8]* @.str.50, i64 0, i64 0), i64 32)
  %call1.i172 = tail call nonnull align 8 dereferenceable(8) %"class.std::basic_ostream"* @_ZSt16__ostream_insertIcSt11char_traitsIcEERSt13basic_ostreamIT_T0_ES6_PKS3_l(%"class.std::basic_ostream"* nonnull align 8 dereferenceable(8) %os, i8* nonnull getelementptr inbounds ([16 x i8], [16 x i8]* @.str.51, i64 0, i64 0), i64 15)
  %max_gradient_.i = getelementptr inbounds %"class.adept::Stack", %"class.adept::Stack"* %this, i64 0, i32 8
  %11 = load i32, i32* %max_gradient_.i, align 8, !tbaa !63
  %call41 = tail call nonnull align 8 dereferenceable(8) %"class.std::basic_ostream"* @_ZNSolsEi(%"class.std::basic_ostream"* nonnull dereferenceable(8) %os, i32 %11)
  %call1.i174 = tail call nonnull align 8 dereferenceable(8) %"class.std::basic_ostream"* @_ZSt16__ostream_insertIcSt11char_traitsIcEERSt13basic_ostreamIT_T0_ES6_PKS3_l(%"class.std::basic_ostream"* nonnull align 8 dereferenceable(8) %call41, i8* nonnull getelementptr inbounds ([24 x i8], [24 x i8]* @.str.52, i64 0, i64 0), i64 23)
  %i_gradient_.i = getelementptr inbounds %"class.adept::Stack", %"class.adept::Stack"* %this, i64 0, i32 6
  %12 = load i32, i32* %i_gradient_.i, align 8, !tbaa !62
  %call44 = tail call nonnull align 8 dereferenceable(8) %"class.std::basic_ostream"* @_ZNSolsEi(%"class.std::basic_ostream"* nonnull dereferenceable(8) %call41, i32 %12)
  %call1.i176 = tail call nonnull align 8 dereferenceable(8) %"class.std::basic_ostream"* @_ZSt16__ostream_insertIcSt11char_traitsIcEERSt13basic_ostreamIT_T0_ES6_PKS3_l(%"class.std::basic_ostream"* nonnull align 8 dereferenceable(8) %call44, i8* nonnull getelementptr inbounds ([3 x i8], [3 x i8]* @.str.53, i64 0, i64 0), i64 2)
  %gap_list_ = getelementptr inbounds %"class.adept::Stack", %"class.adept::Stack"* %this, i64 0, i32 4
  %13 = getelementptr inbounds %"class.std::__cxx11::list", %"class.std::__cxx11::list"* %gap_list_, i64 0, i32 0, i32 0, i32 0, i32 0
  %_M_next.i = getelementptr inbounds %"class.std::__cxx11::list", %"class.std::__cxx11::list"* %gap_list_, i64 0, i32 0, i32 0, i32 0, i32 0, i32 0
  %14 = load %"struct.std::__detail::_List_node_base"*, %"struct.std::__detail::_List_node_base"** %_M_next.i, align 8, !tbaa !28
  %cmp.i = icmp eq %"struct.std::__detail::_List_node_base"* %14, %13
  br i1 %cmp.i, label %if.then47, label %if.else49

if.then47:                                        ; preds = %if.end20
  %call1.i178 = tail call nonnull align 8 dereferenceable(8) %"class.std::basic_ostream"* @_ZSt16__ostream_insertIcSt11char_traitsIcEERSt13basic_ostreamIT_T0_ES6_PKS3_l(%"class.std::basic_ostream"* nonnull align 8 dereferenceable(8) %os, i8* nonnull getelementptr inbounds ([33 x i8], [33 x i8]* @.str.54, i64 0, i64 0), i64 32)
  br label %if.end56

if.else49:                                        ; preds = %if.end20
  %call1.i180 = tail call nonnull align 8 dereferenceable(8) %"class.std::basic_ostream"* @_ZSt16__ostream_insertIcSt11char_traitsIcEERSt13basic_ostreamIT_T0_ES6_PKS3_l(%"class.std::basic_ostream"* nonnull align 8 dereferenceable(8) %os, i8* nonnull getelementptr inbounds ([25 x i8], [25 x i8]* @.str.55, i64 0, i64 0), i64 24)
  %_M_size.i.i.i = getelementptr inbounds %"class.adept::Stack", %"class.adept::Stack"* %this, i64 0, i32 4, i32 0, i32 0, i32 0, i32 1
  %15 = load i64, i64* %_M_size.i.i.i, align 8, !tbaa !56
  %call.i181 = tail call nonnull align 8 dereferenceable(8) %"class.std::basic_ostream"* @_ZNSo9_M_insertImEERSoT_(%"class.std::basic_ostream"* nonnull dereferenceable(8) %os, i64 %15)
  %call1.i183 = tail call nonnull align 8 dereferenceable(8) %"class.std::basic_ostream"* @_ZSt16__ostream_insertIcSt11char_traitsIcEERSt13basic_ostreamIT_T0_ES6_PKS3_l(%"class.std::basic_ostream"* nonnull align 8 dereferenceable(8) %call.i181, i8* nonnull getelementptr inbounds ([8 x i8], [8 x i8]* @.str.56, i64 0, i64 0), i64 7)
  %it.sroa.0.022.i = load %"struct.std::__detail::_List_node_base"*, %"struct.std::__detail::_List_node_base"** %_M_next.i, align 8, !tbaa !28
  %cmp.i.not23.i = icmp eq %"struct.std::__detail::_List_node_base"* %it.sroa.0.022.i, %13
  br i1 %cmp.i.not23.i, label %_ZNK5adept5Stack10print_gapsERSo.exit, label %for.body.i

for.body.i:                                       ; preds = %if.else49, %for.body.i
  %it.sroa.0.024.i = phi %"struct.std::__detail::_List_node_base"* [ %it.sroa.0.0.i, %for.body.i ], [ %it.sroa.0.022.i, %if.else49 ]
  %_M_storage.i.i17.i = getelementptr inbounds %"struct.std::__detail::_List_node_base", %"struct.std::__detail::_List_node_base"* %it.sroa.0.024.i, i64 1
  %16 = bitcast %"struct.std::__detail::_List_node_base"* %_M_storage.i.i17.i to %"struct.adept::Gap"*
  %start.i = bitcast %"struct.std::__detail::_List_node_base"* %_M_storage.i.i17.i to i32*
  %17 = load i32, i32* %start.i, align 4, !tbaa !54
  %call7.i = tail call nonnull align 8 dereferenceable(8) %"class.std::basic_ostream"* @_ZNSolsEi(%"class.std::basic_ostream"* nonnull dereferenceable(8) %os, i32 %17)
  %call1.i16.i = tail call nonnull align 8 dereferenceable(8) %"class.std::basic_ostream"* @_ZSt16__ostream_insertIcSt11char_traitsIcEERSt13basic_ostreamIT_T0_ES6_PKS3_l(%"class.std::basic_ostream"* nonnull align 8 dereferenceable(8) %call7.i, i8* nonnull getelementptr inbounds ([2 x i8], [2 x i8]* @.str.35, i64 0, i64 0), i64 1)
  %end.i = getelementptr inbounds %"struct.adept::Gap", %"struct.adept::Gap"* %16, i64 0, i32 1
  %18 = load i32, i32* %end.i, align 4, !tbaa !52
  %call10.i = tail call nonnull align 8 dereferenceable(8) %"class.std::basic_ostream"* @_ZNSolsEi(%"class.std::basic_ostream"* nonnull dereferenceable(8) %call7.i, i32 %18)
  %call1.i.i = tail call nonnull align 8 dereferenceable(8) %"class.std::basic_ostream"* @_ZSt16__ostream_insertIcSt11char_traitsIcEERSt13basic_ostreamIT_T0_ES6_PKS3_l(%"class.std::basic_ostream"* nonnull align 8 dereferenceable(8) %call10.i, i8* nonnull getelementptr inbounds ([2 x i8], [2 x i8]* @.str.18, i64 0, i64 0), i64 1)
  %_M_next.i14.i = getelementptr inbounds %"struct.std::__detail::_List_node_base", %"struct.std::__detail::_List_node_base"* %it.sroa.0.024.i, i64 0, i32 0
  %it.sroa.0.0.i = load %"struct.std::__detail::_List_node_base"*, %"struct.std::__detail::_List_node_base"** %_M_next.i14.i, align 8, !tbaa !28
  %cmp.i.not.i = icmp eq %"struct.std::__detail::_List_node_base"* %it.sroa.0.0.i, %13
  br i1 %cmp.i.not.i, label %_ZNK5adept5Stack10print_gapsERSo.exit, label %for.body.i, !llvm.loop !70

_ZNK5adept5Stack10print_gapsERSo.exit:            ; preds = %for.body.i, %if.else49
  %call1.i185 = tail call nonnull align 8 dereferenceable(8) %"class.std::basic_ostream"* @_ZSt16__ostream_insertIcSt11char_traitsIcEERSt13basic_ostreamIT_T0_ES6_PKS3_l(%"class.std::basic_ostream"* nonnull align 8 dereferenceable(8) %os, i8* nonnull getelementptr inbounds ([3 x i8], [3 x i8]* @.str.53, i64 0, i64 0), i64 2)
  br label %if.end56

if.end56:                                         ; preds = %_ZNK5adept5Stack10print_gapsERSo.exit, %if.then47
  %call1.i187 = tail call nonnull align 8 dereferenceable(8) %"class.std::basic_ostream"* @_ZSt16__ostream_insertIcSt11char_traitsIcEERSt13basic_ostreamIT_T0_ES6_PKS3_l(%"class.std::basic_ostream"* nonnull align 8 dereferenceable(8) %os, i8* nonnull getelementptr inbounds ([24 x i8], [24 x i8]* @.str.57, i64 0, i64 0), i64 23)
  %gradients_initialized_.i = getelementptr inbounds %"class.adept::Stack", %"class.adept::Stack"* %this, i64 0, i32 10
  %19 = load i8, i8* %gradients_initialized_.i, align 8, !tbaa !39, !range !25
  %tobool.i.not = icmp eq i8 %19, 0
  br i1 %tobool.i.not, label %if.else67, label %if.then59

if.then59:                                        ; preds = %if.end56
  %call1.i189 = tail call nonnull align 8 dereferenceable(8) %"class.std::basic_ostream"* @_ZSt16__ostream_insertIcSt11char_traitsIcEERSt13basic_ostreamIT_T0_ES6_PKS3_l(%"class.std::basic_ostream"* nonnull align 8 dereferenceable(8) %os, i8* nonnull getelementptr inbounds ([7 x i8], [7 x i8]* @.str.44, i64 0, i64 0), i64 6)
  %20 = load i32, i32* %max_gradient_.i, align 8, !tbaa !63
  %call62 = tail call nonnull align 8 dereferenceable(8) %"class.std::basic_ostream"* @_ZNSolsEi(%"class.std::basic_ostream"* nonnull dereferenceable(8) %os, i32 %20)
  %call1.i192 = tail call nonnull align 8 dereferenceable(8) %"class.std::basic_ostream"* @_ZSt16__ostream_insertIcSt11char_traitsIcEERSt13basic_ostreamIT_T0_ES6_PKS3_l(%"class.std::basic_ostream"* nonnull align 8 dereferenceable(8) %call62, i8* nonnull getelementptr inbounds ([22 x i8], [22 x i8]* @.str.58, i64 0, i64 0), i64 21)
  br label %if.end72

if.else67:                                        ; preds = %if.end56
  %call1.i196 = tail call nonnull align 8 dereferenceable(8) %"class.std::basic_ostream"* @_ZSt16__ostream_insertIcSt11char_traitsIcEERSt13basic_ostreamIT_T0_ES6_PKS3_l(%"class.std::basic_ostream"* nonnull align 8 dereferenceable(8) %os, i8* nonnull getelementptr inbounds ([29 x i8], [29 x i8]* @.str.59, i64 0, i64 0), i64 28)
  br label %if.end72

if.end72:                                         ; preds = %if.else67, %if.then59
  %os.sink = phi %"class.std::basic_ostream"* [ %os, %if.else67 ], [ %call62, %if.then59 ]
  %n_allocated_gradients_.i197 = getelementptr inbounds %"class.adept::Stack", %"class.adept::Stack"* %this, i64 0, i32 7
  %21 = load i32, i32* %n_allocated_gradients_.i197, align 4, !tbaa !71
  %call70 = tail call nonnull align 8 dereferenceable(8) %"class.std::basic_ostream"* @_ZNSolsEi(%"class.std::basic_ostream"* nonnull dereferenceable(8) %os.sink, i32 %21)
  %call1.i199 = tail call nonnull align 8 dereferenceable(8) %"class.std::basic_ostream"* @_ZSt16__ostream_insertIcSt11char_traitsIcEERSt13basic_ostreamIT_T0_ES6_PKS3_l(%"class.std::basic_ostream"* nonnull align 8 dereferenceable(8) %call70, i8* nonnull getelementptr inbounds ([13 x i8], [13 x i8]* @.str.49, i64 0, i64 0), i64 12)
  %call1.i201 = tail call nonnull align 8 dereferenceable(8) %"class.std::basic_ostream"* @_ZSt16__ostream_insertIcSt11char_traitsIcEERSt13basic_ostreamIT_T0_ES6_PKS3_l(%"class.std::basic_ostream"* nonnull align 8 dereferenceable(8) %os, i8* nonnull getelementptr inbounds ([22 x i8], [22 x i8]* @.str.60, i64 0, i64 0), i64 21)
  %_M_finish.i.i = getelementptr inbounds %"class.adept::Stack", %"class.adept::Stack"* %this, i64 0, i32 3, i32 0, i32 0, i32 0, i32 1
  %22 = load i32*, i32** %_M_finish.i.i, align 8, !tbaa !76
  %_M_start.i.i = getelementptr inbounds %"class.adept::Stack", %"class.adept::Stack"* %this, i64 0, i32 3, i32 0, i32 0, i32 0, i32 0
  %23 = load i32*, i32** %_M_start.i.i, align 8, !tbaa !33
  %sub.ptr.lhs.cast.i.i = ptrtoint i32* %22 to i64
  %sub.ptr.rhs.cast.i.i = ptrtoint i32* %23 to i64
  %sub.ptr.sub.i.i = sub i64 %sub.ptr.lhs.cast.i.i, %sub.ptr.rhs.cast.i.i
  %24 = lshr exact i64 %sub.ptr.sub.i.i, 2
  %conv.i = trunc i64 %24 to i32
  %call75 = tail call nonnull align 8 dereferenceable(8) %"class.std::basic_ostream"* @_ZNSolsEi(%"class.std::basic_ostream"* nonnull dereferenceable(8) %os, i32 %conv.i)
  %call1.i203 = tail call nonnull align 8 dereferenceable(8) %"class.std::basic_ostream"* @_ZSt16__ostream_insertIcSt11char_traitsIcEERSt13basic_ostreamIT_T0_ES6_PKS3_l(%"class.std::basic_ostream"* nonnull align 8 dereferenceable(8) %call75, i8* nonnull getelementptr inbounds ([2 x i8], [2 x i8]* @.str.61, i64 0, i64 0), i64 1)
  %_M_finish.i.i204 = getelementptr inbounds %"class.adept::Stack", %"class.adept::Stack"* %this, i64 0, i32 2, i32 0, i32 0, i32 0, i32 1
  %25 = load i32*, i32** %_M_finish.i.i204, align 8, !tbaa !76
  %_M_start.i.i205 = getelementptr inbounds %"class.adept::Stack", %"class.adept::Stack"* %this, i64 0, i32 2, i32 0, i32 0, i32 0, i32 0
  %26 = load i32*, i32** %_M_start.i.i205, align 8, !tbaa !33
  %sub.ptr.lhs.cast.i.i206 = ptrtoint i32* %25 to i64
  %sub.ptr.rhs.cast.i.i207 = ptrtoint i32* %26 to i64
  %sub.ptr.sub.i.i208 = sub i64 %sub.ptr.lhs.cast.i.i206, %sub.ptr.rhs.cast.i.i207
  %27 = lshr exact i64 %sub.ptr.sub.i.i208, 2
  %conv.i209 = trunc i64 %27 to i32
  %call78 = tail call nonnull align 8 dereferenceable(8) %"class.std::basic_ostream"* @_ZNSolsEi(%"class.std::basic_ostream"* nonnull dereferenceable(8) %call75, i32 %conv.i209)
  %call1.i211 = tail call nonnull align 8 dereferenceable(8) %"class.std::basic_ostream"* @_ZSt16__ostream_insertIcSt11char_traitsIcEERSt13basic_ostreamIT_T0_ES6_PKS3_l(%"class.std::basic_ostream"* nonnull align 8 dereferenceable(8) %call78, i8* nonnull getelementptr inbounds ([2 x i8], [2 x i8]* @.str.20, i64 0, i64 0), i64 1)
  %28 = load i32*, i32** %_M_finish.i.i, align 8, !tbaa !76
  %29 = load i32*, i32** %_M_start.i.i, align 8, !tbaa !33
  %sub.ptr.lhs.cast.i.i214 = ptrtoint i32* %28 to i64
  %sub.ptr.rhs.cast.i.i215 = ptrtoint i32* %29 to i64
  %sub.ptr.sub.i.i216 = sub i64 %sub.ptr.lhs.cast.i.i214, %sub.ptr.rhs.cast.i.i215
  %30 = lshr exact i64 %sub.ptr.sub.i.i216, 2
  %conv.i217 = trunc i64 %30 to i32
  %cmp81 = icmp slt i32 %conv.i217, 11
  br i1 %cmp81, label %land.lhs.true82, label %if.end108

land.lhs.true82:                                  ; preds = %if.end72
  %31 = load i32*, i32** %_M_finish.i.i204, align 8, !tbaa !76
  %32 = load i32*, i32** %_M_start.i.i205, align 8, !tbaa !33
  %sub.ptr.lhs.cast.i.i220 = ptrtoint i32* %31 to i64
  %sub.ptr.rhs.cast.i.i221 = ptrtoint i32* %32 to i64
  %sub.ptr.sub.i.i222 = sub i64 %sub.ptr.lhs.cast.i.i220, %sub.ptr.rhs.cast.i.i221
  %33 = lshr exact i64 %sub.ptr.sub.i.i222, 2
  %conv.i223 = trunc i64 %33 to i32
  %cmp84 = icmp slt i32 %conv.i223, 11
  br i1 %cmp84, label %if.then85, label %if.end108

if.then85:                                        ; preds = %land.lhs.true82
  %call1.i225 = tail call nonnull align 8 dereferenceable(8) %"class.std::basic_ostream"* @_ZSt16__ostream_insertIcSt11char_traitsIcEERSt13basic_ostreamIT_T0_ES6_PKS3_l(%"class.std::basic_ostream"* nonnull align 8 dereferenceable(8) %os, i8* nonnull getelementptr inbounds ([27 x i8], [27 x i8]* @.str.62, i64 0, i64 0), i64 26)
  %34 = load i32*, i32** %_M_finish.i.i204, align 8, !tbaa !76
  %35 = load i32*, i32** %_M_start.i.i205, align 8, !tbaa !33
  %cmp88255.not = icmp eq i32* %34, %35
  br i1 %cmp88255.not, label %for.cond.cleanup, label %for.body

for.cond.cleanup:                                 ; preds = %for.body, %if.then85
  %call1.i227 = tail call nonnull align 8 dereferenceable(8) %"class.std::basic_ostream"* @_ZSt16__ostream_insertIcSt11char_traitsIcEERSt13basic_ostreamIT_T0_ES6_PKS3_l(%"class.std::basic_ostream"* nonnull align 8 dereferenceable(8) %os, i8* nonnull getelementptr inbounds ([28 x i8], [28 x i8]* @.str.63, i64 0, i64 0), i64 27)
  %36 = load i32*, i32** %_M_finish.i.i, align 8, !tbaa !76
  %37 = load i32*, i32** %_M_start.i.i, align 8, !tbaa !33
  %cmp97249.not = icmp eq i32* %36, %37
  br i1 %cmp97249.not, label %for.cond.cleanup98, label %for.body99

for.body:                                         ; preds = %if.then85, %for.body
  %i.0256 = phi i64 [ %inc, %for.body ], [ 0, %if.then85 ]
  %call1.i229 = tail call nonnull align 8 dereferenceable(8) %"class.std::basic_ostream"* @_ZSt16__ostream_insertIcSt11char_traitsIcEERSt13basic_ostreamIT_T0_ES6_PKS3_l(%"class.std::basic_ostream"* nonnull align 8 dereferenceable(8) %os, i8* nonnull getelementptr inbounds ([2 x i8], [2 x i8]* @.str.18, i64 0, i64 0), i64 1)
  %38 = load i32*, i32** %_M_start.i.i205, align 8, !tbaa !33
  %add.ptr.i = getelementptr inbounds i32, i32* %38, i64 %i.0256
  %39 = load i32, i32* %add.ptr.i, align 4, !tbaa !46
  %call92 = tail call nonnull align 8 dereferenceable(8) %"class.std::basic_ostream"* @_ZNSolsEi(%"class.std::basic_ostream"* nonnull dereferenceable(8) %os, i32 %39)
  %inc = add nuw i64 %i.0256, 1
  %40 = load i32*, i32** %_M_finish.i.i204, align 8, !tbaa !76
  %41 = load i32*, i32** %_M_start.i.i205, align 8, !tbaa !33
  %sub.ptr.lhs.cast.i = ptrtoint i32* %40 to i64
  %sub.ptr.rhs.cast.i = ptrtoint i32* %41 to i64
  %sub.ptr.sub.i = sub i64 %sub.ptr.lhs.cast.i, %sub.ptr.rhs.cast.i
  %sub.ptr.div.i = ashr exact i64 %sub.ptr.sub.i, 2
  %cmp88 = icmp ult i64 %inc, %sub.ptr.div.i
  br i1 %cmp88, label %for.body, label %for.cond.cleanup, !llvm.loop !77

for.cond.cleanup98:                               ; preds = %for.body99, %for.cond.cleanup
  %call1.i238 = tail call nonnull align 8 dereferenceable(8) %"class.std::basic_ostream"* @_ZSt16__ostream_insertIcSt11char_traitsIcEERSt13basic_ostreamIT_T0_ES6_PKS3_l(%"class.std::basic_ostream"* nonnull align 8 dereferenceable(8) %os, i8* nonnull getelementptr inbounds ([2 x i8], [2 x i8]* @.str.20, i64 0, i64 0), i64 1)
  br label %if.end108

for.body99:                                       ; preds = %for.cond.cleanup, %for.body99
  %i94.0250 = phi i64 [ %inc105, %for.body99 ], [ 0, %for.cond.cleanup ]
  %call1.i240 = tail call nonnull align 8 dereferenceable(8) %"class.std::basic_ostream"* @_ZSt16__ostream_insertIcSt11char_traitsIcEERSt13basic_ostreamIT_T0_ES6_PKS3_l(%"class.std::basic_ostream"* nonnull align 8 dereferenceable(8) %os, i8* nonnull getelementptr inbounds ([2 x i8], [2 x i8]* @.str.18, i64 0, i64 0), i64 1)
  %42 = load i32*, i32** %_M_start.i.i, align 8, !tbaa !33
  %add.ptr.i242 = getelementptr inbounds i32, i32* %42, i64 %i94.0250
  %43 = load i32, i32* %add.ptr.i242, align 4, !tbaa !46
  %call103 = tail call nonnull align 8 dereferenceable(8) %"class.std::basic_ostream"* @_ZNSolsEi(%"class.std::basic_ostream"* nonnull dereferenceable(8) %os, i32 %43)
  %inc105 = add nuw i64 %i94.0250, 1
  %44 = load i32*, i32** %_M_finish.i.i, align 8, !tbaa !76
  %45 = load i32*, i32** %_M_start.i.i, align 8, !tbaa !33
  %sub.ptr.lhs.cast.i233 = ptrtoint i32* %44 to i64
  %sub.ptr.rhs.cast.i234 = ptrtoint i32* %45 to i64
  %sub.ptr.sub.i235 = sub i64 %sub.ptr.lhs.cast.i233, %sub.ptr.rhs.cast.i234
  %sub.ptr.div.i236 = ashr exact i64 %sub.ptr.sub.i235, 2
  %cmp97 = icmp ult i64 %inc105, %sub.ptr.div.i236
  br i1 %cmp97, label %for.body99, label %for.cond.cleanup98, !llvm.loop !78

if.end108:                                        ; preds = %for.cond.cleanup98, %land.lhs.true82, %if.end72
  %call1.i244 = tail call nonnull align 8 dereferenceable(8) %"class.std::basic_ostream"* @_ZSt16__ostream_insertIcSt11char_traitsIcEERSt13basic_ostreamIT_T0_ES6_PKS3_l(%"class.std::basic_ostream"* nonnull align 8 dereferenceable(8) %os, i8* nonnull getelementptr inbounds ([51 x i8], [51 x i8]* @.str.64, i64 0, i64 0), i64 50)
  ret void
}

; Function Attrs: uwtable mustprogress
define dso_local void @_ZN5adept8internal16StackStorageOrig20grow_operation_stackEi(%"class.adept::internal::StackStorageOrig"* nocapture nonnull dereferenceable(40) %this, i32 %min) local_unnamed_addr #8 align 2 {
entry:
  %n_allocated_operations_ = getelementptr inbounds %"class.adept::internal::StackStorageOrig", %"class.adept::internal::StackStorageOrig"* %this, i64 0, i32 6
  %0 = load i32, i32* %n_allocated_operations_, align 4, !tbaa !75
  %mul = shl nsw i32 %0, 1
  %cmp = icmp sgt i32 %min, 0
  %add = add nsw i32 %0, %min
  %cmp3 = icmp slt i32 %mul, %add
  %or.cond = and i1 %cmp, %cmp3
  %add4 = select i1 %or.cond, i32 %min, i32 0
  %new_size.0 = add nsw i32 %add4, %mul
  %conv = sext i32 %new_size.0 to i64
  %1 = tail call { i64, i1 } @llvm.umul.with.overflow.i64(i64 %conv, i64 8)
  %2 = extractvalue { i64, i1 } %1, 1
  %3 = extractvalue { i64, i1 } %1, 0
  %4 = select i1 %2, i64 -1, i64 %3
  %call = tail call noalias nonnull i8* @_Znam(i64 %4) #38
  %5 = tail call { i64, i1 } @llvm.umul.with.overflow.i64(i64 %conv, i64 4)
  %6 = extractvalue { i64, i1 } %5, 1
  %7 = extractvalue { i64, i1 } %5, 0
  %8 = select i1 %6, i64 -1, i64 %7
  %call6 = tail call noalias nonnull i8* @_Znam(i64 %8) #38
  %multiplier_ = getelementptr inbounds %"class.adept::internal::StackStorageOrig", %"class.adept::internal::StackStorageOrig"* %this, i64 0, i32 1
  %9 = bitcast double** %multiplier_ to i8**
  %10 = load i8*, i8** %9, align 8, !tbaa !37
  %n_operations_ = getelementptr inbounds %"class.adept::internal::StackStorageOrig", %"class.adept::internal::StackStorageOrig"* %this, i64 0, i32 5
  %11 = load i32, i32* %n_operations_, align 8, !tbaa !74
  %conv7 = sext i32 %11 to i64
  %mul8 = shl nsw i64 %conv7, 3
  tail call void @llvm.memcpy.p0i8.p0i8.i64(i8* nonnull align 8 %call, i8* align 8 %10, i64 %mul8, i1 false)
  %index_ = getelementptr inbounds %"class.adept::internal::StackStorageOrig", %"class.adept::internal::StackStorageOrig"* %this, i64 0, i32 2
  %12 = bitcast i32** %index_ to i8**
  %13 = load i8*, i8** %12, align 8, !tbaa !38
  %mul11 = shl nsw i64 %conv7, 2
  tail call void @llvm.memcpy.p0i8.p0i8.i64(i8* nonnull align 4 %call6, i8* align 4 %13, i64 %mul11, i1 false)
  %isnull = icmp eq i8* %10, null
  %14 = bitcast i8* %13 to i32*
  br i1 %isnull, label %delete.end, label %delete.notnull

delete.notnull:                                   ; preds = %entry
  tail call void @_ZdaPv(i8* nonnull %10) #36
  %.pr = load i32*, i32** %index_, align 8, !tbaa !38
  br label %delete.end

delete.end:                                       ; preds = %delete.notnull, %entry
  %15 = phi i32* [ %.pr, %delete.notnull ], [ %14, %entry ]
  %isnull14 = icmp eq i32* %15, null
  br i1 %isnull14, label %delete.end16, label %delete.notnull15

delete.notnull15:                                 ; preds = %delete.end
  %16 = bitcast i32* %15 to i8*
  tail call void @_ZdaPv(i8* %16) #36
  br label %delete.end16

delete.end16:                                     ; preds = %delete.notnull15, %delete.end
  store i8* %call, i8** %9, align 8, !tbaa !37
  store i8* %call6, i8** %12, align 8, !tbaa !38
  store i32 %new_size.0, i32* %n_allocated_operations_, align 4, !tbaa !75
  ret void
}

; Function Attrs: uwtable
define dso_local void @_ZN5adept8internal16StackStorageOrig20grow_statement_stackEi(%"class.adept::internal::StackStorageOrig"* nocapture nonnull dereferenceable(40) %this, i32 %min) local_unnamed_addr #5 align 2 personality i8* bitcast (i32 (...)* @__gxx_personality_v0 to i8*) {
entry:
  %n_allocated_statements_ = getelementptr inbounds %"class.adept::internal::StackStorageOrig", %"class.adept::internal::StackStorageOrig"* %this, i64 0, i32 4
  %0 = load i32, i32* %n_allocated_statements_, align 4, !tbaa !73
  %mul = shl nsw i32 %0, 1
  %cmp = icmp sgt i32 %min, 0
  %add = add nsw i32 %0, %min
  %cmp3 = icmp slt i32 %mul, %add
  %or.cond = and i1 %cmp, %cmp3
  %add4 = select i1 %or.cond, i32 %min, i32 0
  %new_size.0 = add nsw i32 %add4, %mul
  %conv = sext i32 %new_size.0 to i64
  %1 = tail call { i64, i1 } @llvm.umul.with.overflow.i64(i64 %conv, i64 8)
  %2 = extractvalue { i64, i1 } %1, 1
  %3 = extractvalue { i64, i1 } %1, 0
  %4 = select i1 %2, i64 -1, i64 %3
  %call = tail call noalias nonnull i8* @_Znam(i64 %4) #38
  %5 = bitcast %"class.adept::internal::StackStorageOrig"* %this to i8**
  %6 = load i8*, i8** %5, align 8, !tbaa !35
  %n_statements_ = getelementptr inbounds %"class.adept::internal::StackStorageOrig", %"class.adept::internal::StackStorageOrig"* %this, i64 0, i32 3
  %7 = load i32, i32* %n_statements_, align 8, !tbaa !40
  %conv5 = sext i32 %7 to i64
  %mul6 = shl nsw i64 %conv5, 3
  tail call void @llvm.memcpy.p0i8.p0i8.i64(i8* nonnull align 4 %call, i8* align 4 %6, i64 %mul6, i1 false)
  %isnull = icmp eq i8* %6, null
  br i1 %isnull, label %delete.end, label %delete.notnull

delete.notnull:                                   ; preds = %entry
  tail call void @_ZdaPv(i8* nonnull %6) #36
  br label %delete.end

delete.end:                                       ; preds = %delete.notnull, %entry
  store i8* %call, i8** %5, align 8, !tbaa !35
  store i32 %new_size.0, i32* %n_allocated_statements_, align 4, !tbaa !73
  ret void
}

; Function Attrs: noreturn uwtable
define dso_local void @_ZN5adept8internal12cppblas_gemmEbcciiidPKdiS2_idPdi(i1 zeroext %Order, i8 signext %TransA, i8 signext %TransB, i32 %M, i32 %N, i32 %K, double %alpha, double* nocapture readnone %A, i32 %lda, double* nocapture readnone %B, i32 %ldb, double %beta, double* nocapture readnone %C, i32 %ldc) local_unnamed_addr #11 personality i8* bitcast (i32 (...)* @__gxx_personality_v0 to i8*) {
entry:
  %__dnew.i.i.i.i = alloca i64, align 8
  %ref.tmp = alloca %"class.std::__cxx11::basic_string", align 8
  %exception = tail call i8* @__cxa_allocate_exception(i64 40) #34
  %0 = bitcast %"class.std::__cxx11::basic_string"* %ref.tmp to i8*
  call void @llvm.lifetime.start.p0i8(i64 32, i8* nonnull %0) #34
  %1 = getelementptr inbounds %"class.std::__cxx11::basic_string", %"class.std::__cxx11::basic_string"* %ref.tmp, i64 0, i32 2
  %2 = bitcast %"class.std::__cxx11::basic_string"* %ref.tmp to %union.anon**
  store %union.anon* %1, %union.anon** %2, align 8, !tbaa !9
  %3 = bitcast %union.anon* %1 to i8*
  %4 = bitcast i64* %__dnew.i.i.i.i to i8*
  call void @llvm.lifetime.start.p0i8(i64 8, i8* nonnull %4) #34
  store i64 73, i64* %__dnew.i.i.i.i, align 8, !tbaa !10
  %call5.i.i.i9.i9 = invoke i8* @_ZNSt7__cxx1112basic_stringIcSt11char_traitsIcESaIcEE9_M_createERmm(%"class.std::__cxx11::basic_string"* nonnull dereferenceable(32) %ref.tmp, i64* nonnull align 8 dereferenceable(8) %__dnew.i.i.i.i, i64 0)
          to label %call5.i.i.i9.i.noexc unwind label %ehcleanup.thread

call5.i.i.i9.i.noexc:                             ; preds = %entry
  %_M_p.i13.i.i.i.i = getelementptr inbounds %"class.std::__cxx11::basic_string", %"class.std::__cxx11::basic_string"* %ref.tmp, i64 0, i32 0, i32 0
  store i8* %call5.i.i.i9.i9, i8** %_M_p.i13.i.i.i.i, align 8, !tbaa !11
  %5 = load i64, i64* %__dnew.i.i.i.i, align 8, !tbaa !10
  %_M_allocated_capacity.i.i.i.i.i = getelementptr inbounds %"class.std::__cxx11::basic_string", %"class.std::__cxx11::basic_string"* %ref.tmp, i64 0, i32 2, i32 0
  store i64 %5, i64* %_M_allocated_capacity.i.i.i.i.i, align 8, !tbaa !12
  call void @llvm.memcpy.p0i8.p0i8.i64(i8* nonnull align 1 dereferenceable(73) %call5.i.i.i9.i9, i8* nonnull align 1 dereferenceable(73) getelementptr inbounds ([74 x i8], [74 x i8]* @.str.65, i64 0, i64 0), i64 73, i1 false) #34
  %_M_string_length.i.i.i.i.i.i = getelementptr inbounds %"class.std::__cxx11::basic_string", %"class.std::__cxx11::basic_string"* %ref.tmp, i64 0, i32 1
  store i64 %5, i64* %_M_string_length.i.i.i.i.i.i, align 8, !tbaa !2
  %arrayidx.i.i.i.i.i = getelementptr inbounds i8, i8* %call5.i.i.i9.i9, i64 %5
  store i8 0, i8* %arrayidx.i.i.i.i.i, align 1, !tbaa !12
  call void @llvm.lifetime.end.p0i8(i64 8, i8* nonnull %4) #34
  %6 = bitcast i8* %exception to i32 (...)***
  %message_.i.i = getelementptr inbounds i8, i8* %exception, i64 8
  %7 = bitcast i8* %message_.i.i to %"class.std::__cxx11::basic_string"*
  %8 = getelementptr inbounds i8, i8* %exception, i64 24
  %9 = bitcast i8* %message_.i.i to i8**
  store i8* %8, i8** %9, align 8, !tbaa !9
  %_M_string_length.i.i.i.i.i = getelementptr inbounds i8, i8* %exception, i64 16
  %10 = bitcast i8* %_M_string_length.i.i.i.i.i to i64*
  store i64 0, i64* %10, align 8, !tbaa !2
  store i8 0, i8* %8, align 1, !tbaa !12
  store i32 (...)** bitcast (i8** getelementptr inbounds ({ [5 x i8*] }, { [5 x i8*] }* @_ZTVN5adept21feature_not_availableE, i64 0, inrange i32 0, i64 2) to i32 (...)**), i32 (...)*** %6, align 8, !tbaa !17
  invoke void @_ZNSt7__cxx1112basic_stringIcSt11char_traitsIcESaIcEE9_M_assignERKS4_(%"class.std::__cxx11::basic_string"* nonnull dereferenceable(32) %7, %"class.std::__cxx11::basic_string"* nonnull align 8 dereferenceable(32) %ref.tmp)
          to label %invoke.cont3 unwind label %lpad.i

lpad.i:                                           ; preds = %call5.i.i.i9.i.noexc
  %11 = landingpad { i8*, i32 }
          cleanup
  store i32 (...)** bitcast (i8** getelementptr inbounds ({ [5 x i8*] }, { [5 x i8*] }* @_ZTVN5adept9exceptionE, i64 0, inrange i32 0, i64 2) to i32 (...)**), i32 (...)*** %6, align 8, !tbaa !17
  %12 = load i8*, i8** %9, align 8, !tbaa !11
  %cmp.i.i.i.i.i = icmp eq i8* %12, %8
  br i1 %cmp.i.i.i.i.i, label %lpad2.body, label %if.then.i.i.i.i

if.then.i.i.i.i:                                  ; preds = %lpad.i
  call void @_ZdlPv(i8* %12) #34
  br label %lpad2.body

invoke.cont3:                                     ; preds = %call5.i.i.i9.i.noexc
  invoke void @__cxa_throw(i8* nonnull %exception, i8* bitcast ({ i8*, i8*, i8* }* @_ZTIN5adept21feature_not_availableE to i8*), i8* bitcast (void (%"class.adept::exception"*)* @_ZN5adept9exceptionD2Ev to i8*)) #35
          to label %unreachable unwind label %lpad2.body.thread

ehcleanup.thread:                                 ; preds = %entry
  %13 = landingpad { i8*, i32 }
          cleanup
  call void @llvm.lifetime.end.p0i8(i64 32, i8* nonnull %0) #34
  br label %cleanup.action

lpad2.body:                                       ; preds = %lpad.i, %if.then.i.i.i.i
  %14 = bitcast i8* %exception to %"class.std::exception"*
  call void @_ZNSt9exceptionD2Ev(%"class.std::exception"* nonnull dereferenceable(8) %14) #34
  %15 = load i8*, i8** %_M_p.i13.i.i.i.i, align 8, !tbaa !11
  %cmp.i.i.i = icmp eq i8* %15, %3
  br i1 %cmp.i.i.i, label %ehcleanup, label %if.then.i.i.thread

if.then.i.i.thread:                               ; preds = %lpad2.body
  call void @_ZdlPv(i8* %15) #34
  call void @llvm.lifetime.end.p0i8(i64 32, i8* nonnull %0) #34
  br label %cleanup.action

lpad2.body.thread:                                ; preds = %invoke.cont3
  %16 = landingpad { i8*, i32 }
          cleanup
  %17 = load i8*, i8** %_M_p.i13.i.i.i.i, align 8, !tbaa !11
  %cmp.i.i.i16 = icmp eq i8* %17, %3
  br i1 %cmp.i.i.i16, label %ehcleanup.thread21, label %if.then.i.i

ehcleanup.thread21:                               ; preds = %lpad2.body.thread
  call void @llvm.lifetime.end.p0i8(i64 32, i8* nonnull %0) #34
  br label %eh.resume

if.then.i.i:                                      ; preds = %lpad2.body.thread
  call void @_ZdlPv(i8* %17) #34
  call void @llvm.lifetime.end.p0i8(i64 32, i8* nonnull %0) #34
  br label %eh.resume

ehcleanup:                                        ; preds = %lpad2.body
  call void @llvm.lifetime.end.p0i8(i64 32, i8* nonnull %0) #34
  br label %cleanup.action

cleanup.action:                                   ; preds = %if.then.i.i.thread, %ehcleanup, %ehcleanup.thread
  %.pn13 = phi { i8*, i32 } [ %13, %ehcleanup.thread ], [ %11, %ehcleanup ], [ %11, %if.then.i.i.thread ]
  call void @__cxa_free_exception(i8* %exception) #34
  br label %eh.resume

eh.resume:                                        ; preds = %if.then.i.i, %ehcleanup.thread21, %cleanup.action
  %.pn12 = phi { i8*, i32 } [ %.pn13, %cleanup.action ], [ %16, %if.then.i.i ], [ %16, %ehcleanup.thread21 ]
  resume { i8*, i32 } %.pn12

unreachable:                                      ; preds = %invoke.cont3
  unreachable
}

; Function Attrs: noreturn uwtable
define dso_local void @_ZN5adept8internal12cppblas_gemmEbcciiifPKfiS2_ifPfi(i1 zeroext %Order, i8 signext %TransA, i8 signext %TransB, i32 %M, i32 %N, i32 %K, float %alpha, float* nocapture readnone %A, i32 %lda, float* nocapture readnone %B, i32 %ldb, float %beta, float* nocapture readnone %C, i32 %ldc) local_unnamed_addr #11 personality i8* bitcast (i32 (...)* @__gxx_personality_v0 to i8*) {
entry:
  %__dnew.i.i.i.i = alloca i64, align 8
  %ref.tmp = alloca %"class.std::__cxx11::basic_string", align 8
  %exception = tail call i8* @__cxa_allocate_exception(i64 40) #34
  %0 = bitcast %"class.std::__cxx11::basic_string"* %ref.tmp to i8*
  call void @llvm.lifetime.start.p0i8(i64 32, i8* nonnull %0) #34
  %1 = getelementptr inbounds %"class.std::__cxx11::basic_string", %"class.std::__cxx11::basic_string"* %ref.tmp, i64 0, i32 2
  %2 = bitcast %"class.std::__cxx11::basic_string"* %ref.tmp to %union.anon**
  store %union.anon* %1, %union.anon** %2, align 8, !tbaa !9
  %3 = bitcast %union.anon* %1 to i8*
  %4 = bitcast i64* %__dnew.i.i.i.i to i8*
  call void @llvm.lifetime.start.p0i8(i64 8, i8* nonnull %4) #34
  store i64 73, i64* %__dnew.i.i.i.i, align 8, !tbaa !10
  %call5.i.i.i9.i9 = invoke i8* @_ZNSt7__cxx1112basic_stringIcSt11char_traitsIcESaIcEE9_M_createERmm(%"class.std::__cxx11::basic_string"* nonnull dereferenceable(32) %ref.tmp, i64* nonnull align 8 dereferenceable(8) %__dnew.i.i.i.i, i64 0)
          to label %call5.i.i.i9.i.noexc unwind label %ehcleanup.thread

call5.i.i.i9.i.noexc:                             ; preds = %entry
  %_M_p.i13.i.i.i.i = getelementptr inbounds %"class.std::__cxx11::basic_string", %"class.std::__cxx11::basic_string"* %ref.tmp, i64 0, i32 0, i32 0
  store i8* %call5.i.i.i9.i9, i8** %_M_p.i13.i.i.i.i, align 8, !tbaa !11
  %5 = load i64, i64* %__dnew.i.i.i.i, align 8, !tbaa !10
  %_M_allocated_capacity.i.i.i.i.i = getelementptr inbounds %"class.std::__cxx11::basic_string", %"class.std::__cxx11::basic_string"* %ref.tmp, i64 0, i32 2, i32 0
  store i64 %5, i64* %_M_allocated_capacity.i.i.i.i.i, align 8, !tbaa !12
  call void @llvm.memcpy.p0i8.p0i8.i64(i8* nonnull align 1 dereferenceable(73) %call5.i.i.i9.i9, i8* nonnull align 1 dereferenceable(73) getelementptr inbounds ([74 x i8], [74 x i8]* @.str.65, i64 0, i64 0), i64 73, i1 false) #34
  %_M_string_length.i.i.i.i.i.i = getelementptr inbounds %"class.std::__cxx11::basic_string", %"class.std::__cxx11::basic_string"* %ref.tmp, i64 0, i32 1
  store i64 %5, i64* %_M_string_length.i.i.i.i.i.i, align 8, !tbaa !2
  %arrayidx.i.i.i.i.i = getelementptr inbounds i8, i8* %call5.i.i.i9.i9, i64 %5
  store i8 0, i8* %arrayidx.i.i.i.i.i, align 1, !tbaa !12
  call void @llvm.lifetime.end.p0i8(i64 8, i8* nonnull %4) #34
  %6 = bitcast i8* %exception to i32 (...)***
  %message_.i.i = getelementptr inbounds i8, i8* %exception, i64 8
  %7 = bitcast i8* %message_.i.i to %"class.std::__cxx11::basic_string"*
  %8 = getelementptr inbounds i8, i8* %exception, i64 24
  %9 = bitcast i8* %message_.i.i to i8**
  store i8* %8, i8** %9, align 8, !tbaa !9
  %_M_string_length.i.i.i.i.i = getelementptr inbounds i8, i8* %exception, i64 16
  %10 = bitcast i8* %_M_string_length.i.i.i.i.i to i64*
  store i64 0, i64* %10, align 8, !tbaa !2
  store i8 0, i8* %8, align 1, !tbaa !12
  store i32 (...)** bitcast (i8** getelementptr inbounds ({ [5 x i8*] }, { [5 x i8*] }* @_ZTVN5adept21feature_not_availableE, i64 0, inrange i32 0, i64 2) to i32 (...)**), i32 (...)*** %6, align 8, !tbaa !17
  invoke void @_ZNSt7__cxx1112basic_stringIcSt11char_traitsIcESaIcEE9_M_assignERKS4_(%"class.std::__cxx11::basic_string"* nonnull dereferenceable(32) %7, %"class.std::__cxx11::basic_string"* nonnull align 8 dereferenceable(32) %ref.tmp)
          to label %invoke.cont3 unwind label %lpad.i

lpad.i:                                           ; preds = %call5.i.i.i9.i.noexc
  %11 = landingpad { i8*, i32 }
          cleanup
  store i32 (...)** bitcast (i8** getelementptr inbounds ({ [5 x i8*] }, { [5 x i8*] }* @_ZTVN5adept9exceptionE, i64 0, inrange i32 0, i64 2) to i32 (...)**), i32 (...)*** %6, align 8, !tbaa !17
  %12 = load i8*, i8** %9, align 8, !tbaa !11
  %cmp.i.i.i.i.i = icmp eq i8* %12, %8
  br i1 %cmp.i.i.i.i.i, label %lpad2.body, label %if.then.i.i.i.i

if.then.i.i.i.i:                                  ; preds = %lpad.i
  call void @_ZdlPv(i8* %12) #34
  br label %lpad2.body

invoke.cont3:                                     ; preds = %call5.i.i.i9.i.noexc
  invoke void @__cxa_throw(i8* nonnull %exception, i8* bitcast ({ i8*, i8*, i8* }* @_ZTIN5adept21feature_not_availableE to i8*), i8* bitcast (void (%"class.adept::exception"*)* @_ZN5adept9exceptionD2Ev to i8*)) #35
          to label %unreachable unwind label %lpad2.body.thread

ehcleanup.thread:                                 ; preds = %entry
  %13 = landingpad { i8*, i32 }
          cleanup
  call void @llvm.lifetime.end.p0i8(i64 32, i8* nonnull %0) #34
  br label %cleanup.action

lpad2.body:                                       ; preds = %lpad.i, %if.then.i.i.i.i
  %14 = bitcast i8* %exception to %"class.std::exception"*
  call void @_ZNSt9exceptionD2Ev(%"class.std::exception"* nonnull dereferenceable(8) %14) #34
  %15 = load i8*, i8** %_M_p.i13.i.i.i.i, align 8, !tbaa !11
  %cmp.i.i.i = icmp eq i8* %15, %3
  br i1 %cmp.i.i.i, label %ehcleanup, label %if.then.i.i.thread

if.then.i.i.thread:                               ; preds = %lpad2.body
  call void @_ZdlPv(i8* %15) #34
  call void @llvm.lifetime.end.p0i8(i64 32, i8* nonnull %0) #34
  br label %cleanup.action

lpad2.body.thread:                                ; preds = %invoke.cont3
  %16 = landingpad { i8*, i32 }
          cleanup
  %17 = load i8*, i8** %_M_p.i13.i.i.i.i, align 8, !tbaa !11
  %cmp.i.i.i16 = icmp eq i8* %17, %3
  br i1 %cmp.i.i.i16, label %ehcleanup.thread21, label %if.then.i.i

ehcleanup.thread21:                               ; preds = %lpad2.body.thread
  call void @llvm.lifetime.end.p0i8(i64 32, i8* nonnull %0) #34
  br label %eh.resume

if.then.i.i:                                      ; preds = %lpad2.body.thread
  call void @_ZdlPv(i8* %17) #34
  call void @llvm.lifetime.end.p0i8(i64 32, i8* nonnull %0) #34
  br label %eh.resume

ehcleanup:                                        ; preds = %lpad2.body
  call void @llvm.lifetime.end.p0i8(i64 32, i8* nonnull %0) #34
  br label %cleanup.action

cleanup.action:                                   ; preds = %if.then.i.i.thread, %ehcleanup, %ehcleanup.thread
  %.pn13 = phi { i8*, i32 } [ %13, %ehcleanup.thread ], [ %11, %ehcleanup ], [ %11, %if.then.i.i.thread ]
  call void @__cxa_free_exception(i8* %exception) #34
  br label %eh.resume

eh.resume:                                        ; preds = %if.then.i.i, %ehcleanup.thread21, %cleanup.action
  %.pn12 = phi { i8*, i32 } [ %.pn13, %cleanup.action ], [ %16, %if.then.i.i ], [ %16, %ehcleanup.thread21 ]
  resume { i8*, i32 } %.pn12

unreachable:                                      ; preds = %invoke.cont3
  unreachable
}

; Function Attrs: noreturn uwtable
define dso_local void @_ZN5adept8internal12cppblas_gemvEbciidPKdiS2_idPdi(i1 zeroext %Order, i8 signext %TransA, i32 %M, i32 %N, double %alpha, double* nocapture readnone %A, i32 %lda, double* nocapture readnone %X, i32 %incX, double %beta, double* nocapture readnone %Y, i32 %incY) local_unnamed_addr #11 personality i8* bitcast (i32 (...)* @__gxx_personality_v0 to i8*) {
entry:
  %__dnew.i.i.i.i = alloca i64, align 8
  %ref.tmp = alloca %"class.std::__cxx11::basic_string", align 8
  %exception = tail call i8* @__cxa_allocate_exception(i64 40) #34
  %0 = bitcast %"class.std::__cxx11::basic_string"* %ref.tmp to i8*
  call void @llvm.lifetime.start.p0i8(i64 32, i8* nonnull %0) #34
  %1 = getelementptr inbounds %"class.std::__cxx11::basic_string", %"class.std::__cxx11::basic_string"* %ref.tmp, i64 0, i32 2
  %2 = bitcast %"class.std::__cxx11::basic_string"* %ref.tmp to %union.anon**
  store %union.anon* %1, %union.anon** %2, align 8, !tbaa !9
  %3 = bitcast %union.anon* %1 to i8*
  %4 = bitcast i64* %__dnew.i.i.i.i to i8*
  call void @llvm.lifetime.start.p0i8(i64 8, i8* nonnull %4) #34
  store i64 73, i64* %__dnew.i.i.i.i, align 8, !tbaa !10
  %call5.i.i.i9.i9 = invoke i8* @_ZNSt7__cxx1112basic_stringIcSt11char_traitsIcESaIcEE9_M_createERmm(%"class.std::__cxx11::basic_string"* nonnull dereferenceable(32) %ref.tmp, i64* nonnull align 8 dereferenceable(8) %__dnew.i.i.i.i, i64 0)
          to label %call5.i.i.i9.i.noexc unwind label %ehcleanup.thread

call5.i.i.i9.i.noexc:                             ; preds = %entry
  %_M_p.i13.i.i.i.i = getelementptr inbounds %"class.std::__cxx11::basic_string", %"class.std::__cxx11::basic_string"* %ref.tmp, i64 0, i32 0, i32 0
  store i8* %call5.i.i.i9.i9, i8** %_M_p.i13.i.i.i.i, align 8, !tbaa !11
  %5 = load i64, i64* %__dnew.i.i.i.i, align 8, !tbaa !10
  %_M_allocated_capacity.i.i.i.i.i = getelementptr inbounds %"class.std::__cxx11::basic_string", %"class.std::__cxx11::basic_string"* %ref.tmp, i64 0, i32 2, i32 0
  store i64 %5, i64* %_M_allocated_capacity.i.i.i.i.i, align 8, !tbaa !12
  call void @llvm.memcpy.p0i8.p0i8.i64(i8* nonnull align 1 dereferenceable(73) %call5.i.i.i9.i9, i8* nonnull align 1 dereferenceable(73) getelementptr inbounds ([74 x i8], [74 x i8]* @.str.66, i64 0, i64 0), i64 73, i1 false) #34
  %_M_string_length.i.i.i.i.i.i = getelementptr inbounds %"class.std::__cxx11::basic_string", %"class.std::__cxx11::basic_string"* %ref.tmp, i64 0, i32 1
  store i64 %5, i64* %_M_string_length.i.i.i.i.i.i, align 8, !tbaa !2
  %arrayidx.i.i.i.i.i = getelementptr inbounds i8, i8* %call5.i.i.i9.i9, i64 %5
  store i8 0, i8* %arrayidx.i.i.i.i.i, align 1, !tbaa !12
  call void @llvm.lifetime.end.p0i8(i64 8, i8* nonnull %4) #34
  %6 = bitcast i8* %exception to i32 (...)***
  %message_.i.i = getelementptr inbounds i8, i8* %exception, i64 8
  %7 = bitcast i8* %message_.i.i to %"class.std::__cxx11::basic_string"*
  %8 = getelementptr inbounds i8, i8* %exception, i64 24
  %9 = bitcast i8* %message_.i.i to i8**
  store i8* %8, i8** %9, align 8, !tbaa !9
  %_M_string_length.i.i.i.i.i = getelementptr inbounds i8, i8* %exception, i64 16
  %10 = bitcast i8* %_M_string_length.i.i.i.i.i to i64*
  store i64 0, i64* %10, align 8, !tbaa !2
  store i8 0, i8* %8, align 1, !tbaa !12
  store i32 (...)** bitcast (i8** getelementptr inbounds ({ [5 x i8*] }, { [5 x i8*] }* @_ZTVN5adept21feature_not_availableE, i64 0, inrange i32 0, i64 2) to i32 (...)**), i32 (...)*** %6, align 8, !tbaa !17
  invoke void @_ZNSt7__cxx1112basic_stringIcSt11char_traitsIcESaIcEE9_M_assignERKS4_(%"class.std::__cxx11::basic_string"* nonnull dereferenceable(32) %7, %"class.std::__cxx11::basic_string"* nonnull align 8 dereferenceable(32) %ref.tmp)
          to label %invoke.cont3 unwind label %lpad.i

lpad.i:                                           ; preds = %call5.i.i.i9.i.noexc
  %11 = landingpad { i8*, i32 }
          cleanup
  store i32 (...)** bitcast (i8** getelementptr inbounds ({ [5 x i8*] }, { [5 x i8*] }* @_ZTVN5adept9exceptionE, i64 0, inrange i32 0, i64 2) to i32 (...)**), i32 (...)*** %6, align 8, !tbaa !17
  %12 = load i8*, i8** %9, align 8, !tbaa !11
  %cmp.i.i.i.i.i = icmp eq i8* %12, %8
  br i1 %cmp.i.i.i.i.i, label %lpad2.body, label %if.then.i.i.i.i

if.then.i.i.i.i:                                  ; preds = %lpad.i
  call void @_ZdlPv(i8* %12) #34
  br label %lpad2.body

invoke.cont3:                                     ; preds = %call5.i.i.i9.i.noexc
  invoke void @__cxa_throw(i8* nonnull %exception, i8* bitcast ({ i8*, i8*, i8* }* @_ZTIN5adept21feature_not_availableE to i8*), i8* bitcast (void (%"class.adept::exception"*)* @_ZN5adept9exceptionD2Ev to i8*)) #35
          to label %unreachable unwind label %lpad2.body.thread

ehcleanup.thread:                                 ; preds = %entry
  %13 = landingpad { i8*, i32 }
          cleanup
  call void @llvm.lifetime.end.p0i8(i64 32, i8* nonnull %0) #34
  br label %cleanup.action

lpad2.body:                                       ; preds = %lpad.i, %if.then.i.i.i.i
  %14 = bitcast i8* %exception to %"class.std::exception"*
  call void @_ZNSt9exceptionD2Ev(%"class.std::exception"* nonnull dereferenceable(8) %14) #34
  %15 = load i8*, i8** %_M_p.i13.i.i.i.i, align 8, !tbaa !11
  %cmp.i.i.i = icmp eq i8* %15, %3
  br i1 %cmp.i.i.i, label %ehcleanup, label %if.then.i.i.thread

if.then.i.i.thread:                               ; preds = %lpad2.body
  call void @_ZdlPv(i8* %15) #34
  call void @llvm.lifetime.end.p0i8(i64 32, i8* nonnull %0) #34
  br label %cleanup.action

lpad2.body.thread:                                ; preds = %invoke.cont3
  %16 = landingpad { i8*, i32 }
          cleanup
  %17 = load i8*, i8** %_M_p.i13.i.i.i.i, align 8, !tbaa !11
  %cmp.i.i.i16 = icmp eq i8* %17, %3
  br i1 %cmp.i.i.i16, label %ehcleanup.thread21, label %if.then.i.i

ehcleanup.thread21:                               ; preds = %lpad2.body.thread
  call void @llvm.lifetime.end.p0i8(i64 32, i8* nonnull %0) #34
  br label %eh.resume

if.then.i.i:                                      ; preds = %lpad2.body.thread
  call void @_ZdlPv(i8* %17) #34
  call void @llvm.lifetime.end.p0i8(i64 32, i8* nonnull %0) #34
  br label %eh.resume

ehcleanup:                                        ; preds = %lpad2.body
  call void @llvm.lifetime.end.p0i8(i64 32, i8* nonnull %0) #34
  br label %cleanup.action

cleanup.action:                                   ; preds = %if.then.i.i.thread, %ehcleanup, %ehcleanup.thread
  %.pn13 = phi { i8*, i32 } [ %13, %ehcleanup.thread ], [ %11, %ehcleanup ], [ %11, %if.then.i.i.thread ]
  call void @__cxa_free_exception(i8* %exception) #34
  br label %eh.resume

eh.resume:                                        ; preds = %if.then.i.i, %ehcleanup.thread21, %cleanup.action
  %.pn12 = phi { i8*, i32 } [ %.pn13, %cleanup.action ], [ %16, %if.then.i.i ], [ %16, %ehcleanup.thread21 ]
  resume { i8*, i32 } %.pn12

unreachable:                                      ; preds = %invoke.cont3
  unreachable
}

; Function Attrs: noreturn uwtable
define dso_local void @_ZN5adept8internal12cppblas_gemvEbciifPKfiS2_ifPfi(i1 zeroext %Order, i8 signext %TransA, i32 %M, i32 %N, float %alpha, float* nocapture readnone %A, i32 %lda, float* nocapture readnone %X, i32 %incX, float %beta, float* nocapture readnone %Y, i32 %incY) local_unnamed_addr #11 personality i8* bitcast (i32 (...)* @__gxx_personality_v0 to i8*) {
entry:
  %__dnew.i.i.i.i = alloca i64, align 8
  %ref.tmp = alloca %"class.std::__cxx11::basic_string", align 8
  %exception = tail call i8* @__cxa_allocate_exception(i64 40) #34
  %0 = bitcast %"class.std::__cxx11::basic_string"* %ref.tmp to i8*
  call void @llvm.lifetime.start.p0i8(i64 32, i8* nonnull %0) #34
  %1 = getelementptr inbounds %"class.std::__cxx11::basic_string", %"class.std::__cxx11::basic_string"* %ref.tmp, i64 0, i32 2
  %2 = bitcast %"class.std::__cxx11::basic_string"* %ref.tmp to %union.anon**
  store %union.anon* %1, %union.anon** %2, align 8, !tbaa !9
  %3 = bitcast %union.anon* %1 to i8*
  %4 = bitcast i64* %__dnew.i.i.i.i to i8*
  call void @llvm.lifetime.start.p0i8(i64 8, i8* nonnull %4) #34
  store i64 73, i64* %__dnew.i.i.i.i, align 8, !tbaa !10
  %call5.i.i.i9.i9 = invoke i8* @_ZNSt7__cxx1112basic_stringIcSt11char_traitsIcESaIcEE9_M_createERmm(%"class.std::__cxx11::basic_string"* nonnull dereferenceable(32) %ref.tmp, i64* nonnull align 8 dereferenceable(8) %__dnew.i.i.i.i, i64 0)
          to label %call5.i.i.i9.i.noexc unwind label %ehcleanup.thread

call5.i.i.i9.i.noexc:                             ; preds = %entry
  %_M_p.i13.i.i.i.i = getelementptr inbounds %"class.std::__cxx11::basic_string", %"class.std::__cxx11::basic_string"* %ref.tmp, i64 0, i32 0, i32 0
  store i8* %call5.i.i.i9.i9, i8** %_M_p.i13.i.i.i.i, align 8, !tbaa !11
  %5 = load i64, i64* %__dnew.i.i.i.i, align 8, !tbaa !10
  %_M_allocated_capacity.i.i.i.i.i = getelementptr inbounds %"class.std::__cxx11::basic_string", %"class.std::__cxx11::basic_string"* %ref.tmp, i64 0, i32 2, i32 0
  store i64 %5, i64* %_M_allocated_capacity.i.i.i.i.i, align 8, !tbaa !12
  call void @llvm.memcpy.p0i8.p0i8.i64(i8* nonnull align 1 dereferenceable(73) %call5.i.i.i9.i9, i8* nonnull align 1 dereferenceable(73) getelementptr inbounds ([74 x i8], [74 x i8]* @.str.66, i64 0, i64 0), i64 73, i1 false) #34
  %_M_string_length.i.i.i.i.i.i = getelementptr inbounds %"class.std::__cxx11::basic_string", %"class.std::__cxx11::basic_string"* %ref.tmp, i64 0, i32 1
  store i64 %5, i64* %_M_string_length.i.i.i.i.i.i, align 8, !tbaa !2
  %arrayidx.i.i.i.i.i = getelementptr inbounds i8, i8* %call5.i.i.i9.i9, i64 %5
  store i8 0, i8* %arrayidx.i.i.i.i.i, align 1, !tbaa !12
  call void @llvm.lifetime.end.p0i8(i64 8, i8* nonnull %4) #34
  %6 = bitcast i8* %exception to i32 (...)***
  %message_.i.i = getelementptr inbounds i8, i8* %exception, i64 8
  %7 = bitcast i8* %message_.i.i to %"class.std::__cxx11::basic_string"*
  %8 = getelementptr inbounds i8, i8* %exception, i64 24
  %9 = bitcast i8* %message_.i.i to i8**
  store i8* %8, i8** %9, align 8, !tbaa !9
  %_M_string_length.i.i.i.i.i = getelementptr inbounds i8, i8* %exception, i64 16
  %10 = bitcast i8* %_M_string_length.i.i.i.i.i to i64*
  store i64 0, i64* %10, align 8, !tbaa !2
  store i8 0, i8* %8, align 1, !tbaa !12
  store i32 (...)** bitcast (i8** getelementptr inbounds ({ [5 x i8*] }, { [5 x i8*] }* @_ZTVN5adept21feature_not_availableE, i64 0, inrange i32 0, i64 2) to i32 (...)**), i32 (...)*** %6, align 8, !tbaa !17
  invoke void @_ZNSt7__cxx1112basic_stringIcSt11char_traitsIcESaIcEE9_M_assignERKS4_(%"class.std::__cxx11::basic_string"* nonnull dereferenceable(32) %7, %"class.std::__cxx11::basic_string"* nonnull align 8 dereferenceable(32) %ref.tmp)
          to label %invoke.cont3 unwind label %lpad.i

lpad.i:                                           ; preds = %call5.i.i.i9.i.noexc
  %11 = landingpad { i8*, i32 }
          cleanup
  store i32 (...)** bitcast (i8** getelementptr inbounds ({ [5 x i8*] }, { [5 x i8*] }* @_ZTVN5adept9exceptionE, i64 0, inrange i32 0, i64 2) to i32 (...)**), i32 (...)*** %6, align 8, !tbaa !17
  %12 = load i8*, i8** %9, align 8, !tbaa !11
  %cmp.i.i.i.i.i = icmp eq i8* %12, %8
  br i1 %cmp.i.i.i.i.i, label %lpad2.body, label %if.then.i.i.i.i

if.then.i.i.i.i:                                  ; preds = %lpad.i
  call void @_ZdlPv(i8* %12) #34
  br label %lpad2.body

invoke.cont3:                                     ; preds = %call5.i.i.i9.i.noexc
  invoke void @__cxa_throw(i8* nonnull %exception, i8* bitcast ({ i8*, i8*, i8* }* @_ZTIN5adept21feature_not_availableE to i8*), i8* bitcast (void (%"class.adept::exception"*)* @_ZN5adept9exceptionD2Ev to i8*)) #35
          to label %unreachable unwind label %lpad2.body.thread

ehcleanup.thread:                                 ; preds = %entry
  %13 = landingpad { i8*, i32 }
          cleanup
  call void @llvm.lifetime.end.p0i8(i64 32, i8* nonnull %0) #34
  br label %cleanup.action

lpad2.body:                                       ; preds = %lpad.i, %if.then.i.i.i.i
  %14 = bitcast i8* %exception to %"class.std::exception"*
  call void @_ZNSt9exceptionD2Ev(%"class.std::exception"* nonnull dereferenceable(8) %14) #34
  %15 = load i8*, i8** %_M_p.i13.i.i.i.i, align 8, !tbaa !11
  %cmp.i.i.i = icmp eq i8* %15, %3
  br i1 %cmp.i.i.i, label %ehcleanup, label %if.then.i.i.thread

if.then.i.i.thread:                               ; preds = %lpad2.body
  call void @_ZdlPv(i8* %15) #34
  call void @llvm.lifetime.end.p0i8(i64 32, i8* nonnull %0) #34
  br label %cleanup.action

lpad2.body.thread:                                ; preds = %invoke.cont3
  %16 = landingpad { i8*, i32 }
          cleanup
  %17 = load i8*, i8** %_M_p.i13.i.i.i.i, align 8, !tbaa !11
  %cmp.i.i.i16 = icmp eq i8* %17, %3
  br i1 %cmp.i.i.i16, label %ehcleanup.thread21, label %if.then.i.i

ehcleanup.thread21:                               ; preds = %lpad2.body.thread
  call void @llvm.lifetime.end.p0i8(i64 32, i8* nonnull %0) #34
  br label %eh.resume

if.then.i.i:                                      ; preds = %lpad2.body.thread
  call void @_ZdlPv(i8* %17) #34
  call void @llvm.lifetime.end.p0i8(i64 32, i8* nonnull %0) #34
  br label %eh.resume

ehcleanup:                                        ; preds = %lpad2.body
  call void @llvm.lifetime.end.p0i8(i64 32, i8* nonnull %0) #34
  br label %cleanup.action

cleanup.action:                                   ; preds = %if.then.i.i.thread, %ehcleanup, %ehcleanup.thread
  %.pn13 = phi { i8*, i32 } [ %13, %ehcleanup.thread ], [ %11, %ehcleanup ], [ %11, %if.then.i.i.thread ]
  call void @__cxa_free_exception(i8* %exception) #34
  br label %eh.resume

eh.resume:                                        ; preds = %if.then.i.i, %ehcleanup.thread21, %cleanup.action
  %.pn12 = phi { i8*, i32 } [ %.pn13, %cleanup.action ], [ %16, %if.then.i.i ], [ %16, %ehcleanup.thread21 ]
  resume { i8*, i32 } %.pn12

unreachable:                                      ; preds = %invoke.cont3
  unreachable
}

; Function Attrs: noreturn uwtable
define dso_local void @_ZN5adept8internal12cppblas_symmEbcciidPKdiS2_idPdi(i1 zeroext %Order, i8 signext %Side, i8 signext %Uplo, i32 %M, i32 %N, double %alpha, double* nocapture readnone %A, i32 %lda, double* nocapture readnone %B, i32 %ldb, double %beta, double* nocapture readnone %C, i32 %ldc) local_unnamed_addr #11 personality i8* bitcast (i32 (...)* @__gxx_personality_v0 to i8*) {
entry:
  %__dnew.i.i.i.i = alloca i64, align 8
  %ref.tmp = alloca %"class.std::__cxx11::basic_string", align 8
  %exception = tail call i8* @__cxa_allocate_exception(i64 40) #34
  %0 = bitcast %"class.std::__cxx11::basic_string"* %ref.tmp to i8*
  call void @llvm.lifetime.start.p0i8(i64 32, i8* nonnull %0) #34
  %1 = getelementptr inbounds %"class.std::__cxx11::basic_string", %"class.std::__cxx11::basic_string"* %ref.tmp, i64 0, i32 2
  %2 = bitcast %"class.std::__cxx11::basic_string"* %ref.tmp to %union.anon**
  store %union.anon* %1, %union.anon** %2, align 8, !tbaa !9
  %3 = bitcast %union.anon* %1 to i8*
  %4 = bitcast i64* %__dnew.i.i.i.i to i8*
  call void @llvm.lifetime.start.p0i8(i64 8, i8* nonnull %4) #34
  store i64 83, i64* %__dnew.i.i.i.i, align 8, !tbaa !10
  %call5.i.i.i9.i9 = invoke i8* @_ZNSt7__cxx1112basic_stringIcSt11char_traitsIcESaIcEE9_M_createERmm(%"class.std::__cxx11::basic_string"* nonnull dereferenceable(32) %ref.tmp, i64* nonnull align 8 dereferenceable(8) %__dnew.i.i.i.i, i64 0)
          to label %call5.i.i.i9.i.noexc unwind label %ehcleanup.thread

call5.i.i.i9.i.noexc:                             ; preds = %entry
  %_M_p.i13.i.i.i.i = getelementptr inbounds %"class.std::__cxx11::basic_string", %"class.std::__cxx11::basic_string"* %ref.tmp, i64 0, i32 0, i32 0
  store i8* %call5.i.i.i9.i9, i8** %_M_p.i13.i.i.i.i, align 8, !tbaa !11
  %5 = load i64, i64* %__dnew.i.i.i.i, align 8, !tbaa !10
  %_M_allocated_capacity.i.i.i.i.i = getelementptr inbounds %"class.std::__cxx11::basic_string", %"class.std::__cxx11::basic_string"* %ref.tmp, i64 0, i32 2, i32 0
  store i64 %5, i64* %_M_allocated_capacity.i.i.i.i.i, align 8, !tbaa !12
  call void @llvm.memcpy.p0i8.p0i8.i64(i8* nonnull align 1 dereferenceable(83) %call5.i.i.i9.i9, i8* nonnull align 1 dereferenceable(83) getelementptr inbounds ([84 x i8], [84 x i8]* @.str.67, i64 0, i64 0), i64 83, i1 false) #34
  %_M_string_length.i.i.i.i.i.i = getelementptr inbounds %"class.std::__cxx11::basic_string", %"class.std::__cxx11::basic_string"* %ref.tmp, i64 0, i32 1
  store i64 %5, i64* %_M_string_length.i.i.i.i.i.i, align 8, !tbaa !2
  %arrayidx.i.i.i.i.i = getelementptr inbounds i8, i8* %call5.i.i.i9.i9, i64 %5
  store i8 0, i8* %arrayidx.i.i.i.i.i, align 1, !tbaa !12
  call void @llvm.lifetime.end.p0i8(i64 8, i8* nonnull %4) #34
  %6 = bitcast i8* %exception to i32 (...)***
  %message_.i.i = getelementptr inbounds i8, i8* %exception, i64 8
  %7 = bitcast i8* %message_.i.i to %"class.std::__cxx11::basic_string"*
  %8 = getelementptr inbounds i8, i8* %exception, i64 24
  %9 = bitcast i8* %message_.i.i to i8**
  store i8* %8, i8** %9, align 8, !tbaa !9
  %_M_string_length.i.i.i.i.i = getelementptr inbounds i8, i8* %exception, i64 16
  %10 = bitcast i8* %_M_string_length.i.i.i.i.i to i64*
  store i64 0, i64* %10, align 8, !tbaa !2
  store i8 0, i8* %8, align 1, !tbaa !12
  store i32 (...)** bitcast (i8** getelementptr inbounds ({ [5 x i8*] }, { [5 x i8*] }* @_ZTVN5adept21feature_not_availableE, i64 0, inrange i32 0, i64 2) to i32 (...)**), i32 (...)*** %6, align 8, !tbaa !17
  invoke void @_ZNSt7__cxx1112basic_stringIcSt11char_traitsIcESaIcEE9_M_assignERKS4_(%"class.std::__cxx11::basic_string"* nonnull dereferenceable(32) %7, %"class.std::__cxx11::basic_string"* nonnull align 8 dereferenceable(32) %ref.tmp)
          to label %invoke.cont3 unwind label %lpad.i

lpad.i:                                           ; preds = %call5.i.i.i9.i.noexc
  %11 = landingpad { i8*, i32 }
          cleanup
  store i32 (...)** bitcast (i8** getelementptr inbounds ({ [5 x i8*] }, { [5 x i8*] }* @_ZTVN5adept9exceptionE, i64 0, inrange i32 0, i64 2) to i32 (...)**), i32 (...)*** %6, align 8, !tbaa !17
  %12 = load i8*, i8** %9, align 8, !tbaa !11
  %cmp.i.i.i.i.i = icmp eq i8* %12, %8
  br i1 %cmp.i.i.i.i.i, label %lpad2.body, label %if.then.i.i.i.i

if.then.i.i.i.i:                                  ; preds = %lpad.i
  call void @_ZdlPv(i8* %12) #34
  br label %lpad2.body

invoke.cont3:                                     ; preds = %call5.i.i.i9.i.noexc
  invoke void @__cxa_throw(i8* nonnull %exception, i8* bitcast ({ i8*, i8*, i8* }* @_ZTIN5adept21feature_not_availableE to i8*), i8* bitcast (void (%"class.adept::exception"*)* @_ZN5adept9exceptionD2Ev to i8*)) #35
          to label %unreachable unwind label %lpad2.body.thread

ehcleanup.thread:                                 ; preds = %entry
  %13 = landingpad { i8*, i32 }
          cleanup
  call void @llvm.lifetime.end.p0i8(i64 32, i8* nonnull %0) #34
  br label %cleanup.action

lpad2.body:                                       ; preds = %lpad.i, %if.then.i.i.i.i
  %14 = bitcast i8* %exception to %"class.std::exception"*
  call void @_ZNSt9exceptionD2Ev(%"class.std::exception"* nonnull dereferenceable(8) %14) #34
  %15 = load i8*, i8** %_M_p.i13.i.i.i.i, align 8, !tbaa !11
  %cmp.i.i.i = icmp eq i8* %15, %3
  br i1 %cmp.i.i.i, label %ehcleanup, label %if.then.i.i.thread

if.then.i.i.thread:                               ; preds = %lpad2.body
  call void @_ZdlPv(i8* %15) #34
  call void @llvm.lifetime.end.p0i8(i64 32, i8* nonnull %0) #34
  br label %cleanup.action

lpad2.body.thread:                                ; preds = %invoke.cont3
  %16 = landingpad { i8*, i32 }
          cleanup
  %17 = load i8*, i8** %_M_p.i13.i.i.i.i, align 8, !tbaa !11
  %cmp.i.i.i16 = icmp eq i8* %17, %3
  br i1 %cmp.i.i.i16, label %ehcleanup.thread21, label %if.then.i.i

ehcleanup.thread21:                               ; preds = %lpad2.body.thread
  call void @llvm.lifetime.end.p0i8(i64 32, i8* nonnull %0) #34
  br label %eh.resume

if.then.i.i:                                      ; preds = %lpad2.body.thread
  call void @_ZdlPv(i8* %17) #34
  call void @llvm.lifetime.end.p0i8(i64 32, i8* nonnull %0) #34
  br label %eh.resume

ehcleanup:                                        ; preds = %lpad2.body
  call void @llvm.lifetime.end.p0i8(i64 32, i8* nonnull %0) #34
  br label %cleanup.action

cleanup.action:                                   ; preds = %if.then.i.i.thread, %ehcleanup, %ehcleanup.thread
  %.pn13 = phi { i8*, i32 } [ %13, %ehcleanup.thread ], [ %11, %ehcleanup ], [ %11, %if.then.i.i.thread ]
  call void @__cxa_free_exception(i8* %exception) #34
  br label %eh.resume

eh.resume:                                        ; preds = %if.then.i.i, %ehcleanup.thread21, %cleanup.action
  %.pn12 = phi { i8*, i32 } [ %.pn13, %cleanup.action ], [ %16, %if.then.i.i ], [ %16, %ehcleanup.thread21 ]
  resume { i8*, i32 } %.pn12

unreachable:                                      ; preds = %invoke.cont3
  unreachable
}

; Function Attrs: noreturn uwtable
define dso_local void @_ZN5adept8internal12cppblas_symmEbcciifPKfiS2_ifPfi(i1 zeroext %Order, i8 signext %Side, i8 signext %Uplo, i32 %M, i32 %N, float %alpha, float* nocapture readnone %A, i32 %lda, float* nocapture readnone %B, i32 %ldb, float %beta, float* nocapture readnone %C, i32 %ldc) local_unnamed_addr #11 personality i8* bitcast (i32 (...)* @__gxx_personality_v0 to i8*) {
entry:
  %__dnew.i.i.i.i = alloca i64, align 8
  %ref.tmp = alloca %"class.std::__cxx11::basic_string", align 8
  %exception = tail call i8* @__cxa_allocate_exception(i64 40) #34
  %0 = bitcast %"class.std::__cxx11::basic_string"* %ref.tmp to i8*
  call void @llvm.lifetime.start.p0i8(i64 32, i8* nonnull %0) #34
  %1 = getelementptr inbounds %"class.std::__cxx11::basic_string", %"class.std::__cxx11::basic_string"* %ref.tmp, i64 0, i32 2
  %2 = bitcast %"class.std::__cxx11::basic_string"* %ref.tmp to %union.anon**
  store %union.anon* %1, %union.anon** %2, align 8, !tbaa !9
  %3 = bitcast %union.anon* %1 to i8*
  %4 = bitcast i64* %__dnew.i.i.i.i to i8*
  call void @llvm.lifetime.start.p0i8(i64 8, i8* nonnull %4) #34
  store i64 83, i64* %__dnew.i.i.i.i, align 8, !tbaa !10
  %call5.i.i.i9.i9 = invoke i8* @_ZNSt7__cxx1112basic_stringIcSt11char_traitsIcESaIcEE9_M_createERmm(%"class.std::__cxx11::basic_string"* nonnull dereferenceable(32) %ref.tmp, i64* nonnull align 8 dereferenceable(8) %__dnew.i.i.i.i, i64 0)
          to label %call5.i.i.i9.i.noexc unwind label %ehcleanup.thread

call5.i.i.i9.i.noexc:                             ; preds = %entry
  %_M_p.i13.i.i.i.i = getelementptr inbounds %"class.std::__cxx11::basic_string", %"class.std::__cxx11::basic_string"* %ref.tmp, i64 0, i32 0, i32 0
  store i8* %call5.i.i.i9.i9, i8** %_M_p.i13.i.i.i.i, align 8, !tbaa !11
  %5 = load i64, i64* %__dnew.i.i.i.i, align 8, !tbaa !10
  %_M_allocated_capacity.i.i.i.i.i = getelementptr inbounds %"class.std::__cxx11::basic_string", %"class.std::__cxx11::basic_string"* %ref.tmp, i64 0, i32 2, i32 0
  store i64 %5, i64* %_M_allocated_capacity.i.i.i.i.i, align 8, !tbaa !12
  call void @llvm.memcpy.p0i8.p0i8.i64(i8* nonnull align 1 dereferenceable(83) %call5.i.i.i9.i9, i8* nonnull align 1 dereferenceable(83) getelementptr inbounds ([84 x i8], [84 x i8]* @.str.67, i64 0, i64 0), i64 83, i1 false) #34
  %_M_string_length.i.i.i.i.i.i = getelementptr inbounds %"class.std::__cxx11::basic_string", %"class.std::__cxx11::basic_string"* %ref.tmp, i64 0, i32 1
  store i64 %5, i64* %_M_string_length.i.i.i.i.i.i, align 8, !tbaa !2
