; ModuleID = 'gmm-unopt.ll'
source_filename = "gmm.cpp"
target datalayout = "e-m:e-p270:32:32-p271:32:32-p272:64:64-i64:64-f80:128-n8:16:32:64-S128"
target triple = "x86_64-unknown-linux-gnu"

%"class.std::ios_base::Init" = type { i8 }
%"class.std::__cxx11::basic_string" = type { %"struct.std::__cxx11::basic_string<char>::_Alloc_hider", i64, %union.anon }
%"struct.std::__cxx11::basic_string<char>::_Alloc_hider" = type { i8* }
%union.anon = type { i64, [8 x i8] }
%"class.adept::Stack" = type <{ %"class.adept::internal::StackStorageOrig", double*, %"class.std::vector.8", %"class.std::vector.8", %"class.std::__cxx11::list", %"struct.std::_List_iterator", i32, i32, i32, i32, i8, i8, i8, i8, i8, [3 x i8] }>
%"class.adept::internal::StackStorageOrig" = type { %"struct.adept::internal::Statement"*, double*, i32*, i32, i32, i32, i32 }
%"struct.adept::internal::Statement" = type { i32, i32 }
%"class.std::vector.8" = type { %"struct.std::_Vector_base.9" }
%"struct.std::_Vector_base.9" = type { %"struct.std::_Vector_base<int, std::allocator<int>>::_Vector_impl" }
%"struct.std::_Vector_base<int, std::allocator<int>>::_Vector_impl" = type { %"struct.std::_Vector_base<int, std::allocator<int>>::_Vector_impl_data" }
%"struct.std::_Vector_base<int, std::allocator<int>>::_Vector_impl_data" = type { i32*, i32*, i32* }
%"class.std::__cxx11::list" = type { %"class.std::__cxx11::_List_base" }
%"class.std::__cxx11::_List_base" = type { %"struct.std::__cxx11::_List_base<adept::Gap, std::allocator<adept::Gap>>::_List_impl" }
%"struct.std::__cxx11::_List_base<adept::Gap, std::allocator<adept::Gap>>::_List_impl" = type { %"struct.std::__detail::_List_node_header" }
%"struct.std::__detail::_List_node_header" = type { %"struct.std::__detail::_List_node_base", i64 }
%"struct.std::__detail::_List_node_base" = type { %"struct.std::__detail::_List_node_base"*, %"struct.std::__detail::_List_node_base"* }
%"struct.std::_List_iterator" = type { %"struct.std::__detail::_List_node_base"* }
%"struct.adept::internal::EndIndex" = type { i8 }
%"class.adept::internal::AllIndex" = type { i8 }
%"class.std::vector" = type { %"struct.std::_Vector_base" }
%"struct.std::_Vector_base" = type { %"struct.std::_Vector_base<std::__cxx11::basic_string<char>, std::allocator<std::__cxx11::basic_string<char>>>::_Vector_impl" }
%"struct.std::_Vector_base<std::__cxx11::basic_string<char>, std::allocator<std::__cxx11::basic_string<char>>>::_Vector_impl" = type { %"struct.std::_Vector_base<std::__cxx11::basic_string<char>, std::allocator<std::__cxx11::basic_string<char>>>::_Vector_impl_data" }
%"struct.std::_Vector_base<std::__cxx11::basic_string<char>, std::allocator<std::__cxx11::basic_string<char>>>::_Vector_impl_data" = type { %"class.std::__cxx11::basic_string"*, %"class.std::__cxx11::basic_string"*, %"class.std::__cxx11::basic_string"* }
%struct.__dirstream = type opaque
%struct.dirent = type { i64, i64, i16, i8, [256 x i8] }
%"class.std::allocator.0" = type { i8 }
%"class.std::reverse_iterator" = type { %"class.__gnu_cxx::__normal_iterator.41" }
%"class.__gnu_cxx::__normal_iterator.41" = type { i8* }
%"class.__gnu_cxx::new_allocator.1" = type { i8 }
%struct.timeval = type { i64, i64 }
%"class.std::vector.3" = type { %"struct.std::_Vector_base.4" }
%"struct.std::_Vector_base.4" = type { %"struct.std::_Vector_base<double, std::allocator<double>>::_Vector_impl" }
%"struct.std::_Vector_base<double, std::allocator<double>>::_Vector_impl" = type { %"struct.std::_Vector_base<double, std::allocator<double>>::_Vector_impl_data" }
%"struct.std::_Vector_base<double, std::allocator<double>>::_Vector_impl_data" = type { double*, double*, double* }
%struct.Wishart = type { double, i32 }
%struct._IO_FILE = type { i32, i8*, i8*, i8*, i8*, i8*, i8*, i8*, i8*, i8*, i8*, i8*, %struct._IO_marker*, %struct._IO_FILE*, i32, i32, i64, i16, i8, [1 x i8], i8*, i64, %struct._IO_codecvt*, %struct._IO_wide_data*, %struct._IO_FILE*, i8*, i64, i32, [20 x i8] }
%struct._IO_marker = type opaque
%struct._IO_codecvt = type opaque
%struct._IO_wide_data = type opaque
%struct.GMMParameters = type { i8 }
%"class.__gnu_cxx::__normal_iterator" = type { %"class.std::__cxx11::basic_string"* }
%struct.GMMInput = type { i32, i32, i32, %"class.std::vector.3", %"class.std::vector.3", %"class.std::vector.3", %"class.std::vector.3", %struct.Wishart }
%struct.GMMOutput = type { double, %"class.std::vector.3" }
%"class.std::allocator.5" = type { i8 }
%"class.std::bad_alloc" = type { %"class.std::exception" }
%"class.std::exception" = type { i32 (...)** }
%"class.__gnu_cxx::new_allocator.6" = type { i8 }
%"class.std::allocator" = type { i8 }
%"class.adept::invalid_operation" = type { %"class.adept::array_exception" }
%"class.adept::array_exception" = type { %"class.adept::exception" }
%"class.adept::exception" = type { %"class.std::exception", %"class.std::__cxx11::basic_string" }
%"class.std::allocator.10" = type { i8 }
%"class.adept::stack_already_active" = type { %"class.adept::autodiff_exception" }
%"class.adept::autodiff_exception" = type { %"class.adept::exception" }
%"class.adept::gradients_not_initialized" = type { %"class.adept::autodiff_exception" }
%"struct.std::_List_const_iterator" = type { %"struct.std::__detail::_List_node_base"* }
%"struct.adept::Gap" = type { i32, i32 }
%"struct.std::_List_node" = type { %"struct.std::__detail::_List_node_base", %"struct.__gnu_cxx::__aligned_membuf" }
%"struct.__gnu_cxx::__aligned_membuf" = type { [8 x i8] }
%"class.std::basic_ostream" = type { i32 (...)**, %"class.std::basic_ios" }
%"class.std::basic_ios" = type { %"class.std::ios_base", %"class.std::basic_ostream"*, i8, i8, %"class.std::basic_streambuf"*, %"class.std::ctype"*, %"class.std::num_put"*, %"class.std::num_get"* }
%"class.std::ios_base" = type { i32 (...)**, i64, i64, i32, i32, i32, %"struct.std::ios_base::_Callback_list"*, %"struct.std::ios_base::_Words", [8 x %"struct.std::ios_base::_Words"], i32, %"struct.std::ios_base::_Words"*, %"class.std::locale" }
%"struct.std::ios_base::_Callback_list" = type { %"struct.std::ios_base::_Callback_list"*, void (i32, %"class.std::ios_base"*, i32)*, i32, i32 }
%"struct.std::ios_base::_Words" = type { i8*, i64 }
%"class.std::locale" = type { %"class.std::locale::_Impl"* }
%"class.std::locale::_Impl" = type { i32, %"class.std::locale::facet"**, i64, %"class.std::locale::facet"**, i8** }
%"class.std::locale::facet" = type <{ i32 (...)**, i32, [4 x i8] }>
%"class.std::basic_streambuf" = type { i32 (...)**, i8*, i8*, i8*, i8*, i8*, i8*, %"class.std::locale" }
%"class.std::ctype" = type <{ %"class.std::locale::facet.base", [4 x i8], %struct.__locale_struct*, i8, [7 x i8], i32*, i32*, i16*, i8, [256 x i8], [256 x i8], i8, [6 x i8] }>
%"class.std::locale::facet.base" = type <{ i32 (...)**, i32 }>
%struct.__locale_struct = type { [13 x %struct.__locale_data*], i16*, i32*, i32*, [13 x i8*] }
%struct.__locale_data = type opaque
%"class.std::num_put" = type { %"class.std::locale::facet.base", [4 x i8] }
%"class.std::num_get" = type { %"class.std::locale::facet.base", [4 x i8] }
%"class.adept::feature_not_available" = type { %"class.adept::exception" }
%"class.adept::Array" = type { float*, %"class.adept::Storage"*, %"class.adept::ExpressionSize", %"class.adept::ExpressionSize" }
%"class.adept::Storage" = type opaque
%"class.adept::ExpressionSize" = type { [2 x i32] }
%"class.adept::SpecialMatrix" = type { float*, %"class.adept::Storage"*, i32, i32 }
%"class.adept::SpecialMatrix.19" = type { float*, %"class.adept::Storage"*, i32, i32 }
%"class.adept::Array.22" = type { double*, %"class.adept::Storage.24"*, %"class.adept::ExpressionSize", %"class.adept::ExpressionSize" }
%"class.adept::Storage.24" = type <{ double*, i32, i32, i32, [4 x i8] }>
%"class.adept::SpecialMatrix.25" = type { double*, %"class.adept::Storage.24"*, i32, i32 }
%"class.adept::SpecialMatrix.27" = type { double*, %"class.adept::Storage.24"*, i32, i32 }
%"struct.adept::internal::Packet" = type { %union.anon.29 }
%union.anon.29 = type { <2 x double> }
%"struct.adept::Block" = type { [2 x double] }
%"class.adept::dependents_or_independents_not_identified" = type { %"class.adept::autodiff_exception" }
%"class.__gnu_cxx::__normal_iterator.44" = type { i32* }
%"class.std::vector.30" = type { %"struct.std::_Vector_base.31" }
%"struct.std::_Vector_base.31" = type { %"struct.std::_Vector_base<adept::Block<2, double>, std::allocator<adept::Block<2, double>>>::_Vector_impl" }
%"struct.std::_Vector_base<adept::Block<2, double>, std::allocator<adept::Block<2, double>>>::_Vector_impl" = type { %"struct.std::_Vector_base<adept::Block<2, double>, std::allocator<adept::Block<2, double>>>::_Vector_impl_data" }
%"struct.std::_Vector_base<adept::Block<2, double>, std::allocator<adept::Block<2, double>>>::_Vector_impl_data" = type { %"struct.adept::Block"*, %"struct.adept::Block"*, %"struct.adept::Block"* }
%"class.std::allocator.32" = type { i8 }
%"class.__gnu_cxx::new_allocator.33" = type { i8 }
%"class.std::__cxx11::basic_stringstream" = type { %"class.std::basic_iostream.base", %"class.std::__cxx11::basic_stringbuf", %"class.std::basic_ios" }
%"class.std::basic_iostream.base" = type { %"class.std::basic_istream.base", %"class.std::basic_ostream.base" }
%"class.std::basic_istream.base" = type { i32 (...)**, i64 }
%"class.std::basic_ostream.base" = type { i32 (...)** }
%"class.std::__cxx11::basic_stringbuf" = type { %"class.std::basic_streambuf", i32, %"class.std::__cxx11::basic_string" }
%"class.std::basic_iostream" = type { %"class.std::basic_istream.base", %"class.std::basic_ostream.base", %"class.std::basic_ios" }
%"class.adept::Array.35" = type { float*, %"class.adept::Storage"*, %"class.adept::ExpressionSize.37", %"class.adept::ExpressionSize.37" }
%"class.adept::ExpressionSize.37" = type { [1 x i32] }
%"class.adept::Array.38" = type { double*, %"class.adept::Storage.24"*, %"class.adept::ExpressionSize.37", %"class.adept::ExpressionSize.37" }
%"struct.adept::Expression.39" = type { i8 }
%"struct.adept::internal::GradientIndex" = type { i8 }
%"class.adept::Active" = type <{ double, i32, [4 x i8] }>
%"struct.adept::Expression.40" = type { i8 }
%"class.std::vector.45" = type { %"struct.std::_Vector_base.46" }
%"struct.std::_Vector_base.46" = type { %"struct.std::_Vector_base<adept::Active<double>, std::allocator<adept::Active<double>>>::_Vector_impl" }
%"struct.std::_Vector_base<adept::Active<double>, std::allocator<adept::Active<double>>>::_Vector_impl" = type { %"struct.std::_Vector_base<adept::Active<double>, std::allocator<adept::Active<double>>>::_Vector_impl_data" }
%"struct.std::_Vector_base<adept::Active<double>, std::allocator<adept::Active<double>>>::_Vector_impl_data" = type { %"class.adept::Active"*, %"class.adept::Active"*, %"class.adept::Active"* }
%"class.std::allocator.47" = type { i8 }
%"struct.adept::internal::BinaryOperation" = type { %"struct.adept::internal::BinaryOperation.51", %"struct.adept::internal::BinaryOpScalarLeft"* }
%"struct.adept::internal::BinaryOperation.51" = type { %"class.adept::Active"*, %"class.adept::Active"* }
%"struct.adept::internal::BinaryOpScalarLeft" = type <{ %"struct.adept::internal::Packet", %"class.adept::Active"*, [8 x i8] }>
%"struct.adept::internal::BinaryOperation.54" = type { %"struct.adept::internal::BinaryOpScalarLeft.56"*, %"struct.adept::internal::BinaryOpScalarLeft.59"* }
%"struct.adept::internal::BinaryOpScalarLeft.56" = type <{ %"struct.adept::internal::Packet", %"class.adept::Active"*, [8 x i8] }>
%"struct.adept::internal::BinaryOpScalarLeft.59" = type { %"struct.adept::internal::Packet.61", %"class.adept::Active"* }
%"struct.adept::internal::Packet.61" = type { i32 }
%"struct.adept::Expression.52" = type { i8 }
%"struct.adept::Expression.53" = type { i8 }
%"struct.adept::Expression.50" = type { i8 }
%"struct.adept::Expression.57" = type { i8 }
%"struct.adept::Expression.60" = type { i8 }
%"struct.adept::Expression.55" = type { i8 }
%"class.std::reverse_iterator.42" = type { i8* }
%"struct.std::iterator" = type { i8 }
%"class.__gnu_cxx::new_allocator" = type { i8 }
%"class.std::allocator.13" = type { i8 }
%"class.__gnu_cxx::new_allocator.14" = type { i8 }
%"class.__gnu_cxx::new_allocator.11" = type { i8 }
%"struct.std::__false_type" = type { i8 }
%"struct.std::forward_iterator_tag" = type { i8 }
%"struct.std::random_access_iterator_tag" = type { i8 }
%"struct.std::integral_constant" = type { i8 }
%"class.std::basic_istream" = type { i32 (...)**, i64, %"class.std::basic_ios" }
%"class.__gnu_cxx::__normal_iterator.43" = type { i8* }
%"struct.std::__allocated_ptr" = type { %"class.std::allocator.13"*, %"struct.std::_List_node"* }
%"class.adept::invalid_dimension" = type { %"class.adept::array_exception" }
%"class.__gnu_cxx::new_allocator.48" = type { i8 }
%"struct.adept::internal::UnaryOperation" = type { %"class.adept::Active"* }
%"struct.adept::Expression.62" = type { i8 }
%"struct.adept::internal::BinaryOpScalarLeft.65" = type <{ %"struct.adept::internal::Packet", %"class.adept::Active"*, [8 x i8] }>
%"struct.adept::Expression.66" = type { i8 }
%"struct.adept::internal::BinaryOperation.69" = type { %"class.adept::Active"*, %"class.adept::Active"* }
%"struct.adept::internal::BinaryOperation.71" = type { %"class.adept::Active"*, %"struct.adept::internal::BinaryOperation.69" }
%"struct.adept::Expression.70" = type { i8 }
%"struct.adept::Expression.72" = type { i8 }
%"struct.adept::internal::BinaryOperation.74" = type { %"class.adept::Active"*, %"struct.adept::internal::UnaryOperation.76" }
%"struct.adept::internal::UnaryOperation.76" = type { %"struct.adept::internal::BinaryOperation.78" }
%"struct.adept::internal::BinaryOperation.78" = type { %"class.adept::Active"*, %"class.adept::Active"* }
%"struct.adept::internal::BinaryOperation.80" = type { %"struct.adept::internal::UnaryOperation.82", %"class.adept::Active"* }
%"struct.adept::internal::UnaryOperation.82" = type { %"class.adept::Active"* }
%"struct.adept::Expression.79" = type { i8 }
%"struct.adept::Expression.77" = type { i8 }
%"struct.adept::Expression.75" = type { i8 }
%"struct.adept::Expression.83" = type { i8 }
%"struct.adept::Expression.81" = type { i8 }
%"struct.adept::internal::BinaryOperation.86" = type { %"struct.adept::internal::BinaryOperation.88", %"struct.adept::internal::BinaryOpScalarLeft.59"* }
%"struct.adept::internal::BinaryOperation.88" = type { %"class.adept::Active"*, %"struct.adept::internal::BinaryOpScalarLeft"* }
%"struct.adept::internal::BinaryOpScalarRight" = type { %"class.adept::Active"*, %"struct.adept::internal::Packet" }
%"struct.adept::Expression.89" = type { i8 }
%"struct.adept::Expression.87" = type { i8 }
%"struct.adept::Expression.90" = type { i8 }
%"class.adept::internal::ScratchVector" = type { i8 }
%"class.adept::ExpressionSize.63" = type { i8 }
%"struct.adept::internal::Exp" = type { i8 }
%"class.adept::internal::ScratchVector.64" = type { [1 x double] }
%"struct.adept::internal::Subtract" = type { i8 }
%"struct.adept::internal::Scalar" = type { double }
%"struct.adept::Expression.68" = type { i8 }
%"struct.adept::internal::Multiply" = type { i8 }
%"struct.adept::internal::Add" = type { i8 }
%"class.adept::internal::ScratchVector.73" = type { [2 x double] }
%"struct.adept::internal::Log" = type { i8 }
%"struct.adept::internal::Scalar.84" = type { i32 }
%"struct.adept::Expression.85" = type { i8 }
%"class.adept::internal::ScratchVector.91" = type { [3 x double] }
%"class.adept::gradient_out_of_range" = type { %"class.adept::autodiff_exception" }

$_ZStplIcSt11char_traitsIcESaIcEENSt7__cxx1112basic_stringIT_T0_T1_EEOS8_PKS5_ = comdat any

$_ZStplIcSt11char_traitsIcESaIcEENSt7__cxx1112basic_stringIT_T0_T1_EERKS8_PKS5_ = comdat any

$_Z9ends_withRKNSt7__cxx1112basic_stringIcSt11char_traitsIcESaIcEEES6_ = comdat any

$_ZNSt6vectorINSt7__cxx1112basic_stringIcSt11char_traitsIcESaIcEEESaIS5_EE9push_backEOS5_ = comdat any

$_ZNSt6vectorIdSaIdEE6resizeEm = comdat any

$_ZNSt6vectorIdSaIdEEixEm = comdat any

$_ZSteqIcSt11char_traitsIcESaIcEEbRKNSt7__cxx1112basic_stringIT_T0_T1_EEPKS5_ = comdat any

$_ZNSt6vectorINSt7__cxx1112basic_stringIcSt11char_traitsIcESaIcEEESaIS5_EEC2Ev = comdat any

$_ZNSt6vectorINSt7__cxx1112basic_stringIcSt11char_traitsIcESaIcEEESaIS5_EE5beginEv = comdat any

$_ZNSt6vectorINSt7__cxx1112basic_stringIcSt11char_traitsIcESaIcEEESaIS5_EE3endEv = comdat any

$_ZN9__gnu_cxxneIPNSt7__cxx1112basic_stringIcSt11char_traitsIcESaIcEEESt6vectorIS6_SaIS6_EEEEbRKNS_17__normal_iteratorIT_T0_EESG_ = comdat any

$_ZNK9__gnu_cxx17__normal_iteratorIPNSt7__cxx1112basic_stringIcSt11char_traitsIcESaIcEEESt6vectorIS6_SaIS6_EEEdeEv = comdat any

$_ZN8GMMInputC2Ev = comdat any

$_ZStplIcSt11char_traitsIcESaIcEENSt7__cxx1112basic_stringIT_T0_T1_EEPKS5_RKS8_ = comdat any

$_ZNSaIdEC2Ev = comdat any

$_ZNSt6vectorIdSaIdEEC2EmRKS0_ = comdat any

$_ZN9__gnu_cxx13new_allocatorIdED2Ev = comdat any

$_Z18calculate_jacobianIXadL_Z15gmm_objective_bEEEvR8GMMInputR9GMMOutput = comdat any

$_ZN9GMMOutputD2Ev = comdat any

$_ZN8GMMInputD2Ev = comdat any

$_Z18calculate_jacobianIXadL_Z20adept_dgmm_objectiveEEEvR8GMMInputR9GMMOutput = comdat any

$_ZNSt9bad_allocC2ERKS_ = comdat any

$__clang_call_terminate = comdat any

$_Z18calculate_jacobianIXadL_Z14dgmm_objectiveEEEvR8GMMInputR9GMMOutput = comdat any

$_ZN9__gnu_cxx17__normal_iteratorIPNSt7__cxx1112basic_stringIcSt11char_traitsIcESaIcEEESt6vectorIS6_SaIS6_EEEppEv = comdat any

$_ZNSt6vectorINSt7__cxx1112basic_stringIcSt11char_traitsIcESaIcEEESaIS5_EED2Ev = comdat any

$_ZSt3logIiEN9__gnu_cxx11__enable_ifIXsr12__is_integerIT_EE7__valueEdE6__typeES2_ = comdat any

$_ZN5adept17invalid_operationC2ERKNSt7__cxx1112basic_stringIcSt11char_traitsIcESaIcEEE = comdat any

$_ZNSt7__cxx1110_List_baseIN5adept3GapESaIS2_EED2Ev = comdat any

$_ZNSt6vectorIiSaIiEED2Ev = comdat any

$_ZN5adept20stack_already_activeC2ERKNSt7__cxx1112basic_stringIcSt11char_traitsIcESaIcEEE = comdat any

$_ZNK5adept5Stack25gradients_are_initializedEv = comdat any

$_ZN5adept25gradients_not_initializedC2ERKNSt7__cxx1112basic_stringIcSt11char_traitsIcESaIcEEE = comdat any

$_ZNKSt7__cxx114listIN5adept3GapESaIS2_EE5emptyEv = comdat any

$_ZNSt7__cxx114listIN5adept3GapESaIS2_EE5beginEv = comdat any

$_ZStneRKSt14_List_iteratorIN5adept3GapEES4_ = comdat any

$_ZNSt7__cxx114listIN5adept3GapESaIS2_EE3endEv = comdat any

$_ZNKSt14_List_iteratorIN5adept3GapEEptEv = comdat any

$_ZSteqRKSt14_List_iteratorIN5adept3GapEES4_ = comdat any

$_ZNSt7__cxx114listIN5adept3GapESaIS2_EE5eraseESt20_List_const_iteratorIS2_E = comdat any

$_ZNSt20_List_const_iteratorIN5adept3GapEEC2ERKSt14_List_iteratorIS1_E = comdat any

$_ZNSt14_List_iteratorIN5adept3GapEEppEi = comdat any

$_ZNKSt14_List_iteratorIN5adept3GapEEdeEv = comdat any

$_ZNSt7__cxx114listIN5adept3GapESaIS2_EE6insertESt20_List_const_iteratorIS2_EOS2_ = comdat any

$_ZN5adept3GapC2Ei = comdat any

$_ZNSt7__cxx114listIN5adept3GapESaIS2_EE9push_backEOS2_ = comdat any

$_ZNSt14_List_iteratorIN5adept3GapEEmmEi = comdat any

$_ZNSt7__cxx114listIN5adept3GapESaIS2_EE4backEv = comdat any

$_ZNSt7__cxx114listIN5adept3GapESaIS2_EE8pop_backEv = comdat any

$_ZN5adept3GapC2Eii = comdat any

$_ZNKSt7__cxx114listIN5adept3GapESaIS2_EE5beginEv = comdat any

$_ZStneRKSt20_List_const_iteratorIN5adept3GapEES4_ = comdat any

$_ZNKSt7__cxx114listIN5adept3GapESaIS2_EE3endEv = comdat any

$_ZNKSt20_List_const_iteratorIN5adept3GapEEptEv = comdat any

$_ZNSt20_List_const_iteratorIN5adept3GapEEppEi = comdat any

$_ZNK5adept5Stack12n_statementsEv = comdat any

$_ZNK5adept5Stack22n_allocated_statementsEv = comdat any

$_ZNK5adept5Stack12n_operationsEv = comdat any

$_ZNK5adept5Stack22n_allocated_operationsEv = comdat any

$_ZNK5adept5Stack22n_gradients_registeredEv = comdat any

$_ZNK5adept5Stack13max_gradientsEv = comdat any

$_ZNK5adept5Stack10i_gradientEv = comdat any

$_ZNKSt7__cxx114listIN5adept3GapESaIS2_EE4sizeEv = comdat any

$_ZNK5adept5Stack21n_allocated_gradientsEv = comdat any

$_ZNK5adept5Stack12n_dependentsEv = comdat any

$_ZNK5adept5Stack14n_independentsEv = comdat any

$_ZNKSt6vectorIiSaIiEE4sizeEv = comdat any

$_ZNKSt6vectorIiSaIiEEixEm = comdat any

$_ZN5adept8internal9StatementC2Ev = comdat any

$_ZN5adept21feature_not_availableC2ERKNSt7__cxx1112basic_stringIcSt11char_traitsIcESaIcEEE = comdat any

$_ZN5adept9exceptionD2Ev = comdat any

$_ZN5adept3invIfEENS_5ArrayILi2ET_Lb0EEERKS3_ = comdat any

$_ZN5adept3invIfLNS_8internal21SymmMatrixOrientationE0EEENS_13SpecialMatrixIT_NS1_10SymmEngineIXT0_EEELb0EEERKS7_ = comdat any

$_ZN5adept3invIfLNS_8internal21SymmMatrixOrientationE1EEENS_13SpecialMatrixIT_NS1_10SymmEngineIXT0_EEELb0EEERKS7_ = comdat any

$_ZN5adept3invIdEENS_5ArrayILi2ET_Lb0EEERKS3_ = comdat any

$_ZN5adept3invIdLNS_8internal21SymmMatrixOrientationE0EEENS_13SpecialMatrixIT_NS1_10SymmEngineIXT0_EEELb0EEERKS7_ = comdat any

$_ZN5adept3invIdLNS_8internal21SymmMatrixOrientationE1EEENS_13SpecialMatrixIT_NS1_10SymmEngineIXT0_EEELb0EEERKS7_ = comdat any

$_ZN5adept8internal6PacketIdEC2Ev = comdat any

$_ZN5adept8internal6PacketIdEC2EPKd = comdat any

$_ZN5adept8internal6PacketIdEC2Ed = comdat any

$_ZN5adept8internalmlERKNS0_6PacketIdEES4_ = comdat any

$_ZN5adept8internal6PacketIdEpLERKS2_ = comdat any

$_ZNK5adept8internal6PacketIdE3putEPd = comdat any

$_ZN5adept5BlockILi2EdEC2Ev = comdat any

$_ZN5adept5BlockILi2EdEixEi = comdat any

$_ZNK5adept5Stack13n_independentEv = comdat any

$_ZN5adept8internal13alloc_alignedIdEEPT_i = comdat any

$_ZNK5adept5Stack11n_dependentEv = comdat any

$_ZN5adept8internal12free_alignedIdEEvPT_ = comdat any

$_ZNKSt6vectorIiSaIiEE5emptyEv = comdat any

$_ZN5adept41dependents_or_independents_not_identifiedC2ERKNSt7__cxx1112basic_stringIcSt11char_traitsIcESaIcEEE = comdat any

$_ZNSt6vectorIiSaIiEEixEm = comdat any

$_ZNSaIN5adept5BlockILi2EdEEEC2Ev = comdat any

$_ZNSt6vectorIN5adept5BlockILi2EdEESaIS2_EEC2EmRKS3_ = comdat any

$_ZNKSt6vectorIN5adept5BlockILi2EdEESaIS2_EE4sizeEv = comdat any

$_ZNSt6vectorIN5adept5BlockILi2EdEESaIS2_EEixEm = comdat any

$_ZN5adept5BlockILi2EdE4zeroEv = comdat any

$_ZNSt6vectorIN5adept5BlockILi2EdEESaIS2_EED2Ev = comdat any

$_ZN5adept5solveIfEENS_5ArrayILi1ET_Lb0EEERKNS1_ILi2ES2_Lb0EEERKS3_ = comdat any

$_ZN5adept5solveIfLNS_8internal21SymmMatrixOrientationE0EEENS_5ArrayILi1ET_Lb0EEERKNS_13SpecialMatrixIS4_NS1_10SymmEngineIXT0_EEELb0EEERKS5_ = comdat any

$_ZN5adept5solveIfLNS_8internal21SymmMatrixOrientationE1EEENS_5ArrayILi1ET_Lb0EEERKNS_13SpecialMatrixIS4_NS1_10SymmEngineIXT0_EEELb0EEERKS5_ = comdat any

$_ZN5adept5solveIfEENS_5ArrayILi2ET_Lb0EEERKS3_S5_ = comdat any

$_ZN5adept5solveIfLNS_8internal21SymmMatrixOrientationE0EEENS_5ArrayILi2ET_Lb0EEERKNS_13SpecialMatrixIS4_NS1_10SymmEngineIXT0_EEELb0EEERKS5_ = comdat any

$_ZN5adept5solveIfLNS_8internal21SymmMatrixOrientationE1EEENS_5ArrayILi2ET_Lb0EEERKNS_13SpecialMatrixIS4_NS1_10SymmEngineIXT0_EEELb0EEERKS5_ = comdat any

$_ZN5adept5solveIdEENS_5ArrayILi1ET_Lb0EEERKNS1_ILi2ES2_Lb0EEERKS3_ = comdat any

$_ZN5adept5solveIdLNS_8internal21SymmMatrixOrientationE0EEENS_5ArrayILi1ET_Lb0EEERKNS_13SpecialMatrixIS4_NS1_10SymmEngineIXT0_EEELb0EEERKS5_ = comdat any

$_ZN5adept5solveIdLNS_8internal21SymmMatrixOrientationE1EEENS_5ArrayILi1ET_Lb0EEERKNS_13SpecialMatrixIS4_NS1_10SymmEngineIXT0_EEELb0EEERKS5_ = comdat any

$_ZN5adept5solveIdEENS_5ArrayILi2ET_Lb0EEERKS3_S5_ = comdat any

$_ZN5adept5solveIdLNS_8internal21SymmMatrixOrientationE0EEENS_5ArrayILi2ET_Lb0EEERKNS_13SpecialMatrixIS4_NS1_10SymmEngineIXT0_EEELb0EEERKS5_ = comdat any

$_ZN5adept5solveIdLNS_8internal21SymmMatrixOrientationE1EEENS_5ArrayILi2ET_Lb0EEERKNS_13SpecialMatrixIS4_NS1_10SymmEngineIXT0_EEELb0EEERKS5_ = comdat any

$_ZN5adept5ArrayILi1EdLb0EEC2Ei = comdat any

$_ZN5adept5ArrayILi1EdLb0EEclIiEENS_8internal9enable_ifIXaaaaeqLi1ELi1Esr15all_scalar_intsILi1ET_EE5valuentLb0EERdE4typeES5_ = comdat any

$_ZN5adept5ArrayILi1EdLb0EED2Ev = comdat any

$_ZN5adept5StackC2Eb = comdat any

$_ZN5adept6ActiveIdEC2Ev = comdat any

$_ZN5adept6ActiveIdED2Ev = comdat any

$_ZN5adept10set_valuesIdEEvPNS_6ActiveIT_EEiPKS2_ = comdat any

$_ZN5adept5Stack13new_recordingEv = comdat any

$_ZN9adeptTest13gmm_objectiveIN5adept6ActiveIdEEEEviiiPKT_S6_S6_PKd7WishartPS4_ = comdat any

$_ZNK5adept6ActiveIdE12set_gradientIdEEvRKT_ = comdat any

$_ZN5adept13get_gradientsIdEEvPKNS_6ActiveIT_EEiPS2_ = comdat any

$_ZSt5equalISt16reverse_iteratorIN9__gnu_cxx17__normal_iteratorIPKcNSt7__cxx1112basic_stringIcSt11char_traitsIcESaIcEEEEEESC_EbT_SD_T0_ = comdat any

$_ZSt11__equal_auxISt16reverse_iteratorIPKcES3_EbT_S4_T0_ = comdat any

$_ZSt12__niter_baseIN9__gnu_cxx17__normal_iteratorIPKcNSt7__cxx1112basic_stringIcSt11char_traitsIcESaIcEEEEEEDTcl23__make_reverse_iteratorcl12__niter_basecldtfp_4baseEEEESt16reverse_iteratorIT_E = comdat any

$_ZNSt16reverse_iteratorIN9__gnu_cxx17__normal_iteratorIPKcNSt7__cxx1112basic_stringIcSt11char_traitsIcESaIcEEEEEEC2ERKSB_ = comdat any

$_ZNSt7__equalILb0EE5equalISt16reverse_iteratorIPKcES5_EEbT_S6_T0_ = comdat any

$_ZNSt16reverse_iteratorIPKcEC2ERKS2_ = comdat any

$_ZStneIPKcEbRKSt16reverse_iteratorIT_ES6_ = comdat any

$_ZNKSt16reverse_iteratorIPKcEdeEv = comdat any

$_ZNSt16reverse_iteratorIPKcEppEv = comdat any

$_ZSteqIPKcEbRKSt16reverse_iteratorIT_ES6_ = comdat any

$_ZNKSt16reverse_iteratorIPKcE4baseEv = comdat any

$_ZSt23__make_reverse_iteratorIPKcESt16reverse_iteratorIT_ES3_ = comdat any

$_ZSt12__niter_baseIPKcNSt7__cxx1112basic_stringIcSt11char_traitsIcESaIcEEEET_N9__gnu_cxx17__normal_iteratorIS8_T0_EE = comdat any

$_ZNKSt16reverse_iteratorIN9__gnu_cxx17__normal_iteratorIPKcNSt7__cxx1112basic_stringIcSt11char_traitsIcESaIcEEEEEE4baseEv = comdat any

$_ZNSt16reverse_iteratorIPKcEC2ES1_ = comdat any

$_ZNK9__gnu_cxx17__normal_iteratorIPKcNSt7__cxx1112basic_stringIcSt11char_traitsIcESaIcEEEE4baseEv = comdat any

$_ZNSt16reverse_iteratorIN9__gnu_cxx17__normal_iteratorIPKcNSt7__cxx1112basic_stringIcSt11char_traitsIcESaIcEEEEEEC2ESA_ = comdat any

$_ZN9__gnu_cxx17__normal_iteratorIPKcNSt7__cxx1112basic_stringIcSt11char_traitsIcESaIcEEEEC2ERKS2_ = comdat any

$_ZNSt12_Vector_baseINSt7__cxx1112basic_stringIcSt11char_traitsIcESaIcEEESaIS5_EEC2Ev = comdat any

$_ZNSt12_Vector_baseINSt7__cxx1112basic_stringIcSt11char_traitsIcESaIcEEESaIS5_EE12_Vector_implC2Ev = comdat any

$_ZNSaINSt7__cxx1112basic_stringIcSt11char_traitsIcESaIcEEEEC2Ev = comdat any

$_ZNSt12_Vector_baseINSt7__cxx1112basic_stringIcSt11char_traitsIcESaIcEEESaIS5_EE17_Vector_impl_dataC2Ev = comdat any

$_ZN9__gnu_cxx13new_allocatorINSt7__cxx1112basic_stringIcSt11char_traitsIcESaIcEEEEC2Ev = comdat any

$_ZNSt6vectorIdSaIdEEC2Ev = comdat any

$_ZNSt12_Vector_baseIdSaIdEEC2Ev = comdat any

$_ZNSt12_Vector_baseIdSaIdEE12_Vector_implC2Ev = comdat any

$_ZNSt12_Vector_baseIdSaIdEE17_Vector_impl_dataC2Ev = comdat any

$_ZN9__gnu_cxx13new_allocatorIdEC2Ev = comdat any

$_ZNSt6vectorIdSaIdEED2Ev = comdat any

$_ZSt8_DestroyIPddEvT_S1_RSaIT0_E = comdat any

$_ZNSt12_Vector_baseIdSaIdEE19_M_get_Tp_allocatorEv = comdat any

$_ZNSt12_Vector_baseIdSaIdEED2Ev = comdat any

$_ZSt8_DestroyIPdEvT_S1_ = comdat any

$_ZNSt12_Destroy_auxILb1EE9__destroyIPdEEvT_S3_ = comdat any

$_ZNSt12_Vector_baseIdSaIdEE13_M_deallocateEPdm = comdat any

$_ZNSt16allocator_traitsISaIdEE10deallocateERS0_Pdm = comdat any

$_ZN9__gnu_cxx13new_allocatorIdE10deallocateEPdm = comdat any

$_ZNSt9exceptionC2ERKS_ = comdat any

$_ZN5adept15array_exceptionC2ERKNSt7__cxx1112basic_stringIcSt11char_traitsIcESaIcEEE = comdat any

$_ZN5adept17invalid_operationD0Ev = comdat any

$_ZNK5adept9exception4whatEv = comdat any

$_ZN5adept9exceptionC2Ev = comdat any

$_ZN5adept15array_exceptionD0Ev = comdat any

$_ZNSt9exceptionC2Ev = comdat any

$_ZN5adept9exceptionD0Ev = comdat any

$_ZNSt14pointer_traitsIPcE10pointer_toERc = comdat any

$_ZSt9addressofIcEPT_RS0_ = comdat any

$_ZSt11__addressofIcEPT_RS0_ = comdat any

$_ZSt4moveIRSaIcEEONSt16remove_referenceIT_E4typeEOS3_ = comdat any

$_ZN9__gnu_cxx13new_allocatorIcEC2ERKS1_ = comdat any

$_ZNSt11char_traitsIcE6assignERcRKc = comdat any

$_ZN9__gnu_cxx13new_allocatorIcED2Ev = comdat any

$_ZNSt7__cxx1110_List_baseIN5adept3GapESaIS2_EE8_M_clearEv = comdat any

$_ZN9__gnu_cxx13new_allocatorISt10_List_nodeIN5adept3GapEEED2Ev = comdat any

$_ZNSt10_List_nodeIN5adept3GapEE9_M_valptrEv = comdat any

$_ZNSt16allocator_traitsISaISt10_List_nodeIN5adept3GapEEEE7destroyIS2_EEvRS4_PT_ = comdat any

$_ZNSt7__cxx1110_List_baseIN5adept3GapESaIS2_EE21_M_get_Node_allocatorEv = comdat any

$_ZNSt7__cxx1110_List_baseIN5adept3GapESaIS2_EE11_M_put_nodeEPSt10_List_nodeIS2_E = comdat any

$_ZN9__gnu_cxx16__aligned_membufIN5adept3GapEE6_M_ptrEv = comdat any

$_ZN9__gnu_cxx16__aligned_membufIN5adept3GapEE7_M_addrEv = comdat any

$_ZN9__gnu_cxx13new_allocatorISt10_List_nodeIN5adept3GapEEE7destroyIS3_EEvPT_ = comdat any

$_ZNSt16allocator_traitsISaISt10_List_nodeIN5adept3GapEEEE10deallocateERS4_PS3_m = comdat any

$_ZN9__gnu_cxx13new_allocatorISt10_List_nodeIN5adept3GapEEE10deallocateEPS4_m = comdat any

$_ZN5adept18autodiff_exceptionC2Ev = comdat any

$_ZN5adept20stack_already_activeD0Ev = comdat any

$_ZN5adept18autodiff_exceptionD0Ev = comdat any

$_ZN5adept25gradients_not_initializedD0Ev = comdat any

$_ZN5adept21feature_not_availableD0Ev = comdat any

$_ZN5adept8internal6PacketIdEC2EDv2_d = comdat any

$_ZN5adept41dependents_or_independents_not_identifiedD0Ev = comdat any

$_ZN5adept8internal16StackStorageOrigC2Ev = comdat any

$_ZNSt6vectorIiSaIiEEC2Ev = comdat any

$_ZNSt7__cxx114listIN5adept3GapESaIS2_EEC2Ev = comdat any

$_ZN5adept8internal16StackStorageOrig10initializeEi = comdat any

$_ZNSt12_Vector_baseIiSaIiEEC2Ev = comdat any

$_ZNSt12_Vector_baseIiSaIiEE12_Vector_implC2Ev = comdat any

$_ZNSaIiEC2Ev = comdat any

$_ZNSt12_Vector_baseIiSaIiEE17_Vector_impl_dataC2Ev = comdat any

$_ZN9__gnu_cxx13new_allocatorIiEC2Ev = comdat any

$_ZNSt7__cxx1110_List_baseIN5adept3GapESaIS2_EEC2Ev = comdat any

$_ZNSt7__cxx1110_List_baseIN5adept3GapESaIS2_EE10_List_implC2Ev = comdat any

$_ZNSaISt10_List_nodeIN5adept3GapEEEC2Ev = comdat any

$_ZNSt8__detail17_List_node_headerC2Ev = comdat any

$_ZN9__gnu_cxx13new_allocatorISt10_List_nodeIN5adept3GapEEEC2Ev = comdat any

$_ZNSt8__detail17_List_node_header7_M_initEv = comdat any

$_ZN5adept8internal16StackStorageOrig11clear_stackEv = comdat any

$_ZN5adept5Stack18clear_independentsEv = comdat any

$_ZN5adept5Stack16clear_dependentsEv = comdat any

$_ZN5adept5Stack15clear_gradientsEv = comdat any

$_ZN5adept8internal16StackStorageOrig8push_lhsERKi = comdat any

$_ZNSt6vectorIiSaIiEE5clearEv = comdat any

$_ZNSt6vectorIiSaIiEE15_M_erase_at_endEPi = comdat any

$_ZSt8_DestroyIPiiEvT_S1_RSaIT0_E = comdat any

$_ZNSt12_Vector_baseIiSaIiEE19_M_get_Tp_allocatorEv = comdat any

$_ZSt8_DestroyIPiEvT_S1_ = comdat any

$_ZNSt12_Destroy_auxILb1EE9__destroyIPiEEvT_S3_ = comdat any

$_ZN9__gnu_cxx13new_allocatorIcEC2Ev = comdat any

$_ZNSt14pointer_traitsIPKcE10pointer_toERS0_ = comdat any

$_ZSt9addressofIKcEPT_RS1_ = comdat any

$_ZSt11__addressofIKcEPT_RS1_ = comdat any

$_ZNSt16allocator_traitsISaIcEE10deallocateERS0_Pcm = comdat any

$_ZN9__gnu_cxx13new_allocatorIcE10deallocateEPcm = comdat any

$_ZNSt11char_traitsIcE6lengthEPKc = comdat any

$_ZNSt16allocator_traitsISaIcEE8max_sizeERKS0_ = comdat any

$_ZNK9__gnu_cxx13new_allocatorIcE8max_sizeEv = comdat any

$_ZN9__gnu_cxx14__alloc_traitsISaIcEcE17_S_select_on_copyERKS1_ = comdat any

$_ZNSt7__cxx1112basic_stringIcSt11char_traitsIcESaIcEE12_M_constructIPcEEvT_S7_ = comdat any

$_ZNSt16allocator_traitsISaIcEE37select_on_container_copy_constructionERKS0_ = comdat any

$_ZNSt7__cxx1112basic_stringIcSt11char_traitsIcESaIcEE16_M_construct_auxIPcEEvT_S7_St12__false_type = comdat any

$_ZNSt7__cxx1112basic_stringIcSt11char_traitsIcESaIcEE12_M_constructIPcEEvT_S7_St20forward_iterator_tag = comdat any

$_ZN9__gnu_cxx17__is_null_pointerIcEEbPT_ = comdat any

$_ZSt8distanceIPcENSt15iterator_traitsIT_E15difference_typeES2_S2_ = comdat any

$_ZSt10__distanceIPcENSt15iterator_traitsIT_E15difference_typeES2_S2_St26random_access_iterator_tag = comdat any

$_ZSt19__iterator_categoryIPcENSt15iterator_traitsIT_E17iterator_categoryERKS2_ = comdat any

$_ZNSt11char_traitsIcE4copyEPcPKcm = comdat any

$_ZSt4moveIRNSt7__cxx1112basic_stringIcSt11char_traitsIcESaIcEEEEONSt16remove_referenceIT_E4typeEOS8_ = comdat any

$_ZNSt7__cxx1112basic_stringIcSt11char_traitsIcESaIcEE12_M_constructIPKcEEvT_S8_ = comdat any

$_ZNSt7__cxx1112basic_stringIcSt11char_traitsIcESaIcEE16_M_construct_auxIPKcEEvT_S8_St12__false_type = comdat any

$_ZNSt7__cxx1112basic_stringIcSt11char_traitsIcESaIcEE12_M_constructIPKcEEvT_S8_St20forward_iterator_tag = comdat any

$_ZN9__gnu_cxx17__is_null_pointerIKcEEbPT_ = comdat any

$_ZSt8distanceIPKcENSt15iterator_traitsIT_E15difference_typeES3_S3_ = comdat any

$_ZSt10__distanceIPKcENSt15iterator_traitsIT_E15difference_typeES3_S3_St26random_access_iterator_tag = comdat any

$_ZSt19__iterator_categoryIPKcENSt15iterator_traitsIT_E17iterator_categoryERKS3_ = comdat any

$_ZNSt6vectorINSt7__cxx1112basic_stringIcSt11char_traitsIcESaIcEEESaIS5_EE12emplace_backIJS5_EEEvDpOT_ = comdat any

$_ZNSt16allocator_traitsISaINSt7__cxx1112basic_stringIcSt11char_traitsIcESaIcEEEEE9constructIS5_JS5_EEEvRS6_PT_DpOT0_ = comdat any

$_ZSt7forwardINSt7__cxx1112basic_stringIcSt11char_traitsIcESaIcEEEEOT_RNSt16remove_referenceIS6_E4typeE = comdat any

$_ZNSt6vectorINSt7__cxx1112basic_stringIcSt11char_traitsIcESaIcEEESaIS5_EE17_M_realloc_insertIJS5_EEEvN9__gnu_cxx17__normal_iteratorIPS5_S7_EEDpOT_ = comdat any

$_ZN9__gnu_cxx13new_allocatorINSt7__cxx1112basic_stringIcSt11char_traitsIcESaIcEEEE9constructIS6_JS6_EEEvPT_DpOT0_ = comdat any

$_ZNKSt6vectorINSt7__cxx1112basic_stringIcSt11char_traitsIcESaIcEEESaIS5_EE12_M_check_lenEmPKc = comdat any

$_ZN9__gnu_cxxmiIPNSt7__cxx1112basic_stringIcSt11char_traitsIcESaIcEEESt6vectorIS6_SaIS6_EEEENS_17__normal_iteratorIT_T0_E15difference_typeERKSE_SH_ = comdat any

$_ZNSt12_Vector_baseINSt7__cxx1112basic_stringIcSt11char_traitsIcESaIcEEESaIS5_EE11_M_allocateEm = comdat any

$_ZNSt6vectorINSt7__cxx1112basic_stringIcSt11char_traitsIcESaIcEEESaIS5_EE11_S_relocateEPS5_S8_S8_RS6_ = comdat any

$_ZNK9__gnu_cxx17__normal_iteratorIPNSt7__cxx1112basic_stringIcSt11char_traitsIcESaIcEEESt6vectorIS6_SaIS6_EEE4baseEv = comdat any

$_ZNSt12_Vector_baseINSt7__cxx1112basic_stringIcSt11char_traitsIcESaIcEEESaIS5_EE19_M_get_Tp_allocatorEv = comdat any

$_ZNSt12_Vector_baseINSt7__cxx1112basic_stringIcSt11char_traitsIcESaIcEEESaIS5_EE13_M_deallocateEPS5_m = comdat any

$_ZNKSt6vectorINSt7__cxx1112basic_stringIcSt11char_traitsIcESaIcEEESaIS5_EE8max_sizeEv = comdat any

$_ZNKSt6vectorINSt7__cxx1112basic_stringIcSt11char_traitsIcESaIcEEESaIS5_EE4sizeEv = comdat any

$_ZSt3maxImERKT_S2_S2_ = comdat any

$_ZNSt6vectorINSt7__cxx1112basic_stringIcSt11char_traitsIcESaIcEEESaIS5_EE11_S_max_sizeERKS6_ = comdat any

$_ZNKSt12_Vector_baseINSt7__cxx1112basic_stringIcSt11char_traitsIcESaIcEEESaIS5_EE19_M_get_Tp_allocatorEv = comdat any

$_ZNSt16allocator_traitsISaINSt7__cxx1112basic_stringIcSt11char_traitsIcESaIcEEEEE8max_sizeERKS6_ = comdat any

$_ZSt3minImERKT_S2_S2_ = comdat any

$_ZNK9__gnu_cxx13new_allocatorINSt7__cxx1112basic_stringIcSt11char_traitsIcESaIcEEEE8max_sizeEv = comdat any

$_ZNSt16allocator_traitsISaINSt7__cxx1112basic_stringIcSt11char_traitsIcESaIcEEEEE8allocateERS6_m = comdat any

$_ZN9__gnu_cxx13new_allocatorINSt7__cxx1112basic_stringIcSt11char_traitsIcESaIcEEEE8allocateEmPKv = comdat any

$_ZNSt6vectorINSt7__cxx1112basic_stringIcSt11char_traitsIcESaIcEEESaIS5_EE14_S_do_relocateEPS5_S8_S8_RS6_St17integral_constantIbLb1EE = comdat any

$_ZSt12__relocate_aIPNSt7__cxx1112basic_stringIcSt11char_traitsIcESaIcEEES6_SaIS5_EET0_T_S9_S8_RT1_ = comdat any

$_ZSt14__relocate_a_1IPNSt7__cxx1112basic_stringIcSt11char_traitsIcESaIcEEES6_SaIS5_EET0_T_S9_S8_RT1_ = comdat any

$_ZSt12__niter_baseIPNSt7__cxx1112basic_stringIcSt11char_traitsIcESaIcEEEET_S7_ = comdat any

$_ZSt19__relocate_object_aINSt7__cxx1112basic_stringIcSt11char_traitsIcESaIcEEES5_SaIS5_EEvPT_PT0_RT1_ = comdat any

$_ZSt11__addressofINSt7__cxx1112basic_stringIcSt11char_traitsIcESaIcEEEEPT_RS6_ = comdat any

$_ZNSt16allocator_traitsISaINSt7__cxx1112basic_stringIcSt11char_traitsIcESaIcEEEEE7destroyIS5_EEvRS6_PT_ = comdat any

$_ZN9__gnu_cxx13new_allocatorINSt7__cxx1112basic_stringIcSt11char_traitsIcESaIcEEEE7destroyIS6_EEvPT_ = comdat any

$_ZNSt16allocator_traitsISaINSt7__cxx1112basic_stringIcSt11char_traitsIcESaIcEEEEE10deallocateERS6_PS5_m = comdat any

$_ZN9__gnu_cxx13new_allocatorINSt7__cxx1112basic_stringIcSt11char_traitsIcESaIcEEEE10deallocateEPS6_m = comdat any

$_ZNKSt6vectorIdSaIdEE4sizeEv = comdat any

$_ZNSt6vectorIdSaIdEE17_M_default_appendEm = comdat any

$_ZNSt6vectorIdSaIdEE15_M_erase_at_endEPd = comdat any

$_ZNKSt6vectorIdSaIdEE8max_sizeEv = comdat any

$_ZSt27__uninitialized_default_n_aIPdmdET_S1_T0_RSaIT1_E = comdat any

$_ZNKSt6vectorIdSaIdEE12_M_check_lenEmPKc = comdat any

$_ZNSt12_Vector_baseIdSaIdEE11_M_allocateEm = comdat any

$_ZNSt6vectorIdSaIdEE11_S_relocateEPdS2_S2_RS0_ = comdat any

$_ZNSt6vectorIdSaIdEE11_S_max_sizeERKS0_ = comdat any

$_ZNKSt12_Vector_baseIdSaIdEE19_M_get_Tp_allocatorEv = comdat any

$_ZNSt16allocator_traitsISaIdEE8max_sizeERKS0_ = comdat any

$_ZNK9__gnu_cxx13new_allocatorIdE8max_sizeEv = comdat any

$_ZSt25__uninitialized_default_nIPdmET_S1_T0_ = comdat any

$_ZNSt27__uninitialized_default_n_1ILb1EE18__uninit_default_nIPdmEET_S3_T0_ = comdat any

$_ZSt6fill_nIPdmdET_S1_T0_RKT1_ = comdat any

$_ZSt12__niter_wrapIPdET_RKS1_S1_ = comdat any

$_ZSt10__fill_n_aIPdmdEN9__gnu_cxx11__enable_ifIXsr11__is_scalarIT1_EE7__valueET_E6__typeES4_T0_RKS3_ = comdat any

$_ZSt12__niter_baseIPdET_S1_ = comdat any

$_ZNSt16allocator_traitsISaIdEE8allocateERS0_m = comdat any

$_ZN9__gnu_cxx13new_allocatorIdE8allocateEmPKv = comdat any

$_ZNSt6vectorIdSaIdEE14_S_do_relocateEPdS2_S2_RS0_St17integral_constantIbLb1EE = comdat any

$_ZSt12__relocate_aIPdS0_SaIdEET0_T_S3_S2_RT1_ = comdat any

$_ZSt14__relocate_a_1IddENSt9enable_ifIXsr3std24__is_bitwise_relocatableIT_EE5valueEPS1_E4typeES2_S2_S2_RSaIT0_E = comdat any

$_ZSt8_DestroyIPNSt7__cxx1112basic_stringIcSt11char_traitsIcESaIcEEES5_EvT_S7_RSaIT0_E = comdat any

$_ZNSt12_Vector_baseINSt7__cxx1112basic_stringIcSt11char_traitsIcESaIcEEESaIS5_EED2Ev = comdat any

$_ZSt8_DestroyIPNSt7__cxx1112basic_stringIcSt11char_traitsIcESaIcEEEEvT_S7_ = comdat any

$_ZNSt12_Destroy_auxILb0EE9__destroyIPNSt7__cxx1112basic_stringIcSt11char_traitsIcESaIcEEEEEvT_S9_ = comdat any

$_ZSt8_DestroyINSt7__cxx1112basic_stringIcSt11char_traitsIcESaIcEEEEvPT_ = comdat any

$_ZN9__gnu_cxx13new_allocatorINSt7__cxx1112basic_stringIcSt11char_traitsIcESaIcEEEED2Ev = comdat any

$_ZN9__gnu_cxx17__normal_iteratorIPNSt7__cxx1112basic_stringIcSt11char_traitsIcESaIcEEESt6vectorIS6_SaIS6_EEEC2ERKS7_ = comdat any

$_ZNSt6vectorIdSaIdEE17_S_check_init_lenEmRKS0_ = comdat any

$_ZNSt12_Vector_baseIdSaIdEEC2EmRKS0_ = comdat any

$_ZNSt6vectorIdSaIdEE21_M_default_initializeEm = comdat any

$_ZNSaIdEC2ERKS_ = comdat any

$_ZN9__gnu_cxx13new_allocatorIdEC2ERKS1_ = comdat any

$_ZNSt12_Vector_baseIdSaIdEE12_Vector_implC2ERKS0_ = comdat any

$_ZNSt12_Vector_baseIdSaIdEE17_M_create_storageEm = comdat any

$_ZNSt6vectorIdSaIdEE4dataEv = comdat any

$_ZNKSt6vectorIdSaIdEE11_M_data_ptrIdEEPT_S4_ = comdat any

$_ZStorSt13_Ios_OpenmodeS_ = comdat any

$_ZNSt7__cxx1115basic_stringbufIcSt11char_traitsIcESaIcEED2Ev = comdat any

$_ZStorSt12_Ios_IostateS_ = comdat any

$_ZNSt7__cxx1112basic_stringIcSt11char_traitsIcESaIcEE6assignIPcvEERS4_T_S8_ = comdat any

$_ZN9__gnu_cxx17__normal_iteratorIPKcNSt7__cxx1112basic_stringIcSt11char_traitsIcESaIcEEEEC2IPcEERKNS0_IT_NS_11__enable_ifIXsr3std10__are_sameISC_SB_EE7__valueES8_E6__typeEEE = comdat any

$_ZN9__gnu_cxxmiIPKcPcNSt7__cxx1112basic_stringIcSt11char_traitsIcESaIcEEEEEDTmicldtfp_4baseEcldtfp0_4baseEERKNS_17__normal_iteratorIT_T1_EERKNSB_IT0_SD_EE = comdat any

$_ZN9__gnu_cxxmiIPKcNSt7__cxx1112basic_stringIcSt11char_traitsIcESaIcEEEEENS_17__normal_iteratorIT_T0_E15difference_typeERKSC_SF_ = comdat any

$_ZNK9__gnu_cxx17__normal_iteratorIPcNSt7__cxx1112basic_stringIcSt11char_traitsIcESaIcEEEE4baseEv = comdat any

$_ZN9__gnu_cxx17__normal_iteratorIPcNSt7__cxx1112basic_stringIcSt11char_traitsIcESaIcEEEEC2ERKS1_ = comdat any

$_ZNSt12_Vector_baseIiSaIiEED2Ev = comdat any

$_ZNSt12_Vector_baseIiSaIiEE13_M_deallocateEPim = comdat any

$_ZN9__gnu_cxx13new_allocatorIiED2Ev = comdat any

$_ZNSt16allocator_traitsISaIiEE10deallocateERS0_Pim = comdat any

$_ZN9__gnu_cxx13new_allocatorIiE10deallocateEPim = comdat any

$_ZNSt14_List_iteratorIN5adept3GapEEC2EPNSt8__detail15_List_node_baseE = comdat any

$_ZNSt14_List_iteratorIN5adept3GapEEmmEv = comdat any

$_ZNSt7__cxx114listIN5adept3GapESaIS2_EE8_M_eraseESt14_List_iteratorIS2_E = comdat any

$_ZNSt7__cxx1110_List_baseIN5adept3GapESaIS2_EE11_M_dec_sizeEm = comdat any

$_ZNKSt20_List_const_iteratorIN5adept3GapEE13_M_const_castEv = comdat any

$_ZNSt7__cxx114listIN5adept3GapESaIS2_EE7emplaceIJS2_EEESt14_List_iteratorIS2_ESt20_List_const_iteratorIS2_EDpOT_ = comdat any

$_ZSt4moveIRN5adept3GapEEONSt16remove_referenceIT_E4typeEOS4_ = comdat any

$_ZNSt7__cxx114listIN5adept3GapESaIS2_EE14_M_create_nodeIJS2_EEEPSt10_List_nodeIS2_EDpOT_ = comdat any

$_ZSt7forwardIN5adept3GapEEOT_RNSt16remove_referenceIS2_E4typeE = comdat any

$_ZNSt7__cxx1110_List_baseIN5adept3GapESaIS2_EE11_M_inc_sizeEm = comdat any

$_ZNSt7__cxx1110_List_baseIN5adept3GapESaIS2_EE11_M_get_nodeEv = comdat any

$_ZNSt15__allocated_ptrISaISt10_List_nodeIN5adept3GapEEEEC2ERS4_PS3_ = comdat any

$_ZNSt16allocator_traitsISaISt10_List_nodeIN5adept3GapEEEE9constructIS2_JS2_EEEvRS4_PT_DpOT0_ = comdat any

$_ZNSt15__allocated_ptrISaISt10_List_nodeIN5adept3GapEEEEaSEDn = comdat any

$_ZNSt15__allocated_ptrISaISt10_List_nodeIN5adept3GapEEEED2Ev = comdat any

$_ZNSt16allocator_traitsISaISt10_List_nodeIN5adept3GapEEEE8allocateERS4_m = comdat any

$_ZN9__gnu_cxx13new_allocatorISt10_List_nodeIN5adept3GapEEE8allocateEmPKv = comdat any

$_ZNK9__gnu_cxx13new_allocatorISt10_List_nodeIN5adept3GapEEE8max_sizeEv = comdat any

$_ZSt11__addressofISaISt10_List_nodeIN5adept3GapEEEEPT_RS5_ = comdat any

$_ZN9__gnu_cxx13new_allocatorISt10_List_nodeIN5adept3GapEEE9constructIS3_JS3_EEEvPT_DpOT0_ = comdat any

$_ZNSt7__cxx114listIN5adept3GapESaIS2_EE9_M_insertIJS2_EEEvSt14_List_iteratorIS2_EDpOT_ = comdat any

$_ZNSt20_List_const_iteratorIN5adept3GapEEC2EPKNSt8__detail15_List_node_baseE = comdat any

$_ZNKSt10_List_nodeIN5adept3GapEE9_M_valptrEv = comdat any

$_ZNK9__gnu_cxx16__aligned_membufIN5adept3GapEE6_M_ptrEv = comdat any

$_ZNK9__gnu_cxx16__aligned_membufIN5adept3GapEE7_M_addrEv = comdat any

$_ZNKSt7__cxx114listIN5adept3GapESaIS2_EE13_M_node_countEv = comdat any

$_ZNKSt7__cxx1110_List_baseIN5adept3GapESaIS2_EE11_M_get_sizeEv = comdat any

$_ZNSt9bad_allocC2Ev = comdat any

$_ZN9__gnu_cxxeqIPKiSt6vectorIiSaIiEEEEbRKNS_17__normal_iteratorIT_T0_EESB_ = comdat any

$_ZNKSt6vectorIiSaIiEE5beginEv = comdat any

$_ZNKSt6vectorIiSaIiEE3endEv = comdat any

$_ZNK9__gnu_cxx17__normal_iteratorIPKiSt6vectorIiSaIiEEE4baseEv = comdat any

$_ZN9__gnu_cxx17__normal_iteratorIPKiSt6vectorIiSaIiEEEC2ERKS2_ = comdat any

$_ZN9__gnu_cxx13new_allocatorIN5adept5BlockILi2EdEEEC2Ev = comdat any

$_ZNSt6vectorIN5adept5BlockILi2EdEESaIS2_EE17_S_check_init_lenEmRKS3_ = comdat any

$_ZNSt12_Vector_baseIN5adept5BlockILi2EdEESaIS2_EEC2EmRKS3_ = comdat any

$_ZNSt6vectorIN5adept5BlockILi2EdEESaIS2_EE21_M_default_initializeEm = comdat any

$_ZNSt12_Vector_baseIN5adept5BlockILi2EdEESaIS2_EED2Ev = comdat any

$_ZNSt6vectorIN5adept5BlockILi2EdEESaIS2_EE11_S_max_sizeERKS3_ = comdat any

$_ZNSaIN5adept5BlockILi2EdEEEC2ERKS2_ = comdat any

$_ZNSt16allocator_traitsISaIN5adept5BlockILi2EdEEEE8max_sizeERKS3_ = comdat any

$_ZNK9__gnu_cxx13new_allocatorIN5adept5BlockILi2EdEEE8max_sizeEv = comdat any

$_ZN9__gnu_cxx13new_allocatorIN5adept5BlockILi2EdEEEC2ERKS4_ = comdat any

$_ZNSt12_Vector_baseIN5adept5BlockILi2EdEESaIS2_EE12_Vector_implC2ERKS3_ = comdat any

$_ZNSt12_Vector_baseIN5adept5BlockILi2EdEESaIS2_EE17_M_create_storageEm = comdat any

$_ZN9__gnu_cxx13new_allocatorIN5adept5BlockILi2EdEEED2Ev = comdat any

$_ZNSt12_Vector_baseIN5adept5BlockILi2EdEESaIS2_EE17_Vector_impl_dataC2Ev = comdat any

$_ZNSt12_Vector_baseIN5adept5BlockILi2EdEESaIS2_EE11_M_allocateEm = comdat any

$_ZNSt16allocator_traitsISaIN5adept5BlockILi2EdEEEE8allocateERS3_m = comdat any

$_ZN9__gnu_cxx13new_allocatorIN5adept5BlockILi2EdEEE8allocateEmPKv = comdat any

$_ZSt27__uninitialized_default_n_aIPN5adept5BlockILi2EdEEmS2_ET_S4_T0_RSaIT1_E = comdat any

$_ZNSt12_Vector_baseIN5adept5BlockILi2EdEESaIS2_EE19_M_get_Tp_allocatorEv = comdat any

$_ZSt25__uninitialized_default_nIPN5adept5BlockILi2EdEEmET_S4_T0_ = comdat any

$_ZNSt27__uninitialized_default_n_1ILb0EE18__uninit_default_nIPN5adept5BlockILi2EdEEmEET_S6_T0_ = comdat any

$_ZSt10_ConstructIN5adept5BlockILi2EdEEJEEvPT_DpOT0_ = comdat any

$_ZSt11__addressofIN5adept5BlockILi2EdEEEPT_RS3_ = comdat any

$_ZSt8_DestroyIPN5adept5BlockILi2EdEEEvT_S4_ = comdat any

$_ZNSt12_Destroy_auxILb1EE9__destroyIPN5adept5BlockILi2EdEEEEvT_S6_ = comdat any

$_ZNSt12_Vector_baseIN5adept5BlockILi2EdEESaIS2_EE13_M_deallocateEPS2_m = comdat any

$_ZNSt16allocator_traitsISaIN5adept5BlockILi2EdEEEE10deallocateERS3_PS2_m = comdat any

$_ZN9__gnu_cxx13new_allocatorIN5adept5BlockILi2EdEEE10deallocateEPS3_m = comdat any

$_ZSt8_DestroyIPN5adept5BlockILi2EdEES2_EvT_S4_RSaIT0_E = comdat any

$_ZN5adept8internal13GradientIndexILb0EEC2Ei = comdat any

$_ZN5adept14ExpressionSizeILi1EEC2Ev = comdat any

$_ZN5adept5ArrayILi1EdLb0EE7resize_ILi1EEENS_8internal9enable_ifIXeqLi1ET_EvE4typeEiiiiiii = comdat any

$_ZN5adept5ArrayILi1EdLb0EE6resizeEPKib = comdat any

$_ZN5adept7StorageIdE11remove_linkEv = comdat any

$_ZStplIcSt11char_traitsIcESaIcEENSt7__cxx1112basic_stringIT_T0_T1_EEPKS5_OS8_ = comdat any

$_ZN5adept8internal18exception_locationB5cxx11EPKci = comdat any

$_ZN5adept17invalid_dimensionC2ERKNSt7__cxx1112basic_stringIcSt11char_traitsIcESaIcEEE = comdat any

$_ZN5adept5ArrayILi1EdLb0EE5clearEv = comdat any

$_ZN5adept14ExpressionSizeILi1EE4copyEPKi = comdat any

$_ZN5adept5ArrayILi1EdLb0EE16pack_contiguous_Ev = comdat any

$_ZN5adept5ArrayILi1EdLb0EE5pack_Ev = comdat any

$_ZN5adept14ExpressionSizeILi1EEixEi = comdat any

$_ZNK5adept5ArrayILi1EdLb0EE4sizeEv = comdat any

$_ZN5adept7StorageIdEC2Eib = comdat any

$_ZN5adept7StorageIdE4dataEv = comdat any

$_ZN5adept8internal13GradientIndexILb0EE3setIdEEvPKT_PKNS_7StorageIS4_EE = comdat any

$_ZN5adept7StorageIdED2Ev = comdat any

$_ZN5adept17invalid_dimensionD0Ev = comdat any

$_ZN5adept14ExpressionSizeILi1EE7set_allEi = comdat any

$_ZN5adept8internal13GradientIndexILb0EE5clearEv = comdat any

$_ZN5adept5ArrayILi1EdLb0EE26pack_row_major_contiguous_Ev = comdat any

$_ZN5adept5ArrayILi1EdLb0EE18pack_column_major_Ev = comdat any

$_ZN5adept5ArrayILi1EdLb0EE15pack_row_major_Ev = comdat any

$_ZNK5adept14ExpressionSizeILi1EEixEi = comdat any

$_ZN5adept5Stack18register_gradientsERKi = comdat any

$_ZN5adept8internal18get_index_with_lenEii = comdat any

$_ZN5adept5Stack17register_gradientEv = comdat any

$_ZNSt7__cxx114listIN5adept3GapESaIS2_EE5frontEv = comdat any

$_ZNSt7__cxx114listIN5adept3GapESaIS2_EE9pop_frontEv = comdat any

$_ZN5adept5Stack19unregister_gradientERKi = comdat any

$_ZN5adept6ActiveIdE9set_valueIdEEvRKT_ = comdat any

$_ZNSaIN5adept6ActiveIdEEEC2Ev = comdat any

$_ZNSt6vectorIN5adept6ActiveIdEESaIS2_EEC2EmRKS3_ = comdat any

$_ZN9adeptTest13preprocess_qsIN5adept6ActiveIdEEEEviiPKT_PS4_S7_ = comdat any

$_ZNSt6vectorIN5adept6ActiveIdEESaIS2_EEixEm = comdat any

$_ZN5adept6ActiveIdEC2IdEERKT_PNS_8internal9enable_ifIXsr17is_not_expressionIS3_EE5valueEvE4typeE = comdat any

$_ZN9adeptTest8subtractIdN5adept6ActiveIdEES3_EEviPKT_PKT0_PT1_ = comdat any

$_ZN9adeptTest7QtimesxIN5adept6ActiveIdEEEEviPKT_S6_S6_PS4_ = comdat any

$_ZN5adeptmiINS_8internal15BinaryOperationIdNS_6ActiveIdEENS1_3AddES4_EENS1_18BinaryOpScalarLeftIddNS1_8MultiplyES4_EEEENS1_9enable_ifIXsr8internal15rank_compatibleIXsrT_4rankEXsrT0_4rankEEE5valueENS2_INS1_7promoteINSB_4typeENSC_4typeEE4typeESB_NS1_8SubtractESC_EEE4typeERKNS_10ExpressionISE_SB_EERKNSM_ISF_SC_EE = comdat any

$_ZN5adeptplINS_6ActiveIdEES2_EENS_8internal9enable_ifIXsr8internal15rank_compatibleIXsrT_4rankEXsrT0_4rankEEE5valueENS3_15BinaryOperationINS3_7promoteINS5_4typeENS6_4typeEE4typeES5_NS3_3AddES6_EEE4typeERKNS_10ExpressionIS9_S5_EERKNSH_ISA_S6_EE = comdat any

$_ZN5adeptmlIdNS_6ActiveIdEEEENS_8internal9enable_ifIXsr8internal17is_not_expressionIT_EE5valueENS3_18BinaryOpScalarLeftINS3_7promoteIS5_NT0_4typeEE4typeES5_NS3_8MultiplyES8_EEE4typeERKS5_RKNS_10ExpressionIS9_S8_EE = comdat any

$_ZN9adeptTest6sqnormIN5adept6ActiveIdEEEET_iPKS4_ = comdat any

$_ZN5adept6ActiveIdEaSIdNS_8internal15BinaryOperationIdNS4_IdS1_NS3_3AddES1_EENS3_8SubtractENS3_18BinaryOpScalarLeftIddNS3_8MultiplyES1_EEEEEENS3_9enable_ifIXaasrT0_9is_activeeqsrSD_4rankLi0EERS1_E4typeERKNS_10ExpressionIT_SD_EE = comdat any

$_ZN9adeptTest9logsumexpIN5adept6ActiveIdEEEET_iPKS4_ = comdat any

$_ZN5adept6ActiveIdEaSIdNS_8internal15BinaryOperationIdS1_NS3_3AddES1_EEEENS3_9enable_ifIXaasrT0_9is_activeeqsrS8_4rankLi0EERS1_E4typeERKNS_10ExpressionIT_S8_EE = comdat any

$_ZN5adeptmiINS_8internal18BinaryOpScalarLeftIddNS1_3AddENS_6ActiveIdEEEENS2_IdiNS1_8MultiplyES5_EEEENS1_9enable_ifIXsr8internal15rank_compatibleIXsrT_4rankEXsrT0_4rankEEE5valueENS1_15BinaryOperationINS1_7promoteINSA_4typeENSB_4typeEE4typeESA_NS1_8SubtractESB_EEE4typeERKNS_10ExpressionISE_SA_EERKNSM_ISF_SB_EE = comdat any

$_ZN5adeptplIdNS_6ActiveIdEEEENS_8internal9enable_ifIXsr8internal17is_not_expressionIT_EE5valueENS3_18BinaryOpScalarLeftINS3_7promoteIS5_NT0_4typeEE4typeES5_NS3_3AddES8_EEE4typeERKS5_RKNS_10ExpressionIS9_S8_EE = comdat any

$_ZN5adeptmlIiNS_6ActiveIdEEEENS_8internal9enable_ifIXsr8internal17is_not_expressionIT_EE5valueENS3_18BinaryOpScalarLeftINS3_7promoteIS5_NT0_4typeEE4typeES5_NS3_8MultiplyES8_EEE4typeERKS5_RKNS_10ExpressionIS9_S8_EE = comdat any

$_ZN5adept6ActiveIdEaSIdNS_8internal15BinaryOperationIdNS3_18BinaryOpScalarLeftIddNS3_3AddES1_EENS3_8SubtractENS5_IdiNS3_8MultiplyES1_EEEEEENS3_9enable_ifIXaasrT0_9is_activeeqsrSD_4rankLi0EERS1_E4typeERKNS_10ExpressionIT_SD_EE = comdat any

$_ZN9adeptTest17log_wishart_priorIN5adept6ActiveIdEEEET_ii7WishartPKS4_S7_S7_ = comdat any

$_ZNSt6vectorIN5adept6ActiveIdEESaIS2_EED2Ev = comdat any

$_ZN9__gnu_cxx13new_allocatorIN5adept6ActiveIdEEEC2Ev = comdat any

$_ZNSt6vectorIN5adept6ActiveIdEESaIS2_EE17_S_check_init_lenEmRKS3_ = comdat any

$_ZNSt12_Vector_baseIN5adept6ActiveIdEESaIS2_EEC2EmRKS3_ = comdat any

$_ZNSt6vectorIN5adept6ActiveIdEESaIS2_EE21_M_default_initializeEm = comdat any

$_ZNSt12_Vector_baseIN5adept6ActiveIdEESaIS2_EED2Ev = comdat any

$_ZNSt6vectorIN5adept6ActiveIdEESaIS2_EE11_S_max_sizeERKS3_ = comdat any

$_ZNSaIN5adept6ActiveIdEEEC2ERKS2_ = comdat any

$_ZNSt16allocator_traitsISaIN5adept6ActiveIdEEEE8max_sizeERKS3_ = comdat any

$_ZNK9__gnu_cxx13new_allocatorIN5adept6ActiveIdEEE8max_sizeEv = comdat any

$_ZN9__gnu_cxx13new_allocatorIN5adept6ActiveIdEEEC2ERKS4_ = comdat any

$_ZNSt12_Vector_baseIN5adept6ActiveIdEESaIS2_EE12_Vector_implC2ERKS3_ = comdat any

$_ZNSt12_Vector_baseIN5adept6ActiveIdEESaIS2_EE17_M_create_storageEm = comdat any

$_ZN9__gnu_cxx13new_allocatorIN5adept6ActiveIdEEED2Ev = comdat any

$_ZNSt12_Vector_baseIN5adept6ActiveIdEESaIS2_EE17_Vector_impl_dataC2Ev = comdat any

$_ZNSt12_Vector_baseIN5adept6ActiveIdEESaIS2_EE11_M_allocateEm = comdat any

$_ZNSt16allocator_traitsISaIN5adept6ActiveIdEEEE8allocateERS3_m = comdat any

$_ZN9__gnu_cxx13new_allocatorIN5adept6ActiveIdEEE8allocateEmPKv = comdat any

$_ZSt27__uninitialized_default_n_aIPN5adept6ActiveIdEEmS2_ET_S4_T0_RSaIT1_E = comdat any

$_ZNSt12_Vector_baseIN5adept6ActiveIdEESaIS2_EE19_M_get_Tp_allocatorEv = comdat any

$_ZSt25__uninitialized_default_nIPN5adept6ActiveIdEEmET_S4_T0_ = comdat any

$_ZNSt27__uninitialized_default_n_1ILb0EE18__uninit_default_nIPN5adept6ActiveIdEEmEET_S6_T0_ = comdat any

$_ZSt10_ConstructIN5adept6ActiveIdEEJEEvPT_DpOT0_ = comdat any

$_ZSt11__addressofIN5adept6ActiveIdEEEPT_RS3_ = comdat any

$_ZSt8_DestroyIPN5adept6ActiveIdEEEvT_S4_ = comdat any

$_ZNSt12_Destroy_auxILb0EE9__destroyIPN5adept6ActiveIdEEEEvT_S6_ = comdat any

$_ZSt8_DestroyIN5adept6ActiveIdEEEvPT_ = comdat any

$_ZNSt12_Vector_baseIN5adept6ActiveIdEESaIS2_EE13_M_deallocateEPS2_m = comdat any

$_ZNSt16allocator_traitsISaIN5adept6ActiveIdEEEE10deallocateERS3_PS2_m = comdat any

$_ZN9__gnu_cxx13new_allocatorIN5adept6ActiveIdEEE10deallocateEPS3_m = comdat any

$_ZN5adept6ActiveIdEaSIdEENS_8internal9enable_ifIXsr17is_not_expressionIT_EE5valueERS1_E4typeERKS5_ = comdat any

$_ZN5adept6ActiveIdEC2ERKS1_ = comdat any

$_ZN5adept3expIdNS_6ActiveIdEEEENS_8internal14UnaryOperationIT_NS3_3ExpET0_EERKNS_10ExpressionIS5_S7_EE = comdat any

$_ZN5adept6ActiveIdEaSIdNS_8internal14UnaryOperationIdNS3_3ExpES1_EEEENS3_9enable_ifIXaasrT0_9is_activeeqsrS8_4rankLi0EERS1_E4typeERKNS_10ExpressionIT_S8_EE = comdat any

$_ZN5adept6ActiveIdEaSERKS1_ = comdat any

$_ZN5adept8internal16StackStorageOrig11check_spaceEi = comdat any

$_ZNK5adept10ExpressionIdNS_6ActiveIdEEE25scalar_value_and_gradientERNS_5StackE = comdat any

$_ZN5adept8internal13ScratchVectorILi0EdEC2Ev = comdat any

$_ZN5adept14ExpressionSizeILi0EEC2Ev = comdat any

$_ZNK5adept10ExpressionIdNS_6ActiveIdEEE4castEv = comdat any

$_ZNK5adept6ActiveIdE24value_at_location_store_ILi0ELi0ELi0ELi0EEEdRKNS_14ExpressionSizeIXT1_EEERNS_8internal13ScratchVectorIXT2_EdEE = comdat any

$_ZNK5adept6ActiveIdE14calc_gradient_ILi0ELi0ELi0ELi0EEEvRNS_5StackERKNS_14ExpressionSizeIXT1_EEERKNS_8internal13ScratchVectorIXT2_EdEE = comdat any

$_ZN5adept8internal16StackStorageOrig8push_rhsERKdRKi = comdat any

$_ZN5adept8internal14UnaryOperationIdNS0_3ExpENS_6ActiveIdEEEC2ERKNS_10ExpressionIdS4_EE = comdat any

$_ZN5adept8internal16StackStorageOrig18check_space_staticILi1EEEvv = comdat any

$_ZNK5adept10ExpressionIdNS_8internal14UnaryOperationIdNS1_3ExpENS_6ActiveIdEEEEE25scalar_value_and_gradientERNS_5StackE = comdat any

$_ZN5adept8internal13ScratchVectorILi1EdEC2Ev = comdat any

$_ZNK5adept10ExpressionIdNS_8internal14UnaryOperationIdNS1_3ExpENS_6ActiveIdEEEEE4castEv = comdat any

$_ZNK5adept8internal14UnaryOperationIdNS0_3ExpENS_6ActiveIdEEE24value_at_location_store_ILi0ELi0ELi0ELi1EEEdRKNS_14ExpressionSizeIXT1_EEERNS0_13ScratchVectorIXT2_EdEE = comdat any

$_ZNK5adept8internal14UnaryOperationIdNS0_3ExpENS_6ActiveIdEEE14calc_gradient_ILi0ELi0ELi0ELi1EEEvRNS_5StackERKNS_14ExpressionSizeIXT1_EEERKNS0_13ScratchVectorIXT2_EdEE = comdat any

$_ZNK5adept8internal3ExpIdE9operationIdEET_RKS4_ = comdat any

$_ZNK5adept6ActiveIdE24value_at_location_store_ILi0ELi1ELi0ELi1EEEdRKNS_14ExpressionSizeIXT1_EEERNS_8internal13ScratchVectorIXT2_EdEE = comdat any

$_ZN5adept8internal13ScratchVectorILi1EdEixEi = comdat any

$_ZNK5adept6ActiveIdE14calc_gradient_ILi0ELi1ELi0ELi1EdEEvRNS_5StackERKNS_14ExpressionSizeIXT1_EEERKNS_8internal13ScratchVectorIXT2_EdEERKT3_ = comdat any

$_ZNK5adept8internal3ExpIdE10derivativeERKdS4_ = comdat any

$_ZNK5adept6ActiveIdE13value_stored_ILi0ELi1ELi0ELi1EEEdRKNS_14ExpressionSizeIXT1_EEERKNS_8internal13ScratchVectorIXT2_EdEE = comdat any

$_ZNK5adept8internal13ScratchVectorILi1EdEixEi = comdat any

$_ZN5adeptmiIdNS_6ActiveIdEEEENS_8internal9enable_ifIXsr8internal17is_not_expressionIT_EE5valueENS3_18BinaryOpScalarLeftINS3_7promoteIS5_NT0_4typeEE4typeES5_NS3_8SubtractES8_EEE4typeERKS5_RKNS_10ExpressionIS9_S8_EE = comdat any

$_ZN5adept6ActiveIdEaSIdNS_8internal18BinaryOpScalarLeftIddNS3_8SubtractES1_EEEENS3_9enable_ifIXaasrT0_9is_activeeqsrS8_4rankLi0EERS1_E4typeERKNS_10ExpressionIT_S8_EE = comdat any

$_ZN5adept8internal18BinaryOpScalarLeftIddNS0_8SubtractENS_6ActiveIdEEEC2EdRKNS_10ExpressionIdS4_EE = comdat any

$_ZNK5adept10ExpressionIdNS_8internal18BinaryOpScalarLeftIddNS1_8SubtractENS_6ActiveIdEEEEE25scalar_value_and_gradientERNS_5StackE = comdat any

$_ZNK5adept10ExpressionIdNS_8internal18BinaryOpScalarLeftIddNS1_8SubtractENS_6ActiveIdEEEEE4castEv = comdat any

$_ZNK5adept8internal18BinaryOpScalarLeftIddNS0_8SubtractENS_6ActiveIdEEE24value_at_location_store_ILi0ELi0ELi0ELi1EEEdRKNS_14ExpressionSizeIXT1_EEERNS0_13ScratchVectorIXT2_EdEE = comdat any

$_ZNK5adept8internal18BinaryOpScalarLeftIddNS0_8SubtractENS_6ActiveIdEEE14calc_gradient_ILi0ELi0ELi0ELi1EEEvRNS_5StackERKNS_14ExpressionSizeIXT1_EEERKNS0_13ScratchVectorIXT2_EdEE = comdat any

$_ZNK5adept8internal18BinaryOpScalarLeftIddNS0_8SubtractENS_6ActiveIdEEE27my_value_at_location_store_ILi1ELi0ELi0ELi0ELi1EEENS0_9enable_ifIXeqT_Li1EEdE4typeERKNS_14ExpressionSizeIXT2_EEERNS0_13ScratchVectorIXT3_EdEE = comdat any

$_ZNK5adept8internal8Subtract9operationIddEENS0_7promoteIT_T0_E4typeERKS4_RKS5_ = comdat any

$_ZNK5adept8internal6PacketIdE5valueEv = comdat any

$_ZNK5adept8internal18BinaryOpScalarLeftIddNS0_8SubtractENS_6ActiveIdEEE11calc_right_ILi0ELi0ELi0ELi1ES4_EENS0_9enable_ifIXsrT3_9is_activeEvE4typeERNS_5StackERKS8_RKNS_14ExpressionSizeIXT1_EEERKNS0_13ScratchVectorIXT2_EdEE = comdat any

$_ZNK5adept8internal8Subtract10calc_rightILi0ELi0ELi0ELi1ENS0_6ScalarIdEENS_6ActiveIdEEEEvRNS_5StackERKT3_RKT4_RKNS_14ExpressionSizeIXT1_EEERKNS0_13ScratchVectorIXT2_EdEE = comdat any

$_ZN5adept8internal6ScalarIdEC2ERKd = comdat any

$_ZN5adeptmlINS_6ActiveIdEES2_EENS_8internal9enable_ifIXsr8internal15rank_compatibleIXsrT_4rankEXsrT0_4rankEEE5valueENS3_15BinaryOperationINS3_7promoteINS5_4typeENS6_4typeEE4typeES5_NS3_8MultiplyES6_EEE4typeERKNS_10ExpressionIS9_S5_EERKNSH_ISA_S6_EE = comdat any

$_ZN5adept6ActiveIdEaSIdNS_8internal15BinaryOperationIdS1_NS3_8MultiplyES1_EEEENS3_9enable_ifIXaasrT0_9is_activeeqsrS8_4rankLi0EERS1_E4typeERKNS_10ExpressionIT_S8_EE = comdat any

$_ZN5adeptplINS_6ActiveIdEENS_8internal15BinaryOperationIdS2_NS3_8MultiplyES2_EEEENS3_9enable_ifIXsr8internal15rank_compatibleIXsrT_4rankEXsrT0_4rankEEE5valueENS4_INS3_7promoteINS8_4typeENS9_4typeEE4typeES8_NS3_3AddES9_EEE4typeERKNS_10ExpressionISB_S8_EERKNSJ_ISC_S9_EE = comdat any

$_ZN5adept6ActiveIdEaSIdNS_8internal15BinaryOperationIdS1_NS3_3AddENS4_IdS1_NS3_8MultiplyES1_EEEEEENS3_9enable_ifIXaasrT0_9is_activeeqsrSA_4rankLi0EERS1_E4typeERKNS_10ExpressionIT_SA_EE = comdat any

$_ZN5adept8internal15BinaryOperationIdNS_6ActiveIdEENS0_8MultiplyES3_EC2ERKNS_10ExpressionIdS3_EES9_ = comdat any

$_ZN5adept8internal16StackStorageOrig18check_space_staticILi2EEEvv = comdat any

$_ZNK5adept10ExpressionIdNS_8internal15BinaryOperationIdNS_6ActiveIdEENS1_8MultiplyES4_EEE25scalar_value_and_gradientERNS_5StackE = comdat any

$_ZNK5adept10ExpressionIdNS_8internal15BinaryOperationIdNS_6ActiveIdEENS1_8MultiplyES4_EEE4castEv = comdat any

$_ZNK5adept8internal15BinaryOperationIdNS_6ActiveIdEENS0_8MultiplyES3_E24value_at_location_store_ILi0ELi0ELi0ELi1EEEdRKNS_14ExpressionSizeIXT1_EEERNS0_13ScratchVectorIXT2_EdEE = comdat any

$_ZNK5adept8internal15BinaryOperationIdNS_6ActiveIdEENS0_8MultiplyES3_E14calc_gradient_ILi0ELi0ELi0ELi1EEEvRNS_5StackERKNS_14ExpressionSizeIXT1_EEERKNS0_13ScratchVectorIXT2_EdEE = comdat any

$_ZNK5adept8internal15BinaryOperationIdNS_6ActiveIdEENS0_8MultiplyES3_E27my_value_at_location_store_ILi1ELi0ELi0ELi0ELi1EEENS0_9enable_ifIXeqT_Li1EEdE4typeERKNS_14ExpressionSizeIXT2_EEERNS0_13ScratchVectorIXT3_EdEE = comdat any

$_ZNK5adept8internal8Multiply9operationIddEENS0_7promoteIT_T0_E4typeERKS4_RKS5_ = comdat any

$_ZNK5adept8internal15BinaryOperationIdNS_6ActiveIdEENS0_8MultiplyES3_E10calc_left_ILi0ELi0ELi0ELi1ES3_EENS0_9enable_ifIXsrT3_9is_activeEvE4typeERNS_5StackERKS8_RKNS_14ExpressionSizeIXT1_EEERKNS0_13ScratchVectorIXT2_EdEE = comdat any

$_ZNK5adept8internal15BinaryOperationIdNS_6ActiveIdEENS0_8MultiplyES3_E11calc_right_ILi0ELi0ELi0ELi1ES3_EENS0_9enable_ifIXsrT3_9is_activeEvE4typeERNS_5StackERKS8_RKNS_14ExpressionSizeIXT1_EEERKNS0_13ScratchVectorIXT2_EdEE = comdat any

$_ZN5adept8internal8Multiply9calc_leftILi0ELi0ELi0ELi1ENS_6ActiveIdEES4_EEvRNS_5StackERKT3_RKT4_RKNS_14ExpressionSizeIXT1_EEERKNS0_13ScratchVectorIXT2_EdEE = comdat any

$_ZN5adept8internal8Multiply10calc_rightILi0ELi0ELi0ELi1ENS_6ActiveIdEES4_EEvRNS_5StackERKT3_RKT4_RKNS_14ExpressionSizeIXT1_EEERKNS0_13ScratchVectorIXT2_EdEE = comdat any

$_ZN5adept8internal15BinaryOperationIdNS_6ActiveIdEENS0_3AddENS1_IdS3_NS0_8MultiplyES3_EEEC2ERKNS_10ExpressionIdS3_EERKNS8_IdS6_EE = comdat any

$_ZN5adept8internal16StackStorageOrig18check_space_staticILi3EEEvv = comdat any

$_ZNK5adept10ExpressionIdNS_8internal15BinaryOperationIdNS_6ActiveIdEENS1_3AddENS2_IdS4_NS1_8MultiplyES4_EEEEE25scalar_value_and_gradientERNS_5StackE = comdat any

$_ZNK5adept10ExpressionIdNS_8internal15BinaryOperationIdNS_6ActiveIdEENS1_3AddENS2_IdS4_NS1_8MultiplyES4_EEEEE4castEv = comdat any

$_ZNK5adept8internal15BinaryOperationIdNS_6ActiveIdEENS0_3AddENS1_IdS3_NS0_8MultiplyES3_EEE24value_at_location_store_ILi0ELi0ELi0ELi1EEEdRKNS_14ExpressionSizeIXT1_EEERNS0_13ScratchVectorIXT2_EdEE = comdat any

$_ZNK5adept8internal15BinaryOperationIdNS_6ActiveIdEENS0_3AddENS1_IdS3_NS0_8MultiplyES3_EEE14calc_gradient_ILi0ELi0ELi0ELi1EEEvRNS_5StackERKNS_14ExpressionSizeIXT1_EEERKNS0_13ScratchVectorIXT2_EdEE = comdat any

$_ZNK5adept8internal15BinaryOperationIdNS_6ActiveIdEENS0_3AddENS1_IdS3_NS0_8MultiplyES3_EEE27my_value_at_location_store_ILi0ELi0ELi0ELi0ELi1EEENS0_9enable_ifIXeqT_Li0EEdE4typeERKNS_14ExpressionSizeIXT2_EEERNS0_13ScratchVectorIXT3_EdEE = comdat any

$_ZNK5adept8internal3Add9operationIddEENS0_7promoteIT_T0_E4typeERKS4_RKS5_ = comdat any

$_ZNK5adept6ActiveIdE24value_at_location_store_ILi0ELi0ELi0ELi1EEEdRKNS_14ExpressionSizeIXT1_EEERNS_8internal13ScratchVectorIXT2_EdEE = comdat any

$_ZNK5adept8internal15BinaryOperationIdNS_6ActiveIdEENS0_3AddENS1_IdS3_NS0_8MultiplyES3_EEE10calc_left_ILi0ELi0ELi0ELi1ES3_EENS0_9enable_ifIXsrT3_9is_activeEvE4typeERNS_5StackERKSA_RKNS_14ExpressionSizeIXT1_EEERKNS0_13ScratchVectorIXT2_EdEE = comdat any

$_ZNK5adept8internal15BinaryOperationIdNS_6ActiveIdEENS0_3AddENS1_IdS3_NS0_8MultiplyES3_EEE11calc_right_ILi0ELi0ELi0ELi1ES6_EENS0_9enable_ifIXsrT3_9is_activeEvE4typeERNS_5StackERKSA_RKNS_14ExpressionSizeIXT1_EEERKNS0_13ScratchVectorIXT2_EdEE = comdat any

$_ZNK5adept8internal3Add9calc_leftILi0ELi0ELi0ELi1ENS_6ActiveIdEENS0_15BinaryOperationIdS4_NS0_8MultiplyES4_EEEEvRNS_5StackERKT3_RKT4_RKNS_14ExpressionSizeIXT1_EEERKNS0_13ScratchVectorIXT2_EdEE = comdat any

$_ZNK5adept6ActiveIdE14calc_gradient_ILi0ELi0ELi0ELi1EEEvRNS_5StackERKNS_14ExpressionSizeIXT1_EEERKNS_8internal13ScratchVectorIXT2_EdEE = comdat any

$_ZNK5adept8internal3Add10calc_rightILi0ELi0ELi0ELi1ENS_6ActiveIdEENS0_15BinaryOperationIdS4_NS0_8MultiplyES4_EEEEvRNS_5StackERKT3_RKT4_RKNS_14ExpressionSizeIXT1_EEERKNS0_13ScratchVectorIXT2_EdEE = comdat any

$_ZNK5adept10ExpressionIdNS_8internal15BinaryOperationIdNS_6ActiveIdEENS1_3AddES4_EEE4castEv = comdat any

$_ZNK5adept10ExpressionIdNS_8internal18BinaryOpScalarLeftIddNS1_8MultiplyENS_6ActiveIdEEEEE4castEv = comdat any

$_ZN5adept8internal15BinaryOperationIdNS1_IdNS_6ActiveIdEENS0_3AddES3_EENS0_8SubtractENS0_18BinaryOpScalarLeftIddNS0_8MultiplyES3_EEEC2ERKNS_10ExpressionIdS5_EERKNSB_IdS9_EE = comdat any

$_ZN5adept8internal15BinaryOperationIdNS_6ActiveIdEENS0_3AddES3_EC2ERKNS_10ExpressionIdS3_EES9_ = comdat any

$_ZN5adept8internal18BinaryOpScalarLeftIddNS0_8MultiplyENS_6ActiveIdEEEC2EdRKNS_10ExpressionIdS4_EE = comdat any

$_ZN5adept6ActiveIdEC2IdNS_8internal15BinaryOperationIdS1_NS3_8MultiplyES1_EEEERKNS_10ExpressionIT_T0_EEPNS3_9enable_ifIXaaeqsrS9_4rankLi0EsrS9_9is_activeEvE4typeE = comdat any

$_ZNK5adept10ExpressionIdNS_8internal15BinaryOperationIdNS2_IdNS_6ActiveIdEENS1_3AddES4_EENS1_8SubtractENS1_18BinaryOpScalarLeftIddNS1_8MultiplyES4_EEEEE25scalar_value_and_gradientERNS_5StackE = comdat any

$_ZN5adept8internal13ScratchVectorILi2EdEC2Ev = comdat any

$_ZNK5adept10ExpressionIdNS_8internal15BinaryOperationIdNS2_IdNS_6ActiveIdEENS1_3AddES4_EENS1_8SubtractENS1_18BinaryOpScalarLeftIddNS1_8MultiplyES4_EEEEE4castEv = comdat any

$_ZNK5adept8internal15BinaryOperationIdNS1_IdNS_6ActiveIdEENS0_3AddES3_EENS0_8SubtractENS0_18BinaryOpScalarLeftIddNS0_8MultiplyES3_EEE24value_at_location_store_ILi0ELi0ELi0ELi2EEEdRKNS_14ExpressionSizeIXT1_EEERNS0_13ScratchVectorIXT2_EdEE = comdat any

$_ZNK5adept8internal15BinaryOperationIdNS1_IdNS_6ActiveIdEENS0_3AddES3_EENS0_8SubtractENS0_18BinaryOpScalarLeftIddNS0_8MultiplyES3_EEE14calc_gradient_ILi0ELi0ELi0ELi2EEEvRNS_5StackERKNS_14ExpressionSizeIXT1_EEERKNS0_13ScratchVectorIXT2_EdEE = comdat any

$_ZNK5adept8internal15BinaryOperationIdNS1_IdNS_6ActiveIdEENS0_3AddES3_EENS0_8SubtractENS0_18BinaryOpScalarLeftIddNS0_8MultiplyES3_EEE27my_value_at_location_store_ILi1ELi0ELi0ELi0ELi2EEENS0_9enable_ifIXeqT_Li1EEdE4typeERKNS_14ExpressionSizeIXT2_EEERNS0_13ScratchVectorIXT3_EdEE = comdat any

$_ZNK5adept8internal15BinaryOperationIdNS_6ActiveIdEENS0_3AddES3_E24value_at_location_store_ILi0ELi1ELi0ELi2EEEdRKNS_14ExpressionSizeIXT1_EEERNS0_13ScratchVectorIXT2_EdEE = comdat any

$_ZNK5adept8internal18BinaryOpScalarLeftIddNS0_8MultiplyENS_6ActiveIdEEE24value_at_location_store_ILi0ELi1ELi0ELi2EEEdRKNS_14ExpressionSizeIXT1_EEERNS0_13ScratchVectorIXT2_EdEE = comdat any

$_ZN5adept8internal13ScratchVectorILi2EdEixEi = comdat any

$_ZNK5adept8internal15BinaryOperationIdNS_6ActiveIdEENS0_3AddES3_E27my_value_at_location_store_ILi0ELi0ELi1ELi0ELi2EEENS0_9enable_ifIXeqT_Li0EEdE4typeERKNS_14ExpressionSizeIXT2_EEERNS0_13ScratchVectorIXT3_EdEE = comdat any

$_ZNK5adept6ActiveIdE24value_at_location_store_ILi0ELi1ELi0ELi2EEEdRKNS_14ExpressionSizeIXT1_EEERNS_8internal13ScratchVectorIXT2_EdEE = comdat any

$_ZNK5adept8internal18BinaryOpScalarLeftIddNS0_8MultiplyENS_6ActiveIdEEE27my_value_at_location_store_ILi1ELi0ELi1ELi0ELi2EEENS0_9enable_ifIXeqT_Li1EEdE4typeERKNS_14ExpressionSizeIXT2_EEERNS0_13ScratchVectorIXT3_EdEE = comdat any

$_ZNK5adept6ActiveIdE24value_at_location_store_ILi0ELi2ELi0ELi2EEEdRKNS_14ExpressionSizeIXT1_EEERNS_8internal13ScratchVectorIXT2_EdEE = comdat any

$_ZNK5adept8internal15BinaryOperationIdNS1_IdNS_6ActiveIdEENS0_3AddES3_EENS0_8SubtractENS0_18BinaryOpScalarLeftIddNS0_8MultiplyES3_EEE10calc_left_ILi0ELi0ELi0ELi2ES5_EENS0_9enable_ifIXsrT3_9is_activeEvE4typeERNS_5StackERKSD_RKNS_14ExpressionSizeIXT1_EEERKNS0_13ScratchVectorIXT2_EdEE = comdat any

$_ZNK5adept8internal15BinaryOperationIdNS1_IdNS_6ActiveIdEENS0_3AddES3_EENS0_8SubtractENS0_18BinaryOpScalarLeftIddNS0_8MultiplyES3_EEE11calc_right_ILi0ELi0ELi0ELi2ES9_EENS0_9enable_ifIXsrT3_9is_activeEvE4typeERNS_5StackERKSD_RKNS_14ExpressionSizeIXT1_EEERKNS0_13ScratchVectorIXT2_EdEE = comdat any

$_ZNK5adept8internal8Subtract9calc_leftILi0ELi0ELi0ELi2ENS0_15BinaryOperationIdNS_6ActiveIdEENS0_3AddES5_EENS0_18BinaryOpScalarLeftIddNS0_8MultiplyES5_EEEEvRNS_5StackERKT3_RKT4_RKNS_14ExpressionSizeIXT1_EEERKNS0_13ScratchVectorIXT2_EdEE = comdat any

$_ZNK5adept8internal15BinaryOperationIdNS_6ActiveIdEENS0_3AddES3_E14calc_gradient_ILi0ELi1ELi0ELi2EEEvRNS_5StackERKNS_14ExpressionSizeIXT1_EEERKNS0_13ScratchVectorIXT2_EdEE = comdat any

$_ZNK5adept8internal15BinaryOperationIdNS_6ActiveIdEENS0_3AddES3_E10calc_left_ILi0ELi1ELi0ELi2ES3_EENS0_9enable_ifIXsrT3_9is_activeEvE4typeERNS_5StackERKS8_RKNS_14ExpressionSizeIXT1_EEERKNS0_13ScratchVectorIXT2_EdEE = comdat any

$_ZNK5adept8internal15BinaryOperationIdNS_6ActiveIdEENS0_3AddES3_E11calc_right_ILi0ELi1ELi0ELi2ES3_EENS0_9enable_ifIXsrT3_9is_activeEvE4typeERNS_5StackERKS8_RKNS_14ExpressionSizeIXT1_EEERKNS0_13ScratchVectorIXT2_EdEE = comdat any

$_ZNK5adept8internal3Add9calc_leftILi0ELi1ELi0ELi2ENS_6ActiveIdEES4_EEvRNS_5StackERKT3_RKT4_RKNS_14ExpressionSizeIXT1_EEERKNS0_13ScratchVectorIXT2_EdEE = comdat any

$_ZNK5adept6ActiveIdE14calc_gradient_ILi0ELi1ELi0ELi2EEEvRNS_5StackERKNS_14ExpressionSizeIXT1_EEERKNS_8internal13ScratchVectorIXT2_EdEE = comdat any

$_ZNK5adept8internal3Add10calc_rightILi0ELi1ELi0ELi2ENS_6ActiveIdEES4_EEvRNS_5StackERKT3_RKT4_RKNS_14ExpressionSizeIXT1_EEERKNS0_13ScratchVectorIXT2_EdEE = comdat any

$_ZNK5adept8internal8Subtract10calc_rightILi0ELi0ELi0ELi2ENS0_15BinaryOperationIdNS_6ActiveIdEENS0_3AddES5_EENS0_18BinaryOpScalarLeftIddNS0_8MultiplyES5_EEEEvRNS_5StackERKT3_RKT4_RKNS_14ExpressionSizeIXT1_EEERKNS0_13ScratchVectorIXT2_EdEE = comdat any

$_ZNK5adept8internal18BinaryOpScalarLeftIddNS0_8MultiplyENS_6ActiveIdEEE14calc_gradient_ILi0ELi1ELi0ELi2EdEEvRNS_5StackERKNS_14ExpressionSizeIXT1_EEERKNS0_13ScratchVectorIXT2_EdEET3_ = comdat any

$_ZNK5adept8internal18BinaryOpScalarLeftIddNS0_8MultiplyENS_6ActiveIdEEE11calc_right_ILi0ELi1ELi0ELi2ES4_dEENS0_9enable_ifIXsrT3_9is_activeEvE4typeERNS_5StackERKS8_RKNS_14ExpressionSizeIXT1_EEERKNS0_13ScratchVectorIXT2_EdEET4_ = comdat any

$_ZN5adept8internal8Multiply10calc_rightILi0ELi1ELi0ELi2ENS0_6ScalarIdEENS_6ActiveIdEEdEEvRNS_5StackERKT3_RKT4_RKNS_14ExpressionSizeIXT1_EEERKNS0_13ScratchVectorIXT2_EdEET5_ = comdat any

$_ZNK5adept6ActiveIdE14calc_gradient_ILi0ELi2ELi0ELi2EdEEvRNS_5StackERKNS_14ExpressionSizeIXT1_EEERKNS_8internal13ScratchVectorIXT2_EdEERKT3_ = comdat any

$_ZNK5adept8internal6ScalarIdE13value_stored_ILi0ELi2ELi0ELi2EEEdRKNS_14ExpressionSizeIXT1_EEERKNS0_13ScratchVectorIXT2_EdEE = comdat any

$_ZN9adeptTest7arr_maxIN5adept6ActiveIdEEEET_iPKS4_ = comdat any

$_ZN5adeptplINS_6ActiveIdEENS_8internal14UnaryOperationIdNS3_3ExpENS3_15BinaryOperationIdS2_NS3_8SubtractES2_EEEEEENS3_9enable_ifIXsr8internal15rank_compatibleIXsrT_4rankEXsrT0_4rankEEE5valueENS6_INS3_7promoteINSB_4typeENSC_4typeEE4typeESB_NS3_3AddESC_EEE4typeERKNS_10ExpressionISE_SB_EERKNSM_ISF_SC_EE = comdat any

$_ZN5adept3expIdNS_8internal15BinaryOperationIdNS_6ActiveIdEENS1_8SubtractES4_EEEENS1_14UnaryOperationIT_NS1_3ExpET0_EERKNS_10ExpressionIS8_SA_EE = comdat any

$_ZN5adeptmiINS_6ActiveIdEES2_EENS_8internal9enable_ifIXsr8internal15rank_compatibleIXsrT_4rankEXsrT0_4rankEEE5valueENS3_15BinaryOperationINS3_7promoteINS5_4typeENS6_4typeEE4typeES5_NS3_8SubtractES6_EEE4typeERKNS_10ExpressionIS9_S5_EERKNSH_ISA_S6_EE = comdat any

$_ZN5adept6ActiveIdEaSIdNS_8internal15BinaryOperationIdS1_NS3_3AddENS3_14UnaryOperationIdNS3_3ExpENS4_IdS1_NS3_8SubtractES1_EEEEEEEENS3_9enable_ifIXaasrT0_9is_activeeqsrSD_4rankLi0EERS1_E4typeERKNS_10ExpressionIT_SD_EE = comdat any

$_ZN5adeptplINS_8internal14UnaryOperationIdNS1_3LogENS_6ActiveIdEEEES5_EENS1_9enable_ifIXsr8internal15rank_compatibleIXsrT_4rankEXsrT0_4rankEEE5valueENS1_15BinaryOperationINS1_7promoteINS8_4typeENS9_4typeEE4typeES8_NS1_3AddES9_EEE4typeERKNS_10ExpressionISC_S8_EERKNSK_ISD_S9_EE = comdat any

$_ZN5adept3logIdNS_6ActiveIdEEEENS_8internal14UnaryOperationIT_NS3_3LogET0_EERKNS_10ExpressionIS5_S7_EE = comdat any

$_ZN5adept6ActiveIdEC2IdNS_8internal15BinaryOperationIdNS3_14UnaryOperationIdNS3_3LogES1_EENS3_3AddES1_EEEERKNS_10ExpressionIT_T0_EEPNS3_9enable_ifIXaaeqsrSC_4rankLi0EsrSC_9is_activeEvE4typeE = comdat any

$_ZN5adeptltINS_6ActiveIdEES2_EENS_8internal9enable_ifIXaaeqsrT_4rankLi0EeqsrT0_4rankLi0EEbE4typeERKNS_10ExpressionINS5_4typeES5_EERKNS9_INS6_4typeES6_EE = comdat any

$_ZNK5adept10ExpressionIdNS_6ActiveIdEEE12scalar_valueEv = comdat any

$_ZNK5adept6ActiveIdE18value_at_location_ILi0ELi0EEEdRKNS_14ExpressionSizeIXT0_EEE = comdat any

$_ZNK5adept10ExpressionIdNS_8internal14UnaryOperationIdNS1_3ExpENS1_15BinaryOperationIdNS_6ActiveIdEENS1_8SubtractES6_EEEEE4castEv = comdat any

$_ZN5adept8internal15BinaryOperationIdNS_6ActiveIdEENS0_3AddENS0_14UnaryOperationIdNS0_3ExpENS1_IdS3_NS0_8SubtractES3_EEEEEC2ERKNS_10ExpressionIdS3_EERKNSB_IdS9_EE = comdat any

$_ZNK5adept10ExpressionIdNS_8internal15BinaryOperationIdNS_6ActiveIdEENS1_8SubtractES4_EEE4castEv = comdat any

$_ZN5adept8internal14UnaryOperationIdNS0_3ExpENS0_15BinaryOperationIdNS_6ActiveIdEENS0_8SubtractES5_EEEC2ERKNS_10ExpressionIdS7_EE = comdat any

$_ZN5adept8internal15BinaryOperationIdNS_6ActiveIdEENS0_8SubtractES3_EC2ERKNS_10ExpressionIdS3_EES9_ = comdat any

$_ZNK5adept10ExpressionIdNS_8internal15BinaryOperationIdNS_6ActiveIdEENS1_3AddENS1_14UnaryOperationIdNS1_3ExpENS2_IdS4_NS1_8SubtractES4_EEEEEEE25scalar_value_and_gradientERNS_5StackE = comdat any

$_ZNK5adept10ExpressionIdNS_8internal15BinaryOperationIdNS_6ActiveIdEENS1_3AddENS1_14UnaryOperationIdNS1_3ExpENS2_IdS4_NS1_8SubtractES4_EEEEEEE4castEv = comdat any

$_ZNK5adept8internal15BinaryOperationIdNS_6ActiveIdEENS0_3AddENS0_14UnaryOperationIdNS0_3ExpENS1_IdS3_NS0_8SubtractES3_EEEEE24value_at_location_store_ILi0ELi0ELi0ELi2EEEdRKNS_14ExpressionSizeIXT1_EEERNS0_13ScratchVectorIXT2_EdEE = comdat any

$_ZNK5adept8internal15BinaryOperationIdNS_6ActiveIdEENS0_3AddENS0_14UnaryOperationIdNS0_3ExpENS1_IdS3_NS0_8SubtractES3_EEEEE14calc_gradient_ILi0ELi0ELi0ELi2EEEvRNS_5StackERKNS_14ExpressionSizeIXT1_EEERKNS0_13ScratchVectorIXT2_EdEE = comdat any

$_ZNK5adept8internal15BinaryOperationIdNS_6ActiveIdEENS0_3AddENS0_14UnaryOperationIdNS0_3ExpENS1_IdS3_NS0_8SubtractES3_EEEEE27my_value_at_location_store_ILi0ELi0ELi0ELi0ELi2EEENS0_9enable_ifIXeqT_Li0EEdE4typeERKNS_14ExpressionSizeIXT2_EEERNS0_13ScratchVectorIXT3_EdEE = comdat any

$_ZNK5adept6ActiveIdE24value_at_location_store_ILi0ELi0ELi0ELi2EEEdRKNS_14ExpressionSizeIXT1_EEERNS_8internal13ScratchVectorIXT2_EdEE = comdat any

$_ZNK5adept8internal14UnaryOperationIdNS0_3ExpENS0_15BinaryOperationIdNS_6ActiveIdEENS0_8SubtractES5_EEE24value_at_location_store_ILi0ELi0ELi0ELi2EEEdRKNS_14ExpressionSizeIXT1_EEERNS0_13ScratchVectorIXT2_EdEE = comdat any

$_ZNK5adept8internal15BinaryOperationIdNS_6ActiveIdEENS0_8SubtractES3_E24value_at_location_store_ILi0ELi1ELi0ELi2EEEdRKNS_14ExpressionSizeIXT1_EEERNS0_13ScratchVectorIXT2_EdEE = comdat any

$_ZNK5adept8internal15BinaryOperationIdNS_6ActiveIdEENS0_8SubtractES3_E27my_value_at_location_store_ILi1ELi0ELi1ELi0ELi2EEENS0_9enable_ifIXeqT_Li1EEdE4typeERKNS_14ExpressionSizeIXT2_EEERNS0_13ScratchVectorIXT3_EdEE = comdat any

$_ZNK5adept8internal15BinaryOperationIdNS_6ActiveIdEENS0_3AddENS0_14UnaryOperationIdNS0_3ExpENS1_IdS3_NS0_8SubtractES3_EEEEE10calc_left_ILi0ELi0ELi0ELi2ES3_EENS0_9enable_ifIXsrT3_9is_activeEvE4typeERNS_5StackERKSD_RKNS_14ExpressionSizeIXT1_EEERKNS0_13ScratchVectorIXT2_EdEE = comdat any

$_ZNK5adept8internal15BinaryOperationIdNS_6ActiveIdEENS0_3AddENS0_14UnaryOperationIdNS0_3ExpENS1_IdS3_NS0_8SubtractES3_EEEEE11calc_right_ILi0ELi0ELi0ELi2ES9_EENS0_9enable_ifIXsrT3_9is_activeEvE4typeERNS_5StackERKSD_RKNS_14ExpressionSizeIXT1_EEERKNS0_13ScratchVectorIXT2_EdEE = comdat any

$_ZNK5adept8internal3Add9calc_leftILi0ELi0ELi0ELi2ENS_6ActiveIdEENS0_14UnaryOperationIdNS0_3ExpENS0_15BinaryOperationIdS4_NS0_8SubtractES4_EEEEEEvRNS_5StackERKT3_RKT4_RKNS_14ExpressionSizeIXT1_EEERKNS0_13ScratchVectorIXT2_EdEE = comdat any

$_ZNK5adept6ActiveIdE14calc_gradient_ILi0ELi0ELi0ELi2EEEvRNS_5StackERKNS_14ExpressionSizeIXT1_EEERKNS_8internal13ScratchVectorIXT2_EdEE = comdat any

$_ZNK5adept8internal3Add10calc_rightILi0ELi0ELi0ELi2ENS_6ActiveIdEENS0_14UnaryOperationIdNS0_3ExpENS0_15BinaryOperationIdS4_NS0_8SubtractES4_EEEEEEvRNS_5StackERKT3_RKT4_RKNS_14ExpressionSizeIXT1_EEERKNS0_13ScratchVectorIXT2_EdEE = comdat any

$_ZNK5adept8internal14UnaryOperationIdNS0_3ExpENS0_15BinaryOperationIdNS_6ActiveIdEENS0_8SubtractES5_EEE14calc_gradient_ILi0ELi0ELi0ELi2EEEvRNS_5StackERKNS_14ExpressionSizeIXT1_EEERKNS0_13ScratchVectorIXT2_EdEE = comdat any

$_ZNK5adept8internal15BinaryOperationIdNS_6ActiveIdEENS0_8SubtractES3_E14calc_gradient_ILi0ELi1ELi0ELi2EdEEvRNS_5StackERKNS_14ExpressionSizeIXT1_EEERKNS0_13ScratchVectorIXT2_EdEET3_ = comdat any

$_ZNK5adept8internal15BinaryOperationIdNS_6ActiveIdEENS0_8SubtractES3_E13value_stored_ILi0ELi1ELi0ELi2EEEdRKNS_14ExpressionSizeIXT1_EEERKNS0_13ScratchVectorIXT2_EdEE = comdat any

$_ZNK5adept8internal13ScratchVectorILi2EdEixEi = comdat any

$_ZNK5adept8internal15BinaryOperationIdNS_6ActiveIdEENS0_8SubtractES3_E10calc_left_ILi0ELi1ELi0ELi2ES3_dEENS0_9enable_ifIXsrT3_9is_activeEvE4typeERNS_5StackERKS8_RKNS_14ExpressionSizeIXT1_EEERKNS0_13ScratchVectorIXT2_EdEET4_ = comdat any

$_ZNK5adept8internal15BinaryOperationIdNS_6ActiveIdEENS0_8SubtractES3_E11calc_right_ILi0ELi1ELi0ELi2ES3_dEENS0_9enable_ifIXsrT3_9is_activeEvE4typeERNS_5StackERKS8_RKNS_14ExpressionSizeIXT1_EEERKNS0_13ScratchVectorIXT2_EdEET4_ = comdat any

$_ZNK5adept8internal8Subtract9calc_leftILi0ELi1ELi0ELi2ENS_6ActiveIdEES4_dEEvRNS_5StackERKT3_RKT4_RKNS_14ExpressionSizeIXT1_EEERKNS0_13ScratchVectorIXT2_EdEET5_ = comdat any

$_ZNK5adept8internal8Subtract10calc_rightILi0ELi1ELi0ELi2ENS_6ActiveIdEES4_dEEvRNS_5StackERKT3_RKT4_RKNS_14ExpressionSizeIXT1_EEERKNS0_13ScratchVectorIXT2_EdEET5_ = comdat any

$_ZNK5adept8internal15BinaryOperationIdNS_6ActiveIdEENS0_8SubtractES3_E16my_value_stored_ILi1ELi0ELi1ELi0ELi2EEENS0_9enable_ifIXgtT_Li0EEdE4typeERKNS_14ExpressionSizeIXT2_EEERKNS0_13ScratchVectorIXT3_EdEE = comdat any

$_ZNK5adept10ExpressionIdNS_8internal14UnaryOperationIdNS1_3LogENS_6ActiveIdEEEEE4castEv = comdat any

$_ZN5adept8internal15BinaryOperationIdNS0_14UnaryOperationIdNS0_3LogENS_6ActiveIdEEEENS0_3AddES5_EC2ERKNS_10ExpressionIdS6_EERKNS9_IdS5_EE = comdat any

$_ZN5adept8internal14UnaryOperationIdNS0_3LogENS_6ActiveIdEEEC2ERKNS_10ExpressionIdS4_EE = comdat any

$_ZNK5adept10ExpressionIdNS_8internal15BinaryOperationIdNS1_14UnaryOperationIdNS1_3LogENS_6ActiveIdEEEENS1_3AddES6_EEE25scalar_value_and_gradientERNS_5StackE = comdat any

$_ZNK5adept10ExpressionIdNS_8internal15BinaryOperationIdNS1_14UnaryOperationIdNS1_3LogENS_6ActiveIdEEEENS1_3AddES6_EEE4castEv = comdat any

$_ZNK5adept8internal15BinaryOperationIdNS0_14UnaryOperationIdNS0_3LogENS_6ActiveIdEEEENS0_3AddES5_E24value_at_location_store_ILi0ELi0ELi0ELi1EEEdRKNS_14ExpressionSizeIXT1_EEERNS0_13ScratchVectorIXT2_EdEE = comdat any

$_ZNK5adept8internal15BinaryOperationIdNS0_14UnaryOperationIdNS0_3LogENS_6ActiveIdEEEENS0_3AddES5_E14calc_gradient_ILi0ELi0ELi0ELi1EEEvRNS_5StackERKNS_14ExpressionSizeIXT1_EEERKNS0_13ScratchVectorIXT2_EdEE = comdat any

$_ZNK5adept8internal15BinaryOperationIdNS0_14UnaryOperationIdNS0_3LogENS_6ActiveIdEEEENS0_3AddES5_E27my_value_at_location_store_ILi0ELi0ELi0ELi0ELi1EEENS0_9enable_ifIXeqT_Li0EEdE4typeERKNS_14ExpressionSizeIXT2_EEERNS0_13ScratchVectorIXT3_EdEE = comdat any

$_ZNK5adept8internal14UnaryOperationIdNS0_3LogENS_6ActiveIdEEE24value_at_location_store_ILi0ELi0ELi0ELi1EEEdRKNS_14ExpressionSizeIXT1_EEERNS0_13ScratchVectorIXT2_EdEE = comdat any

$_ZNK5adept8internal3LogIdE9operationIdEET_RKS4_ = comdat any

$_ZNK5adept8internal15BinaryOperationIdNS0_14UnaryOperationIdNS0_3LogENS_6ActiveIdEEEENS0_3AddES5_E10calc_left_ILi0ELi0ELi0ELi1ES6_EENS0_9enable_ifIXsrT3_9is_activeEvE4typeERNS_5StackERKSB_RKNS_14ExpressionSizeIXT1_EEERKNS0_13ScratchVectorIXT2_EdEE = comdat any

$_ZNK5adept8internal15BinaryOperationIdNS0_14UnaryOperationIdNS0_3LogENS_6ActiveIdEEEENS0_3AddES5_E11calc_right_ILi0ELi0ELi0ELi1ES5_EENS0_9enable_ifIXsrT3_9is_activeEvE4typeERNS_5StackERKSB_RKNS_14ExpressionSizeIXT1_EEERKNS0_13ScratchVectorIXT2_EdEE = comdat any

$_ZNK5adept8internal3Add9calc_leftILi0ELi0ELi0ELi1ENS0_14UnaryOperationIdNS0_3LogENS_6ActiveIdEEEES6_EEvRNS_5StackERKT3_RKT4_RKNS_14ExpressionSizeIXT1_EEERKNS0_13ScratchVectorIXT2_EdEE = comdat any

$_ZNK5adept8internal14UnaryOperationIdNS0_3LogENS_6ActiveIdEEE14calc_gradient_ILi0ELi0ELi0ELi1EEEvRNS_5StackERKNS_14ExpressionSizeIXT1_EEERKNS0_13ScratchVectorIXT2_EdEE = comdat any

$_ZNK5adept8internal3LogIdE10derivativeERKdS4_ = comdat any

$_ZNK5adept8internal3Add10calc_rightILi0ELi0ELi0ELi1ENS0_14UnaryOperationIdNS0_3LogENS_6ActiveIdEEEES6_EEvRNS_5StackERKT3_RKT4_RKNS_14ExpressionSizeIXT1_EEERKNS0_13ScratchVectorIXT2_EdEE = comdat any

$_ZNK5adept6ActiveIdE14calc_gradient_ILi0ELi1ELi0ELi1EEEvRNS_5StackERKNS_14ExpressionSizeIXT1_EEERKNS_8internal13ScratchVectorIXT2_EdEE = comdat any

$_ZNK5adept10ExpressionIdNS_8internal15BinaryOperationIdNS_6ActiveIdEENS1_3AddES4_EEE25scalar_value_and_gradientERNS_5StackE = comdat any

$_ZNK5adept8internal15BinaryOperationIdNS_6ActiveIdEENS0_3AddES3_E24value_at_location_store_ILi0ELi0ELi0ELi0EEEdRKNS_14ExpressionSizeIXT1_EEERNS0_13ScratchVectorIXT2_EdEE = comdat any

$_ZNK5adept8internal15BinaryOperationIdNS_6ActiveIdEENS0_3AddES3_E14calc_gradient_ILi0ELi0ELi0ELi0EEEvRNS_5StackERKNS_14ExpressionSizeIXT1_EEERKNS0_13ScratchVectorIXT2_EdEE = comdat any

$_ZNK5adept8internal15BinaryOperationIdNS_6ActiveIdEENS0_3AddES3_E27my_value_at_location_store_ILi0ELi0ELi0ELi0ELi0EEENS0_9enable_ifIXeqT_Li0EEdE4typeERKNS_14ExpressionSizeIXT2_EEERNS0_13ScratchVectorIXT3_EdEE = comdat any

$_ZNK5adept8internal15BinaryOperationIdNS_6ActiveIdEENS0_3AddES3_E10calc_left_ILi0ELi0ELi0ELi0ES3_EENS0_9enable_ifIXsrT3_9is_activeEvE4typeERNS_5StackERKS8_RKNS_14ExpressionSizeIXT1_EEERKNS0_13ScratchVectorIXT2_EdEE = comdat any

$_ZNK5adept8internal15BinaryOperationIdNS_6ActiveIdEENS0_3AddES3_E11calc_right_ILi0ELi0ELi0ELi0ES3_EENS0_9enable_ifIXsrT3_9is_activeEvE4typeERNS_5StackERKS8_RKNS_14ExpressionSizeIXT1_EEERKNS0_13ScratchVectorIXT2_EdEE = comdat any

$_ZNK5adept8internal3Add9calc_leftILi0ELi0ELi0ELi0ENS_6ActiveIdEES4_EEvRNS_5StackERKT3_RKT4_RKNS_14ExpressionSizeIXT1_EEERKNS0_13ScratchVectorIXT2_EdEE = comdat any

$_ZNK5adept8internal3Add10calc_rightILi0ELi0ELi0ELi0ENS_6ActiveIdEES4_EEvRNS_5StackERKT3_RKT4_RKNS_14ExpressionSizeIXT1_EEERKNS0_13ScratchVectorIXT2_EdEE = comdat any

$_ZNK5adept10ExpressionIdNS_8internal18BinaryOpScalarLeftIddNS1_3AddENS_6ActiveIdEEEEE4castEv = comdat any

$_ZNK5adept10ExpressionIdNS_8internal18BinaryOpScalarLeftIdiNS1_8MultiplyENS_6ActiveIdEEEEE4castEv = comdat any

$_ZN5adept8internal15BinaryOperationIdNS0_18BinaryOpScalarLeftIddNS0_3AddENS_6ActiveIdEEEENS0_8SubtractENS2_IdiNS0_8MultiplyES5_EEEC2ERKNS_10ExpressionIdS6_EERKNSB_IdS9_EE = comdat any

$_ZN5adept8internal18BinaryOpScalarLeftIddNS0_3AddENS_6ActiveIdEEEC2EdRKNS_10ExpressionIdS4_EE = comdat any

$_ZN5adept8internal18BinaryOpScalarLeftIdiNS0_8MultiplyENS_6ActiveIdEEEC2EiRKNS_10ExpressionIdS4_EE = comdat any

$_ZN5adept8internal6PacketIiEC2Ei = comdat any

$_ZNK5adept10ExpressionIdNS_8internal15BinaryOperationIdNS1_18BinaryOpScalarLeftIddNS1_3AddENS_6ActiveIdEEEENS1_8SubtractENS3_IdiNS1_8MultiplyES6_EEEEE25scalar_value_and_gradientERNS_5StackE = comdat any

$_ZNK5adept10ExpressionIdNS_8internal15BinaryOperationIdNS1_18BinaryOpScalarLeftIddNS1_3AddENS_6ActiveIdEEEENS1_8SubtractENS3_IdiNS1_8MultiplyES6_EEEEE4castEv = comdat any

$_ZNK5adept8internal15BinaryOperationIdNS0_18BinaryOpScalarLeftIddNS0_3AddENS_6ActiveIdEEEENS0_8SubtractENS2_IdiNS0_8MultiplyES5_EEE24value_at_location_store_ILi0ELi0ELi0ELi2EEEdRKNS_14ExpressionSizeIXT1_EEERNS0_13ScratchVectorIXT2_EdEE = comdat any

$_ZNK5adept8internal15BinaryOperationIdNS0_18BinaryOpScalarLeftIddNS0_3AddENS_6ActiveIdEEEENS0_8SubtractENS2_IdiNS0_8MultiplyES5_EEE14calc_gradient_ILi0ELi0ELi0ELi2EEEvRNS_5StackERKNS_14ExpressionSizeIXT1_EEERKNS0_13ScratchVectorIXT2_EdEE = comdat any

$_ZNK5adept8internal15BinaryOperationIdNS0_18BinaryOpScalarLeftIddNS0_3AddENS_6ActiveIdEEEENS0_8SubtractENS2_IdiNS0_8MultiplyES5_EEE27my_value_at_location_store_ILi1ELi0ELi0ELi0ELi2EEENS0_9enable_ifIXeqT_Li1EEdE4typeERKNS_14ExpressionSizeIXT2_EEERNS0_13ScratchVectorIXT3_EdEE = comdat any

$_ZNK5adept8internal18BinaryOpScalarLeftIddNS0_3AddENS_6ActiveIdEEE24value_at_location_store_ILi0ELi1ELi0ELi2EEEdRKNS_14ExpressionSizeIXT1_EEERNS0_13ScratchVectorIXT2_EdEE = comdat any

$_ZNK5adept8internal18BinaryOpScalarLeftIdiNS0_8MultiplyENS_6ActiveIdEEE24value_at_location_store_ILi0ELi1ELi0ELi2EEEdRKNS_14ExpressionSizeIXT1_EEERNS0_13ScratchVectorIXT2_EdEE = comdat any

$_ZNK5adept8internal18BinaryOpScalarLeftIddNS0_3AddENS_6ActiveIdEEE27my_value_at_location_store_ILi0ELi0ELi1ELi0ELi2EEENS0_9enable_ifIXeqT_Li0EEdE4typeERKNS_14ExpressionSizeIXT2_EEERNS0_13ScratchVectorIXT3_EdEE = comdat any

$_ZNK5adept8internal18BinaryOpScalarLeftIdiNS0_8MultiplyENS_6ActiveIdEEE27my_value_at_location_store_ILi1ELi0ELi1ELi0ELi2EEENS0_9enable_ifIXeqT_Li1EEdE4typeERKNS_14ExpressionSizeIXT2_EEERNS0_13ScratchVectorIXT3_EdEE = comdat any

$_ZNK5adept8internal8Multiply9operationIidEENS0_7promoteIT_T0_E4typeERKS4_RKS5_ = comdat any

$_ZNK5adept8internal6PacketIiE5valueEv = comdat any

$_ZNK5adept8internal15BinaryOperationIdNS0_18BinaryOpScalarLeftIddNS0_3AddENS_6ActiveIdEEEENS0_8SubtractENS2_IdiNS0_8MultiplyES5_EEE10calc_left_ILi0ELi0ELi0ELi2ES6_EENS0_9enable_ifIXsrT3_9is_activeEvE4typeERNS_5StackERKSD_RKNS_14ExpressionSizeIXT1_EEERKNS0_13ScratchVectorIXT2_EdEE = comdat any

$_ZNK5adept8internal15BinaryOperationIdNS0_18BinaryOpScalarLeftIddNS0_3AddENS_6ActiveIdEEEENS0_8SubtractENS2_IdiNS0_8MultiplyES5_EEE11calc_right_ILi0ELi0ELi0ELi2ES9_EENS0_9enable_ifIXsrT3_9is_activeEvE4typeERNS_5StackERKSD_RKNS_14ExpressionSizeIXT1_EEERKNS0_13ScratchVectorIXT2_EdEE = comdat any

$_ZNK5adept8internal8Subtract9calc_leftILi0ELi0ELi0ELi2ENS0_18BinaryOpScalarLeftIddNS0_3AddENS_6ActiveIdEEEENS3_IdiNS0_8MultiplyES6_EEEEvRNS_5StackERKT3_RKT4_RKNS_14ExpressionSizeIXT1_EEERKNS0_13ScratchVectorIXT2_EdEE = comdat any

$_ZNK5adept8internal18BinaryOpScalarLeftIddNS0_3AddENS_6ActiveIdEEE14calc_gradient_ILi0ELi1ELi0ELi2EEEvRNS_5StackERKNS_14ExpressionSizeIXT1_EEERKNS0_13ScratchVectorIXT2_EdEE = comdat any

$_ZNK5adept8internal18BinaryOpScalarLeftIddNS0_3AddENS_6ActiveIdEEE11calc_right_ILi0ELi1ELi0ELi2ES4_EENS0_9enable_ifIXsrT3_9is_activeEvE4typeERNS_5StackERKS8_RKNS_14ExpressionSizeIXT1_EEERKNS0_13ScratchVectorIXT2_EdEE = comdat any

$_ZNK5adept8internal3Add10calc_rightILi0ELi1ELi0ELi2ENS0_6ScalarIdEENS_6ActiveIdEEEEvRNS_5StackERKT3_RKT4_RKNS_14ExpressionSizeIXT1_EEERKNS0_13ScratchVectorIXT2_EdEE = comdat any

$_ZNK5adept8internal8Subtract10calc_rightILi0ELi0ELi0ELi2ENS0_18BinaryOpScalarLeftIddNS0_3AddENS_6ActiveIdEEEENS3_IdiNS0_8MultiplyES6_EEEEvRNS_5StackERKT3_RKT4_RKNS_14ExpressionSizeIXT1_EEERKNS0_13ScratchVectorIXT2_EdEE = comdat any

$_ZNK5adept8internal18BinaryOpScalarLeftIdiNS0_8MultiplyENS_6ActiveIdEEE14calc_gradient_ILi0ELi1ELi0ELi2EdEEvRNS_5StackERKNS_14ExpressionSizeIXT1_EEERKNS0_13ScratchVectorIXT2_EdEET3_ = comdat any

$_ZNK5adept8internal18BinaryOpScalarLeftIdiNS0_8MultiplyENS_6ActiveIdEEE11calc_right_ILi0ELi1ELi0ELi2ES4_dEENS0_9enable_ifIXsrT3_9is_activeEvE4typeERNS_5StackERKS8_RKNS_14ExpressionSizeIXT1_EEERKNS0_13ScratchVectorIXT2_EdEET4_ = comdat any

$_ZN5adept8internal8Multiply10calc_rightILi0ELi1ELi0ELi2ENS0_6ScalarIiEENS_6ActiveIdEEdEEvRNS_5StackERKT3_RKT4_RKNS_14ExpressionSizeIXT1_EEERKNS0_13ScratchVectorIXT2_EdEET5_ = comdat any

$_ZN5adept8internal6ScalarIiEC2ERKi = comdat any

$_ZNK5adept8internal6ScalarIiE13value_stored_ILi0ELi2ELi0ELi2EEEiRKNS_14ExpressionSizeIXT1_EEERKNS0_13ScratchVectorIXT2_EdEE = comdat any

$_ZN5adept6ActiveIdEC2IiEERKT_PNS_8internal9enable_ifIXsr17is_not_expressionIS3_EE5valueEvE4typeE = comdat any

$_ZN5adept6ActiveIdEC2IdNS_8internal15BinaryOperationIdS1_NS3_3AddES1_EEEERKNS_10ExpressionIT_T0_EEPNS3_9enable_ifIXaaeqsrS9_4rankLi0EsrS9_9is_activeEvE4typeE = comdat any

$_ZN5adeptmiINS_8internal15BinaryOperationIdNS_6ActiveIdEENS1_3AddENS1_18BinaryOpScalarLeftIddNS1_8MultiplyES4_EEEENS6_IdiS7_S4_EEEENS1_9enable_ifIXsr8internal15rank_compatibleIXsrT_4rankEXsrT0_4rankEEE5valueENS2_INS1_7promoteINSC_4typeENSD_4typeEE4typeESC_NS1_8SubtractESD_EEE4typeERKNS_10ExpressionISF_SC_EERKNSN_ISG_SD_EE = comdat any

$_ZN5adeptplINS_6ActiveIdEENS_8internal18BinaryOpScalarLeftIddNS3_8MultiplyES2_EEEENS3_9enable_ifIXsr8internal15rank_compatibleIXsrT_4rankEXsrT0_4rankEEE5valueENS3_15BinaryOperationINS3_7promoteINS8_4typeENS9_4typeEE4typeES8_NS3_3AddES9_EEE4typeERKNS_10ExpressionISC_S8_EERKNSK_ISD_S9_EE = comdat any

$_ZN5adept6ActiveIdEaSIdNS_8internal15BinaryOperationIdNS4_IdS1_NS3_3AddENS3_18BinaryOpScalarLeftIddNS3_8MultiplyES1_EEEENS3_8SubtractENS6_IdiS7_S1_EEEEEENS3_9enable_ifIXaasrT0_9is_activeeqsrSE_4rankLi0EERS1_E4typeERKNS_10ExpressionIT_SE_EE = comdat any

$_ZN5adeptmiINS_6ActiveIdEEdEENS_8internal9enable_ifIXsr8internal17is_not_expressionIT0_EE5valueENS3_19BinaryOpScalarRightINS3_7promoteINT_4typeES5_E4typeES8_NS3_8SubtractES5_EEE4typeERKNS_10ExpressionIS9_S8_EERKS5_ = comdat any

$_ZN5adept6ActiveIdEC2IdNS_8internal19BinaryOpScalarRightIdS1_NS3_8SubtractEdEEEERKNS_10ExpressionIT_T0_EEPNS3_9enable_ifIXaaeqsrS9_4rankLi0EsrS9_9is_activeEvE4typeE = comdat any

$_ZNK5adept10ExpressionIdNS_8internal15BinaryOperationIdNS_6ActiveIdEENS1_3AddENS1_18BinaryOpScalarLeftIddNS1_8MultiplyES4_EEEEE4castEv = comdat any

$_ZN5adept8internal15BinaryOperationIdNS1_IdNS_6ActiveIdEENS0_3AddENS0_18BinaryOpScalarLeftIddNS0_8MultiplyES3_EEEENS0_8SubtractENS5_IdiS6_S3_EEEC2ERKNS_10ExpressionIdS8_EERKNSC_IdSA_EE = comdat any

$_ZN5adept8internal15BinaryOperationIdNS_6ActiveIdEENS0_3AddENS0_18BinaryOpScalarLeftIddNS0_8MultiplyES3_EEEC2ERKNS_10ExpressionIdS3_EERKNS9_IdS7_EE = comdat any

$_ZNK5adept10ExpressionIdNS_8internal15BinaryOperationIdNS2_IdNS_6ActiveIdEENS1_3AddENS1_18BinaryOpScalarLeftIddNS1_8MultiplyES4_EEEENS1_8SubtractENS6_IdiS7_S4_EEEEE25scalar_value_and_gradientERNS_5StackE = comdat any

$_ZN5adept8internal13ScratchVectorILi3EdEC2Ev = comdat any

$_ZNK5adept10ExpressionIdNS_8internal15BinaryOperationIdNS2_IdNS_6ActiveIdEENS1_3AddENS1_18BinaryOpScalarLeftIddNS1_8MultiplyES4_EEEENS1_8SubtractENS6_IdiS7_S4_EEEEE4castEv = comdat any

$_ZNK5adept8internal15BinaryOperationIdNS1_IdNS_6ActiveIdEENS0_3AddENS0_18BinaryOpScalarLeftIddNS0_8MultiplyES3_EEEENS0_8SubtractENS5_IdiS6_S3_EEE24value_at_location_store_ILi0ELi0ELi0ELi3EEEdRKNS_14ExpressionSizeIXT1_EEERNS0_13ScratchVectorIXT2_EdEE = comdat any

$_ZNK5adept8internal15BinaryOperationIdNS1_IdNS_6ActiveIdEENS0_3AddENS0_18BinaryOpScalarLeftIddNS0_8MultiplyES3_EEEENS0_8SubtractENS5_IdiS6_S3_EEE14calc_gradient_ILi0ELi0ELi0ELi3EEEvRNS_5StackERKNS_14ExpressionSizeIXT1_EEERKNS0_13ScratchVectorIXT2_EdEE = comdat any

$_ZNK5adept8internal15BinaryOperationIdNS1_IdNS_6ActiveIdEENS0_3AddENS0_18BinaryOpScalarLeftIddNS0_8MultiplyES3_EEEENS0_8SubtractENS5_IdiS6_S3_EEE27my_value_at_location_store_ILi1ELi0ELi0ELi0ELi3EEENS0_9enable_ifIXeqT_Li1EEdE4typeERKNS_14ExpressionSizeIXT2_EEERNS0_13ScratchVectorIXT3_EdEE = comdat any

$_ZNK5adept8internal15BinaryOperationIdNS_6ActiveIdEENS0_3AddENS0_18BinaryOpScalarLeftIddNS0_8MultiplyES3_EEE24value_at_location_store_ILi0ELi1ELi0ELi3EEEdRKNS_14ExpressionSizeIXT1_EEERNS0_13ScratchVectorIXT2_EdEE = comdat any

$_ZNK5adept8internal18BinaryOpScalarLeftIdiNS0_8MultiplyENS_6ActiveIdEEE24value_at_location_store_ILi0ELi2ELi0ELi3EEEdRKNS_14ExpressionSizeIXT1_EEERNS0_13ScratchVectorIXT2_EdEE = comdat any

$_ZN5adept8internal13ScratchVectorILi3EdEixEi = comdat any

$_ZNK5adept8internal15BinaryOperationIdNS_6ActiveIdEENS0_3AddENS0_18BinaryOpScalarLeftIddNS0_8MultiplyES3_EEE27my_value_at_location_store_ILi0ELi0ELi1ELi0ELi3EEENS0_9enable_ifIXeqT_Li0EEdE4typeERKNS_14ExpressionSizeIXT2_EEERNS0_13ScratchVectorIXT3_EdEE = comdat any

$_ZNK5adept6ActiveIdE24value_at_location_store_ILi0ELi1ELi0ELi3EEEdRKNS_14ExpressionSizeIXT1_EEERNS_8internal13ScratchVectorIXT2_EdEE = comdat any

$_ZNK5adept8internal18BinaryOpScalarLeftIddNS0_8MultiplyENS_6ActiveIdEEE24value_at_location_store_ILi0ELi1ELi0ELi3EEEdRKNS_14ExpressionSizeIXT1_EEERNS0_13ScratchVectorIXT2_EdEE = comdat any

$_ZNK5adept8internal18BinaryOpScalarLeftIddNS0_8MultiplyENS_6ActiveIdEEE27my_value_at_location_store_ILi1ELi0ELi1ELi0ELi3EEENS0_9enable_ifIXeqT_Li1EEdE4typeERKNS_14ExpressionSizeIXT2_EEERNS0_13ScratchVectorIXT3_EdEE = comdat any

$_ZNK5adept6ActiveIdE24value_at_location_store_ILi0ELi2ELi0ELi3EEEdRKNS_14ExpressionSizeIXT1_EEERNS_8internal13ScratchVectorIXT2_EdEE = comdat any

$_ZNK5adept8internal18BinaryOpScalarLeftIdiNS0_8MultiplyENS_6ActiveIdEEE27my_value_at_location_store_ILi1ELi0ELi2ELi0ELi3EEENS0_9enable_ifIXeqT_Li1EEdE4typeERKNS_14ExpressionSizeIXT2_EEERNS0_13ScratchVectorIXT3_EdEE = comdat any

$_ZNK5adept6ActiveIdE24value_at_location_store_ILi0ELi3ELi0ELi3EEEdRKNS_14ExpressionSizeIXT1_EEERNS_8internal13ScratchVectorIXT2_EdEE = comdat any

$_ZNK5adept8internal15BinaryOperationIdNS1_IdNS_6ActiveIdEENS0_3AddENS0_18BinaryOpScalarLeftIddNS0_8MultiplyES3_EEEENS0_8SubtractENS5_IdiS6_S3_EEE10calc_left_ILi0ELi0ELi0ELi3ES8_EENS0_9enable_ifIXsrT3_9is_activeEvE4typeERNS_5StackERKSE_RKNS_14ExpressionSizeIXT1_EEERKNS0_13ScratchVectorIXT2_EdEE = comdat any

$_ZNK5adept8internal15BinaryOperationIdNS1_IdNS_6ActiveIdEENS0_3AddENS0_18BinaryOpScalarLeftIddNS0_8MultiplyES3_EEEENS0_8SubtractENS5_IdiS6_S3_EEE11calc_right_ILi0ELi0ELi0ELi3ESA_EENS0_9enable_ifIXsrT3_9is_activeEvE4typeERNS_5StackERKSE_RKNS_14ExpressionSizeIXT1_EEERKNS0_13ScratchVectorIXT2_EdEE = comdat any

$_ZNK5adept8internal8Subtract9calc_leftILi0ELi0ELi0ELi3ENS0_15BinaryOperationIdNS_6ActiveIdEENS0_3AddENS0_18BinaryOpScalarLeftIddNS0_8MultiplyES5_EEEENS7_IdiS8_S5_EEEEvRNS_5StackERKT3_RKT4_RKNS_14ExpressionSizeIXT1_EEERKNS0_13ScratchVectorIXT2_EdEE = comdat any

$_ZNK5adept8internal15BinaryOperationIdNS_6ActiveIdEENS0_3AddENS0_18BinaryOpScalarLeftIddNS0_8MultiplyES3_EEE14calc_gradient_ILi0ELi1ELi0ELi3EEEvRNS_5StackERKNS_14ExpressionSizeIXT1_EEERKNS0_13ScratchVectorIXT2_EdEE = comdat any

$_ZNK5adept8internal15BinaryOperationIdNS_6ActiveIdEENS0_3AddENS0_18BinaryOpScalarLeftIddNS0_8MultiplyES3_EEE10calc_left_ILi0ELi1ELi0ELi3ES3_EENS0_9enable_ifIXsrT3_9is_activeEvE4typeERNS_5StackERKSB_RKNS_14ExpressionSizeIXT1_EEERKNS0_13ScratchVectorIXT2_EdEE = comdat any

$_ZNK5adept8internal15BinaryOperationIdNS_6ActiveIdEENS0_3AddENS0_18BinaryOpScalarLeftIddNS0_8MultiplyES3_EEE11calc_right_ILi0ELi1ELi0ELi3ES7_EENS0_9enable_ifIXsrT3_9is_activeEvE4typeERNS_5StackERKSB_RKNS_14ExpressionSizeIXT1_EEERKNS0_13ScratchVectorIXT2_EdEE = comdat any

$_ZNK5adept8internal3Add9calc_leftILi0ELi1ELi0ELi3ENS_6ActiveIdEENS0_18BinaryOpScalarLeftIddNS0_8MultiplyES4_EEEEvRNS_5StackERKT3_RKT4_RKNS_14ExpressionSizeIXT1_EEERKNS0_13ScratchVectorIXT2_EdEE = comdat any

$_ZNK5adept6ActiveIdE14calc_gradient_ILi0ELi1ELi0ELi3EEEvRNS_5StackERKNS_14ExpressionSizeIXT1_EEERKNS_8internal13ScratchVectorIXT2_EdEE = comdat any

$_ZNK5adept8internal3Add10calc_rightILi0ELi1ELi0ELi3ENS_6ActiveIdEENS0_18BinaryOpScalarLeftIddNS0_8MultiplyES4_EEEEvRNS_5StackERKT3_RKT4_RKNS_14ExpressionSizeIXT1_EEERKNS0_13ScratchVectorIXT2_EdEE = comdat any

$_ZNK5adept8internal18BinaryOpScalarLeftIddNS0_8MultiplyENS_6ActiveIdEEE14calc_gradient_ILi0ELi1ELi0ELi3EEEvRNS_5StackERKNS_14ExpressionSizeIXT1_EEERKNS0_13ScratchVectorIXT2_EdEE = comdat any

$_ZNK5adept8internal18BinaryOpScalarLeftIddNS0_8MultiplyENS_6ActiveIdEEE11calc_right_ILi0ELi1ELi0ELi3ES4_EENS0_9enable_ifIXsrT3_9is_activeEvE4typeERNS_5StackERKS8_RKNS_14ExpressionSizeIXT1_EEERKNS0_13ScratchVectorIXT2_EdEE = comdat any

$_ZN5adept8internal8Multiply10calc_rightILi0ELi1ELi0ELi3ENS0_6ScalarIdEENS_6ActiveIdEEEEvRNS_5StackERKT3_RKT4_RKNS_14ExpressionSizeIXT1_EEERKNS0_13ScratchVectorIXT2_EdEE = comdat any

$_ZNK5adept6ActiveIdE14calc_gradient_ILi0ELi2ELi0ELi3EdEEvRNS_5StackERKNS_14ExpressionSizeIXT1_EEERKNS_8internal13ScratchVectorIXT2_EdEERKT3_ = comdat any

$_ZNK5adept8internal6ScalarIdE13value_stored_ILi0ELi2ELi0ELi3EEEdRKNS_14ExpressionSizeIXT1_EEERKNS0_13ScratchVectorIXT2_EdEE = comdat any

$_ZNK5adept8internal8Subtract10calc_rightILi0ELi0ELi0ELi3ENS0_15BinaryOperationIdNS_6ActiveIdEENS0_3AddENS0_18BinaryOpScalarLeftIddNS0_8MultiplyES5_EEEENS7_IdiS8_S5_EEEEvRNS_5StackERKT3_RKT4_RKNS_14ExpressionSizeIXT1_EEERKNS0_13ScratchVectorIXT2_EdEE = comdat any

$_ZNK5adept8internal18BinaryOpScalarLeftIdiNS0_8MultiplyENS_6ActiveIdEEE14calc_gradient_ILi0ELi2ELi0ELi3EdEEvRNS_5StackERKNS_14ExpressionSizeIXT1_EEERKNS0_13ScratchVectorIXT2_EdEET3_ = comdat any

$_ZNK5adept8internal18BinaryOpScalarLeftIdiNS0_8MultiplyENS_6ActiveIdEEE11calc_right_ILi0ELi2ELi0ELi3ES4_dEENS0_9enable_ifIXsrT3_9is_activeEvE4typeERNS_5StackERKS8_RKNS_14ExpressionSizeIXT1_EEERKNS0_13ScratchVectorIXT2_EdEET4_ = comdat any

$_ZN5adept8internal8Multiply10calc_rightILi0ELi2ELi0ELi3ENS0_6ScalarIiEENS_6ActiveIdEEdEEvRNS_5StackERKT3_RKT4_RKNS_14ExpressionSizeIXT1_EEERKNS0_13ScratchVectorIXT2_EdEET5_ = comdat any

$_ZNK5adept6ActiveIdE14calc_gradient_ILi0ELi3ELi0ELi3EdEEvRNS_5StackERKNS_14ExpressionSizeIXT1_EEERKNS_8internal13ScratchVectorIXT2_EdEERKT3_ = comdat any

$_ZNK5adept8internal6ScalarIiE13value_stored_ILi0ELi3ELi0ELi3EEEiRKNS_14ExpressionSizeIXT1_EEERKNS0_13ScratchVectorIXT2_EdEE = comdat any

$_ZN5adept8internal19BinaryOpScalarRightIdNS_6ActiveIdEENS0_8SubtractEdEC2ERKNS_10ExpressionIdS3_EEd = comdat any

$_ZNK5adept10ExpressionIdNS_8internal19BinaryOpScalarRightIdNS_6ActiveIdEENS1_8SubtractEdEEE25scalar_value_and_gradientERNS_5StackE = comdat any

$_ZNK5adept10ExpressionIdNS_8internal19BinaryOpScalarRightIdNS_6ActiveIdEENS1_8SubtractEdEEE4castEv = comdat any

$_ZNK5adept8internal19BinaryOpScalarRightIdNS_6ActiveIdEENS0_8SubtractEdE24value_at_location_store_ILi0ELi0ELi0ELi1EEEdRKNS_14ExpressionSizeIXT1_EEERNS0_13ScratchVectorIXT2_EdEE = comdat any

$_ZNK5adept8internal19BinaryOpScalarRightIdNS_6ActiveIdEENS0_8SubtractEdE14calc_gradient_ILi0ELi0ELi0ELi1EEEvRNS_5StackERKNS_14ExpressionSizeIXT1_EEERKNS0_13ScratchVectorIXT2_EdEE = comdat any

$_ZNK5adept8internal19BinaryOpScalarRightIdNS_6ActiveIdEENS0_8SubtractEdE27my_value_at_location_store_ILi1ELi0ELi0ELi0ELi1EEENS0_9enable_ifIXgtT_Li0EEdE4typeERKNS_14ExpressionSizeIXT2_EEERNS0_13ScratchVectorIXT3_EdEE = comdat any

$_ZNK5adept8internal19BinaryOpScalarRightIdNS_6ActiveIdEENS0_8SubtractEdE10calc_left_ILi0ELi0ELi0ELi1ES3_EENS0_9enable_ifIXsrT3_9is_activeEvE4typeERNS_5StackERKS8_RKNS_14ExpressionSizeIXT1_EEERKNS0_13ScratchVectorIXT2_EdEE = comdat any

$_ZNK5adept8internal8Subtract9calc_leftILi0ELi0ELi0ELi1ENS_6ActiveIdEENS0_6ScalarIdEEEEvRNS_5StackERKT3_RKT4_RKNS_14ExpressionSizeIXT1_EEERKNS0_13ScratchVectorIXT2_EdEE = comdat any

$_ZSt8_DestroyIPN5adept6ActiveIdEES2_EvT_S4_RSaIT0_E = comdat any

$_ZN5adept5Stack13set_gradientsIdEENS_8internal9enable_ifIXsr8internal17is_floating_pointIT_EE5valueEvE4typeEiiPKS4_ = comdat any

$_ZN5adept21gradient_out_of_rangeC2ERKNSt7__cxx1112basic_stringIcSt11char_traitsIcESaIcEEE = comdat any

$_ZN5adept21gradient_out_of_rangeD0Ev = comdat any

$_ZNK5adept6ActiveIdE12get_gradientIdEEvRT_ = comdat any

$_ZNK5adept5Stack13get_gradientsIdEENS_8internal9enable_ifIXsr8internal17is_floating_pointIT_EE5valueEvE4typeEiiPS4_ = comdat any

$_ZTWN5adept21_stack_current_threadE = comdat any

$_ZTSN5adept17invalid_operationE = comdat any

$_ZTSN5adept15array_exceptionE = comdat any

$_ZTSN5adept9exceptionE = comdat any

$_ZTIN5adept9exceptionE = comdat any

$_ZTIN5adept15array_exceptionE = comdat any

$_ZTIN5adept17invalid_operationE = comdat any

$_ZTSN5adept20stack_already_activeE = comdat any

$_ZTSN5adept18autodiff_exceptionE = comdat any

$_ZTIN5adept18autodiff_exceptionE = comdat any

$_ZTIN5adept20stack_already_activeE = comdat any

$_ZTSN5adept25gradients_not_initializedE = comdat any

$_ZTIN5adept25gradients_not_initializedE = comdat any

$_ZTSN5adept21feature_not_availableE = comdat any

$_ZTIN5adept21feature_not_availableE = comdat any

$_ZTSN5adept41dependents_or_independents_not_identifiedE = comdat any

$_ZTIN5adept41dependents_or_independents_not_identifiedE = comdat any

$_ZTVN5adept17invalid_operationE = comdat any

$_ZTVN5adept15array_exceptionE = comdat any

$_ZTVN5adept9exceptionE = comdat any

$_ZTVN5adept20stack_already_activeE = comdat any

$_ZTVN5adept18autodiff_exceptionE = comdat any

$_ZTVN5adept25gradients_not_initializedE = comdat any

$_ZTVN5adept21feature_not_availableE = comdat any

$_ZTVN5adept41dependents_or_independents_not_identifiedE = comdat any

$_ZTSN5adept17invalid_dimensionE = comdat any

$_ZTIN5adept17invalid_dimensionE = comdat any

$_ZTVN5adept17invalid_dimensionE = comdat any

$_ZTSN5adept21gradient_out_of_rangeE = comdat any

$_ZTIN5adept21gradient_out_of_rangeE = comdat any

$_ZTVN5adept21gradient_out_of_rangeE = comdat any

@.str = private unnamed_addr constant [2 x i8] c".\00", align 1
@.str.1 = private unnamed_addr constant [3 x i8] c"..\00", align 1
@.str.2 = private unnamed_addr constant [6 x i8] c"%s/%s\00", align 1
@.str.3 = private unnamed_addr constant [2 x i8] c"/\00", align 1
@.str.4 = private unnamed_addr constant [5 x i8] c".txt\00", align 1
@.str.5 = private unnamed_addr constant [3 x i8] c"/\\\00", align 1
@.str.6 = private unnamed_addr constant [3 x i8] c"./\00", align 1
@_ZStL8__ioinit = internal global %"class.std::ios_base::Init" zeroinitializer, align 1
@__dso_handle = external hidden global i8
@.str.7 = private unnamed_addr constant [2 x i8] c"r\00", align 1
@.str.8 = private unnamed_addr constant [25 x i8] c"could not open file: %s\0A\00", align 1
@.str.9 = private unnamed_addr constant [9 x i8] c"%i %i %i\00", align 1
@.str.10 = private unnamed_addr constant [4 x i8] c"%lf\00", align 1
@.str.11 = private unnamed_addr constant [7 x i8] c"%lf %i\00", align 1
@.str.12 = private unnamed_addr constant [15 x i8] c"starting main\0A\00", align 1
@.str.13 = private unnamed_addr constant [5 x i8] c"-rep\00", align 1
@.str.14 = private unnamed_addr constant [8 x i8] c"data/1k\00", align 1
@.str.15 = private unnamed_addr constant [4 x i8] c"1k/\00", align 1
@.str.16 = private unnamed_addr constant [10 x i8] c"data/2.5k\00", align 1
@.str.17 = private unnamed_addr constant [6 x i8] c"2.5k/\00", align 1
@.str.18 = private unnamed_addr constant [9 x i8] c"data/10k\00", align 1
@.str.19 = private unnamed_addr constant [5 x i8] c"10k/\00", align 1
@.str.20 = private unnamed_addr constant [22 x i8] c"10k/gmm_d128_K200.txt\00", align 1
@.str.21 = private unnamed_addr constant [22 x i8] c"10k/gmm_d128_K100.txt\00", align 1
@.str.22 = private unnamed_addr constant [21 x i8] c"10k/gmm_d64_K200.txt\00", align 1
@.str.23 = private unnamed_addr constant [21 x i8] c"10k/gmm_d128_K50.txt\00", align 1
@.str.24 = private unnamed_addr constant [21 x i8] c"10k/gmm_d64_K100.txt\00", align 1
@.str.25 = private unnamed_addr constant [18 x i8] c"starting path %s\0A\00", align 1
@.str.26 = private unnamed_addr constant [6 x i8] c"data/\00", align 1
@.str.27 = private unnamed_addr constant [25 x i8] c"Tapenade combined %0.6f\0A\00", align 1
@.str.28 = private unnamed_addr constant [4 x i8] c"%f \00", align 1
@.str.29 = private unnamed_addr constant [2 x i8] c"\0A\00", align 1
@_ZTISt9bad_alloc = external dso_local constant i8*
@.str.30 = private unnamed_addr constant [22 x i8] c"Adept combined %0.6f\0A\00", align 1
@.str.31 = private unnamed_addr constant [30 x i8] c"Adept combined 88888888 ooms\0A\00", align 1
@.str.32 = private unnamed_addr constant [23 x i8] c"Enzyme combined %0.6f\0A\00", align 1
@enzyme_const = external dso_local global i32, align 4
@enzyme_dup = external dso_local global i32, align 4
@enzyme_dupnoneed = external dso_local global i32, align 4
@_ZN5adept8internal21array_row_major_orderE = dso_local global i8 1, align 1
@_ZN5adept8internal17array_print_styleE = dso_local global i32 2, align 4
@_ZN5adept8internal16vector_separatorB5cxx11E = dso_local global %"class.std::__cxx11::basic_string" zeroinitializer, align 8
@.str.34 = private unnamed_addr constant [3 x i8] c", \00", align 1
@_ZN5adept8internal19vector_print_beforeB5cxx11E = dso_local global %"class.std::__cxx11::basic_string" zeroinitializer, align 8
@.str.36 = private unnamed_addr constant [2 x i8] c"{\00", align 1
@_ZN5adept8internal18vector_print_afterB5cxx11E = dso_local global %"class.std::__cxx11::basic_string" zeroinitializer, align 8
@.str.38 = private unnamed_addr constant [2 x i8] c"}\00", align 1
@_ZN5adept8internal21array_opening_bracketB5cxx11E = dso_local global %"class.std::__cxx11::basic_string" zeroinitializer, align 8
@_ZN5adept8internal21array_closing_bracketB5cxx11E = dso_local global %"class.std::__cxx11::basic_string" zeroinitializer, align 8
@_ZN5adept8internal26array_contiguous_separatorB5cxx11E = dso_local global %"class.std::__cxx11::basic_string" zeroinitializer, align 8
@_ZN5adept8internal30array_non_contiguous_separatorB5cxx11E = dso_local global %"class.std::__cxx11::basic_string" zeroinitializer, align 8
@.str.43 = private unnamed_addr constant [3 x i8] c",\0A\00", align 1
@_ZN5adept8internal18array_print_beforeB5cxx11E = dso_local global %"class.std::__cxx11::basic_string" zeroinitializer, align 8
@.str.45 = private unnamed_addr constant [3 x i8] c"\0A{\00", align 1
@_ZN5adept8internal17array_print_afterB5cxx11E = dso_local global %"class.std::__cxx11::basic_string" zeroinitializer, align 8
@_ZN5adept8internal24array_print_empty_beforeB5cxx11E = dso_local global %"class.std::__cxx11::basic_string" zeroinitializer, align 8
@.str.48 = private unnamed_addr constant [13 x i8] c"(empty rank-\00", align 1
@_ZN5adept8internal23array_print_empty_afterB5cxx11E = dso_local global %"class.std::__cxx11::basic_string" zeroinitializer, align 8
@.str.50 = private unnamed_addr constant [8 x i8] c" array)\00", align 1
@_ZN5adept8internal18array_print_indentE = dso_local global i8 1, align 1
@_ZN5adept8internal22array_print_empty_rankE = dso_local global i8 1, align 1
@.str.51 = private unnamed_addr constant [2 x i8] c" \00", align 1
@.str.52 = private unnamed_addr constant [1 x i8] zeroinitializer, align 1
@.str.53 = private unnamed_addr constant [6 x i8] c"empty\00", align 1
@.str.54 = private unnamed_addr constant [2 x i8] c"[\00", align 1
@.str.55 = private unnamed_addr constant [2 x i8] c"]\00", align 1
@.str.56 = private unnamed_addr constant [3 x i8] c";\0A\00", align 1
@.str.57 = private unnamed_addr constant [33 x i8] c"Array print style not understood\00", align 1
@_ZTVN10__cxxabiv120__si_class_type_infoE = external dso_local global i8*
@_ZTSN5adept17invalid_operationE = linkonce_odr dso_local constant [28 x i8] c"N5adept17invalid_operationE\00", comdat, align 1
@_ZTSN5adept15array_exceptionE = linkonce_odr dso_local constant [26 x i8] c"N5adept15array_exceptionE\00", comdat, align 1
@_ZTSN5adept9exceptionE = linkonce_odr dso_local constant [19 x i8] c"N5adept9exceptionE\00", comdat, align 1
@_ZTISt9exception = external dso_local constant i8*
@_ZTIN5adept9exceptionE = linkonce_odr dso_local constant { i8*, i8*, i8* } { i8* bitcast (i8** getelementptr inbounds (i8*, i8** @_ZTVN10__cxxabiv120__si_class_type_infoE, i64 2) to i8*), i8* getelementptr inbounds ([19 x i8], [19 x i8]* @_ZTSN5adept9exceptionE, i32 0, i32 0), i8* bitcast (i8** @_ZTISt9exception to i8*) }, comdat, align 8
@_ZTIN5adept15array_exceptionE = linkonce_odr dso_local constant { i8*, i8*, i8* } { i8* bitcast (i8** getelementptr inbounds (i8*, i8** @_ZTVN10__cxxabiv120__si_class_type_infoE, i64 2) to i8*), i8* getelementptr inbounds ([26 x i8], [26 x i8]* @_ZTSN5adept15array_exceptionE, i32 0, i32 0), i8* bitcast ({ i8*, i8*, i8* }* @_ZTIN5adept9exceptionE to i8*) }, comdat, align 8
@_ZTIN5adept17invalid_operationE = linkonce_odr dso_local constant { i8*, i8*, i8* } { i8* bitcast (i8** getelementptr inbounds (i8*, i8** @_ZTVN10__cxxabiv120__si_class_type_infoE, i64 2) to i8*), i8* getelementptr inbounds ([28 x i8], [28 x i8]* @_ZTSN5adept17invalid_operationE, i32 0, i32 0), i8* bitcast ({ i8*, i8*, i8* }* @_ZTIN5adept15array_exceptionE to i8*) }, comdat, align 8
@_ZN5adept21_stack_current_threadE = dso_local thread_local global %"class.adept::Stack"* null, align 8
@_ZN5adept28_stack_current_thread_unsafeE = dso_local global %"class.adept::Stack"* null, align 8
@.str.58 = private unnamed_addr constant [78 x i8] c"Attempt to activate an adept::Stack when one is already active in this thread\00", align 1
@_ZTSN5adept20stack_already_activeE = linkonce_odr dso_local constant [31 x i8] c"N5adept20stack_already_activeE\00", comdat, align 1
@_ZTSN5adept18autodiff_exceptionE = linkonce_odr dso_local constant [29 x i8] c"N5adept18autodiff_exceptionE\00", comdat, align 1
@_ZTIN5adept18autodiff_exceptionE = linkonce_odr dso_local constant { i8*, i8*, i8* } { i8* bitcast (i8** getelementptr inbounds (i8*, i8** @_ZTVN10__cxxabiv120__si_class_type_infoE, i64 2) to i8*), i8* getelementptr inbounds ([29 x i8], [29 x i8]* @_ZTSN5adept18autodiff_exceptionE, i32 0, i32 0), i8* bitcast ({ i8*, i8*, i8* }* @_ZTIN5adept9exceptionE to i8*) }, comdat, align 8
@_ZTIN5adept20stack_already_activeE = linkonce_odr dso_local constant { i8*, i8*, i8* } { i8* bitcast (i8** getelementptr inbounds (i8*, i8** @_ZTVN10__cxxabiv120__si_class_type_infoE, i64 2) to i8*), i8* getelementptr inbounds ([31 x i8], [31 x i8]* @_ZTSN5adept20stack_already_activeE, i32 0, i32 0), i8* bitcast ({ i8*, i8*, i8* }* @_ZTIN5adept18autodiff_exceptionE to i8*) }, comdat, align 8
@.str.59 = private unnamed_addr constant [107 x i8] c"Gradients not initialized: at least one call to set_gradient(s) is needed before a forward or reverse pass\00", align 1
@_ZTSN5adept25gradients_not_initializedE = linkonce_odr dso_local constant [36 x i8] c"N5adept25gradients_not_initializedE\00", comdat, align 1
@_ZTIN5adept25gradients_not_initializedE = linkonce_odr dso_local constant { i8*, i8*, i8* } { i8* bitcast (i8** getelementptr inbounds (i8*, i8** @_ZTVN10__cxxabiv120__si_class_type_infoE, i64 2) to i8*), i8* getelementptr inbounds ([36 x i8], [36 x i8]* @_ZTSN5adept25gradients_not_initializedE, i32 0, i32 0), i8* bitcast ({ i8*, i8*, i8* }* @_ZTIN5adept18autodiff_exceptionE to i8*) }, comdat, align 8
@.str.60 = private unnamed_addr constant [5 x i8] c": d[\00", align 1
@.str.61 = private unnamed_addr constant [5 x i8] c"] = \00", align 1
@.str.62 = private unnamed_addr constant [3 x i8] c"0\0A\00", align 1
@.str.63 = private unnamed_addr constant [4 x i8] c" + \00", align 1
@.str.64 = private unnamed_addr constant [4 x i8] c"*d[\00", align 1
@.str.65 = private unnamed_addr constant [2 x i8] c":\00", align 1
@.str.66 = private unnamed_addr constant [26 x i8] c"No gradients initialized\0A\00", align 1
@.str.67 = private unnamed_addr constant [2 x i8] c"-\00", align 1
@.str.68 = private unnamed_addr constant [42 x i8] c"Automatic Differentiation Stack (address \00", align 1
@.str.69 = private unnamed_addr constant [4 x i8] c"):\0A\00", align 1
@.str.70 = private unnamed_addr constant [37 x i8] c"   Currently attached - thread safe\0A\00", align 1
@.str.71 = private unnamed_addr constant [39 x i8] c"   Currently attached - thread unsafe\0A\00", align 1
@.str.72 = private unnamed_addr constant [23 x i8] c"   Currently detached\0A\00", align 1
@.str.73 = private unnamed_addr constant [22 x i8] c"   Recording status:\0A\00", align 1
@.str.74 = private unnamed_addr constant [23 x i8] c"      Recording is ON\0A\00", align 1
@.str.75 = private unnamed_addr constant [27 x i8] c"      Recording is PAUSED\0A\00", align 1
@.str.76 = private unnamed_addr constant [7 x i8] c"      \00", align 1
@.str.77 = private unnamed_addr constant [14 x i8] c" statements (\00", align 1
@.str.78 = private unnamed_addr constant [12 x i8] c" allocated)\00", align 1
@.str.79 = private unnamed_addr constant [6 x i8] c" and \00", align 1
@.str.80 = private unnamed_addr constant [14 x i8] c" operations (\00", align 1
@.str.81 = private unnamed_addr constant [13 x i8] c" allocated)\0A\00", align 1
@.str.82 = private unnamed_addr constant [33 x i8] c" gradients currently registered \00", align 1
@.str.83 = private unnamed_addr constant [16 x i8] c"and a total of \00", align 1
@.str.84 = private unnamed_addr constant [24 x i8] c" needed (current index \00", align 1
@.str.85 = private unnamed_addr constant [3 x i8] c")\0A\00", align 1
@.str.86 = private unnamed_addr constant [33 x i8] c"      Gradient list has no gaps\0A\00", align 1
@.str.87 = private unnamed_addr constant [25 x i8] c"      Gradient list has \00", align 1
@.str.88 = private unnamed_addr constant [8 x i8] c" gaps (\00", align 1
@.str.89 = private unnamed_addr constant [24 x i8] c"   Computation status:\0A\00", align 1
@.str.90 = private unnamed_addr constant [22 x i8] c" gradients assigned (\00", align 1
@.str.91 = private unnamed_addr constant [29 x i8] c"      0 gradients assigned (\00", align 1
@.str.92 = private unnamed_addr constant [22 x i8] c"      Jacobian size: \00", align 1
@.str.93 = private unnamed_addr constant [2 x i8] c"x\00", align 1
@.str.94 = private unnamed_addr constant [27 x i8] c"      Independent indices:\00", align 1
@.str.95 = private unnamed_addr constant [28 x i8] c"\0A      Dependent indices:  \00", align 1
@.str.96 = private unnamed_addr constant [51 x i8] c"      Parallel Jacobian calculation not available\0A\00", align 1
@_ZN5adept8internal26n_storage_objects_created_E = dso_local global i32 0, align 4
@_ZN5adept8internal26n_storage_objects_deleted_E = dso_local global i32 0, align 4
@.str.97 = private unnamed_addr constant [74 x i8] c"Cannot perform matrix-matrix multiplication because compiled without BLAS\00", align 1
@_ZTSN5adept21feature_not_availableE = linkonce_odr dso_local constant [32 x i8] c"N5adept21feature_not_availableE\00", comdat, align 1
@_ZTIN5adept21feature_not_availableE = linkonce_odr dso_local constant { i8*, i8*, i8* } { i8* bitcast (i8** getelementptr inbounds (i8*, i8** @_ZTVN10__cxxabiv120__si_class_type_infoE, i64 2) to i8*), i8* getelementptr inbounds ([32 x i8], [32 x i8]* @_ZTSN5adept21feature_not_availableE, i32 0, i32 0), i8* bitcast ({ i8*, i8*, i8* }* @_ZTIN5adept9exceptionE to i8*) }, comdat, align 8
@.str.98 = private unnamed_addr constant [74 x i8] c"Cannot perform matrix-vector multiplication because compiled without BLAS\00", align 1
@.str.99 = private unnamed_addr constant [84 x i8] c"Cannot perform symmetric matrix-matrix multiplication because compiled without BLAS\00", align 1
@.str.100 = private unnamed_addr constant [84 x i8] c"Cannot perform symmetric matrix-vector multiplication because compiled without BLAS\00", align 1
@.str.101 = private unnamed_addr constant [79 x i8] c"Cannot perform band matrix-vector multiplication because compiled without BLAS\00", align 1
@_ZN5adept3endE = dso_local global %"struct.adept::internal::EndIndex" zeroinitializer, align 1
@_ZN5adept2__E = dso_local global %"class.adept::internal::AllIndex" zeroinitializer, align 1
@.str.102 = private unnamed_addr constant [53 x i8] c"Cannot invert matrix because compiled without LAPACK\00", align 1
@.str.103 = private unnamed_addr constant [80 x i8] c"Dependent or independent variables not identified before a Jacobian computation\00", align 1
@_ZTSN5adept41dependents_or_independents_not_identifiedE = linkonce_odr dso_local constant [52 x i8] c"N5adept41dependents_or_independents_not_identifiedE\00", comdat, align 1
@_ZTIN5adept41dependents_or_independents_not_identifiedE = linkonce_odr dso_local constant { i8*, i8*, i8* } { i8* bitcast (i8** getelementptr inbounds (i8*, i8** @_ZTVN10__cxxabiv120__si_class_type_infoE, i64 2) to i8*), i8* getelementptr inbounds ([52 x i8], [52 x i8]* @_ZTSN5adept41dependents_or_independents_not_identifiedE, i32 0, i32 0), i8* bitcast ({ i8*, i8*, i8* }* @_ZTIN5adept18autodiff_exceptionE to i8*) }, comdat, align 8
@.str.104 = private unnamed_addr constant [6 x i8] c"2.0.6\00", align 1
@.str.105 = private unnamed_addr constant [8 x i8] c"unknown\00", align 1
@.str.106 = private unnamed_addr constant [9 x i8] c" [4.2.1]\00", align 1
@.str.107 = private unnamed_addr constant [15 x i8] c"Adept version \00", align 1
@.str.108 = private unnamed_addr constant [3 x i8] c":\0A\00", align 1
@.str.109 = private unnamed_addr constant [17 x i8] c"  Compiled with \00", align 1
@.str.110 = private unnamed_addr constant [19 x i8] c"  Compiler flags \22\00", align 1
@.str.111 = private unnamed_addr constant [3 x i8] c"\22\0A\00", align 1
@.str.112 = private unnamed_addr constant [41 x i8] c"  Jacobians processed in blocks of size \00", align 1
@.str.113 = private unnamed_addr constant [62 x i8] c"Cannot solve linear equations because compiled without LAPACK\00", align 1
@.str.114 = private unnamed_addr constant [47 x i8] c"linspace(x1,x2,n) with n=1 only valid if x1=x2\00", align 1
@_ZTVSt9bad_alloc = available_externally dso_local unnamed_addr constant { [5 x i8*] } { [5 x i8*] [i8* null, i8* bitcast (i8** @_ZTISt9bad_alloc to i8*), i8* bitcast (void (%"class.std::bad_alloc"*)* @_ZNSt9bad_allocD1Ev to i8*), i8* bitcast (void (%"class.std::bad_alloc"*)* @_ZNSt9bad_allocD0Ev to i8*), i8* bitcast (i8* (%"class.std::bad_alloc"*)* @_ZNKSt9bad_alloc4whatEv to i8*)] }, align 8
@_ZTVSt9exception = available_externally dso_local unnamed_addr constant { [5 x i8*] } { [5 x i8*] [i8* null, i8* bitcast (i8** @_ZTISt9exception to i8*), i8* bitcast (void (%"class.std::exception"*)* @_ZNSt9exceptionD1Ev to i8*), i8* bitcast (void (%"class.std::exception"*)* @_ZNSt9exceptionD0Ev to i8*), i8* bitcast (i8* (%"class.std::exception"*)* @_ZNKSt9exception4whatEv to i8*)] }, align 8
@.str.115 = private unnamed_addr constant [28 x i8] c"A misuse of arrays occurred\00", align 1
@_ZTVN5adept17invalid_operationE = linkonce_odr dso_local unnamed_addr constant { [5 x i8*] } { [5 x i8*] [i8* null, i8* bitcast ({ i8*, i8*, i8* }* @_ZTIN5adept17invalid_operationE to i8*), i8* bitcast (void (%"class.adept::exception"*)* @_ZN5adept9exceptionD2Ev to i8*), i8* bitcast (void (%"class.adept::invalid_operation"*)* @_ZN5adept17invalid_operationD0Ev to i8*), i8* bitcast (i8* (%"class.adept::exception"*)* @_ZNK5adept9exception4whatEv to i8*)] }, comdat, align 8
@_ZTVN5adept15array_exceptionE = linkonce_odr dso_local unnamed_addr constant { [5 x i8*] } { [5 x i8*] [i8* null, i8* bitcast ({ i8*, i8*, i8* }* @_ZTIN5adept15array_exceptionE to i8*), i8* bitcast (void (%"class.adept::exception"*)* @_ZN5adept9exceptionD2Ev to i8*), i8* bitcast (void (%"class.adept::array_exception"*)* @_ZN5adept15array_exceptionD0Ev to i8*), i8* bitcast (i8* (%"class.adept::exception"*)* @_ZNK5adept9exception4whatEv to i8*)] }, comdat, align 8
@_ZTVN5adept9exceptionE = linkonce_odr dso_local unnamed_addr constant { [5 x i8*] } { [5 x i8*] [i8* null, i8* bitcast ({ i8*, i8*, i8* }* @_ZTIN5adept9exceptionE to i8*), i8* bitcast (void (%"class.adept::exception"*)* @_ZN5adept9exceptionD2Ev to i8*), i8* bitcast (void (%"class.adept::exception"*)* @_ZN5adept9exceptionD0Ev to i8*), i8* bitcast (i8* (%"class.adept::exception"*)* @_ZNK5adept9exception4whatEv to i8*)] }, comdat, align 8
@_ZTVN5adept20stack_already_activeE = linkonce_odr dso_local unnamed_addr constant { [5 x i8*] } { [5 x i8*] [i8* null, i8* bitcast ({ i8*, i8*, i8* }* @_ZTIN5adept20stack_already_activeE to i8*), i8* bitcast (void (%"class.adept::exception"*)* @_ZN5adept9exceptionD2Ev to i8*), i8* bitcast (void (%"class.adept::stack_already_active"*)* @_ZN5adept20stack_already_activeD0Ev to i8*), i8* bitcast (i8* (%"class.adept::exception"*)* @_ZNK5adept9exception4whatEv to i8*)] }, comdat, align 8
@_ZTVN5adept18autodiff_exceptionE = linkonce_odr dso_local unnamed_addr constant { [5 x i8*] } { [5 x i8*] [i8* null, i8* bitcast ({ i8*, i8*, i8* }* @_ZTIN5adept18autodiff_exceptionE to i8*), i8* bitcast (void (%"class.adept::exception"*)* @_ZN5adept9exceptionD2Ev to i8*), i8* bitcast (void (%"class.adept::autodiff_exception"*)* @_ZN5adept18autodiff_exceptionD0Ev to i8*), i8* bitcast (i8* (%"class.adept::exception"*)* @_ZNK5adept9exception4whatEv to i8*)] }, comdat, align 8
@_ZTVN5adept25gradients_not_initializedE = linkonce_odr dso_local unnamed_addr constant { [5 x i8*] } { [5 x i8*] [i8* null, i8* bitcast ({ i8*, i8*, i8* }* @_ZTIN5adept25gradients_not_initializedE to i8*), i8* bitcast (void (%"class.adept::exception"*)* @_ZN5adept9exceptionD2Ev to i8*), i8* bitcast (void (%"class.adept::gradients_not_initialized"*)* @_ZN5adept25gradients_not_initializedD0Ev to i8*), i8* bitcast (i8* (%"class.adept::exception"*)* @_ZNK5adept9exception4whatEv to i8*)] }, comdat, align 8
@_ZTVN5adept21feature_not_availableE = linkonce_odr dso_local unnamed_addr constant { [5 x i8*] } { [5 x i8*] [i8* null, i8* bitcast ({ i8*, i8*, i8* }* @_ZTIN5adept21feature_not_availableE to i8*), i8* bitcast (void (%"class.adept::exception"*)* @_ZN5adept9exceptionD2Ev to i8*), i8* bitcast (void (%"class.adept::feature_not_available"*)* @_ZN5adept21feature_not_availableD0Ev to i8*), i8* bitcast (i8* (%"class.adept::exception"*)* @_ZNK5adept9exception4whatEv to i8*)] }, comdat, align 8
@_ZTVN5adept41dependents_or_independents_not_identifiedE = linkonce_odr dso_local unnamed_addr constant { [5 x i8*] } { [5 x i8*] [i8* null, i8* bitcast ({ i8*, i8*, i8* }* @_ZTIN5adept41dependents_or_independents_not_identifiedE to i8*), i8* bitcast (void (%"class.adept::exception"*)* @_ZN5adept9exceptionD2Ev to i8*), i8* bitcast (void (%"class.adept::dependents_or_independents_not_identified"*)* @_ZN5adept41dependents_or_independents_not_identifiedD0Ev to i8*), i8* bitcast (i8* (%"class.adept::exception"*)* @_ZNK5adept9exception4whatEv to i8*)] }, comdat, align 8
@.str.116 = private unnamed_addr constant [21 x i8] c"basic_string::append\00", align 1
@.str.117 = private unnamed_addr constant [42 x i8] c"basic_string::_M_construct null not valid\00", align 1
@.str.118 = private unnamed_addr constant [26 x i8] c"vector::_M_realloc_insert\00", align 1
@.str.119 = private unnamed_addr constant [21 x i8] c"basic_string::substr\00", align 1
@.str.120 = private unnamed_addr constant [55 x i8] c"%s: __pos (which is %zu) > this->size() (which is %zu)\00", align 1
@.str.121 = private unnamed_addr constant [27 x i8] c"basic_string::basic_string\00", align 1
@.str.122 = private unnamed_addr constant [26 x i8] c"vector::_M_default_append\00", align 1
@.str.123 = private unnamed_addr constant [49 x i8] c"cannot create std::vector larger than max_size()\00", align 1
@_ZTVNSt7__cxx1118basic_stringstreamIcSt11char_traitsIcESaIcEEE = external dso_local unnamed_addr constant { [5 x i8*], [5 x i8*], [5 x i8*] }, align 8
@_ZTTNSt7__cxx1118basic_stringstreamIcSt11char_traitsIcESaIcEEE = external unnamed_addr constant [10 x i8*], align 8
@_ZTVSt9basic_iosIcSt11char_traitsIcEE = external dso_local unnamed_addr constant { [4 x i8*] }, align 8
@_ZTVNSt7__cxx1115basic_stringbufIcSt11char_traitsIcESaIcEEE = external dso_local unnamed_addr constant { [16 x i8*] }, align 8
@_ZTVSt15basic_streambufIcSt11char_traitsIcEE = external dso_local unnamed_addr constant { [16 x i8*] }, align 8
@.str.124 = private unnamed_addr constant [22 x i8] c"basic_string::replace\00", align 1
@.str.125 = private unnamed_addr constant [35 x i8] c"Negative array dimension requested\00", align 1
@.str.126 = private unnamed_addr constant [89 x i8] c"/localhome/mha157/Enzyme/enzyme/build/benchmarks/adept2/src/adept2/include/adept/Array.h\00", align 1
@_ZTSN5adept17invalid_dimensionE = linkonce_odr dso_local constant [28 x i8] c"N5adept17invalid_dimensionE\00", comdat, align 1
@_ZTIN5adept17invalid_dimensionE = linkonce_odr dso_local constant { i8*, i8*, i8* } { i8* bitcast (i8** getelementptr inbounds (i8*, i8** @_ZTVN10__cxxabiv120__si_class_type_infoE, i64 2) to i8*), i8* getelementptr inbounds ([28 x i8], [28 x i8]* @_ZTSN5adept17invalid_dimensionE, i32 0, i32 0), i8* bitcast ({ i8*, i8*, i8* }* @_ZTIN5adept15array_exceptionE to i8*) }, comdat, align 8
@.str.127 = private unnamed_addr constant [58 x i8] c"Attempt to remove more links to a storage object than set\00", align 1
@.str.128 = private unnamed_addr constant [91 x i8] c"/localhome/mha157/Enzyme/enzyme/build/benchmarks/adept2/src/adept2/include/adept/Storage.h\00", align 1
@.str.129 = private unnamed_addr constant [6 x i8] c" (in \00", align 1
@.str.130 = private unnamed_addr constant [2 x i8] c")\00", align 1
@_ZTVN5adept17invalid_dimensionE = linkonce_odr dso_local unnamed_addr constant { [5 x i8*] } { [5 x i8*] [i8* null, i8* bitcast ({ i8*, i8*, i8* }* @_ZTIN5adept17invalid_dimensionE to i8*), i8* bitcast (void (%"class.adept::exception"*)* @_ZN5adept9exceptionD2Ev to i8*), i8* bitcast (void (%"class.adept::invalid_dimension"*)* @_ZN5adept17invalid_dimensionD0Ev to i8*), i8* bitcast (i8* (%"class.adept::exception"*)* @_ZNK5adept9exception4whatEv to i8*)] }, comdat, align 8
@.str.131 = private unnamed_addr constant [99 x i8] c"Gradient index out of range: probably aReal objects have been created after a set_gradient(s) call\00", align 1
@_ZTSN5adept21gradient_out_of_rangeE = linkonce_odr dso_local constant [32 x i8] c"N5adept21gradient_out_of_rangeE\00", comdat, align 1
@_ZTIN5adept21gradient_out_of_rangeE = linkonce_odr dso_local constant { i8*, i8*, i8* } { i8* bitcast (i8** getelementptr inbounds (i8*, i8** @_ZTVN10__cxxabiv120__si_class_type_infoE, i64 2) to i8*), i8* getelementptr inbounds ([32 x i8], [32 x i8]* @_ZTSN5adept21gradient_out_of_rangeE, i32 0, i32 0), i8* bitcast ({ i8*, i8*, i8* }* @_ZTIN5adept18autodiff_exceptionE to i8*) }, comdat, align 8
@_ZTVN5adept21gradient_out_of_rangeE = linkonce_odr dso_local unnamed_addr constant { [5 x i8*] } { [5 x i8*] [i8* null, i8* bitcast ({ i8*, i8*, i8* }* @_ZTIN5adept21gradient_out_of_rangeE to i8*), i8* bitcast (void (%"class.adept::exception"*)* @_ZN5adept9exceptionD2Ev to i8*), i8* bitcast (void (%"class.adept::gradient_out_of_range"*)* @_ZN5adept21gradient_out_of_rangeD0Ev to i8*), i8* bitcast (i8* (%"class.adept::exception"*)* @_ZNK5adept9exception4whatEv to i8*)] }, comdat, align 8
@llvm.global_ctors = appending global [1 x { i32, void ()*, i8* }] [{ i32, void ()*, i8* } { i32 65535, void ()* @_GLOBAL__sub_I_gmm.cpp, i8* null }]

@_ZN5adept5StackD1Ev = dso_local unnamed_addr alias void (%"class.adept::Stack"*), void (%"class.adept::Stack"*)* @_ZN5adept5StackD2Ev
@_ZN5adept8internal16StackStorageOrigD1Ev = dso_local unnamed_addr alias void (%"class.adept::internal::StackStorageOrig"*), void (%"class.adept::internal::StackStorageOrig"*)* @_ZN5adept8internal16StackStorageOrigD2Ev

; Function Attrs: uwtable mustprogress
define dso_local void @_Z8getTestsRSt6vectorINSt7__cxx1112basic_stringIcSt11char_traitsIcESaIcEEESaIS5_EEPKcS5_(%"class.std::vector"* nonnull align 8 dereferenceable(24) %tests, i8* %name, %"class.std::__cxx11::basic_string"* %indent) #0 personality i8* bitcast (i32 (...)* @__gxx_personality_v0 to i8*) {
entry:
  %tests.addr = alloca %"class.std::vector"*, align 8
  %name.addr = alloca i8*, align 8
  %dir = alloca %struct.__dirstream*, align 8
  %entry1 = alloca %struct.dirent*, align 8
  %cleanup.dest.slot = alloca i32, align 4
  %path = alloca [1024 x i8], align 16
  %agg.tmp = alloca %"class.std::__cxx11::basic_string", align 8
  %ref.tmp = alloca %"class.std::__cxx11::basic_string", align 8
  %exn.slot = alloca i8*, align 8
  %ehselector.slot = alloca i32, align 4
  %ref.tmp24 = alloca %"class.std::__cxx11::basic_string", align 8
  %ref.tmp27 = alloca %"class.std::allocator.0", align 1
  %ref.tmp30 = alloca %"class.std::__cxx11::basic_string", align 8
  %ref.tmp31 = alloca %"class.std::allocator.0", align 1
  %ref.tmp46 = alloca %"class.std::__cxx11::basic_string", align 8
  store %"class.std::vector"* %tests, %"class.std::vector"** %tests.addr, align 8, !tbaa !2
  store i8* %name, i8** %name.addr, align 8, !tbaa !2
  %0 = bitcast %struct.__dirstream** %dir to i8*
  call void @llvm.lifetime.start.p0i8(i64 8, i8* %0) #9
  %1 = bitcast %struct.dirent** %entry1 to i8*
  call void @llvm.lifetime.start.p0i8(i64 8, i8* %1) #9
  %2 = load i8*, i8** %name.addr, align 8, !tbaa !2
  %call = call %struct.__dirstream* @opendir(i8* %2)
  store %struct.__dirstream* %call, %struct.__dirstream** %dir, align 8, !tbaa !2
  %tobool = icmp ne %struct.__dirstream* %call, null
  br i1 %tobool, label %if.end, label %if.then

if.then:                                          ; preds = %entry
  store i32 1, i32* %cleanup.dest.slot, align 4
  br label %cleanup56

if.end:                                           ; preds = %entry
  br label %while.cond

while.cond:                                       ; preds = %if.end54, %cleanup, %if.end
  %3 = load %struct.__dirstream*, %struct.__dirstream** %dir, align 8, !tbaa !2
  %call2 = call %struct.dirent* @readdir(%struct.__dirstream* %3)
  store %struct.dirent* %call2, %struct.dirent** %entry1, align 8, !tbaa !2
  %cmp = icmp ne %struct.dirent* %call2, null
  br i1 %cmp, label %while.body, label %while.end

while.body:                                       ; preds = %while.cond
  %4 = load %struct.dirent*, %struct.dirent** %entry1, align 8, !tbaa !2
  %d_type = getelementptr inbounds %struct.dirent, %struct.dirent* %4, i32 0, i32 3
  %5 = load i8, i8* %d_type, align 2, !tbaa !6
  %conv = zext i8 %5 to i32
  %cmp3 = icmp eq i32 %conv, 4
  br i1 %cmp3, label %if.then4, label %if.else

if.then4:                                         ; preds = %while.body
  %6 = bitcast [1024 x i8]* %path to i8*
  call void @llvm.lifetime.start.p0i8(i64 1024, i8* %6) #9
  %7 = load %struct.dirent*, %struct.dirent** %entry1, align 8, !tbaa !2
  %d_name = getelementptr inbounds %struct.dirent, %struct.dirent* %7, i32 0, i32 4
  %arraydecay = getelementptr inbounds [256 x i8], [256 x i8]* %d_name, i64 0, i64 0
  %call5 = call i32 @strcmp(i8* %arraydecay, i8* getelementptr inbounds ([2 x i8], [2 x i8]* @.str, i64 0, i64 0)) #28
  %cmp6 = icmp eq i32 %call5, 0
  br i1 %cmp6, label %if.then11, label %lor.lhs.false

lor.lhs.false:                                    ; preds = %if.then4
  %8 = load %struct.dirent*, %struct.dirent** %entry1, align 8, !tbaa !2
  %d_name7 = getelementptr inbounds %struct.dirent, %struct.dirent* %8, i32 0, i32 4
  %arraydecay8 = getelementptr inbounds [256 x i8], [256 x i8]* %d_name7, i64 0, i64 0
  %call9 = call i32 @strcmp(i8* %arraydecay8, i8* getelementptr inbounds ([3 x i8], [3 x i8]* @.str.1, i64 0, i64 0)) #28
  %cmp10 = icmp eq i32 %call9, 0
  br i1 %cmp10, label %if.then11, label %if.end12

if.then11:                                        ; preds = %lor.lhs.false, %if.then4
  store i32 2, i32* %cleanup.dest.slot, align 4
  br label %cleanup, !llvm.loop !10

if.end12:                                         ; preds = %lor.lhs.false
  %arraydecay13 = getelementptr inbounds [1024 x i8], [1024 x i8]* %path, i64 0, i64 0
  %9 = load i8*, i8** %name.addr, align 8, !tbaa !2
  %10 = load %struct.dirent*, %struct.dirent** %entry1, align 8, !tbaa !2
  %d_name14 = getelementptr inbounds %struct.dirent, %struct.dirent* %10, i32 0, i32 4
  %arraydecay15 = getelementptr inbounds [256 x i8], [256 x i8]* %d_name14, i64 0, i64 0
  %call16 = call i32 (i8*, i64, i8*, ...) @snprintf(i8* %arraydecay13, i64 1024, i8* getelementptr inbounds ([6 x i8], [6 x i8]* @.str.2, i64 0, i64 0), i8* %9, i8* %arraydecay15) #9
  %11 = load %"class.std::vector"*, %"class.std::vector"** %tests.addr, align 8, !tbaa !2
  %arraydecay17 = getelementptr inbounds [1024 x i8], [1024 x i8]* %path, i64 0, i64 0
  %12 = bitcast %"class.std::__cxx11::basic_string"* %ref.tmp to i8*
  call void @llvm.lifetime.start.p0i8(i64 32, i8* %12) #9
  %13 = load %struct.dirent*, %struct.dirent** %entry1, align 8, !tbaa !2
  %d_name18 = getelementptr inbounds %struct.dirent, %struct.dirent* %13, i32 0, i32 4
  %arraydecay19 = getelementptr inbounds [256 x i8], [256 x i8]* %d_name18, i64 0, i64 0
  call void @_ZStplIcSt11char_traitsIcESaIcEENSt7__cxx1112basic_stringIT_T0_T1_EERKS8_PKS5_(%"class.std::__cxx11::basic_string"* sret(%"class.std::__cxx11::basic_string") align 8 %ref.tmp, %"class.std::__cxx11::basic_string"* nonnull align 8 dereferenceable(32) %indent, i8* %arraydecay19)
  invoke void @_ZStplIcSt11char_traitsIcESaIcEENSt7__cxx1112basic_stringIT_T0_T1_EEOS8_PKS5_(%"class.std::__cxx11::basic_string"* sret(%"class.std::__cxx11::basic_string") align 8 %agg.tmp, %"class.std::__cxx11::basic_string"* nonnull align 8 dereferenceable(32) %ref.tmp, i8* getelementptr inbounds ([2 x i8], [2 x i8]* @.str.3, i64 0, i64 0))
          to label %invoke.cont unwind label %lpad

invoke.cont:                                      ; preds = %if.end12
  invoke void @_Z8getTestsRSt6vectorINSt7__cxx1112basic_stringIcSt11char_traitsIcESaIcEEESaIS5_EEPKcS5_(%"class.std::vector"* nonnull align 8 dereferenceable(24) %11, i8* %arraydecay17, %"class.std::__cxx11::basic_string"* %agg.tmp)
          to label %invoke.cont21 unwind label %lpad20

invoke.cont21:                                    ; preds = %invoke.cont
  call void @_ZNSt7__cxx1112basic_stringIcSt11char_traitsIcESaIcEED2Ev(%"class.std::__cxx11::basic_string"* nonnull dereferenceable(32) %agg.tmp) #9
  call void @_ZNSt7__cxx1112basic_stringIcSt11char_traitsIcESaIcEED2Ev(%"class.std::__cxx11::basic_string"* nonnull dereferenceable(32) %ref.tmp) #9
  %14 = bitcast %"class.std::__cxx11::basic_string"* %ref.tmp to i8*
  call void @llvm.lifetime.end.p0i8(i64 32, i8* %14) #9
  store i32 0, i32* %cleanup.dest.slot, align 4
  br label %cleanup

cleanup:                                          ; preds = %invoke.cont21, %if.then11
  %15 = bitcast [1024 x i8]* %path to i8*
  call void @llvm.lifetime.end.p0i8(i64 1024, i8* %15) #9
  %cleanup.dest = load i32, i32* %cleanup.dest.slot, align 4
  switch i32 %cleanup.dest, label %unreachable [
    i32 0, label %cleanup.cont
    i32 2, label %while.cond
  ]

cleanup.cont:                                     ; preds = %cleanup
  br label %if.end54

lpad:                                             ; preds = %if.end12
  %16 = landingpad { i8*, i32 }
          cleanup
  %17 = extractvalue { i8*, i32 } %16, 0
  store i8* %17, i8** %exn.slot, align 8
  %18 = extractvalue { i8*, i32 } %16, 1
  store i32 %18, i32* %ehselector.slot, align 4
  br label %ehcleanup

lpad20:                                           ; preds = %invoke.cont
  %19 = landingpad { i8*, i32 }
          cleanup
  %20 = extractvalue { i8*, i32 } %19, 0
  store i8* %20, i8** %exn.slot, align 8
  %21 = extractvalue { i8*, i32 } %19, 1
  store i32 %21, i32* %ehselector.slot, align 4
  call void @_ZNSt7__cxx1112basic_stringIcSt11char_traitsIcESaIcEED2Ev(%"class.std::__cxx11::basic_string"* nonnull dereferenceable(32) %agg.tmp) #9
  br label %ehcleanup

ehcleanup:                                        ; preds = %lpad20, %lpad
  call void @_ZNSt7__cxx1112basic_stringIcSt11char_traitsIcESaIcEED2Ev(%"class.std::__cxx11::basic_string"* nonnull dereferenceable(32) %ref.tmp) #9
  %22 = bitcast %"class.std::__cxx11::basic_string"* %ref.tmp to i8*
  call void @llvm.lifetime.end.p0i8(i64 32, i8* %22) #9
  %23 = bitcast [1024 x i8]* %path to i8*
  call void @llvm.lifetime.end.p0i8(i64 1024, i8* %23) #9
  br label %ehcleanup57

if.else:                                          ; preds = %while.body
  %24 = bitcast %"class.std::__cxx11::basic_string"* %ref.tmp24 to i8*
  call void @llvm.lifetime.start.p0i8(i64 32, i8* %24) #9
  %25 = load %struct.dirent*, %struct.dirent** %entry1, align 8, !tbaa !2
  %d_name25 = getelementptr inbounds %struct.dirent, %struct.dirent* %25, i32 0, i32 4
  %arraydecay26 = getelementptr inbounds [256 x i8], [256 x i8]* %d_name25, i64 0, i64 0
  %26 = bitcast %"class.std::allocator.0"* %ref.tmp27 to i8*
  call void @llvm.lifetime.start.p0i8(i64 1, i8* %26) #9
  call void @_ZNSaIcEC2Ev(%"class.std::allocator.0"* nonnull dereferenceable(1) %ref.tmp27) #9
  invoke void @_ZNSt7__cxx1112basic_stringIcSt11char_traitsIcESaIcEEC2EPKcRKS3_(%"class.std::__cxx11::basic_string"* nonnull dereferenceable(32) %ref.tmp24, i8* %arraydecay26, %"class.std::allocator.0"* nonnull align 1 dereferenceable(1) %ref.tmp27)
          to label %invoke.cont29 unwind label %lpad28

invoke.cont29:                                    ; preds = %if.else
  %27 = bitcast %"class.std::__cxx11::basic_string"* %ref.tmp30 to i8*
  call void @llvm.lifetime.start.p0i8(i64 32, i8* %27) #9
  %28 = bitcast %"class.std::allocator.0"* %ref.tmp31 to i8*
  call void @llvm.lifetime.start.p0i8(i64 1, i8* %28) #9
  call void @_ZNSaIcEC2Ev(%"class.std::allocator.0"* nonnull dereferenceable(1) %ref.tmp31) #9
  invoke void @_ZNSt7__cxx1112basic_stringIcSt11char_traitsIcESaIcEEC2EPKcRKS3_(%"class.std::__cxx11::basic_string"* nonnull dereferenceable(32) %ref.tmp30, i8* getelementptr inbounds ([5 x i8], [5 x i8]* @.str.4, i64 0, i64 0), %"class.std::allocator.0"* nonnull align 1 dereferenceable(1) %ref.tmp31)
          to label %invoke.cont33 unwind label %lpad32

invoke.cont33:                                    ; preds = %invoke.cont29
  %call36 = invoke zeroext i1 @_Z9ends_withRKNSt7__cxx1112basic_stringIcSt11char_traitsIcESaIcEEES6_(%"class.std::__cxx11::basic_string"* nonnull align 8 dereferenceable(32) %ref.tmp24, %"class.std::__cxx11::basic_string"* nonnull align 8 dereferenceable(32) %ref.tmp30)
          to label %invoke.cont35 unwind label %lpad34

invoke.cont35:                                    ; preds = %invoke.cont33
  call void @_ZNSt7__cxx1112basic_stringIcSt11char_traitsIcESaIcEED2Ev(%"class.std::__cxx11::basic_string"* nonnull dereferenceable(32) %ref.tmp30) #9
  call void @_ZNSaIcED2Ev(%"class.std::allocator.0"* nonnull dereferenceable(1) %ref.tmp31) #9
  %29 = bitcast %"class.std::allocator.0"* %ref.tmp31 to i8*
  call void @llvm.lifetime.end.p0i8(i64 1, i8* %29) #9
  %30 = bitcast %"class.std::__cxx11::basic_string"* %ref.tmp30 to i8*
  call void @llvm.lifetime.end.p0i8(i64 32, i8* %30) #9
  call void @_ZNSt7__cxx1112basic_stringIcSt11char_traitsIcESaIcEED2Ev(%"class.std::__cxx11::basic_string"* nonnull dereferenceable(32) %ref.tmp24) #9
  call void @_ZNSaIcED2Ev(%"class.std::allocator.0"* nonnull dereferenceable(1) %ref.tmp27) #9
  %31 = bitcast %"class.std::allocator.0"* %ref.tmp27 to i8*
  call void @llvm.lifetime.end.p0i8(i64 1, i8* %31) #9
  %32 = bitcast %"class.std::__cxx11::basic_string"* %ref.tmp24 to i8*
  call void @llvm.lifetime.end.p0i8(i64 32, i8* %32) #9
  br i1 %call36, label %if.then45, label %if.end53

if.then45:                                        ; preds = %invoke.cont35
  %33 = load %"class.std::vector"*, %"class.std::vector"** %tests.addr, align 8, !tbaa !2
  %34 = bitcast %"class.std::__cxx11::basic_string"* %ref.tmp46 to i8*
  call void @llvm.lifetime.start.p0i8(i64 32, i8* %34) #9
  %35 = load %struct.dirent*, %struct.dirent** %entry1, align 8, !tbaa !2
  %d_name47 = getelementptr inbounds %struct.dirent, %struct.dirent* %35, i32 0, i32 4
  %arraydecay48 = getelementptr inbounds [256 x i8], [256 x i8]* %d_name47, i64 0, i64 0
  call void @_ZStplIcSt11char_traitsIcESaIcEENSt7__cxx1112basic_stringIT_T0_T1_EERKS8_PKS5_(%"class.std::__cxx11::basic_string"* sret(%"class.std::__cxx11::basic_string") align 8 %ref.tmp46, %"class.std::__cxx11::basic_string"* nonnull align 8 dereferenceable(32) %indent, i8* %arraydecay48)
  invoke void @_ZNSt6vectorINSt7__cxx1112basic_stringIcSt11char_traitsIcESaIcEEESaIS5_EE9push_backEOS5_(%"class.std::vector"* nonnull dereferenceable(24) %33, %"class.std::__cxx11::basic_string"* nonnull align 8 dereferenceable(32) %ref.tmp46)
          to label %invoke.cont50 unwind label %lpad49

invoke.cont50:                                    ; preds = %if.then45
  call void @_ZNSt7__cxx1112basic_stringIcSt11char_traitsIcESaIcEED2Ev(%"class.std::__cxx11::basic_string"* nonnull dereferenceable(32) %ref.tmp46) #9
  %36 = bitcast %"class.std::__cxx11::basic_string"* %ref.tmp46 to i8*
  call void @llvm.lifetime.end.p0i8(i64 32, i8* %36) #9
  br label %if.end53

lpad28:                                           ; preds = %if.else
  %37 = landingpad { i8*, i32 }
          cleanup
  %38 = extractvalue { i8*, i32 } %37, 0
  store i8* %38, i8** %exn.slot, align 8
  %39 = extractvalue { i8*, i32 } %37, 1
  store i32 %39, i32* %ehselector.slot, align 4
  br label %ehcleanup42

lpad32:                                           ; preds = %invoke.cont29
  %40 = landingpad { i8*, i32 }
          cleanup
  %41 = extractvalue { i8*, i32 } %40, 0
  store i8* %41, i8** %exn.slot, align 8
  %42 = extractvalue { i8*, i32 } %40, 1
  store i32 %42, i32* %ehselector.slot, align 4
  br label %ehcleanup38

lpad34:                                           ; preds = %invoke.cont33
  %43 = landingpad { i8*, i32 }
          cleanup
  %44 = extractvalue { i8*, i32 } %43, 0
  store i8* %44, i8** %exn.slot, align 8
  %45 = extractvalue { i8*, i32 } %43, 1
  store i32 %45, i32* %ehselector.slot, align 4
  call void @_ZNSt7__cxx1112basic_stringIcSt11char_traitsIcESaIcEED2Ev(%"class.std::__cxx11::basic_string"* nonnull dereferenceable(32) %ref.tmp30) #9
  br label %ehcleanup38

ehcleanup38:                                      ; preds = %lpad34, %lpad32
  call void @_ZNSaIcED2Ev(%"class.std::allocator.0"* nonnull dereferenceable(1) %ref.tmp31) #9
  %46 = bitcast %"class.std::allocator.0"* %ref.tmp31 to i8*
  call void @llvm.lifetime.end.p0i8(i64 1, i8* %46) #9
  %47 = bitcast %"class.std::__cxx11::basic_string"* %ref.tmp30 to i8*
  call void @llvm.lifetime.end.p0i8(i64 32, i8* %47) #9
  call void @_ZNSt7__cxx1112basic_stringIcSt11char_traitsIcESaIcEED2Ev(%"class.std::__cxx11::basic_string"* nonnull dereferenceable(32) %ref.tmp24) #9
  br label %ehcleanup42

ehcleanup42:                                      ; preds = %ehcleanup38, %lpad28
  call void @_ZNSaIcED2Ev(%"class.std::allocator.0"* nonnull dereferenceable(1) %ref.tmp27) #9
  %48 = bitcast %"class.std::allocator.0"* %ref.tmp27 to i8*
  call void @llvm.lifetime.end.p0i8(i64 1, i8* %48) #9
  %49 = bitcast %"class.std::__cxx11::basic_string"* %ref.tmp24 to i8*
  call void @llvm.lifetime.end.p0i8(i64 32, i8* %49) #9
  br label %ehcleanup57

lpad49:                                           ; preds = %if.then45
  %50 = landingpad { i8*, i32 }
          cleanup
  %51 = extractvalue { i8*, i32 } %50, 0
  store i8* %51, i8** %exn.slot, align 8
  %52 = extractvalue { i8*, i32 } %50, 1
  store i32 %52, i32* %ehselector.slot, align 4
  call void @_ZNSt7__cxx1112basic_stringIcSt11char_traitsIcESaIcEED2Ev(%"class.std::__cxx11::basic_string"* nonnull dereferenceable(32) %ref.tmp46) #9
  %53 = bitcast %"class.std::__cxx11::basic_string"* %ref.tmp46 to i8*
  call void @llvm.lifetime.end.p0i8(i64 32, i8* %53) #9
  br label %ehcleanup57

if.end53:                                         ; preds = %invoke.cont50, %invoke.cont35
  br label %if.end54

if.end54:                                         ; preds = %if.end53, %cleanup.cont
  br label %while.cond, !llvm.loop !10

while.end:                                        ; preds = %while.cond
  %54 = load %struct.__dirstream*, %struct.__dirstream** %dir, align 8, !tbaa !2
  %call55 = call i32 @closedir(%struct.__dirstream* %54)
  store i32 0, i32* %cleanup.dest.slot, align 4
  br label %cleanup56

cleanup56:                                        ; preds = %while.end, %if.then
  %55 = bitcast %struct.dirent** %entry1 to i8*
  call void @llvm.lifetime.end.p0i8(i64 8, i8* %55) #9
  %56 = bitcast %struct.__dirstream** %dir to i8*
  call void @llvm.lifetime.end.p0i8(i64 8, i8* %56) #9
  %cleanup.dest59 = load i32, i32* %cleanup.dest.slot, align 4
  switch i32 %cleanup.dest59, label %unreachable [
    i32 0, label %cleanup.cont60
    i32 1, label %cleanup.cont60
  ]

cleanup.cont60:                                   ; preds = %cleanup56, %cleanup56
  ret void

ehcleanup57:                                      ; preds = %lpad49, %ehcleanup42, %ehcleanup
  %57 = bitcast %struct.dirent** %entry1 to i8*
  call void @llvm.lifetime.end.p0i8(i64 8, i8* %57) #9
  %58 = bitcast %struct.__dirstream** %dir to i8*
  call void @llvm.lifetime.end.p0i8(i64 8, i8* %58) #9
  br label %eh.resume

eh.resume:                                        ; preds = %ehcleanup57
  %exn = load i8*, i8** %exn.slot, align 8
  %sel = load i32, i32* %ehselector.slot, align 4
  %lpad.val = insertvalue { i8*, i32 } undef, i8* %exn, 0
  %lpad.val62 = insertvalue { i8*, i32 } %lpad.val, i32 %sel, 1
  resume { i8*, i32 } %lpad.val62

unreachable:                                      ; preds = %cleanup56, %cleanup
  unreachable
}

; Function Attrs: argmemonly nofree nosync nounwind willreturn
declare void @llvm.lifetime.start.p0i8(i64 immarg, i8* nocapture) #1

declare dso_local %struct.__dirstream* @opendir(i8*) #2

declare dso_local %struct.dirent* @readdir(%struct.__dirstream*) #2

; Function Attrs: nounwind readonly willreturn
declare dso_local i32 @strcmp(i8*, i8*) #3

; Function Attrs: nounwind
declare dso_local i32 @snprintf(i8*, i64, i8*, ...) #4

; Function Attrs: inlinehint uwtable mustprogress
define linkonce_odr dso_local void @_ZStplIcSt11char_traitsIcESaIcEENSt7__cxx1112basic_stringIT_T0_T1_EEOS8_PKS5_(%"class.std::__cxx11::basic_string"* noalias sret(%"class.std::__cxx11::basic_string") align 8 %agg.result, %"class.std::__cxx11::basic_string"* nonnull align 8 dereferenceable(32) %__lhs, i8* %__rhs) #5 comdat {
entry:
  %result.ptr = alloca i8*, align 8
  %__lhs.addr = alloca %"class.std::__cxx11::basic_string"*, align 8
  %__rhs.addr = alloca i8*, align 8
  %0 = bitcast %"class.std::__cxx11::basic_string"* %agg.result to i8*
  store i8* %0, i8** %result.ptr, align 8
  store %"class.std::__cxx11::basic_string"* %__lhs, %"class.std::__cxx11::basic_string"** %__lhs.addr, align 8, !tbaa !2
  store i8* %__rhs, i8** %__rhs.addr, align 8, !tbaa !2
  %1 = load %"class.std::__cxx11::basic_string"*, %"class.std::__cxx11::basic_string"** %__lhs.addr, align 8, !tbaa !2
  %2 = load i8*, i8** %__rhs.addr, align 8, !tbaa !2
  %call = call nonnull align 8 dereferenceable(32) %"class.std::__cxx11::basic_string"* @_ZNSt7__cxx1112basic_stringIcSt11char_traitsIcESaIcEE6appendEPKc(%"class.std::__cxx11::basic_string"* nonnull dereferenceable(32) %1, i8* %2)
  %call1 = call nonnull align 8 dereferenceable(32) %"class.std::__cxx11::basic_string"* @_ZSt4moveIRNSt7__cxx1112basic_stringIcSt11char_traitsIcESaIcEEEEONSt16remove_referenceIT_E4typeEOS8_(%"class.std::__cxx11::basic_string"* nonnull align 8 dereferenceable(32) %call) #9
  call void @_ZNSt7__cxx1112basic_stringIcSt11char_traitsIcESaIcEEC2EOS4_(%"class.std::__cxx11::basic_string"* nonnull dereferenceable(32) %agg.result, %"class.std::__cxx11::basic_string"* nonnull align 8 dereferenceable(32) %call1) #9
  ret void
}

; Function Attrs: inlinehint uwtable mustprogress
define linkonce_odr dso_local void @_ZStplIcSt11char_traitsIcESaIcEENSt7__cxx1112basic_stringIT_T0_T1_EERKS8_PKS5_(%"class.std::__cxx11::basic_string"* noalias sret(%"class.std::__cxx11::basic_string") align 8 %agg.result, %"class.std::__cxx11::basic_string"* nonnull align 8 dereferenceable(32) %__lhs, i8* %__rhs) #5 comdat personality i8* bitcast (i32 (...)* @__gxx_personality_v0 to i8*) {
entry:
  %result.ptr = alloca i8*, align 8
  %__lhs.addr = alloca %"class.std::__cxx11::basic_string"*, align 8
  %__rhs.addr = alloca i8*, align 8
  %nrvo = alloca i1, align 1
  %exn.slot = alloca i8*, align 8
  %ehselector.slot = alloca i32, align 4
  %0 = bitcast %"class.std::__cxx11::basic_string"* %agg.result to i8*
  store i8* %0, i8** %result.ptr, align 8
  store %"class.std::__cxx11::basic_string"* %__lhs, %"class.std::__cxx11::basic_string"** %__lhs.addr, align 8, !tbaa !2
  store i8* %__rhs, i8** %__rhs.addr, align 8, !tbaa !2
  store i1 false, i1* %nrvo, align 1
  %1 = load %"class.std::__cxx11::basic_string"*, %"class.std::__cxx11::basic_string"** %__lhs.addr, align 8, !tbaa !2
  call void @_ZNSt7__cxx1112basic_stringIcSt11char_traitsIcESaIcEEC2ERKS4_(%"class.std::__cxx11::basic_string"* nonnull dereferenceable(32) %agg.result, %"class.std::__cxx11::basic_string"* nonnull align 8 dereferenceable(32) %1)
  %2 = load i8*, i8** %__rhs.addr, align 8, !tbaa !2
  %call = invoke nonnull align 8 dereferenceable(32) %"class.std::__cxx11::basic_string"* @_ZNSt7__cxx1112basic_stringIcSt11char_traitsIcESaIcEE6appendEPKc(%"class.std::__cxx11::basic_string"* nonnull dereferenceable(32) %agg.result, i8* %2)
          to label %invoke.cont unwind label %lpad

invoke.cont:                                      ; preds = %entry
  store i1 true, i1* %nrvo, align 1
  %nrvo.val = load i1, i1* %nrvo, align 1
  br i1 %nrvo.val, label %nrvo.skipdtor, label %nrvo.unused

lpad:                                             ; preds = %entry
  %3 = landingpad { i8*, i32 }
          cleanup
  %4 = extractvalue { i8*, i32 } %3, 0
  store i8* %4, i8** %exn.slot, align 8
  %5 = extractvalue { i8*, i32 } %3, 1
  store i32 %5, i32* %ehselector.slot, align 4
  call void @_ZNSt7__cxx1112basic_stringIcSt11char_traitsIcESaIcEED2Ev(%"class.std::__cxx11::basic_string"* nonnull dereferenceable(32) %agg.result) #9
  br label %eh.resume

nrvo.unused:                                      ; preds = %invoke.cont
  call void @_ZNSt7__cxx1112basic_stringIcSt11char_traitsIcESaIcEED2Ev(%"class.std::__cxx11::basic_string"* nonnull dereferenceable(32) %agg.result) #9
  br label %nrvo.skipdtor

nrvo.skipdtor:                                    ; preds = %nrvo.unused, %invoke.cont
  ret void

eh.resume:                                        ; preds = %lpad
  %exn = load i8*, i8** %exn.slot, align 8
  %sel = load i32, i32* %ehselector.slot, align 4
  %lpad.val = insertvalue { i8*, i32 } undef, i8* %exn, 0
  %lpad.val1 = insertvalue { i8*, i32 } %lpad.val, i32 %sel, 1
  resume { i8*, i32 } %lpad.val1
}

declare dso_local i32 @__gxx_personality_v0(...)

; Function Attrs: nounwind uwtable
define available_externally dso_local void @_ZNSt7__cxx1112basic_stringIcSt11char_traitsIcESaIcEED2Ev(%"class.std::__cxx11::basic_string"* nonnull dereferenceable(32) %this) unnamed_addr #6 align 2 personality i8* bitcast (i32 (...)* @__gxx_personality_v0 to i8*) {
entry:
  %this.addr = alloca %"class.std::__cxx11::basic_string"*, align 8
  %exn.slot = alloca i8*, align 8
  %ehselector.slot = alloca i32, align 4
  store %"class.std::__cxx11::basic_string"* %this, %"class.std::__cxx11::basic_string"** %this.addr, align 8, !tbaa !2
  %this1 = load %"class.std::__cxx11::basic_string"*, %"class.std::__cxx11::basic_string"** %this.addr, align 8
  invoke void @_ZNSt7__cxx1112basic_stringIcSt11char_traitsIcESaIcEE10_M_disposeEv(%"class.std::__cxx11::basic_string"* nonnull dereferenceable(32) %this1)
          to label %invoke.cont unwind label %lpad

invoke.cont:                                      ; preds = %entry
  %_M_dataplus = getelementptr inbounds %"class.std::__cxx11::basic_string", %"class.std::__cxx11::basic_string"* %this1, i32 0, i32 0
  call void bitcast (void (%"class.std::allocator.0"*)* @_ZNSaIcED2Ev to void (%"struct.std::__cxx11::basic_string<char>::_Alloc_hider"*)*)(%"struct.std::__cxx11::basic_string<char>::_Alloc_hider"* nonnull dereferenceable(8) %_M_dataplus) #9
  ret void

lpad:                                             ; preds = %entry
  %0 = landingpad { i8*, i32 }
          catch i8* null
  %1 = extractvalue { i8*, i32 } %0, 0
  store i8* %1, i8** %exn.slot, align 8
  %2 = extractvalue { i8*, i32 } %0, 1
  store i32 %2, i32* %ehselector.slot, align 4
  %_M_dataplus2 = getelementptr inbounds %"class.std::__cxx11::basic_string", %"class.std::__cxx11::basic_string"* %this1, i32 0, i32 0
  call void bitcast (void (%"class.std::allocator.0"*)* @_ZNSaIcED2Ev to void (%"struct.std::__cxx11::basic_string<char>::_Alloc_hider"*)*)(%"struct.std::__cxx11::basic_string<char>::_Alloc_hider"* nonnull dereferenceable(8) %_M_dataplus2) #9
  br label %terminate.handler

terminate.handler:                                ; preds = %lpad
  %exn = load i8*, i8** %exn.slot, align 8
  call void @__clang_call_terminate(i8* %exn) #29
  unreachable
}

; Function Attrs: argmemonly nofree nosync nounwind willreturn
declare void @llvm.lifetime.end.p0i8(i64 immarg, i8* nocapture) #1

; Function Attrs: inlinehint uwtable mustprogress
define linkonce_odr dso_local zeroext i1 @_Z9ends_withRKNSt7__cxx1112basic_stringIcSt11char_traitsIcESaIcEEES6_(%"class.std::__cxx11::basic_string"* nonnull align 8 dereferenceable(32) %value, %"class.std::__cxx11::basic_string"* nonnull align 8 dereferenceable(32) %ending) #5 comdat {
entry:
  %retval = alloca i1, align 1
  %value.addr = alloca %"class.std::__cxx11::basic_string"*, align 8
  %ending.addr = alloca %"class.std::__cxx11::basic_string"*, align 8
  %agg.tmp = alloca %"class.std::reverse_iterator", align 8
  %agg.tmp2 = alloca %"class.std::reverse_iterator", align 8
  %agg.tmp3 = alloca %"class.std::reverse_iterator", align 8
  store %"class.std::__cxx11::basic_string"* %value, %"class.std::__cxx11::basic_string"** %value.addr, align 8, !tbaa !2
  store %"class.std::__cxx11::basic_string"* %ending, %"class.std::__cxx11::basic_string"** %ending.addr, align 8, !tbaa !2
  %0 = load %"class.std::__cxx11::basic_string"*, %"class.std::__cxx11::basic_string"** %ending.addr, align 8, !tbaa !2
  %call = call i64 @_ZNKSt7__cxx1112basic_stringIcSt11char_traitsIcESaIcEE4sizeEv(%"class.std::__cxx11::basic_string"* nonnull dereferenceable(32) %0) #9
  %1 = load %"class.std::__cxx11::basic_string"*, %"class.std::__cxx11::basic_string"** %value.addr, align 8, !tbaa !2
  %call1 = call i64 @_ZNKSt7__cxx1112basic_stringIcSt11char_traitsIcESaIcEE4sizeEv(%"class.std::__cxx11::basic_string"* nonnull dereferenceable(32) %1) #9
  %cmp = icmp ugt i64 %call, %call1
  br i1 %cmp, label %if.then, label %if.end

if.then:                                          ; preds = %entry
  store i1 false, i1* %retval, align 1
  br label %return

if.end:                                           ; preds = %entry
  %2 = load %"class.std::__cxx11::basic_string"*, %"class.std::__cxx11::basic_string"** %ending.addr, align 8, !tbaa !2
  call void @_ZNKSt7__cxx1112basic_stringIcSt11char_traitsIcESaIcEE6rbeginEv(%"class.std::reverse_iterator"* sret(%"class.std::reverse_iterator") align 8 %agg.tmp, %"class.std::__cxx11::basic_string"* nonnull dereferenceable(32) %2) #9
  %3 = load %"class.std::__cxx11::basic_string"*, %"class.std::__cxx11::basic_string"** %ending.addr, align 8, !tbaa !2
  call void @_ZNKSt7__cxx1112basic_stringIcSt11char_traitsIcESaIcEE4rendEv(%"class.std::reverse_iterator"* sret(%"class.std::reverse_iterator") align 8 %agg.tmp2, %"class.std::__cxx11::basic_string"* nonnull dereferenceable(32) %3) #9
  %4 = load %"class.std::__cxx11::basic_string"*, %"class.std::__cxx11::basic_string"** %value.addr, align 8, !tbaa !2
  call void @_ZNKSt7__cxx1112basic_stringIcSt11char_traitsIcESaIcEE6rbeginEv(%"class.std::reverse_iterator"* sret(%"class.std::reverse_iterator") align 8 %agg.tmp3, %"class.std::__cxx11::basic_string"* nonnull dereferenceable(32) %4) #9
  %call4 = call zeroext i1 @_ZSt5equalISt16reverse_iteratorIN9__gnu_cxx17__normal_iteratorIPKcNSt7__cxx1112basic_stringIcSt11char_traitsIcESaIcEEEEEESC_EbT_SD_T0_(%"class.std::reverse_iterator"* %agg.tmp, %"class.std::reverse_iterator"* %agg.tmp2, %"class.std::reverse_iterator"* %agg.tmp3)
  store i1 %call4, i1* %retval, align 1
  br label %return

return:                                           ; preds = %if.end, %if.then
  %5 = load i1, i1* %retval, align 1
  ret i1 %5
}

; Function Attrs: nounwind uwtable
define available_externally dso_local void @_ZNSaIcEC2Ev(%"class.std::allocator.0"* nonnull dereferenceable(1) %this) unnamed_addr #6 align 2 {
entry:
  %this.addr = alloca %"class.std::allocator.0"*, align 8
  store %"class.std::allocator.0"* %this, %"class.std::allocator.0"** %this.addr, align 8, !tbaa !2
  %this1 = load %"class.std::allocator.0"*, %"class.std::allocator.0"** %this.addr, align 8
  %0 = bitcast %"class.std::allocator.0"* %this1 to %"class.__gnu_cxx::new_allocator.1"*
  call void @_ZN9__gnu_cxx13new_allocatorIcEC2Ev(%"class.__gnu_cxx::new_allocator.1"* nonnull dereferenceable(1) %0) #9
  ret void
}

; Function Attrs: uwtable
define available_externally dso_local void @_ZNSt7__cxx1112basic_stringIcSt11char_traitsIcESaIcEEC2EPKcRKS3_(%"class.std::__cxx11::basic_string"* nonnull dereferenceable(32) %this, i8* %__s, %"class.std::allocator.0"* nonnull align 1 dereferenceable(1) %__a) unnamed_addr #7 align 2 personality i8* bitcast (i32 (...)* @__gxx_personality_v0 to i8*) {
entry:
  %this.addr = alloca %"class.std::__cxx11::basic_string"*, align 8
  %__s.addr = alloca i8*, align 8
  %__a.addr = alloca %"class.std::allocator.0"*, align 8
  %exn.slot = alloca i8*, align 8
  %ehselector.slot = alloca i32, align 4
  store %"class.std::__cxx11::basic_string"* %this, %"class.std::__cxx11::basic_string"** %this.addr, align 8, !tbaa !2
  store i8* %__s, i8** %__s.addr, align 8, !tbaa !2
  store %"class.std::allocator.0"* %__a, %"class.std::allocator.0"** %__a.addr, align 8, !tbaa !2
  %this1 = load %"class.std::__cxx11::basic_string"*, %"class.std::__cxx11::basic_string"** %this.addr, align 8
  %_M_dataplus = getelementptr inbounds %"class.std::__cxx11::basic_string", %"class.std::__cxx11::basic_string"* %this1, i32 0, i32 0
  %call = call i8* @_ZNSt7__cxx1112basic_stringIcSt11char_traitsIcESaIcEE13_M_local_dataEv(%"class.std::__cxx11::basic_string"* nonnull dereferenceable(32) %this1)
  %0 = load %"class.std::allocator.0"*, %"class.std::allocator.0"** %__a.addr, align 8, !tbaa !2
  call void @_ZNSt7__cxx1112basic_stringIcSt11char_traitsIcESaIcEE12_Alloc_hiderC2EPcRKS3_(%"struct.std::__cxx11::basic_string<char>::_Alloc_hider"* nonnull dereferenceable(8) %_M_dataplus, i8* %call, %"class.std::allocator.0"* nonnull align 1 dereferenceable(1) %0)
  %1 = load i8*, i8** %__s.addr, align 8, !tbaa !2
  %2 = load i8*, i8** %__s.addr, align 8, !tbaa !2
  %tobool = icmp ne i8* %2, null
  br i1 %tobool, label %cond.true, label %cond.false

cond.true:                                        ; preds = %entry
  %3 = load i8*, i8** %__s.addr, align 8, !tbaa !2
  %4 = load i8*, i8** %__s.addr, align 8, !tbaa !2
  %call2 = call i64 @_ZNSt11char_traitsIcE6lengthEPKc(i8* %4)
  %add.ptr = getelementptr inbounds i8, i8* %3, i64 %call2
  br label %cond.end

cond.false:                                       ; preds = %entry
  %5 = load i8*, i8** %__s.addr, align 8, !tbaa !2
  %add.ptr3 = getelementptr inbounds i8, i8* %5, i64 -1
  br label %cond.end

cond.end:                                         ; preds = %cond.false, %cond.true
  %cond = phi i8* [ %add.ptr, %cond.true ], [ %add.ptr3, %cond.false ]
  invoke void @_ZNSt7__cxx1112basic_stringIcSt11char_traitsIcESaIcEE12_M_constructIPKcEEvT_S8_(%"class.std::__cxx11::basic_string"* nonnull dereferenceable(32) %this1, i8* %1, i8* %cond)
          to label %invoke.cont unwind label %lpad

invoke.cont:                                      ; preds = %cond.end
  ret void

lpad:                                             ; preds = %cond.end
  %6 = landingpad { i8*, i32 }
          cleanup
  %7 = extractvalue { i8*, i32 } %6, 0
  store i8* %7, i8** %exn.slot, align 8
  %8 = extractvalue { i8*, i32 } %6, 1
  store i32 %8, i32* %ehselector.slot, align 4
  call void bitcast (void (%"class.std::allocator.0"*)* @_ZNSaIcED2Ev to void (%"struct.std::__cxx11::basic_string<char>::_Alloc_hider"*)*)(%"struct.std::__cxx11::basic_string<char>::_Alloc_hider"* nonnull dereferenceable(8) %_M_dataplus) #9
  br label %eh.resume

eh.resume:                                        ; preds = %lpad
  %exn = load i8*, i8** %exn.slot, align 8
  %sel = load i32, i32* %ehselector.slot, align 4
  %lpad.val = insertvalue { i8*, i32 } undef, i8* %exn, 0
  %lpad.val4 = insertvalue { i8*, i32 } %lpad.val, i32 %sel, 1
  resume { i8*, i32 } %lpad.val4
}

; Function Attrs: uwtable mustprogress
define linkonce_odr dso_local void @_ZNSt6vectorINSt7__cxx1112basic_stringIcSt11char_traitsIcESaIcEEESaIS5_EE9push_backEOS5_(%"class.std::vector"* nonnull dereferenceable(24) %this, %"class.std::__cxx11::basic_string"* nonnull align 8 dereferenceable(32) %__x) #0 comdat align 2 {
entry:
  %this.addr = alloca %"class.std::vector"*, align 8
  %__x.addr = alloca %"class.std::__cxx11::basic_string"*, align 8
  store %"class.std::vector"* %this, %"class.std::vector"** %this.addr, align 8, !tbaa !2
  store %"class.std::__cxx11::basic_string"* %__x, %"class.std::__cxx11::basic_string"** %__x.addr, align 8, !tbaa !2
  %this1 = load %"class.std::vector"*, %"class.std::vector"** %this.addr, align 8
  %0 = load %"class.std::__cxx11::basic_string"*, %"class.std::__cxx11::basic_string"** %__x.addr, align 8, !tbaa !2
  %call = call nonnull align 8 dereferenceable(32) %"class.std::__cxx11::basic_string"* @_ZSt4moveIRNSt7__cxx1112basic_stringIcSt11char_traitsIcESaIcEEEEONSt16remove_referenceIT_E4typeEOS8_(%"class.std::__cxx11::basic_string"* nonnull align 8 dereferenceable(32) %0) #9
  call void @_ZNSt6vectorINSt7__cxx1112basic_stringIcSt11char_traitsIcESaIcEEESaIS5_EE12emplace_backIJS5_EEEvDpOT_(%"class.std::vector"* nonnull dereferenceable(24) %this1, %"class.std::__cxx11::basic_string"* nonnull align 8 dereferenceable(32) %call)
  ret void
}

declare dso_local i32 @closedir(%struct.__dirstream*) #2

; Function Attrs: nounwind uwtable mustprogress
define dso_local i64 @_Z15find_last_slashRKNSt7__cxx1112basic_stringIcSt11char_traitsIcESaIcEEE(%"class.std::__cxx11::basic_string"* nonnull align 8 dereferenceable(32) %filepath) #8 {
entry:
  %filepath.addr = alloca %"class.std::__cxx11::basic_string"*, align 8
  store %"class.std::__cxx11::basic_string"* %filepath, %"class.std::__cxx11::basic_string"** %filepath.addr, align 8, !tbaa !2
  %0 = load %"class.std::__cxx11::basic_string"*, %"class.std::__cxx11::basic_string"** %filepath.addr, align 8, !tbaa !2
  %call = call i64 @_ZNKSt7__cxx1112basic_stringIcSt11char_traitsIcESaIcEE12find_last_ofEPKcm(%"class.std::__cxx11::basic_string"* nonnull dereferenceable(32) %0, i8* getelementptr inbounds ([3 x i8], [3 x i8]* @.str.5, i64 0, i64 0), i64 -1) #9
  ret i64 %call
}

; Function Attrs: nounwind uwtable mustprogress
define available_externally dso_local i64 @_ZNKSt7__cxx1112basic_stringIcSt11char_traitsIcESaIcEE12find_last_ofEPKcm(%"class.std::__cxx11::basic_string"* nonnull dereferenceable(32) %this, i8* %__s, i64 %__pos) #8 align 2 {
entry:
  %this.addr = alloca %"class.std::__cxx11::basic_string"*, align 8
  %__s.addr = alloca i8*, align 8
  %__pos.addr = alloca i64, align 8
  store %"class.std::__cxx11::basic_string"* %this, %"class.std::__cxx11::basic_string"** %this.addr, align 8, !tbaa !2
  store i8* %__s, i8** %__s.addr, align 8, !tbaa !2
  store i64 %__pos, i64* %__pos.addr, align 8, !tbaa !13
  %this1 = load %"class.std::__cxx11::basic_string"*, %"class.std::__cxx11::basic_string"** %this.addr, align 8
  %0 = load i8*, i8** %__s.addr, align 8, !tbaa !2
  %1 = load i64, i64* %__pos.addr, align 8, !tbaa !13
  %2 = load i8*, i8** %__s.addr, align 8, !tbaa !2
  %call = call i64 @_ZNSt11char_traitsIcE6lengthEPKc(i8* %2)
  %call2 = call i64 @_ZNKSt7__cxx1112basic_stringIcSt11char_traitsIcESaIcEE12find_last_ofEPKcmm(%"class.std::__cxx11::basic_string"* nonnull dereferenceable(32) %this1, i8* %0, i64 %1, i64 %call) #9
  ret i64 %call2
}

; Function Attrs: uwtable mustprogress
define dso_local void @_Z20filepath_to_basenameRKNSt7__cxx1112basic_stringIcSt11char_traitsIcESaIcEEE(%"class.std::__cxx11::basic_string"* noalias sret(%"class.std::__cxx11::basic_string") align 8 %agg.result, %"class.std::__cxx11::basic_string"* nonnull align 8 dereferenceable(32) %filepath) #0 personality i8* bitcast (i32 (...)* @__gxx_personality_v0 to i8*) {
entry:
  %result.ptr = alloca i8*, align 8
  %filepath.addr = alloca %"class.std::__cxx11::basic_string"*, align 8
  %last_slash_position = alloca i64, align 8
  %filename = alloca %"class.std::__cxx11::basic_string", align 8
  %dot = alloca i64, align 8
  %nrvo = alloca i1, align 1
  %exn.slot = alloca i8*, align 8
  %ehselector.slot = alloca i32, align 4
  %0 = bitcast %"class.std::__cxx11::basic_string"* %agg.result to i8*
  store i8* %0, i8** %result.ptr, align 8
  store %"class.std::__cxx11::basic_string"* %filepath, %"class.std::__cxx11::basic_string"** %filepath.addr, align 8, !tbaa !2
  %1 = bitcast i64* %last_slash_position to i8*
  call void @llvm.lifetime.start.p0i8(i64 8, i8* %1) #9
  %2 = load %"class.std::__cxx11::basic_string"*, %"class.std::__cxx11::basic_string"** %filepath.addr, align 8, !tbaa !2
  %call = call i64 @_Z15find_last_slashRKNSt7__cxx1112basic_stringIcSt11char_traitsIcESaIcEEE(%"class.std::__cxx11::basic_string"* nonnull align 8 dereferenceable(32) %2)
  store i64 %call, i64* %last_slash_position, align 8, !tbaa !13
  %3 = bitcast %"class.std::__cxx11::basic_string"* %filename to i8*
  call void @llvm.lifetime.start.p0i8(i64 32, i8* %3) #9
  %4 = load i64, i64* %last_slash_position, align 8, !tbaa !13
  %cmp = icmp eq i64 %4, -1
  br i1 %cmp, label %cond.true, label %cond.false

cond.true:                                        ; preds = %entry
  %5 = load %"class.std::__cxx11::basic_string"*, %"class.std::__cxx11::basic_string"** %filepath.addr, align 8, !tbaa !2
  call void @_ZNSt7__cxx1112basic_stringIcSt11char_traitsIcESaIcEEC2ERKS4_(%"class.std::__cxx11::basic_string"* nonnull dereferenceable(32) %filename, %"class.std::__cxx11::basic_string"* nonnull align 8 dereferenceable(32) %5)
  br label %cond.end

cond.false:                                       ; preds = %entry
  %6 = load %"class.std::__cxx11::basic_string"*, %"class.std::__cxx11::basic_string"** %filepath.addr, align 8, !tbaa !2
  %7 = load i64, i64* %last_slash_position, align 8, !tbaa !13
  %add = add i64 %7, 1
  call void @_ZNKSt7__cxx1112basic_stringIcSt11char_traitsIcESaIcEE6substrEmm(%"class.std::__cxx11::basic_string"* sret(%"class.std::__cxx11::basic_string") align 8 %filename, %"class.std::__cxx11::basic_string"* nonnull dereferenceable(32) %6, i64 %add, i64 -1)
  br label %cond.end

cond.end:                                         ; preds = %cond.false, %cond.true
  %8 = bitcast i64* %dot to i8*
  call void @llvm.lifetime.start.p0i8(i64 8, i8* %8) #9
  %call1 = call i64 @_ZNKSt7__cxx1112basic_stringIcSt11char_traitsIcESaIcEE12find_last_ofEcm(%"class.std::__cxx11::basic_string"* nonnull dereferenceable(32) %filename, i8 signext 46, i64 -1) #9
  store i64 %call1, i64* %dot, align 8, !tbaa !13
  store i1 false, i1* %nrvo, align 1
  %9 = load i64, i64* %dot, align 8, !tbaa !13
  %cmp2 = icmp eq i64 %9, -1
  br i1 %cmp2, label %cond.true3, label %cond.false4

cond.true3:                                       ; preds = %cond.end
  invoke void @_ZNSt7__cxx1112basic_stringIcSt11char_traitsIcESaIcEEC2ERKS4_(%"class.std::__cxx11::basic_string"* nonnull dereferenceable(32) %agg.result, %"class.std::__cxx11::basic_string"* nonnull align 8 dereferenceable(32) %filename)
          to label %invoke.cont unwind label %lpad

invoke.cont:                                      ; preds = %cond.true3
  br label %cond.end6

cond.false4:                                      ; preds = %cond.end
  %10 = load i64, i64* %dot, align 8, !tbaa !13
  invoke void @_ZNKSt7__cxx1112basic_stringIcSt11char_traitsIcESaIcEE6substrEmm(%"class.std::__cxx11::basic_string"* sret(%"class.std::__cxx11::basic_string") align 8 %agg.result, %"class.std::__cxx11::basic_string"* nonnull dereferenceable(32) %filename, i64 0, i64 %10)
          to label %invoke.cont5 unwind label %lpad

invoke.cont5:                                     ; preds = %cond.false4
  br label %cond.end6

cond.end6:                                        ; preds = %invoke.cont5, %invoke.cont
  store i1 true, i1* %nrvo, align 1
  %nrvo.val = load i1, i1* %nrvo, align 1
  br i1 %nrvo.val, label %nrvo.skipdtor, label %nrvo.unused

lpad:                                             ; preds = %cond.false4, %cond.true3
  %11 = landingpad { i8*, i32 }
          cleanup
  %12 = extractvalue { i8*, i32 } %11, 0
  store i8* %12, i8** %exn.slot, align 8
  %13 = extractvalue { i8*, i32 } %11, 1
  store i32 %13, i32* %ehselector.slot, align 4
  %14 = bitcast i64* %dot to i8*
  call void @llvm.lifetime.end.p0i8(i64 8, i8* %14) #9
  call void @_ZNSt7__cxx1112basic_stringIcSt11char_traitsIcESaIcEED2Ev(%"class.std::__cxx11::basic_string"* nonnull dereferenceable(32) %filename) #9
  %15 = bitcast %"class.std::__cxx11::basic_string"* %filename to i8*
  call void @llvm.lifetime.end.p0i8(i64 32, i8* %15) #9
  %16 = bitcast i64* %last_slash_position to i8*
  call void @llvm.lifetime.end.p0i8(i64 8, i8* %16) #9
  br label %eh.resume

nrvo.unused:                                      ; preds = %cond.end6
  call void @_ZNSt7__cxx1112basic_stringIcSt11char_traitsIcESaIcEED2Ev(%"class.std::__cxx11::basic_string"* nonnull dereferenceable(32) %agg.result) #9
  br label %nrvo.skipdtor

nrvo.skipdtor:                                    ; preds = %nrvo.unused, %cond.end6
  %17 = bitcast i64* %dot to i8*
  call void @llvm.lifetime.end.p0i8(i64 8, i8* %17) #9
  call void @_ZNSt7__cxx1112basic_stringIcSt11char_traitsIcESaIcEED2Ev(%"class.std::__cxx11::basic_string"* nonnull dereferenceable(32) %filename) #9
  %18 = bitcast %"class.std::__cxx11::basic_string"* %filename to i8*
  call void @llvm.lifetime.end.p0i8(i64 32, i8* %18) #9
  %19 = bitcast i64* %last_slash_position to i8*
  call void @llvm.lifetime.end.p0i8(i64 8, i8* %19) #9
  ret void

eh.resume:                                        ; preds = %lpad
  %exn = load i8*, i8** %exn.slot, align 8
  %sel = load i32, i32* %ehselector.slot, align 4
  %lpad.val = insertvalue { i8*, i32 } undef, i8* %exn, 0
  %lpad.val7 = insertvalue { i8*, i32 } %lpad.val, i32 %sel, 1
  resume { i8*, i32 } %lpad.val7
}

; Function Attrs: uwtable
define available_externally dso_local void @_ZNSt7__cxx1112basic_stringIcSt11char_traitsIcESaIcEEC2ERKS4_(%"class.std::__cxx11::basic_string"* nonnull dereferenceable(32) %this, %"class.std::__cxx11::basic_string"* nonnull align 8 dereferenceable(32) %__str) unnamed_addr #7 align 2 personality i8* bitcast (i32 (...)* @__gxx_personality_v0 to i8*) {
entry:
  %this.addr = alloca %"class.std::__cxx11::basic_string"*, align 8
  %__str.addr = alloca %"class.std::__cxx11::basic_string"*, align 8
  %ref.tmp = alloca %"class.std::allocator.0", align 1
  %exn.slot = alloca i8*, align 8
  %ehselector.slot = alloca i32, align 4
  store %"class.std::__cxx11::basic_string"* %this, %"class.std::__cxx11::basic_string"** %this.addr, align 8, !tbaa !2
  store %"class.std::__cxx11::basic_string"* %__str, %"class.std::__cxx11::basic_string"** %__str.addr, align 8, !tbaa !2
  %this1 = load %"class.std::__cxx11::basic_string"*, %"class.std::__cxx11::basic_string"** %this.addr, align 8
  %_M_dataplus = getelementptr inbounds %"class.std::__cxx11::basic_string", %"class.std::__cxx11::basic_string"* %this1, i32 0, i32 0
  %call = call i8* @_ZNSt7__cxx1112basic_stringIcSt11char_traitsIcESaIcEE13_M_local_dataEv(%"class.std::__cxx11::basic_string"* nonnull dereferenceable(32) %this1)
  %0 = bitcast %"class.std::allocator.0"* %ref.tmp to i8*
  call void @llvm.lifetime.start.p0i8(i64 1, i8* %0) #9
  %1 = load %"class.std::__cxx11::basic_string"*, %"class.std::__cxx11::basic_string"** %__str.addr, align 8, !tbaa !2
  %call2 = call nonnull align 1 dereferenceable(1) %"class.std::allocator.0"* @_ZNKSt7__cxx1112basic_stringIcSt11char_traitsIcESaIcEE16_M_get_allocatorEv(%"class.std::__cxx11::basic_string"* nonnull dereferenceable(32) %1)
  call void @_ZN9__gnu_cxx14__alloc_traitsISaIcEcE17_S_select_on_copyERKS1_(%"class.std::allocator.0"* sret(%"class.std::allocator.0") align 1 %ref.tmp, %"class.std::allocator.0"* nonnull align 1 dereferenceable(1) %call2)
  invoke void @_ZNSt7__cxx1112basic_stringIcSt11char_traitsIcESaIcEE12_Alloc_hiderC2EPcOS3_(%"struct.std::__cxx11::basic_string<char>::_Alloc_hider"* nonnull dereferenceable(8) %_M_dataplus, i8* %call, %"class.std::allocator.0"* nonnull align 1 dereferenceable(1) %ref.tmp)
          to label %invoke.cont unwind label %lpad

invoke.cont:                                      ; preds = %entry
  call void @_ZNSaIcED2Ev(%"class.std::allocator.0"* nonnull dereferenceable(1) %ref.tmp) #9
  %2 = bitcast %"class.std::allocator.0"* %ref.tmp to i8*
  call void @llvm.lifetime.end.p0i8(i64 1, i8* %2) #9
  %3 = load %"class.std::__cxx11::basic_string"*, %"class.std::__cxx11::basic_string"** %__str.addr, align 8, !tbaa !2
  %call3 = call i8* @_ZNKSt7__cxx1112basic_stringIcSt11char_traitsIcESaIcEE7_M_dataEv(%"class.std::__cxx11::basic_string"* nonnull dereferenceable(32) %3)
  %4 = load %"class.std::__cxx11::basic_string"*, %"class.std::__cxx11::basic_string"** %__str.addr, align 8, !tbaa !2
  %call4 = call i8* @_ZNKSt7__cxx1112basic_stringIcSt11char_traitsIcESaIcEE7_M_dataEv(%"class.std::__cxx11::basic_string"* nonnull dereferenceable(32) %4)
  %5 = load %"class.std::__cxx11::basic_string"*, %"class.std::__cxx11::basic_string"** %__str.addr, align 8, !tbaa !2
  %call5 = call i64 @_ZNKSt7__cxx1112basic_stringIcSt11char_traitsIcESaIcEE6lengthEv(%"class.std::__cxx11::basic_string"* nonnull dereferenceable(32) %5) #9
  %add.ptr = getelementptr inbounds i8, i8* %call4, i64 %call5
  invoke void @_ZNSt7__cxx1112basic_stringIcSt11char_traitsIcESaIcEE12_M_constructIPcEEvT_S7_(%"class.std::__cxx11::basic_string"* nonnull dereferenceable(32) %this1, i8* %call3, i8* %add.ptr)
          to label %invoke.cont7 unwind label %lpad6

invoke.cont7:                                     ; preds = %invoke.cont
  ret void

lpad:                                             ; preds = %entry
  %6 = landingpad { i8*, i32 }
          cleanup
  %7 = extractvalue { i8*, i32 } %6, 0
  store i8* %7, i8** %exn.slot, align 8
  %8 = extractvalue { i8*, i32 } %6, 1
  store i32 %8, i32* %ehselector.slot, align 4
  call void @_ZNSaIcED2Ev(%"class.std::allocator.0"* nonnull dereferenceable(1) %ref.tmp) #9
  %9 = bitcast %"class.std::allocator.0"* %ref.tmp to i8*
  call void @llvm.lifetime.end.p0i8(i64 1, i8* %9) #9
  br label %eh.resume

lpad6:                                            ; preds = %invoke.cont
  %10 = landingpad { i8*, i32 }
          cleanup
  %11 = extractvalue { i8*, i32 } %10, 0
  store i8* %11, i8** %exn.slot, align 8
  %12 = extractvalue { i8*, i32 } %10, 1
  store i32 %12, i32* %ehselector.slot, align 4
  call void bitcast (void (%"class.std::allocator.0"*)* @_ZNSaIcED2Ev to void (%"struct.std::__cxx11::basic_string<char>::_Alloc_hider"*)*)(%"struct.std::__cxx11::basic_string<char>::_Alloc_hider"* nonnull dereferenceable(8) %_M_dataplus) #9
  br label %eh.resume

eh.resume:                                        ; preds = %lpad6, %lpad
  %exn = load i8*, i8** %exn.slot, align 8
  %sel = load i32, i32* %ehselector.slot, align 4
  %lpad.val = insertvalue { i8*, i32 } undef, i8* %exn, 0
  %lpad.val8 = insertvalue { i8*, i32 } %lpad.val, i32 %sel, 1
  resume { i8*, i32 } %lpad.val8
}

; Function Attrs: uwtable mustprogress
define available_externally dso_local void @_ZNKSt7__cxx1112basic_stringIcSt11char_traitsIcESaIcEE6substrEmm(%"class.std::__cxx11::basic_string"* noalias sret(%"class.std::__cxx11::basic_string") align 8 %agg.result, %"class.std::__cxx11::basic_string"* nonnull dereferenceable(32) %this, i64 %__pos, i64 %__n) #0 align 2 {
entry:
  %result.ptr = alloca i8*, align 8
  %this.addr = alloca %"class.std::__cxx11::basic_string"*, align 8
  %__pos.addr = alloca i64, align 8
  %__n.addr = alloca i64, align 8
  %0 = bitcast %"class.std::__cxx11::basic_string"* %agg.result to i8*
  store i8* %0, i8** %result.ptr, align 8
  store %"class.std::__cxx11::basic_string"* %this, %"class.std::__cxx11::basic_string"** %this.addr, align 8, !tbaa !2
  store i64 %__pos, i64* %__pos.addr, align 8, !tbaa !13
  store i64 %__n, i64* %__n.addr, align 8, !tbaa !13
  %this1 = load %"class.std::__cxx11::basic_string"*, %"class.std::__cxx11::basic_string"** %this.addr, align 8
  %1 = load i64, i64* %__pos.addr, align 8, !tbaa !13
  %call = call i64 @_ZNKSt7__cxx1112basic_stringIcSt11char_traitsIcESaIcEE8_M_checkEmPKc(%"class.std::__cxx11::basic_string"* nonnull dereferenceable(32) %this1, i64 %1, i8* getelementptr inbounds ([21 x i8], [21 x i8]* @.str.119, i64 0, i64 0))
  %2 = load i64, i64* %__n.addr, align 8, !tbaa !13
  call void @_ZNSt7__cxx1112basic_stringIcSt11char_traitsIcESaIcEEC2ERKS4_mm(%"class.std::__cxx11::basic_string"* nonnull dereferenceable(32) %agg.result, %"class.std::__cxx11::basic_string"* nonnull align 8 dereferenceable(32) %this1, i64 %call, i64 %2)
  ret void
}

; Function Attrs: nounwind uwtable mustprogress
define available_externally dso_local i64 @_ZNKSt7__cxx1112basic_stringIcSt11char_traitsIcESaIcEE12find_last_ofEcm(%"class.std::__cxx11::basic_string"* nonnull dereferenceable(32) %this, i8 signext %__c, i64 %__pos) #8 align 2 {
entry:
  %this.addr = alloca %"class.std::__cxx11::basic_string"*, align 8
  %__c.addr = alloca i8, align 1
  %__pos.addr = alloca i64, align 8
  store %"class.std::__cxx11::basic_string"* %this, %"class.std::__cxx11::basic_string"** %this.addr, align 8, !tbaa !2
  store i8 %__c, i8* %__c.addr, align 1, !tbaa !14
  store i64 %__pos, i64* %__pos.addr, align 8, !tbaa !13
  %this1 = load %"class.std::__cxx11::basic_string"*, %"class.std::__cxx11::basic_string"** %this.addr, align 8
  %0 = load i8, i8* %__c.addr, align 1, !tbaa !14
  %1 = load i64, i64* %__pos.addr, align 8, !tbaa !13
  %call = call i64 @_ZNKSt7__cxx1112basic_stringIcSt11char_traitsIcESaIcEE5rfindEcm(%"class.std::__cxx11::basic_string"* nonnull dereferenceable(32) %this1, i8 signext %0, i64 %1) #9
  ret i64 %call
}

; Function Attrs: uwtable mustprogress
define dso_local void @_Z19filepath_to_dirnameRKNSt7__cxx1112basic_stringIcSt11char_traitsIcESaIcEEE(%"class.std::__cxx11::basic_string"* noalias sret(%"class.std::__cxx11::basic_string") align 8 %agg.result, %"class.std::__cxx11::basic_string"* nonnull align 8 dereferenceable(32) %filepath) #0 personality i8* bitcast (i32 (...)* @__gxx_personality_v0 to i8*) {
entry:
  %result.ptr = alloca i8*, align 8
  %filepath.addr = alloca %"class.std::__cxx11::basic_string"*, align 8
  %last_slash_position = alloca i64, align 8
  %nrvo = alloca i1, align 1
  %ref.tmp = alloca %"class.std::allocator.0", align 1
  %cleanup.cond = alloca i1, align 1
  %cleanup.cond1 = alloca i1, align 1
  %exn.slot = alloca i8*, align 8
  %ehselector.slot = alloca i32, align 4
  %0 = bitcast %"class.std::__cxx11::basic_string"* %agg.result to i8*
  store i8* %0, i8** %result.ptr, align 8
  store %"class.std::__cxx11::basic_string"* %filepath, %"class.std::__cxx11::basic_string"** %filepath.addr, align 8, !tbaa !2
  %1 = bitcast i64* %last_slash_position to i8*
  call void @llvm.lifetime.start.p0i8(i64 8, i8* %1) #9
  %2 = load %"class.std::__cxx11::basic_string"*, %"class.std::__cxx11::basic_string"** %filepath.addr, align 8, !tbaa !2
  %call = call i64 @_Z15find_last_slashRKNSt7__cxx1112basic_stringIcSt11char_traitsIcESaIcEEE(%"class.std::__cxx11::basic_string"* nonnull align 8 dereferenceable(32) %2)
  store i64 %call, i64* %last_slash_position, align 8, !tbaa !13
  store i1 false, i1* %nrvo, align 1
  %3 = load i64, i64* %last_slash_position, align 8, !tbaa !13
  %cmp = icmp eq i64 %3, -1
  store i1 false, i1* %cleanup.cond, align 1
  store i1 false, i1* %cleanup.cond1, align 1
  br i1 %cmp, label %cond.true, label %cond.false

cond.true:                                        ; preds = %entry
  %4 = bitcast %"class.std::allocator.0"* %ref.tmp to i8*
  call void @llvm.lifetime.start.p0i8(i64 1, i8* %4) #9
  store i1 true, i1* %cleanup.cond, align 1
  call void @_ZNSaIcEC2Ev(%"class.std::allocator.0"* nonnull dereferenceable(1) %ref.tmp) #9
  store i1 true, i1* %cleanup.cond1, align 1
  invoke void @_ZNSt7__cxx1112basic_stringIcSt11char_traitsIcESaIcEEC2EPKcRKS3_(%"class.std::__cxx11::basic_string"* nonnull dereferenceable(32) %agg.result, i8* getelementptr inbounds ([3 x i8], [3 x i8]* @.str.6, i64 0, i64 0), %"class.std::allocator.0"* nonnull align 1 dereferenceable(1) %ref.tmp)
          to label %invoke.cont unwind label %lpad

invoke.cont:                                      ; preds = %cond.true
  br label %cond.end

cond.false:                                       ; preds = %entry
  %5 = load %"class.std::__cxx11::basic_string"*, %"class.std::__cxx11::basic_string"** %filepath.addr, align 8, !tbaa !2
  %6 = load i64, i64* %last_slash_position, align 8, !tbaa !13
  %add = add i64 %6, 1
  invoke void @_ZNKSt7__cxx1112basic_stringIcSt11char_traitsIcESaIcEE6substrEmm(%"class.std::__cxx11::basic_string"* sret(%"class.std::__cxx11::basic_string") align 8 %agg.result, %"class.std::__cxx11::basic_string"* nonnull dereferenceable(32) %5, i64 0, i64 %add)
          to label %invoke.cont2 unwind label %lpad

invoke.cont2:                                     ; preds = %cond.false
  br label %cond.end

cond.end:                                         ; preds = %invoke.cont2, %invoke.cont
  %cleanup.is_active = load i1, i1* %cleanup.cond1, align 1
  br i1 %cleanup.is_active, label %cleanup.action, label %cleanup.done

cleanup.action:                                   ; preds = %cond.end
  call void @_ZNSaIcED2Ev(%"class.std::allocator.0"* nonnull dereferenceable(1) %ref.tmp) #9
  br label %cleanup.done

cleanup.done:                                     ; preds = %cleanup.action, %cond.end
  %cleanup.is_active6 = load i1, i1* %cleanup.cond, align 1
  br i1 %cleanup.is_active6, label %cleanup.action7, label %cleanup.done8

cleanup.action7:                                  ; preds = %cleanup.done
  %7 = bitcast %"class.std::allocator.0"* %ref.tmp to i8*
  call void @llvm.lifetime.end.p0i8(i64 1, i8* %7) #9
  br label %cleanup.done8

cleanup.done8:                                    ; preds = %cleanup.action7, %cleanup.done
  store i1 true, i1* %nrvo, align 1
  %nrvo.val = load i1, i1* %nrvo, align 1
  br i1 %nrvo.val, label %nrvo.skipdtor, label %nrvo.unused

lpad:                                             ; preds = %cond.false, %cond.true
  %8 = landingpad { i8*, i32 }
          cleanup
  %9 = extractvalue { i8*, i32 } %8, 0
  store i8* %9, i8** %exn.slot, align 8
  %10 = extractvalue { i8*, i32 } %8, 1
  store i32 %10, i32* %ehselector.slot, align 4
  %cleanup.is_active3 = load i1, i1* %cleanup.cond1, align 1
  br i1 %cleanup.is_active3, label %cleanup.action4, label %cleanup.done5

cleanup.action4:                                  ; preds = %lpad
  call void @_ZNSaIcED2Ev(%"class.std::allocator.0"* nonnull dereferenceable(1) %ref.tmp) #9
  br label %cleanup.done5

cleanup.done5:                                    ; preds = %cleanup.action4, %lpad
  %cleanup.is_active9 = load i1, i1* %cleanup.cond, align 1
  br i1 %cleanup.is_active9, label %cleanup.action10, label %cleanup.done11

cleanup.action10:                                 ; preds = %cleanup.done5
  %11 = bitcast %"class.std::allocator.0"* %ref.tmp to i8*
  call void @llvm.lifetime.end.p0i8(i64 1, i8* %11) #9
  br label %cleanup.done11

cleanup.done11:                                   ; preds = %cleanup.action10, %cleanup.done5
  %12 = bitcast i64* %last_slash_position to i8*
  call void @llvm.lifetime.end.p0i8(i64 8, i8* %12) #9
  br label %eh.resume

nrvo.unused:                                      ; preds = %cleanup.done8
  call void @_ZNSt7__cxx1112basic_stringIcSt11char_traitsIcESaIcEED2Ev(%"class.std::__cxx11::basic_string"* nonnull dereferenceable(32) %agg.result) #9
  br label %nrvo.skipdtor

nrvo.skipdtor:                                    ; preds = %nrvo.unused, %cleanup.done8
  %13 = bitcast i64* %last_slash_position to i8*
  call void @llvm.lifetime.end.p0i8(i64 8, i8* %13) #9
  ret void

eh.resume:                                        ; preds = %cleanup.done11
  %exn = load i8*, i8** %exn.slot, align 8
  %sel = load i32, i32* %ehselector.slot, align 4
  %lpad.val = insertvalue { i8*, i32 } undef, i8* %exn, 0
  %lpad.val12 = insertvalue { i8*, i32 } %lpad.val, i32 %sel, 1
  resume { i8*, i32 } %lpad.val12
}

; Function Attrs: uwtable
define internal void @__cxx_global_var_init() #7 section ".text.startup" {
entry:
  call void @_ZNSt8ios_base4InitC1Ev(%"class.std::ios_base::Init"* nonnull dereferenceable(1) @_ZStL8__ioinit)
  %0 = call i32 @__cxa_atexit(void (i8*)* bitcast (void (%"class.std::ios_base::Init"*)* @_ZNSt8ios_base4InitD1Ev to void (i8*)*), i8* getelementptr inbounds (%"class.std::ios_base::Init", %"class.std::ios_base::Init"* @_ZStL8__ioinit, i32 0, i32 0), i8* @__dso_handle) #9
  ret void
}

declare dso_local void @_ZNSt8ios_base4InitC1Ev(%"class.std::ios_base::Init"* nonnull dereferenceable(1)) unnamed_addr #2

; Function Attrs: nounwind
declare dso_local void @_ZNSt8ios_base4InitD1Ev(%"class.std::ios_base::Init"* nonnull dereferenceable(1)) unnamed_addr #4

; Function Attrs: nounwind
declare dso_local i32 @__cxa_atexit(void (i8*)*, i8*, i8*) #9

; Function Attrs: nounwind uwtable mustprogress
define dso_local float @_Z5tdiffP7timevalS0_(%struct.timeval* %start, %struct.timeval* %end) #8 {
entry:
  %start.addr = alloca %struct.timeval*, align 8
  %end.addr = alloca %struct.timeval*, align 8
  store %struct.timeval* %start, %struct.timeval** %start.addr, align 8, !tbaa !2
  store %struct.timeval* %end, %struct.timeval** %end.addr, align 8, !tbaa !2
  %0 = load %struct.timeval*, %struct.timeval** %end.addr, align 8, !tbaa !2
  %tv_sec = getelementptr inbounds %struct.timeval, %struct.timeval* %0, i32 0, i32 0
  %1 = load i64, i64* %tv_sec, align 8, !tbaa !15
  %2 = load %struct.timeval*, %struct.timeval** %start.addr, align 8, !tbaa !2
  %tv_sec1 = getelementptr inbounds %struct.timeval, %struct.timeval* %2, i32 0, i32 0
  %3 = load i64, i64* %tv_sec1, align 8, !tbaa !15
  %sub = sub nsw i64 %1, %3
  %conv = sitofp i64 %sub to double
  %4 = load %struct.timeval*, %struct.timeval** %end.addr, align 8, !tbaa !2
  %tv_usec = getelementptr inbounds %struct.timeval, %struct.timeval* %4, i32 0, i32 1
  %5 = load i64, i64* %tv_usec, align 8, !tbaa !17
  %6 = load %struct.timeval*, %struct.timeval** %start.addr, align 8, !tbaa !2
  %tv_usec2 = getelementptr inbounds %struct.timeval, %struct.timeval* %6, i32 0, i32 1
  %7 = load i64, i64* %tv_usec2, align 8, !tbaa !17
  %sub3 = sub nsw i64 %5, %7
  %conv4 = sitofp i64 %sub3 to double
  %mul = fmul fast double 0x3EB0C6F7A0B5ED8D, %conv4
  %add = fadd fast double %conv, %mul
  %conv5 = fptrunc double %add to float
  ret float %conv5
}

; Function Attrs: uwtable mustprogress
define dso_local void @_Z17read_gmm_instanceRKNSt7__cxx1112basic_stringIcSt11char_traitsIcESaIcEEEPiS7_S7_RSt6vectorIdSaIdEESB_SB_SB_R7Wishartb(%"class.std::__cxx11::basic_string"* nonnull align 8 dereferenceable(32) %fn, i32* %d, i32* %k, i32* %n, %"class.std::vector.3"* nonnull align 8 dereferenceable(24) %alphas, %"class.std::vector.3"* nonnull align 8 dereferenceable(24) %means, %"class.std::vector.3"* nonnull align 8 dereferenceable(24) %icf, %"class.std::vector.3"* nonnull align 8 dereferenceable(24) %x, %struct.Wishart* nonnull align 8 dereferenceable(16) %wishart, i1 zeroext %replicate_point) #0 {
entry:
  %fn.addr = alloca %"class.std::__cxx11::basic_string"*, align 8
  %d.addr = alloca i32*, align 8
  %k.addr = alloca i32*, align 8
  %n.addr = alloca i32*, align 8
  %alphas.addr = alloca %"class.std::vector.3"*, align 8
  %means.addr = alloca %"class.std::vector.3"*, align 8
  %icf.addr = alloca %"class.std::vector.3"*, align 8
  %x.addr = alloca %"class.std::vector.3"*, align 8
  %wishart.addr = alloca %struct.Wishart*, align 8
  %replicate_point.addr = alloca i8, align 1
  %fid = alloca %struct._IO_FILE*, align 8
  %d_ = alloca i32, align 4
  %k_ = alloca i32, align 4
  %n_ = alloca i32, align 4
  %icf_sz = alloca i32, align 4
  %i = alloca i32, align 4
  %i14 = alloca i32, align 4
  %cleanup.dest.slot = alloca i32, align 4
  %j = alloca i32, align 4
  %i34 = alloca i32, align 4
  %j39 = alloca i32, align 4
  %j57 = alloca i32, align 4
  %i68 = alloca i32, align 4
  %i82 = alloca i32, align 4
  %j87 = alloca i32, align 4
  store %"class.std::__cxx11::basic_string"* %fn, %"class.std::__cxx11::basic_string"** %fn.addr, align 8, !tbaa !2
  store i32* %d, i32** %d.addr, align 8, !tbaa !2
  store i32* %k, i32** %k.addr, align 8, !tbaa !2
  store i32* %n, i32** %n.addr, align 8, !tbaa !2
  store %"class.std::vector.3"* %alphas, %"class.std::vector.3"** %alphas.addr, align 8, !tbaa !2
  store %"class.std::vector.3"* %means, %"class.std::vector.3"** %means.addr, align 8, !tbaa !2
  store %"class.std::vector.3"* %icf, %"class.std::vector.3"** %icf.addr, align 8, !tbaa !2
  store %"class.std::vector.3"* %x, %"class.std::vector.3"** %x.addr, align 8, !tbaa !2
  store %struct.Wishart* %wishart, %struct.Wishart** %wishart.addr, align 8, !tbaa !2
  %frombool = zext i1 %replicate_point to i8
  store i8 %frombool, i8* %replicate_point.addr, align 1, !tbaa !18
  %0 = bitcast %struct._IO_FILE** %fid to i8*
  call void @llvm.lifetime.start.p0i8(i64 8, i8* %0) #9
  %1 = load %"class.std::__cxx11::basic_string"*, %"class.std::__cxx11::basic_string"** %fn.addr, align 8, !tbaa !2
  %call = call i8* @_ZNKSt7__cxx1112basic_stringIcSt11char_traitsIcESaIcEE5c_strEv(%"class.std::__cxx11::basic_string"* nonnull dereferenceable(32) %1) #9
  %call1 = call %struct._IO_FILE* @fopen(i8* %call, i8* getelementptr inbounds ([2 x i8], [2 x i8]* @.str.7, i64 0, i64 0))
  store %struct._IO_FILE* %call1, %struct._IO_FILE** %fid, align 8, !tbaa !2
  %2 = load %struct._IO_FILE*, %struct._IO_FILE** %fid, align 8, !tbaa !2
  %tobool = icmp ne %struct._IO_FILE* %2, null
  br i1 %tobool, label %if.end, label %if.then

if.then:                                          ; preds = %entry
  %3 = load %"class.std::__cxx11::basic_string"*, %"class.std::__cxx11::basic_string"** %fn.addr, align 8, !tbaa !2
  %call2 = call i8* @_ZNKSt7__cxx1112basic_stringIcSt11char_traitsIcESaIcEE5c_strEv(%"class.std::__cxx11::basic_string"* nonnull dereferenceable(32) %3) #9
  %call3 = call i32 (i8*, ...) @printf(i8* getelementptr inbounds ([25 x i8], [25 x i8]* @.str.8, i64 0, i64 0), i8* %call2)
  call void @exit(i32 1) #29
  unreachable

if.end:                                           ; preds = %entry
  %4 = load %struct._IO_FILE*, %struct._IO_FILE** %fid, align 8, !tbaa !2
  %5 = load i32*, i32** %d.addr, align 8, !tbaa !2
  %6 = load i32*, i32** %k.addr, align 8, !tbaa !2
  %7 = load i32*, i32** %n.addr, align 8, !tbaa !2
  %call4 = call i32 (%struct._IO_FILE*, i8*, ...) @__isoc99_fscanf(%struct._IO_FILE* %4, i8* getelementptr inbounds ([9 x i8], [9 x i8]* @.str.9, i64 0, i64 0), i32* %5, i32* %6, i32* %7)
  %8 = bitcast i32* %d_ to i8*
  call void @llvm.lifetime.start.p0i8(i64 4, i8* %8) #9
  %9 = load i32*, i32** %d.addr, align 8, !tbaa !2
  %10 = load i32, i32* %9, align 4, !tbaa !20
  store i32 %10, i32* %d_, align 4, !tbaa !20
  %11 = bitcast i32* %k_ to i8*
  call void @llvm.lifetime.start.p0i8(i64 4, i8* %11) #9
  %12 = load i32*, i32** %k.addr, align 8, !tbaa !2
  %13 = load i32, i32* %12, align 4, !tbaa !20
  store i32 %13, i32* %k_, align 4, !tbaa !20
  %14 = bitcast i32* %n_ to i8*
  call void @llvm.lifetime.start.p0i8(i64 4, i8* %14) #9
  %15 = load i32*, i32** %n.addr, align 8, !tbaa !2
  %16 = load i32, i32* %15, align 4, !tbaa !20
  store i32 %16, i32* %n_, align 4, !tbaa !20
  %17 = bitcast i32* %icf_sz to i8*
  call void @llvm.lifetime.start.p0i8(i64 4, i8* %17) #9
  %18 = load i32, i32* %d_, align 4, !tbaa !20
  %19 = load i32, i32* %d_, align 4, !tbaa !20
  %add = add nsw i32 %19, 1
  %mul = mul nsw i32 %18, %add
  %div = sdiv i32 %mul, 2
  store i32 %div, i32* %icf_sz, align 4, !tbaa !20
  %20 = load %"class.std::vector.3"*, %"class.std::vector.3"** %alphas.addr, align 8, !tbaa !2
  %21 = load i32, i32* %k_, align 4, !tbaa !20
  %conv = sext i32 %21 to i64
  call void @_ZNSt6vectorIdSaIdEE6resizeEm(%"class.std::vector.3"* nonnull dereferenceable(24) %20, i64 %conv)
  %22 = load %"class.std::vector.3"*, %"class.std::vector.3"** %means.addr, align 8, !tbaa !2
  %23 = load i32, i32* %d_, align 4, !tbaa !20
  %24 = load i32, i32* %k_, align 4, !tbaa !20
  %mul5 = mul nsw i32 %23, %24
  %conv6 = sext i32 %mul5 to i64
  call void @_ZNSt6vectorIdSaIdEE6resizeEm(%"class.std::vector.3"* nonnull dereferenceable(24) %22, i64 %conv6)
  %25 = load %"class.std::vector.3"*, %"class.std::vector.3"** %icf.addr, align 8, !tbaa !2
  %26 = load i32, i32* %icf_sz, align 4, !tbaa !20
  %27 = load i32, i32* %k_, align 4, !tbaa !20
  %mul7 = mul nsw i32 %26, %27
  %conv8 = sext i32 %mul7 to i64
  call void @_ZNSt6vectorIdSaIdEE6resizeEm(%"class.std::vector.3"* nonnull dereferenceable(24) %25, i64 %conv8)
  %28 = load %"class.std::vector.3"*, %"class.std::vector.3"** %x.addr, align 8, !tbaa !2
  %29 = load i32, i32* %d_, align 4, !tbaa !20
  %30 = load i32, i32* %n_, align 4, !tbaa !20
  %mul9 = mul nsw i32 %29, %30
  %conv10 = sext i32 %mul9 to i64
  call void @_ZNSt6vectorIdSaIdEE6resizeEm(%"class.std::vector.3"* nonnull dereferenceable(24) %28, i64 %conv10)
  %31 = bitcast i32* %i to i8*
  call void @llvm.lifetime.start.p0i8(i64 4, i8* %31) #9
  store i32 0, i32* %i, align 4, !tbaa !20
  br label %for.cond

for.cond:                                         ; preds = %for.inc, %if.end
  %32 = load i32, i32* %i, align 4, !tbaa !20
  %33 = load i32, i32* %k_, align 4, !tbaa !20
  %cmp = icmp slt i32 %32, %33
  br i1 %cmp, label %for.body, label %for.cond.cleanup

for.cond.cleanup:                                 ; preds = %for.cond
  %34 = bitcast i32* %i to i8*
  call void @llvm.lifetime.end.p0i8(i64 4, i8* %34) #9
  br label %for.end

for.body:                                         ; preds = %for.cond
  %35 = load %struct._IO_FILE*, %struct._IO_FILE** %fid, align 8, !tbaa !2
  %36 = load %"class.std::vector.3"*, %"class.std::vector.3"** %alphas.addr, align 8, !tbaa !2
  %37 = load i32, i32* %i, align 4, !tbaa !20
  %conv11 = sext i32 %37 to i64
  %call12 = call nonnull align 8 dereferenceable(8) double* @_ZNSt6vectorIdSaIdEEixEm(%"class.std::vector.3"* nonnull dereferenceable(24) %36, i64 %conv11) #9
  %call13 = call i32 (%struct._IO_FILE*, i8*, ...) @__isoc99_fscanf(%struct._IO_FILE* %35, i8* getelementptr inbounds ([4 x i8], [4 x i8]* @.str.10, i64 0, i64 0), double* %call12)
  br label %for.inc

for.inc:                                          ; preds = %for.body
  %38 = load i32, i32* %i, align 4, !tbaa !20
  %inc = add nsw i32 %38, 1
  store i32 %inc, i32* %i, align 4, !tbaa !20
  br label %for.cond, !llvm.loop !22

for.end:                                          ; preds = %for.cond.cleanup
  %39 = bitcast i32* %i14 to i8*
  call void @llvm.lifetime.start.p0i8(i64 4, i8* %39) #9
  store i32 0, i32* %i14, align 4, !tbaa !20
  br label %for.cond15

for.cond15:                                       ; preds = %for.inc31, %for.end
  %40 = load i32, i32* %i14, align 4, !tbaa !20
  %41 = load i32, i32* %k_, align 4, !tbaa !20
  %cmp16 = icmp slt i32 %40, %41
  br i1 %cmp16, label %for.body18, label %for.cond.cleanup17

for.cond.cleanup17:                               ; preds = %for.cond15
  store i32 5, i32* %cleanup.dest.slot, align 4
  %42 = bitcast i32* %i14 to i8*
  call void @llvm.lifetime.end.p0i8(i64 4, i8* %42) #9
  br label %for.end33

for.body18:                                       ; preds = %for.cond15
  %43 = bitcast i32* %j to i8*
  call void @llvm.lifetime.start.p0i8(i64 4, i8* %43) #9
  store i32 0, i32* %j, align 4, !tbaa !20
  br label %for.cond19

for.cond19:                                       ; preds = %for.inc28, %for.body18
  %44 = load i32, i32* %j, align 4, !tbaa !20
  %45 = load i32, i32* %d_, align 4, !tbaa !20
  %cmp20 = icmp slt i32 %44, %45
  br i1 %cmp20, label %for.body22, label %for.cond.cleanup21

for.cond.cleanup21:                               ; preds = %for.cond19
  store i32 8, i32* %cleanup.dest.slot, align 4
  %46 = bitcast i32* %j to i8*
  call void @llvm.lifetime.end.p0i8(i64 4, i8* %46) #9
  br label %for.end30

for.body22:                                       ; preds = %for.cond19
  %47 = load %struct._IO_FILE*, %struct._IO_FILE** %fid, align 8, !tbaa !2
  %48 = load %"class.std::vector.3"*, %"class.std::vector.3"** %means.addr, align 8, !tbaa !2
  %49 = load i32, i32* %i14, align 4, !tbaa !20
  %50 = load i32, i32* %d_, align 4, !tbaa !20
  %mul23 = mul nsw i32 %49, %50
  %51 = load i32, i32* %j, align 4, !tbaa !20
  %add24 = add nsw i32 %mul23, %51
  %conv25 = sext i32 %add24 to i64
  %call26 = call nonnull align 8 dereferenceable(8) double* @_ZNSt6vectorIdSaIdEEixEm(%"class.std::vector.3"* nonnull dereferenceable(24) %48, i64 %conv25) #9
  %call27 = call i32 (%struct._IO_FILE*, i8*, ...) @__isoc99_fscanf(%struct._IO_FILE* %47, i8* getelementptr inbounds ([4 x i8], [4 x i8]* @.str.10, i64 0, i64 0), double* %call26)
  br label %for.inc28

for.inc28:                                        ; preds = %for.body22
  %52 = load i32, i32* %j, align 4, !tbaa !20
  %inc29 = add nsw i32 %52, 1
  store i32 %inc29, i32* %j, align 4, !tbaa !20
  br label %for.cond19, !llvm.loop !23

for.end30:                                        ; preds = %for.cond.cleanup21
  br label %for.inc31

for.inc31:                                        ; preds = %for.end30
  %53 = load i32, i32* %i14, align 4, !tbaa !20
  %inc32 = add nsw i32 %53, 1
  store i32 %inc32, i32* %i14, align 4, !tbaa !20
  br label %for.cond15, !llvm.loop !24

for.end33:                                        ; preds = %for.cond.cleanup17
  %54 = bitcast i32* %i34 to i8*
  call void @llvm.lifetime.start.p0i8(i64 4, i8* %54) #9
  store i32 0, i32* %i34, align 4, !tbaa !20
  br label %for.cond35

for.cond35:                                       ; preds = %for.inc52, %for.end33
  %55 = load i32, i32* %i34, align 4, !tbaa !20
  %56 = load i32, i32* %k_, align 4, !tbaa !20
  %cmp36 = icmp slt i32 %55, %56
  br i1 %cmp36, label %for.body38, label %for.cond.cleanup37

for.cond.cleanup37:                               ; preds = %for.cond35
  store i32 11, i32* %cleanup.dest.slot, align 4
  %57 = bitcast i32* %i34 to i8*
  call void @llvm.lifetime.end.p0i8(i64 4, i8* %57) #9
  br label %for.end54

for.body38:                                       ; preds = %for.cond35
  %58 = bitcast i32* %j39 to i8*
  call void @llvm.lifetime.start.p0i8(i64 4, i8* %58) #9
  store i32 0, i32* %j39, align 4, !tbaa !20
  br label %for.cond40

for.cond40:                                       ; preds = %for.inc49, %for.body38
  %59 = load i32, i32* %j39, align 4, !tbaa !20
  %60 = load i32, i32* %icf_sz, align 4, !tbaa !20
  %cmp41 = icmp slt i32 %59, %60
  br i1 %cmp41, label %for.body43, label %for.cond.cleanup42

for.cond.cleanup42:                               ; preds = %for.cond40
  store i32 14, i32* %cleanup.dest.slot, align 4
  %61 = bitcast i32* %j39 to i8*
  call void @llvm.lifetime.end.p0i8(i64 4, i8* %61) #9
  br label %for.end51

for.body43:                                       ; preds = %for.cond40
  %62 = load %struct._IO_FILE*, %struct._IO_FILE** %fid, align 8, !tbaa !2
  %63 = load %"class.std::vector.3"*, %"class.std::vector.3"** %icf.addr, align 8, !tbaa !2
  %64 = load i32, i32* %i34, align 4, !tbaa !20
  %65 = load i32, i32* %icf_sz, align 4, !tbaa !20
  %mul44 = mul nsw i32 %64, %65
  %66 = load i32, i32* %j39, align 4, !tbaa !20
  %add45 = add nsw i32 %mul44, %66
  %conv46 = sext i32 %add45 to i64
  %call47 = call nonnull align 8 dereferenceable(8) double* @_ZNSt6vectorIdSaIdEEixEm(%"class.std::vector.3"* nonnull dereferenceable(24) %63, i64 %conv46) #9
  %call48 = call i32 (%struct._IO_FILE*, i8*, ...) @__isoc99_fscanf(%struct._IO_FILE* %62, i8* getelementptr inbounds ([4 x i8], [4 x i8]* @.str.10, i64 0, i64 0), double* %call47)
  br label %for.inc49

for.inc49:                                        ; preds = %for.body43
  %67 = load i32, i32* %j39, align 4, !tbaa !20
  %inc50 = add nsw i32 %67, 1
  store i32 %inc50, i32* %j39, align 4, !tbaa !20
  br label %for.cond40, !llvm.loop !25

for.end51:                                        ; preds = %for.cond.cleanup42
  br label %for.inc52

for.inc52:                                        ; preds = %for.end51
  %68 = load i32, i32* %i34, align 4, !tbaa !20
  %inc53 = add nsw i32 %68, 1
  store i32 %inc53, i32* %i34, align 4, !tbaa !20
  br label %for.cond35, !llvm.loop !26

for.end54:                                        ; preds = %for.cond.cleanup37
  %69 = load i8, i8* %replicate_point.addr, align 1, !tbaa !18, !range !27
  %tobool55 = trunc i8 %69 to i1
  br i1 %tobool55, label %if.then56, label %if.else

if.then56:                                        ; preds = %for.end54
  %70 = bitcast i32* %j57 to i8*
  call void @llvm.lifetime.start.p0i8(i64 4, i8* %70) #9
  store i32 0, i32* %j57, align 4, !tbaa !20
  br label %for.cond58

for.cond58:                                       ; preds = %for.inc65, %if.then56
  %71 = load i32, i32* %j57, align 4, !tbaa !20
  %72 = load i32, i32* %d_, align 4, !tbaa !20
  %cmp59 = icmp slt i32 %71, %72
  br i1 %cmp59, label %for.body61, label %for.cond.cleanup60

for.cond.cleanup60:                               ; preds = %for.cond58
  store i32 17, i32* %cleanup.dest.slot, align 4
  %73 = bitcast i32* %j57 to i8*
  call void @llvm.lifetime.end.p0i8(i64 4, i8* %73) #9
  br label %for.end67

for.body61:                                       ; preds = %for.cond58
  %74 = load %struct._IO_FILE*, %struct._IO_FILE** %fid, align 8, !tbaa !2
  %75 = load %"class.std::vector.3"*, %"class.std::vector.3"** %x.addr, align 8, !tbaa !2
  %76 = load i32, i32* %j57, align 4, !tbaa !20
  %conv62 = sext i32 %76 to i64
  %call63 = call nonnull align 8 dereferenceable(8) double* @_ZNSt6vectorIdSaIdEEixEm(%"class.std::vector.3"* nonnull dereferenceable(24) %75, i64 %conv62) #9
  %call64 = call i32 (%struct._IO_FILE*, i8*, ...) @__isoc99_fscanf(%struct._IO_FILE* %74, i8* getelementptr inbounds ([4 x i8], [4 x i8]* @.str.10, i64 0, i64 0), double* %call63)
  br label %for.inc65

for.inc65:                                        ; preds = %for.body61
  %77 = load i32, i32* %j57, align 4, !tbaa !20
  %inc66 = add nsw i32 %77, 1
  store i32 %inc66, i32* %j57, align 4, !tbaa !20
  br label %for.cond58, !llvm.loop !28

for.end67:                                        ; preds = %for.cond.cleanup60
  %78 = bitcast i32* %i68 to i8*
  call void @llvm.lifetime.start.p0i8(i64 4, i8* %78) #9
  store i32 0, i32* %i68, align 4, !tbaa !20
  br label %for.cond69

for.cond69:                                       ; preds = %for.inc79, %for.end67
  %79 = load i32, i32* %i68, align 4, !tbaa !20
  %80 = load i32, i32* %n_, align 4, !tbaa !20
  %cmp70 = icmp slt i32 %79, %80
  br i1 %cmp70, label %for.body72, label %for.cond.cleanup71

for.cond.cleanup71:                               ; preds = %for.cond69
  store i32 20, i32* %cleanup.dest.slot, align 4
  %81 = bitcast i32* %i68 to i8*
  call void @llvm.lifetime.end.p0i8(i64 4, i8* %81) #9
  br label %for.end81

for.body72:                                       ; preds = %for.cond69
  %82 = load %"class.std::vector.3"*, %"class.std::vector.3"** %x.addr, align 8, !tbaa !2
  %83 = load i32, i32* %i68, align 4, !tbaa !20
  %84 = load i32, i32* %d_, align 4, !tbaa !20
  %mul73 = mul nsw i32 %83, %84
  %conv74 = sext i32 %mul73 to i64
  %call75 = call nonnull align 8 dereferenceable(8) double* @_ZNSt6vectorIdSaIdEEixEm(%"class.std::vector.3"* nonnull dereferenceable(24) %82, i64 %conv74) #9
  %85 = bitcast double* %call75 to i8*
  %86 = load %"class.std::vector.3"*, %"class.std::vector.3"** %x.addr, align 8, !tbaa !2
  %call76 = call nonnull align 8 dereferenceable(8) double* @_ZNSt6vectorIdSaIdEEixEm(%"class.std::vector.3"* nonnull dereferenceable(24) %86, i64 0) #9
  %87 = bitcast double* %call76 to i8*
  %88 = load i32, i32* %d_, align 4, !tbaa !20
  %conv77 = sext i32 %88 to i64
  %mul78 = mul i64 %conv77, 8
  call void @llvm.memcpy.p0i8.p0i8.i64(i8* align 8 %85, i8* align 8 %87, i64 %mul78, i1 false)
  br label %for.inc79

for.inc79:                                        ; preds = %for.body72
  %89 = load i32, i32* %i68, align 4, !tbaa !20
  %inc80 = add nsw i32 %89, 1
  store i32 %inc80, i32* %i68, align 4, !tbaa !20
  br label %for.cond69, !llvm.loop !29

for.end81:                                        ; preds = %for.cond.cleanup71
  br label %if.end103

if.else:                                          ; preds = %for.end54
  %90 = bitcast i32* %i82 to i8*
  call void @llvm.lifetime.start.p0i8(i64 4, i8* %90) #9
  store i32 0, i32* %i82, align 4, !tbaa !20
  br label %for.cond83

for.cond83:                                       ; preds = %for.inc100, %if.else
  %91 = load i32, i32* %i82, align 4, !tbaa !20
  %92 = load i32, i32* %n_, align 4, !tbaa !20
  %cmp84 = icmp slt i32 %91, %92
  br i1 %cmp84, label %for.body86, label %for.cond.cleanup85

for.cond.cleanup85:                               ; preds = %for.cond83
  store i32 23, i32* %cleanup.dest.slot, align 4
  %93 = bitcast i32* %i82 to i8*
  call void @llvm.lifetime.end.p0i8(i64 4, i8* %93) #9
  br label %for.end102

for.body86:                                       ; preds = %for.cond83
  %94 = bitcast i32* %j87 to i8*
  call void @llvm.lifetime.start.p0i8(i64 4, i8* %94) #9
  store i32 0, i32* %j87, align 4, !tbaa !20
  br label %for.cond88

for.cond88:                                       ; preds = %for.inc97, %for.body86
  %95 = load i32, i32* %j87, align 4, !tbaa !20
  %96 = load i32, i32* %d_, align 4, !tbaa !20
  %cmp89 = icmp slt i32 %95, %96
  br i1 %cmp89, label %for.body91, label %for.cond.cleanup90

for.cond.cleanup90:                               ; preds = %for.cond88
  store i32 26, i32* %cleanup.dest.slot, align 4
  %97 = bitcast i32* %j87 to i8*
  call void @llvm.lifetime.end.p0i8(i64 4, i8* %97) #9
  br label %for.end99

for.body91:                                       ; preds = %for.cond88
  %98 = load %struct._IO_FILE*, %struct._IO_FILE** %fid, align 8, !tbaa !2
  %99 = load %"class.std::vector.3"*, %"class.std::vector.3"** %x.addr, align 8, !tbaa !2
  %100 = load i32, i32* %i82, align 4, !tbaa !20
  %101 = load i32, i32* %d_, align 4, !tbaa !20
  %mul92 = mul nsw i32 %100, %101
  %102 = load i32, i32* %j87, align 4, !tbaa !20
  %add93 = add nsw i32 %mul92, %102
  %conv94 = sext i32 %add93 to i64
  %call95 = call nonnull align 8 dereferenceable(8) double* @_ZNSt6vectorIdSaIdEEixEm(%"class.std::vector.3"* nonnull dereferenceable(24) %99, i64 %conv94) #9
  %call96 = call i32 (%struct._IO_FILE*, i8*, ...) @__isoc99_fscanf(%struct._IO_FILE* %98, i8* getelementptr inbounds ([4 x i8], [4 x i8]* @.str.10, i64 0, i64 0), double* %call95)
  br label %for.inc97

for.inc97:                                        ; preds = %for.body91
  %103 = load i32, i32* %j87, align 4, !tbaa !20
  %inc98 = add nsw i32 %103, 1
  store i32 %inc98, i32* %j87, align 4, !tbaa !20
  br label %for.cond88, !llvm.loop !30

for.end99:                                        ; preds = %for.cond.cleanup90
  br label %for.inc100

for.inc100:                                       ; preds = %for.end99
  %104 = load i32, i32* %i82, align 4, !tbaa !20
  %inc101 = add nsw i32 %104, 1
  store i32 %inc101, i32* %i82, align 4, !tbaa !20
  br label %for.cond83, !llvm.loop !31

for.end102:                                       ; preds = %for.cond.cleanup85
  br label %if.end103

if.end103:                                        ; preds = %for.end102, %for.end81
  %105 = load %struct._IO_FILE*, %struct._IO_FILE** %fid, align 8, !tbaa !2
  %106 = load %struct.Wishart*, %struct.Wishart** %wishart.addr, align 8, !tbaa !2
  %gamma = getelementptr inbounds %struct.Wishart, %struct.Wishart* %106, i32 0, i32 0
  %107 = load %struct.Wishart*, %struct.Wishart** %wishart.addr, align 8, !tbaa !2
  %m = getelementptr inbounds %struct.Wishart, %struct.Wishart* %107, i32 0, i32 1
  %call104 = call i32 (%struct._IO_FILE*, i8*, ...) @__isoc99_fscanf(%struct._IO_FILE* %105, i8* getelementptr inbounds ([7 x i8], [7 x i8]* @.str.11, i64 0, i64 0), double* %gamma, i32* %m)
  %108 = load %struct._IO_FILE*, %struct._IO_FILE** %fid, align 8, !tbaa !2
  %call105 = call i32 @fclose(%struct._IO_FILE* %108)
  %109 = bitcast i32* %icf_sz to i8*
  call void @llvm.lifetime.end.p0i8(i64 4, i8* %109) #9
  %110 = bitcast i32* %n_ to i8*
  call void @llvm.lifetime.end.p0i8(i64 4, i8* %110) #9
  %111 = bitcast i32* %k_ to i8*
  call void @llvm.lifetime.end.p0i8(i64 4, i8* %111) #9
  %112 = bitcast i32* %d_ to i8*
  call void @llvm.lifetime.end.p0i8(i64 4, i8* %112) #9
  %113 = bitcast %struct._IO_FILE** %fid to i8*
  call void @llvm.lifetime.end.p0i8(i64 8, i8* %113) #9
  ret void
}

declare dso_local %struct._IO_FILE* @fopen(i8*, i8*) #2

; Function Attrs: nounwind uwtable mustprogress
define available_externally dso_local i8* @_ZNKSt7__cxx1112basic_stringIcSt11char_traitsIcESaIcEE5c_strEv(%"class.std::__cxx11::basic_string"* nonnull dereferenceable(32) %this) #8 align 2 {
entry:
  %this.addr = alloca %"class.std::__cxx11::basic_string"*, align 8
  store %"class.std::__cxx11::basic_string"* %this, %"class.std::__cxx11::basic_string"** %this.addr, align 8, !tbaa !2
  %this1 = load %"class.std::__cxx11::basic_string"*, %"class.std::__cxx11::basic_string"** %this.addr, align 8
  %call = call i8* @_ZNKSt7__cxx1112basic_stringIcSt11char_traitsIcESaIcEE7_M_dataEv(%"class.std::__cxx11::basic_string"* nonnull dereferenceable(32) %this1)
  ret i8* %call
}

declare dso_local i32 @printf(i8*, ...) #2

; Function Attrs: noreturn nounwind
declare dso_local void @exit(i32) #10

declare dso_local i32 @__isoc99_fscanf(%struct._IO_FILE*, i8*, ...) #2

; Function Attrs: uwtable mustprogress
define linkonce_odr dso_local void @_ZNSt6vectorIdSaIdEE6resizeEm(%"class.std::vector.3"* nonnull dereferenceable(24) %this, i64 %__new_size) #0 comdat align 2 {
entry:
  %this.addr = alloca %"class.std::vector.3"*, align 8
  %__new_size.addr = alloca i64, align 8
  store %"class.std::vector.3"* %this, %"class.std::vector.3"** %this.addr, align 8, !tbaa !2
  store i64 %__new_size, i64* %__new_size.addr, align 8, !tbaa !13
  %this1 = load %"class.std::vector.3"*, %"class.std::vector.3"** %this.addr, align 8
  %0 = load i64, i64* %__new_size.addr, align 8, !tbaa !13
  %call = call i64 @_ZNKSt6vectorIdSaIdEE4sizeEv(%"class.std::vector.3"* nonnull dereferenceable(24) %this1) #9
  %cmp = icmp ugt i64 %0, %call
  br i1 %cmp, label %if.then, label %if.else

if.then:                                          ; preds = %entry
  %1 = load i64, i64* %__new_size.addr, align 8, !tbaa !13
  %call2 = call i64 @_ZNKSt6vectorIdSaIdEE4sizeEv(%"class.std::vector.3"* nonnull dereferenceable(24) %this1) #9
  %sub = sub i64 %1, %call2
  call void @_ZNSt6vectorIdSaIdEE17_M_default_appendEm(%"class.std::vector.3"* nonnull dereferenceable(24) %this1, i64 %sub)
  br label %if.end6

if.else:                                          ; preds = %entry
  %2 = load i64, i64* %__new_size.addr, align 8, !tbaa !13
  %call3 = call i64 @_ZNKSt6vectorIdSaIdEE4sizeEv(%"class.std::vector.3"* nonnull dereferenceable(24) %this1) #9
  %cmp4 = icmp ult i64 %2, %call3
  br i1 %cmp4, label %if.then5, label %if.end

if.then5:                                         ; preds = %if.else
  %3 = bitcast %"class.std::vector.3"* %this1 to %"struct.std::_Vector_base.4"*
  %_M_impl = getelementptr inbounds %"struct.std::_Vector_base.4", %"struct.std::_Vector_base.4"* %3, i32 0, i32 0
  %4 = bitcast %"struct.std::_Vector_base<double, std::allocator<double>>::_Vector_impl"* %_M_impl to %"struct.std::_Vector_base<double, std::allocator<double>>::_Vector_impl_data"*
  %_M_start = getelementptr inbounds %"struct.std::_Vector_base<double, std::allocator<double>>::_Vector_impl_data", %"struct.std::_Vector_base<double, std::allocator<double>>::_Vector_impl_data"* %4, i32 0, i32 0
  %5 = load double*, double** %_M_start, align 8, !tbaa !32
  %6 = load i64, i64* %__new_size.addr, align 8, !tbaa !13
  %add.ptr = getelementptr inbounds double, double* %5, i64 %6
  call void @_ZNSt6vectorIdSaIdEE15_M_erase_at_endEPd(%"class.std::vector.3"* nonnull dereferenceable(24) %this1, double* %add.ptr) #9
  br label %if.end

if.end:                                           ; preds = %if.then5, %if.else
  br label %if.end6

if.end6:                                          ; preds = %if.end, %if.then
  ret void
}

; Function Attrs: nounwind uwtable mustprogress
define linkonce_odr dso_local nonnull align 8 dereferenceable(8) double* @_ZNSt6vectorIdSaIdEEixEm(%"class.std::vector.3"* nonnull dereferenceable(24) %this, i64 %__n) #8 comdat align 2 {
entry:
  %this.addr = alloca %"class.std::vector.3"*, align 8
  %__n.addr = alloca i64, align 8
  store %"class.std::vector.3"* %this, %"class.std::vector.3"** %this.addr, align 8, !tbaa !2
  store i64 %__n, i64* %__n.addr, align 8, !tbaa !13
  %this1 = load %"class.std::vector.3"*, %"class.std::vector.3"** %this.addr, align 8
  %0 = bitcast %"class.std::vector.3"* %this1 to %"struct.std::_Vector_base.4"*
  %_M_impl = getelementptr inbounds %"struct.std::_Vector_base.4", %"struct.std::_Vector_base.4"* %0, i32 0, i32 0
  %1 = bitcast %"struct.std::_Vector_base<double, std::allocator<double>>::_Vector_impl"* %_M_impl to %"struct.std::_Vector_base<double, std::allocator<double>>::_Vector_impl_data"*
  %_M_start = getelementptr inbounds %"struct.std::_Vector_base<double, std::allocator<double>>::_Vector_impl_data", %"struct.std::_Vector_base<double, std::allocator<double>>::_Vector_impl_data"* %1, i32 0, i32 0
  %2 = load double*, double** %_M_start, align 8, !tbaa !32
  %3 = load i64, i64* %__n.addr, align 8, !tbaa !13
  %add.ptr = getelementptr inbounds double, double* %2, i64 %3
  ret double* %add.ptr
}

; Function Attrs: argmemonly nofree nosync nounwind willreturn
declare void @llvm.memcpy.p0i8.p0i8.i64(i8* noalias nocapture writeonly, i8* noalias nocapture readonly, i64, i1 immarg) #1

declare dso_local i32 @fclose(%struct._IO_FILE*) #2

; Function Attrs: norecurse uwtable mustprogress
define dso_local i32 @main(i32 %argc, i8** %argv) #11 personality i8* bitcast (i32 (...)* @__gxx_personality_v0 to i8*) {
entry:
  %retval = alloca i32, align 4
  %argc.addr = alloca i32, align 4
  %argv.addr = alloca i8**, align 8
  %replicate_point = alloca i8, align 1
  %ref.tmp = alloca %"class.std::__cxx11::basic_string", align 8
  %cleanup.cond = alloca i1, align 1
  %ref.tmp1 = alloca %"class.std::allocator.0", align 1
  %cleanup.cond2 = alloca i1, align 1
  %cleanup.cond3 = alloca i1, align 1
  %exn.slot = alloca i8*, align 8
  %ehselector.slot = alloca i32, align 4
  %cleanup.cond4 = alloca i1, align 1
  %params = alloca %struct.GMMParameters, align 1
  %paths = alloca %"class.std::vector", align 8
  %agg.tmp = alloca %"class.std::__cxx11::basic_string", align 8
  %ref.tmp33 = alloca %"class.std::allocator.0", align 1
  %agg.tmp41 = alloca %"class.std::__cxx11::basic_string", align 8
  %ref.tmp42 = alloca %"class.std::allocator.0", align 1
  %agg.tmp50 = alloca %"class.std::__cxx11::basic_string", align 8
  %ref.tmp51 = alloca %"class.std::allocator.0", align 1
  %__range1 = alloca %"class.std::vector"*, align 8
  %__begin1 = alloca %"class.__gnu_cxx::__normal_iterator", align 8
  %__end1 = alloca %"class.__gnu_cxx::__normal_iterator", align 8
  %cleanup.dest.slot = alloca i32, align 4
  %path = alloca %"class.std::__cxx11::basic_string", align 8
  %input = alloca %struct.GMMInput, align 8
  %ref.tmp83 = alloca %"class.std::__cxx11::basic_string", align 8
  %Jcols = alloca i32, align 4
  %result = alloca %struct.GMMOutput, align 8
  %ref.tmp97 = alloca %"class.std::allocator.5", align 1
  %start = alloca %struct.timeval, align 8
  %end = alloca %struct.timeval, align 8
  %i = alloca i32, align 4
  %input130 = alloca %struct.GMMInput, align 8
  %ref.tmp131 = alloca %"class.std::__cxx11::basic_string", align 8
  %Jcols148 = alloca i32, align 4
  %result157 = alloca %struct.GMMOutput, align 8
  %ref.tmp161 = alloca %"class.std::allocator.5", align 1
  %start166 = alloca %struct.timeval, align 8
  %end167 = alloca %struct.timeval, align 8
  %i176 = alloca i32, align 4
  %0 = alloca %"class.std::bad_alloc", align 8
  %input209 = alloca %struct.GMMInput, align 8
  %ref.tmp210 = alloca %"class.std::__cxx11::basic_string", align 8
  %Jcols227 = alloca i32, align 4
  %result236 = alloca %struct.GMMOutput, align 8
  %ref.tmp240 = alloca %"class.std::allocator.5", align 1
  %start245 = alloca %struct.timeval, align 8
  %end246 = alloca %struct.timeval, align 8
  %i255 = alloca i32, align 4
  store i32 0, i32* %retval, align 4
  store i32 %argc, i32* %argc.addr, align 4, !tbaa !20
  store i8** %argv, i8*** %argv.addr, align 8, !tbaa !2
  %call = call i32 (i8*, ...) @printf(i8* getelementptr inbounds ([15 x i8], [15 x i8]* @.str.12, i64 0, i64 0))
  call void @llvm.lifetime.start.p0i8(i64 1, i8* %replicate_point) #9
  %1 = load i32, i32* %argc.addr, align 4, !tbaa !20
  %cmp = icmp sgt i32 %1, 9
  store i1 false, i1* %cleanup.cond, align 1
  store i1 false, i1* %cleanup.cond2, align 1
  store i1 false, i1* %cleanup.cond3, align 1
  store i1 false, i1* %cleanup.cond4, align 1
  br i1 %cmp, label %land.rhs, label %land.end

land.rhs:                                         ; preds = %entry
  %2 = bitcast %"class.std::__cxx11::basic_string"* %ref.tmp to i8*
  call void @llvm.lifetime.start.p0i8(i64 32, i8* %2) #9
  store i1 true, i1* %cleanup.cond, align 1
  %3 = load i8**, i8*** %argv.addr, align 8, !tbaa !2
  %arrayidx = getelementptr inbounds i8*, i8** %3, i64 9
  %4 = load i8*, i8** %arrayidx, align 8, !tbaa !2
  %5 = bitcast %"class.std::allocator.0"* %ref.tmp1 to i8*
  call void @llvm.lifetime.start.p0i8(i64 1, i8* %5) #9
  store i1 true, i1* %cleanup.cond2, align 1
  call void @_ZNSaIcEC2Ev(%"class.std::allocator.0"* nonnull dereferenceable(1) %ref.tmp1) #9
  store i1 true, i1* %cleanup.cond3, align 1
  invoke void @_ZNSt7__cxx1112basic_stringIcSt11char_traitsIcESaIcEEC2EPKcRKS3_(%"class.std::__cxx11::basic_string"* nonnull dereferenceable(32) %ref.tmp, i8* %4, %"class.std::allocator.0"* nonnull align 1 dereferenceable(1) %ref.tmp1)
          to label %invoke.cont unwind label %lpad

invoke.cont:                                      ; preds = %land.rhs
  store i1 true, i1* %cleanup.cond4, align 1
  %call7 = invoke zeroext i1 @_ZSteqIcSt11char_traitsIcESaIcEEbRKNSt7__cxx1112basic_stringIT_T0_T1_EEPKS5_(%"class.std::__cxx11::basic_string"* nonnull align 8 dereferenceable(32) %ref.tmp, i8* getelementptr inbounds ([5 x i8], [5 x i8]* @.str.13, i64 0, i64 0))
          to label %invoke.cont6 unwind label %lpad5

invoke.cont6:                                     ; preds = %invoke.cont
  br label %land.end

land.end:                                         ; preds = %invoke.cont6, %entry
  %6 = phi i1 [ false, %entry ], [ %call7, %invoke.cont6 ]
  %cleanup.is_active = load i1, i1* %cleanup.cond4, align 1
  br i1 %cleanup.is_active, label %cleanup.action, label %cleanup.done

cleanup.action:                                   ; preds = %land.end
  call void @_ZNSt7__cxx1112basic_stringIcSt11char_traitsIcESaIcEED2Ev(%"class.std::__cxx11::basic_string"* nonnull dereferenceable(32) %ref.tmp) #9
  br label %cleanup.done

cleanup.done:                                     ; preds = %cleanup.action, %land.end
  %cleanup.is_active11 = load i1, i1* %cleanup.cond3, align 1
  br i1 %cleanup.is_active11, label %cleanup.action12, label %cleanup.done13

cleanup.action12:                                 ; preds = %cleanup.done
  call void @_ZNSaIcED2Ev(%"class.std::allocator.0"* nonnull dereferenceable(1) %ref.tmp1) #9
  br label %cleanup.done13

cleanup.done13:                                   ; preds = %cleanup.action12, %cleanup.done
  %cleanup.is_active17 = load i1, i1* %cleanup.cond2, align 1
  br i1 %cleanup.is_active17, label %cleanup.action18, label %cleanup.done19

cleanup.action18:                                 ; preds = %cleanup.done13
  %7 = bitcast %"class.std::allocator.0"* %ref.tmp1 to i8*
  call void @llvm.lifetime.end.p0i8(i64 1, i8* %7) #9
  br label %cleanup.done19

cleanup.done19:                                   ; preds = %cleanup.action18, %cleanup.done13
  %cleanup.is_active24 = load i1, i1* %cleanup.cond, align 1
  br i1 %cleanup.is_active24, label %cleanup.action25, label %cleanup.done26

cleanup.action25:                                 ; preds = %cleanup.done19
  %8 = bitcast %"class.std::__cxx11::basic_string"* %ref.tmp to i8*
  call void @llvm.lifetime.end.p0i8(i64 32, i8* %8) #9
  br label %cleanup.done26

cleanup.done26:                                   ; preds = %cleanup.action25, %cleanup.done19
  %frombool = zext i1 %6 to i8
  store i8 %frombool, i8* %replicate_point, align 1, !tbaa !18
  %9 = bitcast %struct.GMMParameters* %params to i8*
  call void @llvm.lifetime.start.p0i8(i64 1, i8* %9) #9
  %replicate_point31 = getelementptr inbounds %struct.GMMParameters, %struct.GMMParameters* %params, i32 0, i32 0
  %10 = load i8, i8* %replicate_point, align 1, !tbaa !18, !range !27
  %tobool = trunc i8 %10 to i1
  %frombool32 = zext i1 %tobool to i8
  store i8 %frombool32, i8* %replicate_point31, align 1, !tbaa !34
  %11 = bitcast %"class.std::vector"* %paths to i8*
  call void @llvm.lifetime.start.p0i8(i64 24, i8* %11) #9
  call void @_ZNSt6vectorINSt7__cxx1112basic_stringIcSt11char_traitsIcESaIcEEESaIS5_EEC2Ev(%"class.std::vector"* nonnull dereferenceable(24) %paths) #9
  %12 = bitcast %"class.std::allocator.0"* %ref.tmp33 to i8*
  call void @llvm.lifetime.start.p0i8(i64 1, i8* %12) #9
  call void @_ZNSaIcEC2Ev(%"class.std::allocator.0"* nonnull dereferenceable(1) %ref.tmp33) #9
  invoke void @_ZNSt7__cxx1112basic_stringIcSt11char_traitsIcESaIcEEC2EPKcRKS3_(%"class.std::__cxx11::basic_string"* nonnull dereferenceable(32) %agg.tmp, i8* getelementptr inbounds ([4 x i8], [4 x i8]* @.str.15, i64 0, i64 0), %"class.std::allocator.0"* nonnull align 1 dereferenceable(1) %ref.tmp33)
          to label %invoke.cont35 unwind label %lpad34

invoke.cont35:                                    ; preds = %cleanup.done26
  invoke void @_Z8getTestsRSt6vectorINSt7__cxx1112basic_stringIcSt11char_traitsIcESaIcEEESaIS5_EEPKcS5_(%"class.std::vector"* nonnull align 8 dereferenceable(24) %paths, i8* getelementptr inbounds ([8 x i8], [8 x i8]* @.str.14, i64 0, i64 0), %"class.std::__cxx11::basic_string"* %agg.tmp)
          to label %invoke.cont37 unwind label %lpad36

invoke.cont37:                                    ; preds = %invoke.cont35
  call void @_ZNSt7__cxx1112basic_stringIcSt11char_traitsIcESaIcEED2Ev(%"class.std::__cxx11::basic_string"* nonnull dereferenceable(32) %agg.tmp) #9
  call void @_ZNSaIcED2Ev(%"class.std::allocator.0"* nonnull dereferenceable(1) %ref.tmp33) #9
  %13 = bitcast %"class.std::allocator.0"* %ref.tmp33 to i8*
  call void @llvm.lifetime.end.p0i8(i64 1, i8* %13) #9
  %14 = bitcast %"class.std::allocator.0"* %ref.tmp42 to i8*
  call void @llvm.lifetime.start.p0i8(i64 1, i8* %14) #9
  call void @_ZNSaIcEC2Ev(%"class.std::allocator.0"* nonnull dereferenceable(1) %ref.tmp42) #9
  invoke void @_ZNSt7__cxx1112basic_stringIcSt11char_traitsIcESaIcEEC2EPKcRKS3_(%"class.std::__cxx11::basic_string"* nonnull dereferenceable(32) %agg.tmp41, i8* getelementptr inbounds ([6 x i8], [6 x i8]* @.str.17, i64 0, i64 0), %"class.std::allocator.0"* nonnull align 1 dereferenceable(1) %ref.tmp42)
          to label %invoke.cont44 unwind label %lpad43

invoke.cont44:                                    ; preds = %invoke.cont37
  invoke void @_Z8getTestsRSt6vectorINSt7__cxx1112basic_stringIcSt11char_traitsIcESaIcEEESaIS5_EEPKcS5_(%"class.std::vector"* nonnull align 8 dereferenceable(24) %paths, i8* getelementptr inbounds ([10 x i8], [10 x i8]* @.str.16, i64 0, i64 0), %"class.std::__cxx11::basic_string"* %agg.tmp41)
          to label %invoke.cont46 unwind label %lpad45

invoke.cont46:                                    ; preds = %invoke.cont44
  call void @_ZNSt7__cxx1112basic_stringIcSt11char_traitsIcESaIcEED2Ev(%"class.std::__cxx11::basic_string"* nonnull dereferenceable(32) %agg.tmp41) #9
  call void @_ZNSaIcED2Ev(%"class.std::allocator.0"* nonnull dereferenceable(1) %ref.tmp42) #9
  %15 = bitcast %"class.std::allocator.0"* %ref.tmp42 to i8*
  call void @llvm.lifetime.end.p0i8(i64 1, i8* %15) #9
  %16 = bitcast %"class.std::allocator.0"* %ref.tmp51 to i8*
  call void @llvm.lifetime.start.p0i8(i64 1, i8* %16) #9
  call void @_ZNSaIcEC2Ev(%"class.std::allocator.0"* nonnull dereferenceable(1) %ref.tmp51) #9
  invoke void @_ZNSt7__cxx1112basic_stringIcSt11char_traitsIcESaIcEEC2EPKcRKS3_(%"class.std::__cxx11::basic_string"* nonnull dereferenceable(32) %agg.tmp50, i8* getelementptr inbounds ([5 x i8], [5 x i8]* @.str.19, i64 0, i64 0), %"class.std::allocator.0"* nonnull align 1 dereferenceable(1) %ref.tmp51)
          to label %invoke.cont53 unwind label %lpad52

invoke.cont53:                                    ; preds = %invoke.cont46
  invoke void @_Z8getTestsRSt6vectorINSt7__cxx1112basic_stringIcSt11char_traitsIcESaIcEEESaIS5_EEPKcS5_(%"class.std::vector"* nonnull align 8 dereferenceable(24) %paths, i8* getelementptr inbounds ([9 x i8], [9 x i8]* @.str.18, i64 0, i64 0), %"class.std::__cxx11::basic_string"* %agg.tmp50)
          to label %invoke.cont55 unwind label %lpad54

invoke.cont55:                                    ; preds = %invoke.cont53
  call void @_ZNSt7__cxx1112basic_stringIcSt11char_traitsIcESaIcEED2Ev(%"class.std::__cxx11::basic_string"* nonnull dereferenceable(32) %agg.tmp50) #9
  call void @_ZNSaIcED2Ev(%"class.std::allocator.0"* nonnull dereferenceable(1) %ref.tmp51) #9
  %17 = bitcast %"class.std::allocator.0"* %ref.tmp51 to i8*
  call void @llvm.lifetime.end.p0i8(i64 1, i8* %17) #9
  %18 = bitcast %"class.std::vector"** %__range1 to i8*
  call void @llvm.lifetime.start.p0i8(i64 8, i8* %18) #9
  store %"class.std::vector"* %paths, %"class.std::vector"** %__range1, align 8, !tbaa !2
  %19 = bitcast %"class.__gnu_cxx::__normal_iterator"* %__begin1 to i8*
  call void @llvm.lifetime.start.p0i8(i64 8, i8* %19) #9
  %20 = load %"class.std::vector"*, %"class.std::vector"** %__range1, align 8, !tbaa !2
  %call59 = call %"class.std::__cxx11::basic_string"* @_ZNSt6vectorINSt7__cxx1112basic_stringIcSt11char_traitsIcESaIcEEESaIS5_EE5beginEv(%"class.std::vector"* nonnull dereferenceable(24) %20) #9
  %coerce.dive = getelementptr inbounds %"class.__gnu_cxx::__normal_iterator", %"class.__gnu_cxx::__normal_iterator"* %__begin1, i32 0, i32 0
  store %"class.std::__cxx11::basic_string"* %call59, %"class.std::__cxx11::basic_string"** %coerce.dive, align 8
  %21 = bitcast %"class.__gnu_cxx::__normal_iterator"* %__end1 to i8*
  call void @llvm.lifetime.start.p0i8(i64 8, i8* %21) #9
  %22 = load %"class.std::vector"*, %"class.std::vector"** %__range1, align 8, !tbaa !2
  %call60 = call %"class.std::__cxx11::basic_string"* @_ZNSt6vectorINSt7__cxx1112basic_stringIcSt11char_traitsIcESaIcEEESaIS5_EE3endEv(%"class.std::vector"* nonnull dereferenceable(24) %22) #9
  %coerce.dive61 = getelementptr inbounds %"class.__gnu_cxx::__normal_iterator", %"class.__gnu_cxx::__normal_iterator"* %__end1, i32 0, i32 0
  store %"class.std::__cxx11::basic_string"* %call60, %"class.std::__cxx11::basic_string"** %coerce.dive61, align 8
  br label %for.cond

for.cond:                                         ; preds = %for.inc282, %invoke.cont55
  %call62 = call zeroext i1 @_ZN9__gnu_cxxneIPNSt7__cxx1112basic_stringIcSt11char_traitsIcESaIcEEESt6vectorIS6_SaIS6_EEEEbRKNS_17__normal_iteratorIT_T0_EESG_(%"class.__gnu_cxx::__normal_iterator"* nonnull align 8 dereferenceable(8) %__begin1, %"class.__gnu_cxx::__normal_iterator"* nonnull align 8 dereferenceable(8) %__end1) #9
  br i1 %call62, label %for.body, label %for.cond.cleanup

for.cond.cleanup:                                 ; preds = %for.cond
  store i32 2, i32* %cleanup.dest.slot, align 4
  %23 = bitcast %"class.__gnu_cxx::__normal_iterator"* %__end1 to i8*
  call void @llvm.lifetime.end.p0i8(i64 8, i8* %23) #9
  %24 = bitcast %"class.__gnu_cxx::__normal_iterator"* %__begin1 to i8*
  call void @llvm.lifetime.end.p0i8(i64 8, i8* %24) #9
  %25 = bitcast %"class.std::vector"** %__range1 to i8*
  call void @llvm.lifetime.end.p0i8(i64 8, i8* %25) #9
  br label %for.end290

lpad:                                             ; preds = %land.rhs
  %26 = landingpad { i8*, i32 }
          cleanup
  %27 = extractvalue { i8*, i32 } %26, 0
  store i8* %27, i8** %exn.slot, align 8
  %28 = extractvalue { i8*, i32 } %26, 1
  store i32 %28, i32* %ehselector.slot, align 4
  br label %ehcleanup

lpad5:                                            ; preds = %invoke.cont
  %29 = landingpad { i8*, i32 }
          cleanup
  %30 = extractvalue { i8*, i32 } %29, 0
  store i8* %30, i8** %exn.slot, align 8
  %31 = extractvalue { i8*, i32 } %29, 1
  store i32 %31, i32* %ehselector.slot, align 4
  %cleanup.is_active8 = load i1, i1* %cleanup.cond4, align 1
  br i1 %cleanup.is_active8, label %cleanup.action9, label %cleanup.done10

cleanup.action9:                                  ; preds = %lpad5
  call void @_ZNSt7__cxx1112basic_stringIcSt11char_traitsIcESaIcEED2Ev(%"class.std::__cxx11::basic_string"* nonnull dereferenceable(32) %ref.tmp) #9
  br label %cleanup.done10

cleanup.done10:                                   ; preds = %cleanup.action9, %lpad5
  br label %ehcleanup

ehcleanup:                                        ; preds = %cleanup.done10, %lpad
  %cleanup.is_active14 = load i1, i1* %cleanup.cond3, align 1
  br i1 %cleanup.is_active14, label %cleanup.action15, label %cleanup.done16

cleanup.action15:                                 ; preds = %ehcleanup
  call void @_ZNSaIcED2Ev(%"class.std::allocator.0"* nonnull dereferenceable(1) %ref.tmp1) #9
  br label %cleanup.done16

cleanup.done16:                                   ; preds = %cleanup.action15, %ehcleanup
  %cleanup.is_active21 = load i1, i1* %cleanup.cond2, align 1
  br i1 %cleanup.is_active21, label %cleanup.action22, label %cleanup.done23

cleanup.action22:                                 ; preds = %cleanup.done16
  %32 = bitcast %"class.std::allocator.0"* %ref.tmp1 to i8*
  call void @llvm.lifetime.end.p0i8(i64 1, i8* %32) #9
  br label %cleanup.done23

cleanup.done23:                                   ; preds = %cleanup.action22, %cleanup.done16
  %cleanup.is_active28 = load i1, i1* %cleanup.cond, align 1
  br i1 %cleanup.is_active28, label %cleanup.action29, label %cleanup.done30

cleanup.action29:                                 ; preds = %cleanup.done23
  %33 = bitcast %"class.std::__cxx11::basic_string"* %ref.tmp to i8*
  call void @llvm.lifetime.end.p0i8(i64 32, i8* %33) #9
  br label %cleanup.done30

cleanup.done30:                                   ; preds = %cleanup.action29, %cleanup.done23
  br label %ehcleanup294

lpad34:                                           ; preds = %cleanup.done26
  %34 = landingpad { i8*, i32 }
          cleanup
  %35 = extractvalue { i8*, i32 } %34, 0
  store i8* %35, i8** %exn.slot, align 8
  %36 = extractvalue { i8*, i32 } %34, 1
  store i32 %36, i32* %ehselector.slot, align 4
  br label %ehcleanup39

lpad36:                                           ; preds = %invoke.cont35
  %37 = landingpad { i8*, i32 }
          cleanup
  %38 = extractvalue { i8*, i32 } %37, 0
  store i8* %38, i8** %exn.slot, align 8
  %39 = extractvalue { i8*, i32 } %37, 1
  store i32 %39, i32* %ehselector.slot, align 4
  call void @_ZNSt7__cxx1112basic_stringIcSt11char_traitsIcESaIcEED2Ev(%"class.std::__cxx11::basic_string"* nonnull dereferenceable(32) %agg.tmp) #9
  br label %ehcleanup39

ehcleanup39:                                      ; preds = %lpad36, %lpad34
  call void @_ZNSaIcED2Ev(%"class.std::allocator.0"* nonnull dereferenceable(1) %ref.tmp33) #9
  %40 = bitcast %"class.std::allocator.0"* %ref.tmp33 to i8*
  call void @llvm.lifetime.end.p0i8(i64 1, i8* %40) #9
  br label %ehcleanup291

lpad43:                                           ; preds = %invoke.cont37
  %41 = landingpad { i8*, i32 }
          cleanup
  %42 = extractvalue { i8*, i32 } %41, 0
  store i8* %42, i8** %exn.slot, align 8
  %43 = extractvalue { i8*, i32 } %41, 1
  store i32 %43, i32* %ehselector.slot, align 4
  br label %ehcleanup48

lpad45:                                           ; preds = %invoke.cont44
  %44 = landingpad { i8*, i32 }
          cleanup
  %45 = extractvalue { i8*, i32 } %44, 0
  store i8* %45, i8** %exn.slot, align 8
  %46 = extractvalue { i8*, i32 } %44, 1
  store i32 %46, i32* %ehselector.slot, align 4
  call void @_ZNSt7__cxx1112basic_stringIcSt11char_traitsIcESaIcEED2Ev(%"class.std::__cxx11::basic_string"* nonnull dereferenceable(32) %agg.tmp41) #9
  br label %ehcleanup48

ehcleanup48:                                      ; preds = %lpad45, %lpad43
  call void @_ZNSaIcED2Ev(%"class.std::allocator.0"* nonnull dereferenceable(1) %ref.tmp42) #9
  %47 = bitcast %"class.std::allocator.0"* %ref.tmp42 to i8*
  call void @llvm.lifetime.end.p0i8(i64 1, i8* %47) #9
  br label %ehcleanup291

lpad52:                                           ; preds = %invoke.cont46
  %48 = landingpad { i8*, i32 }
          cleanup
  %49 = extractvalue { i8*, i32 } %48, 0
  store i8* %49, i8** %exn.slot, align 8
  %50 = extractvalue { i8*, i32 } %48, 1
  store i32 %50, i32* %ehselector.slot, align 4
  br label %ehcleanup57

lpad54:                                           ; preds = %invoke.cont53
  %51 = landingpad { i8*, i32 }
          cleanup
  %52 = extractvalue { i8*, i32 } %51, 0
  store i8* %52, i8** %exn.slot, align 8
  %53 = extractvalue { i8*, i32 } %51, 1
  store i32 %53, i32* %ehselector.slot, align 4
  call void @_ZNSt7__cxx1112basic_stringIcSt11char_traitsIcESaIcEED2Ev(%"class.std::__cxx11::basic_string"* nonnull dereferenceable(32) %agg.tmp50) #9
  br label %ehcleanup57

ehcleanup57:                                      ; preds = %lpad54, %lpad52
  call void @_ZNSaIcED2Ev(%"class.std::allocator.0"* nonnull dereferenceable(1) %ref.tmp51) #9
  %54 = bitcast %"class.std::allocator.0"* %ref.tmp51 to i8*
  call void @llvm.lifetime.end.p0i8(i64 1, i8* %54) #9
  br label %ehcleanup291

for.body:                                         ; preds = %for.cond
  %55 = bitcast %"class.std::__cxx11::basic_string"* %path to i8*
  call void @llvm.lifetime.start.p0i8(i64 32, i8* %55) #9
  %call63 = call nonnull align 8 dereferenceable(32) %"class.std::__cxx11::basic_string"* @_ZNK9__gnu_cxx17__normal_iteratorIPNSt7__cxx1112basic_stringIcSt11char_traitsIcESaIcEEESt6vectorIS6_SaIS6_EEEdeEv(%"class.__gnu_cxx::__normal_iterator"* nonnull dereferenceable(8) %__begin1) #9
  invoke void @_ZNSt7__cxx1112basic_stringIcSt11char_traitsIcESaIcEEC2ERKS4_(%"class.std::__cxx11::basic_string"* nonnull dereferenceable(32) %path, %"class.std::__cxx11::basic_string"* nonnull align 8 dereferenceable(32) %call63)
          to label %invoke.cont65 unwind label %lpad64

invoke.cont65:                                    ; preds = %for.body
  %call68 = invoke zeroext i1 @_ZSteqIcSt11char_traitsIcESaIcEEbRKNSt7__cxx1112basic_stringIT_T0_T1_EEPKS5_(%"class.std::__cxx11::basic_string"* nonnull align 8 dereferenceable(32) %path, i8* getelementptr inbounds ([22 x i8], [22 x i8]* @.str.20, i64 0, i64 0))
          to label %invoke.cont67 unwind label %lpad66

invoke.cont67:                                    ; preds = %invoke.cont65
  br i1 %call68, label %if.then, label %lor.lhs.false

lor.lhs.false:                                    ; preds = %invoke.cont67
  %call70 = invoke zeroext i1 @_ZSteqIcSt11char_traitsIcESaIcEEbRKNSt7__cxx1112basic_stringIT_T0_T1_EEPKS5_(%"class.std::__cxx11::basic_string"* nonnull align 8 dereferenceable(32) %path, i8* getelementptr inbounds ([22 x i8], [22 x i8]* @.str.21, i64 0, i64 0))
          to label %invoke.cont69 unwind label %lpad66

invoke.cont69:                                    ; preds = %lor.lhs.false
  br i1 %call70, label %if.then, label %lor.lhs.false71

lor.lhs.false71:                                  ; preds = %invoke.cont69
  %call73 = invoke zeroext i1 @_ZSteqIcSt11char_traitsIcESaIcEEbRKNSt7__cxx1112basic_stringIT_T0_T1_EEPKS5_(%"class.std::__cxx11::basic_string"* nonnull align 8 dereferenceable(32) %path, i8* getelementptr inbounds ([21 x i8], [21 x i8]* @.str.22, i64 0, i64 0))
          to label %invoke.cont72 unwind label %lpad66

invoke.cont72:                                    ; preds = %lor.lhs.false71
  br i1 %call73, label %if.then, label %lor.lhs.false74

lor.lhs.false74:                                  ; preds = %invoke.cont72
  %call76 = invoke zeroext i1 @_ZSteqIcSt11char_traitsIcESaIcEEbRKNSt7__cxx1112basic_stringIT_T0_T1_EEPKS5_(%"class.std::__cxx11::basic_string"* nonnull align 8 dereferenceable(32) %path, i8* getelementptr inbounds ([21 x i8], [21 x i8]* @.str.23, i64 0, i64 0))
          to label %invoke.cont75 unwind label %lpad66

invoke.cont75:                                    ; preds = %lor.lhs.false74
  br i1 %call76, label %if.then, label %lor.lhs.false77

lor.lhs.false77:                                  ; preds = %invoke.cont75
  %call79 = invoke zeroext i1 @_ZSteqIcSt11char_traitsIcESaIcEEbRKNSt7__cxx1112basic_stringIT_T0_T1_EEPKS5_(%"class.std::__cxx11::basic_string"* nonnull align 8 dereferenceable(32) %path, i8* getelementptr inbounds ([21 x i8], [21 x i8]* @.str.24, i64 0, i64 0))
          to label %invoke.cont78 unwind label %lpad66

invoke.cont78:                                    ; preds = %lor.lhs.false77
  br i1 %call79, label %if.then, label %if.end

if.then:                                          ; preds = %invoke.cont78, %invoke.cont75, %invoke.cont72, %invoke.cont69, %invoke.cont67
  store i32 3, i32* %cleanup.dest.slot, align 4
  br label %cleanup

lpad64:                                           ; preds = %for.body
  %56 = landingpad { i8*, i32 }
          cleanup
  %57 = extractvalue { i8*, i32 } %56, 0
  store i8* %57, i8** %exn.slot, align 8
  %58 = extractvalue { i8*, i32 } %56, 1
  store i32 %58, i32* %ehselector.slot, align 4
  br label %ehcleanup281

lpad66:                                           ; preds = %if.end, %lor.lhs.false77, %lor.lhs.false74, %lor.lhs.false71, %lor.lhs.false, %invoke.cont65
  %59 = landingpad { i8*, i32 }
          cleanup
  %60 = extractvalue { i8*, i32 } %59, 0
  store i8* %60, i8** %exn.slot, align 8
  %61 = extractvalue { i8*, i32 } %59, 1
  store i32 %61, i32* %ehselector.slot, align 4
  br label %ehcleanup279

if.end:                                           ; preds = %invoke.cont78
  %call80 = call i8* @_ZNKSt7__cxx1112basic_stringIcSt11char_traitsIcESaIcEE5c_strEv(%"class.std::__cxx11::basic_string"* nonnull dereferenceable(32) %path) #9
  %call82 = invoke i32 (i8*, ...) @printf(i8* getelementptr inbounds ([18 x i8], [18 x i8]* @.str.25, i64 0, i64 0), i8* %call80)
          to label %invoke.cont81 unwind label %lpad66

invoke.cont81:                                    ; preds = %if.end
  %62 = bitcast %struct.GMMInput* %input to i8*
  call void @llvm.lifetime.start.p0i8(i64 128, i8* %62) #9
  call void @_ZN8GMMInputC2Ev(%struct.GMMInput* nonnull dereferenceable(128) %input) #9
  %63 = bitcast %"class.std::__cxx11::basic_string"* %ref.tmp83 to i8*
  call void @llvm.lifetime.start.p0i8(i64 32, i8* %63) #9
  invoke void @_ZStplIcSt11char_traitsIcESaIcEENSt7__cxx1112basic_stringIT_T0_T1_EEPKS5_RKS8_(%"class.std::__cxx11::basic_string"* sret(%"class.std::__cxx11::basic_string") align 8 %ref.tmp83, i8* getelementptr inbounds ([6 x i8], [6 x i8]* @.str.26, i64 0, i64 0), %"class.std::__cxx11::basic_string"* nonnull align 8 dereferenceable(32) %path)
          to label %invoke.cont85 unwind label %lpad84

invoke.cont85:                                    ; preds = %invoke.cont81
  %d = getelementptr inbounds %struct.GMMInput, %struct.GMMInput* %input, i32 0, i32 0
  %k = getelementptr inbounds %struct.GMMInput, %struct.GMMInput* %input, i32 0, i32 1
  %n = getelementptr inbounds %struct.GMMInput, %struct.GMMInput* %input, i32 0, i32 2
  %alphas = getelementptr inbounds %struct.GMMInput, %struct.GMMInput* %input, i32 0, i32 3
  %means = getelementptr inbounds %struct.GMMInput, %struct.GMMInput* %input, i32 0, i32 4
  %icf = getelementptr inbounds %struct.GMMInput, %struct.GMMInput* %input, i32 0, i32 5
  %x = getelementptr inbounds %struct.GMMInput, %struct.GMMInput* %input, i32 0, i32 6
  %wishart = getelementptr inbounds %struct.GMMInput, %struct.GMMInput* %input, i32 0, i32 7
  %replicate_point86 = getelementptr inbounds %struct.GMMParameters, %struct.GMMParameters* %params, i32 0, i32 0
  %64 = load i8, i8* %replicate_point86, align 1, !tbaa !34, !range !27
  %tobool87 = trunc i8 %64 to i1
  invoke void @_Z17read_gmm_instanceRKNSt7__cxx1112basic_stringIcSt11char_traitsIcESaIcEEEPiS7_S7_RSt6vectorIdSaIdEESB_SB_SB_R7Wishartb(%"class.std::__cxx11::basic_string"* nonnull align 8 dereferenceable(32) %ref.tmp83, i32* %d, i32* %k, i32* %n, %"class.std::vector.3"* nonnull align 8 dereferenceable(24) %alphas, %"class.std::vector.3"* nonnull align 8 dereferenceable(24) %means, %"class.std::vector.3"* nonnull align 8 dereferenceable(24) %icf, %"class.std::vector.3"* nonnull align 8 dereferenceable(24) %x, %struct.Wishart* nonnull align 8 dereferenceable(16) %wishart, i1 zeroext %tobool87)
          to label %invoke.cont89 unwind label %lpad88

invoke.cont89:                                    ; preds = %invoke.cont85
  call void @_ZNSt7__cxx1112basic_stringIcSt11char_traitsIcESaIcEED2Ev(%"class.std::__cxx11::basic_string"* nonnull dereferenceable(32) %ref.tmp83) #9
  %65 = bitcast %"class.std::__cxx11::basic_string"* %ref.tmp83 to i8*
  call void @llvm.lifetime.end.p0i8(i64 32, i8* %65) #9
  %66 = bitcast i32* %Jcols to i8*
  call void @llvm.lifetime.start.p0i8(i64 4, i8* %66) #9
  %k92 = getelementptr inbounds %struct.GMMInput, %struct.GMMInput* %input, i32 0, i32 1
  %67 = load i32, i32* %k92, align 4, !tbaa !36
  %d93 = getelementptr inbounds %struct.GMMInput, %struct.GMMInput* %input, i32 0, i32 0
  %68 = load i32, i32* %d93, align 8, !tbaa !41
  %add = add nsw i32 %68, 1
  %mul = mul nsw i32 %67, %add
  %d94 = getelementptr inbounds %struct.GMMInput, %struct.GMMInput* %input, i32 0, i32 0
  %69 = load i32, i32* %d94, align 8, !tbaa !41
  %add95 = add nsw i32 %69, 2
  %mul96 = mul nsw i32 %mul, %add95
  %div = sdiv i32 %mul96, 2
  store i32 %div, i32* %Jcols, align 4, !tbaa !20
  %70 = bitcast %struct.GMMOutput* %result to i8*
  call void @llvm.lifetime.start.p0i8(i64 32, i8* %70) #9
  %objective = getelementptr inbounds %struct.GMMOutput, %struct.GMMOutput* %result, i32 0, i32 0
  store double 0.000000e+00, double* %objective, align 8, !tbaa !42
  %gradient = getelementptr inbounds %struct.GMMOutput, %struct.GMMOutput* %result, i32 0, i32 1
  %71 = load i32, i32* %Jcols, align 4, !tbaa !20
  %conv = sext i32 %71 to i64
  %72 = bitcast %"class.std::allocator.5"* %ref.tmp97 to i8*
  call void @llvm.lifetime.start.p0i8(i64 1, i8* %72) #9
  call void @_ZNSaIdEC2Ev(%"class.std::allocator.5"* nonnull dereferenceable(1) %ref.tmp97) #9
  invoke void @_ZNSt6vectorIdSaIdEEC2EmRKS0_(%"class.std::vector.3"* nonnull dereferenceable(24) %gradient, i64 %conv, %"class.std::allocator.5"* nonnull align 1 dereferenceable(1) %ref.tmp97)
          to label %invoke.cont99 unwind label %lpad98

invoke.cont99:                                    ; preds = %invoke.cont89
  call void bitcast (void (%"class.__gnu_cxx::new_allocator.6"*)* @_ZN9__gnu_cxx13new_allocatorIdED2Ev to void (%"class.std::allocator.5"*)*)(%"class.std::allocator.5"* nonnull dereferenceable(1) %ref.tmp97) #9
  %73 = bitcast %"class.std::allocator.5"* %ref.tmp97 to i8*
  call void @llvm.lifetime.end.p0i8(i64 1, i8* %73) #9
  %74 = bitcast %struct.timeval* %start to i8*
  call void @llvm.lifetime.start.p0i8(i64 16, i8* %74) #9
  %75 = bitcast %struct.timeval* %end to i8*
  call void @llvm.lifetime.start.p0i8(i64 16, i8* %75) #9
  %call102 = call i32 @gettimeofday(%struct.timeval* %start, i8* null) #9
  invoke void @_Z18calculate_jacobianIXadL_Z15gmm_objective_bEEEvR8GMMInputR9GMMOutput(%struct.GMMInput* nonnull align 8 dereferenceable(128) %input, %struct.GMMOutput* nonnull align 8 dereferenceable(32) %result)
          to label %invoke.cont104 unwind label %lpad103

invoke.cont104:                                   ; preds = %invoke.cont99
  %call105 = call i32 @gettimeofday(%struct.timeval* %end, i8* null) #9
  %call106 = call fast float @_Z5tdiffP7timevalS0_(%struct.timeval* %start, %struct.timeval* %end)
  %conv107 = fpext float %call106 to double
  %call109 = invoke i32 (i8*, ...) @printf(i8* getelementptr inbounds ([25 x i8], [25 x i8]* @.str.27, i64 0, i64 0), double %conv107)
          to label %invoke.cont108 unwind label %lpad103

invoke.cont108:                                   ; preds = %invoke.cont104
  %76 = bitcast i32* %i to i8*
  call void @llvm.lifetime.start.p0i8(i64 4, i8* %76) #9
  store i32 0, i32* %i, align 4, !tbaa !20
  br label %for.cond110

for.cond110:                                      ; preds = %for.inc, %invoke.cont108
  %77 = load i32, i32* %i, align 4, !tbaa !20
  %cmp111 = icmp ult i32 %77, 5
  br i1 %cmp111, label %for.body113, label %for.cond.cleanup112

for.cond.cleanup112:                              ; preds = %for.cond110
  store i32 4, i32* %cleanup.dest.slot, align 4
  %78 = bitcast i32* %i to i8*
  call void @llvm.lifetime.end.p0i8(i64 4, i8* %78) #9
  br label %for.end

lpad84:                                           ; preds = %invoke.cont81
  %79 = landingpad { i8*, i32 }
          cleanup
  %80 = extractvalue { i8*, i32 } %79, 0
  store i8* %80, i8** %exn.slot, align 8
  %81 = extractvalue { i8*, i32 } %79, 1
  store i32 %81, i32* %ehselector.slot, align 4
  br label %ehcleanup91

lpad88:                                           ; preds = %invoke.cont85
  %82 = landingpad { i8*, i32 }
          cleanup
  %83 = extractvalue { i8*, i32 } %82, 0
  store i8* %83, i8** %exn.slot, align 8
  %84 = extractvalue { i8*, i32 } %82, 1
  store i32 %84, i32* %ehselector.slot, align 4
  call void @_ZNSt7__cxx1112basic_stringIcSt11char_traitsIcESaIcEED2Ev(%"class.std::__cxx11::basic_string"* nonnull dereferenceable(32) %ref.tmp83) #9
  br label %ehcleanup91

ehcleanup91:                                      ; preds = %lpad88, %lpad84
  %85 = bitcast %"class.std::__cxx11::basic_string"* %ref.tmp83 to i8*
  call void @llvm.lifetime.end.p0i8(i64 32, i8* %85) #9
  br label %ehcleanup128

lpad98:                                           ; preds = %invoke.cont89
  %86 = landingpad { i8*, i32 }
          cleanup
  %87 = extractvalue { i8*, i32 } %86, 0
  store i8* %87, i8** %exn.slot, align 8
  %88 = extractvalue { i8*, i32 } %86, 1
  store i32 %88, i32* %ehselector.slot, align 4
  call void bitcast (void (%"class.__gnu_cxx::new_allocator.6"*)* @_ZN9__gnu_cxx13new_allocatorIdED2Ev to void (%"class.std::allocator.5"*)*)(%"class.std::allocator.5"* nonnull dereferenceable(1) %ref.tmp97) #9
  %89 = bitcast %"class.std::allocator.5"* %ref.tmp97 to i8*
  call void @llvm.lifetime.end.p0i8(i64 1, i8* %89) #9
  br label %ehcleanup126

lpad103:                                          ; preds = %for.end, %invoke.cont104, %invoke.cont99
  %90 = landingpad { i8*, i32 }
          cleanup
  %91 = extractvalue { i8*, i32 } %90, 0
  store i8* %91, i8** %exn.slot, align 8
  %92 = extractvalue { i8*, i32 } %90, 1
  store i32 %92, i32* %ehselector.slot, align 4
  br label %ehcleanup123

for.body113:                                      ; preds = %for.cond110
  %gradient114 = getelementptr inbounds %struct.GMMOutput, %struct.GMMOutput* %result, i32 0, i32 1
  %93 = load i32, i32* %i, align 4, !tbaa !20
  %conv115 = zext i32 %93 to i64
  %call116 = call nonnull align 8 dereferenceable(8) double* @_ZNSt6vectorIdSaIdEEixEm(%"class.std::vector.3"* nonnull dereferenceable(24) %gradient114, i64 %conv115) #9
  %94 = load double, double* %call116, align 8, !tbaa !44
  %call119 = invoke i32 (i8*, ...) @printf(i8* getelementptr inbounds ([4 x i8], [4 x i8]* @.str.28, i64 0, i64 0), double %94)
          to label %invoke.cont118 unwind label %lpad117

invoke.cont118:                                   ; preds = %for.body113
  br label %for.inc

for.inc:                                          ; preds = %invoke.cont118
  %95 = load i32, i32* %i, align 4, !tbaa !20
  %inc = add i32 %95, 1
  store i32 %inc, i32* %i, align 4, !tbaa !20
  br label %for.cond110, !llvm.loop !45

lpad117:                                          ; preds = %for.body113
  %96 = landingpad { i8*, i32 }
          cleanup
  %97 = extractvalue { i8*, i32 } %96, 0
  store i8* %97, i8** %exn.slot, align 8
  %98 = extractvalue { i8*, i32 } %96, 1
  store i32 %98, i32* %ehselector.slot, align 4
  %99 = bitcast i32* %i to i8*
  call void @llvm.lifetime.end.p0i8(i64 4, i8* %99) #9
  br label %ehcleanup123

for.end:                                          ; preds = %for.cond.cleanup112
  %call122 = invoke i32 (i8*, ...) @printf(i8* getelementptr inbounds ([2 x i8], [2 x i8]* @.str.29, i64 0, i64 0))
          to label %invoke.cont121 unwind label %lpad103

invoke.cont121:                                   ; preds = %for.end
  %100 = bitcast %struct.timeval* %end to i8*
  call void @llvm.lifetime.end.p0i8(i64 16, i8* %100) #9
  %101 = bitcast %struct.timeval* %start to i8*
  call void @llvm.lifetime.end.p0i8(i64 16, i8* %101) #9
  call void @_ZN9GMMOutputD2Ev(%struct.GMMOutput* nonnull dereferenceable(32) %result) #9
  %102 = bitcast %struct.GMMOutput* %result to i8*
  call void @llvm.lifetime.end.p0i8(i64 32, i8* %102) #9
  %103 = bitcast i32* %Jcols to i8*
  call void @llvm.lifetime.end.p0i8(i64 4, i8* %103) #9
  call void @_ZN8GMMInputD2Ev(%struct.GMMInput* nonnull dereferenceable(128) %input) #9
  %104 = bitcast %struct.GMMInput* %input to i8*
  call void @llvm.lifetime.end.p0i8(i64 128, i8* %104) #9
  %105 = bitcast %struct.GMMInput* %input130 to i8*
  call void @llvm.lifetime.start.p0i8(i64 128, i8* %105) #9
  call void @_ZN8GMMInputC2Ev(%struct.GMMInput* nonnull dereferenceable(128) %input130) #9
  %106 = bitcast %"class.std::__cxx11::basic_string"* %ref.tmp131 to i8*
  call void @llvm.lifetime.start.p0i8(i64 32, i8* %106) #9
  invoke void @_ZStplIcSt11char_traitsIcESaIcEENSt7__cxx1112basic_stringIT_T0_T1_EEPKS5_RKS8_(%"class.std::__cxx11::basic_string"* sret(%"class.std::__cxx11::basic_string") align 8 %ref.tmp131, i8* getelementptr inbounds ([6 x i8], [6 x i8]* @.str.26, i64 0, i64 0), %"class.std::__cxx11::basic_string"* nonnull align 8 dereferenceable(32) %path)
          to label %invoke.cont133 unwind label %lpad132

invoke.cont133:                                   ; preds = %invoke.cont121
  %d134 = getelementptr inbounds %struct.GMMInput, %struct.GMMInput* %input130, i32 0, i32 0
  %k135 = getelementptr inbounds %struct.GMMInput, %struct.GMMInput* %input130, i32 0, i32 1
  %n136 = getelementptr inbounds %struct.GMMInput, %struct.GMMInput* %input130, i32 0, i32 2
  %alphas137 = getelementptr inbounds %struct.GMMInput, %struct.GMMInput* %input130, i32 0, i32 3
  %means138 = getelementptr inbounds %struct.GMMInput, %struct.GMMInput* %input130, i32 0, i32 4
  %icf139 = getelementptr inbounds %struct.GMMInput, %struct.GMMInput* %input130, i32 0, i32 5
  %x140 = getelementptr inbounds %struct.GMMInput, %struct.GMMInput* %input130, i32 0, i32 6
  %wishart141 = getelementptr inbounds %struct.GMMInput, %struct.GMMInput* %input130, i32 0, i32 7
  %replicate_point142 = getelementptr inbounds %struct.GMMParameters, %struct.GMMParameters* %params, i32 0, i32 0
  %107 = load i8, i8* %replicate_point142, align 1, !tbaa !34, !range !27
  %tobool143 = trunc i8 %107 to i1
  invoke void @_Z17read_gmm_instanceRKNSt7__cxx1112basic_stringIcSt11char_traitsIcESaIcEEEPiS7_S7_RSt6vectorIdSaIdEESB_SB_SB_R7Wishartb(%"class.std::__cxx11::basic_string"* nonnull align 8 dereferenceable(32) %ref.tmp131, i32* %d134, i32* %k135, i32* %n136, %"class.std::vector.3"* nonnull align 8 dereferenceable(24) %alphas137, %"class.std::vector.3"* nonnull align 8 dereferenceable(24) %means138, %"class.std::vector.3"* nonnull align 8 dereferenceable(24) %icf139, %"class.std::vector.3"* nonnull align 8 dereferenceable(24) %x140, %struct.Wishart* nonnull align 8 dereferenceable(16) %wishart141, i1 zeroext %tobool143)
          to label %invoke.cont145 unwind label %lpad144

invoke.cont145:                                   ; preds = %invoke.cont133
  call void @_ZNSt7__cxx1112basic_stringIcSt11char_traitsIcESaIcEED2Ev(%"class.std::__cxx11::basic_string"* nonnull dereferenceable(32) %ref.tmp131) #9
  %108 = bitcast %"class.std::__cxx11::basic_string"* %ref.tmp131 to i8*
  call void @llvm.lifetime.end.p0i8(i64 32, i8* %108) #9
  %109 = bitcast i32* %Jcols148 to i8*
  call void @llvm.lifetime.start.p0i8(i64 4, i8* %109) #9
  %k149 = getelementptr inbounds %struct.GMMInput, %struct.GMMInput* %input130, i32 0, i32 1
  %110 = load i32, i32* %k149, align 4, !tbaa !36
  %d150 = getelementptr inbounds %struct.GMMInput, %struct.GMMInput* %input130, i32 0, i32 0
  %111 = load i32, i32* %d150, align 8, !tbaa !41
  %add151 = add nsw i32 %111, 1
  %mul152 = mul nsw i32 %110, %add151
  %d153 = getelementptr inbounds %struct.GMMInput, %struct.GMMInput* %input130, i32 0, i32 0
  %112 = load i32, i32* %d153, align 8, !tbaa !41
  %add154 = add nsw i32 %112, 2
  %mul155 = mul nsw i32 %mul152, %add154
  %div156 = sdiv i32 %mul155, 2
  store i32 %div156, i32* %Jcols148, align 4, !tbaa !20
  %113 = bitcast %struct.GMMOutput* %result157 to i8*
  call void @llvm.lifetime.start.p0i8(i64 32, i8* %113) #9
  %objective158 = getelementptr inbounds %struct.GMMOutput, %struct.GMMOutput* %result157, i32 0, i32 0
  store double 0.000000e+00, double* %objective158, align 8, !tbaa !42
  %gradient159 = getelementptr inbounds %struct.GMMOutput, %struct.GMMOutput* %result157, i32 0, i32 1
  %114 = load i32, i32* %Jcols148, align 4, !tbaa !20
  %conv160 = sext i32 %114 to i64
  %115 = bitcast %"class.std::allocator.5"* %ref.tmp161 to i8*
  call void @llvm.lifetime.start.p0i8(i64 1, i8* %115) #9
  call void @_ZNSaIdEC2Ev(%"class.std::allocator.5"* nonnull dereferenceable(1) %ref.tmp161) #9
  invoke void @_ZNSt6vectorIdSaIdEEC2EmRKS0_(%"class.std::vector.3"* nonnull dereferenceable(24) %gradient159, i64 %conv160, %"class.std::allocator.5"* nonnull align 1 dereferenceable(1) %ref.tmp161)
          to label %invoke.cont163 unwind label %lpad162

invoke.cont163:                                   ; preds = %invoke.cont145
  call void bitcast (void (%"class.__gnu_cxx::new_allocator.6"*)* @_ZN9__gnu_cxx13new_allocatorIdED2Ev to void (%"class.std::allocator.5"*)*)(%"class.std::allocator.5"* nonnull dereferenceable(1) %ref.tmp161) #9
  %116 = bitcast %"class.std::allocator.5"* %ref.tmp161 to i8*
  call void @llvm.lifetime.end.p0i8(i64 1, i8* %116) #9
  %117 = bitcast %struct.timeval* %start166 to i8*
  call void @llvm.lifetime.start.p0i8(i64 16, i8* %117) #9
  %118 = bitcast %struct.timeval* %end167 to i8*
  call void @llvm.lifetime.start.p0i8(i64 16, i8* %118) #9
  %call168 = call i32 @gettimeofday(%struct.timeval* %start166, i8* null) #9
  invoke void @_Z18calculate_jacobianIXadL_Z20adept_dgmm_objectiveEEEvR8GMMInputR9GMMOutput(%struct.GMMInput* nonnull align 8 dereferenceable(128) %input130, %struct.GMMOutput* nonnull align 8 dereferenceable(32) %result157)
          to label %invoke.cont170 unwind label %lpad169

invoke.cont170:                                   ; preds = %invoke.cont163
  %call171 = call i32 @gettimeofday(%struct.timeval* %end167, i8* null) #9
  %call172 = call fast float @_Z5tdiffP7timevalS0_(%struct.timeval* %start166, %struct.timeval* %end167)
  %conv173 = fpext float %call172 to double
  %call175 = invoke i32 (i8*, ...) @printf(i8* getelementptr inbounds ([22 x i8], [22 x i8]* @.str.30, i64 0, i64 0), double %conv173)
          to label %invoke.cont174 unwind label %lpad169

invoke.cont174:                                   ; preds = %invoke.cont170
  %119 = bitcast i32* %i176 to i8*
  call void @llvm.lifetime.start.p0i8(i64 4, i8* %119) #9
  store i32 0, i32* %i176, align 4, !tbaa !20
  br label %for.cond177

for.cond177:                                      ; preds = %for.inc187, %invoke.cont174
  %120 = load i32, i32* %i176, align 4, !tbaa !20
  %cmp178 = icmp ult i32 %120, 5
  br i1 %cmp178, label %for.body180, label %for.cond.cleanup179

for.cond.cleanup179:                              ; preds = %for.cond177
  store i32 7, i32* %cleanup.dest.slot, align 4
  %121 = bitcast i32* %i176 to i8*
  call void @llvm.lifetime.end.p0i8(i64 4, i8* %121) #9
  br label %for.end190

ehcleanup123:                                     ; preds = %lpad117, %lpad103
  %122 = bitcast %struct.timeval* %end to i8*
  call void @llvm.lifetime.end.p0i8(i64 16, i8* %122) #9
  %123 = bitcast %struct.timeval* %start to i8*
  call void @llvm.lifetime.end.p0i8(i64 16, i8* %123) #9
  call void @_ZN9GMMOutputD2Ev(%struct.GMMOutput* nonnull dereferenceable(32) %result) #9
  br label %ehcleanup126

ehcleanup126:                                     ; preds = %ehcleanup123, %lpad98
  %124 = bitcast %struct.GMMOutput* %result to i8*
  call void @llvm.lifetime.end.p0i8(i64 32, i8* %124) #9
  %125 = bitcast i32* %Jcols to i8*
  call void @llvm.lifetime.end.p0i8(i64 4, i8* %125) #9
  br label %ehcleanup128

ehcleanup128:                                     ; preds = %ehcleanup126, %ehcleanup91
  call void @_ZN8GMMInputD2Ev(%struct.GMMInput* nonnull dereferenceable(128) %input) #9
  %126 = bitcast %struct.GMMInput* %input to i8*
  call void @llvm.lifetime.end.p0i8(i64 128, i8* %126) #9
  br label %ehcleanup279

lpad132:                                          ; preds = %invoke.cont121
  %127 = landingpad { i8*, i32 }
          cleanup
  %128 = extractvalue { i8*, i32 } %127, 0
  store i8* %128, i8** %exn.slot, align 8
  %129 = extractvalue { i8*, i32 } %127, 1
  store i32 %129, i32* %ehselector.slot, align 4
  br label %ehcleanup147

lpad144:                                          ; preds = %invoke.cont133
  %130 = landingpad { i8*, i32 }
          cleanup
  %131 = extractvalue { i8*, i32 } %130, 0
  store i8* %131, i8** %exn.slot, align 8
  %132 = extractvalue { i8*, i32 } %130, 1
  store i32 %132, i32* %ehselector.slot, align 4
  call void @_ZNSt7__cxx1112basic_stringIcSt11char_traitsIcESaIcEED2Ev(%"class.std::__cxx11::basic_string"* nonnull dereferenceable(32) %ref.tmp131) #9
  br label %ehcleanup147

ehcleanup147:                                     ; preds = %lpad144, %lpad132
  %133 = bitcast %"class.std::__cxx11::basic_string"* %ref.tmp131 to i8*
  call void @llvm.lifetime.end.p0i8(i64 32, i8* %133) #9
  br label %ehcleanup207

lpad162:                                          ; preds = %invoke.cont145
  %134 = landingpad { i8*, i32 }
          cleanup
  %135 = extractvalue { i8*, i32 } %134, 0
  store i8* %135, i8** %exn.slot, align 8
  %136 = extractvalue { i8*, i32 } %134, 1
  store i32 %136, i32* %ehselector.slot, align 4
  call void bitcast (void (%"class.__gnu_cxx::new_allocator.6"*)* @_ZN9__gnu_cxx13new_allocatorIdED2Ev to void (%"class.std::allocator.5"*)*)(%"class.std::allocator.5"* nonnull dereferenceable(1) %ref.tmp161) #9
  %137 = bitcast %"class.std::allocator.5"* %ref.tmp161 to i8*
  call void @llvm.lifetime.end.p0i8(i64 1, i8* %137) #9
  br label %ehcleanup205

lpad169:                                          ; preds = %for.end190, %invoke.cont170, %invoke.cont163
  %138 = landingpad { i8*, i32 }
          cleanup
          catch i8* bitcast (i8** @_ZTISt9bad_alloc to i8*)
  %139 = extractvalue { i8*, i32 } %138, 0
  store i8* %139, i8** %exn.slot, align 8
  %140 = extractvalue { i8*, i32 } %138, 1
  store i32 %140, i32* %ehselector.slot, align 4
  br label %ehcleanup193

for.body180:                                      ; preds = %for.cond177
  %gradient181 = getelementptr inbounds %struct.GMMOutput, %struct.GMMOutput* %result157, i32 0, i32 1
  %141 = load i32, i32* %i176, align 4, !tbaa !20
  %conv182 = zext i32 %141 to i64
  %call183 = call nonnull align 8 dereferenceable(8) double* @_ZNSt6vectorIdSaIdEEixEm(%"class.std::vector.3"* nonnull dereferenceable(24) %gradient181, i64 %conv182) #9
  %142 = load double, double* %call183, align 8, !tbaa !44
  %call186 = invoke i32 (i8*, ...) @printf(i8* getelementptr inbounds ([4 x i8], [4 x i8]* @.str.28, i64 0, i64 0), double %142)
          to label %invoke.cont185 unwind label %lpad184

invoke.cont185:                                   ; preds = %for.body180
  br label %for.inc187

for.inc187:                                       ; preds = %invoke.cont185
  %143 = load i32, i32* %i176, align 4, !tbaa !20
  %inc188 = add i32 %143, 1
  store i32 %inc188, i32* %i176, align 4, !tbaa !20
  br label %for.cond177, !llvm.loop !46

lpad184:                                          ; preds = %for.body180
  %144 = landingpad { i8*, i32 }
          cleanup
          catch i8* bitcast (i8** @_ZTISt9bad_alloc to i8*)
  %145 = extractvalue { i8*, i32 } %144, 0
  store i8* %145, i8** %exn.slot, align 8
  %146 = extractvalue { i8*, i32 } %144, 1
  store i32 %146, i32* %ehselector.slot, align 4
  %147 = bitcast i32* %i176 to i8*
  call void @llvm.lifetime.end.p0i8(i64 4, i8* %147) #9
  br label %ehcleanup193

for.end190:                                       ; preds = %for.cond.cleanup179
  %call192 = invoke i32 (i8*, ...) @printf(i8* getelementptr inbounds ([2 x i8], [2 x i8]* @.str.29, i64 0, i64 0))
          to label %invoke.cont191 unwind label %lpad169

invoke.cont191:                                   ; preds = %for.end190
  %148 = bitcast %struct.timeval* %end167 to i8*
  call void @llvm.lifetime.end.p0i8(i64 16, i8* %148) #9
  %149 = bitcast %struct.timeval* %start166 to i8*
  call void @llvm.lifetime.end.p0i8(i64 16, i8* %149) #9
  br label %try.cont

ehcleanup193:                                     ; preds = %lpad184, %lpad169
  %150 = bitcast %struct.timeval* %end167 to i8*
  call void @llvm.lifetime.end.p0i8(i64 16, i8* %150) #9
  %151 = bitcast %struct.timeval* %start166 to i8*
  call void @llvm.lifetime.end.p0i8(i64 16, i8* %151) #9
  br label %catch.dispatch

catch.dispatch:                                   ; preds = %ehcleanup193
  %sel = load i32, i32* %ehselector.slot, align 4
  %152 = call i32 @llvm.eh.typeid.for(i8* bitcast (i8** @_ZTISt9bad_alloc to i8*)) #9
  %matches = icmp eq i32 %sel, %152
  br i1 %matches, label %catch, label %ehcleanup204

catch:                                            ; preds = %catch.dispatch
  %153 = bitcast %"class.std::bad_alloc"* %0 to i8*
  call void @llvm.lifetime.start.p0i8(i64 8, i8* %153) #9
  %exn = load i8*, i8** %exn.slot, align 8
  %154 = call i8* @__cxa_get_exception_ptr(i8* %exn) #9
  %155 = bitcast i8* %154 to %"class.std::bad_alloc"*
  call void @_ZNSt9bad_allocC2ERKS_(%"class.std::bad_alloc"* nonnull dereferenceable(8) %0, %"class.std::bad_alloc"* nonnull align 8 dereferenceable(8) %155) #9
  %156 = call i8* @__cxa_begin_catch(i8* %exn) #9
  %call197 = invoke i32 (i8*, ...) @printf(i8* getelementptr inbounds ([30 x i8], [30 x i8]* @.str.31, i64 0, i64 0))
          to label %invoke.cont196 unwind label %lpad195

invoke.cont196:                                   ; preds = %catch
  call void @_ZNSt9bad_allocD1Ev(%"class.std::bad_alloc"* nonnull dereferenceable(8) %0) #9
  invoke void @__cxa_end_catch()
          to label %invoke.cont200 unwind label %lpad199

invoke.cont200:                                   ; preds = %invoke.cont196
  %157 = bitcast %"class.std::bad_alloc"* %0 to i8*
  call void @llvm.lifetime.end.p0i8(i64 8, i8* %157) #9
  br label %try.cont

try.cont:                                         ; preds = %invoke.cont200, %invoke.cont191
  call void @_ZN9GMMOutputD2Ev(%struct.GMMOutput* nonnull dereferenceable(32) %result157) #9
  %158 = bitcast %struct.GMMOutput* %result157 to i8*
  call void @llvm.lifetime.end.p0i8(i64 32, i8* %158) #9
  %159 = bitcast i32* %Jcols148 to i8*
  call void @llvm.lifetime.end.p0i8(i64 4, i8* %159) #9
  call void @_ZN8GMMInputD2Ev(%struct.GMMInput* nonnull dereferenceable(128) %input130) #9
  %160 = bitcast %struct.GMMInput* %input130 to i8*
  call void @llvm.lifetime.end.p0i8(i64 128, i8* %160) #9
  %161 = bitcast %struct.GMMInput* %input209 to i8*
  call void @llvm.lifetime.start.p0i8(i64 128, i8* %161) #9
  call void @_ZN8GMMInputC2Ev(%struct.GMMInput* nonnull dereferenceable(128) %input209) #9
  %162 = bitcast %"class.std::__cxx11::basic_string"* %ref.tmp210 to i8*
  call void @llvm.lifetime.start.p0i8(i64 32, i8* %162) #9
  invoke void @_ZStplIcSt11char_traitsIcESaIcEENSt7__cxx1112basic_stringIT_T0_T1_EEPKS5_RKS8_(%"class.std::__cxx11::basic_string"* sret(%"class.std::__cxx11::basic_string") align 8 %ref.tmp210, i8* getelementptr inbounds ([6 x i8], [6 x i8]* @.str.26, i64 0, i64 0), %"class.std::__cxx11::basic_string"* nonnull align 8 dereferenceable(32) %path)
          to label %invoke.cont212 unwind label %lpad211

invoke.cont212:                                   ; preds = %try.cont
  %d213 = getelementptr inbounds %struct.GMMInput, %struct.GMMInput* %input209, i32 0, i32 0
  %k214 = getelementptr inbounds %struct.GMMInput, %struct.GMMInput* %input209, i32 0, i32 1
  %n215 = getelementptr inbounds %struct.GMMInput, %struct.GMMInput* %input209, i32 0, i32 2
  %alphas216 = getelementptr inbounds %struct.GMMInput, %struct.GMMInput* %input209, i32 0, i32 3
  %means217 = getelementptr inbounds %struct.GMMInput, %struct.GMMInput* %input209, i32 0, i32 4
  %icf218 = getelementptr inbounds %struct.GMMInput, %struct.GMMInput* %input209, i32 0, i32 5
  %x219 = getelementptr inbounds %struct.GMMInput, %struct.GMMInput* %input209, i32 0, i32 6
  %wishart220 = getelementptr inbounds %struct.GMMInput, %struct.GMMInput* %input209, i32 0, i32 7
  %replicate_point221 = getelementptr inbounds %struct.GMMParameters, %struct.GMMParameters* %params, i32 0, i32 0
  %163 = load i8, i8* %replicate_point221, align 1, !tbaa !34, !range !27
  %tobool222 = trunc i8 %163 to i1
  invoke void @_Z17read_gmm_instanceRKNSt7__cxx1112basic_stringIcSt11char_traitsIcESaIcEEEPiS7_S7_RSt6vectorIdSaIdEESB_SB_SB_R7Wishartb(%"class.std::__cxx11::basic_string"* nonnull align 8 dereferenceable(32) %ref.tmp210, i32* %d213, i32* %k214, i32* %n215, %"class.std::vector.3"* nonnull align 8 dereferenceable(24) %alphas216, %"class.std::vector.3"* nonnull align 8 dereferenceable(24) %means217, %"class.std::vector.3"* nonnull align 8 dereferenceable(24) %icf218, %"class.std::vector.3"* nonnull align 8 dereferenceable(24) %x219, %struct.Wishart* nonnull align 8 dereferenceable(16) %wishart220, i1 zeroext %tobool222)
          to label %invoke.cont224 unwind label %lpad223

invoke.cont224:                                   ; preds = %invoke.cont212
  call void @_ZNSt7__cxx1112basic_stringIcSt11char_traitsIcESaIcEED2Ev(%"class.std::__cxx11::basic_string"* nonnull dereferenceable(32) %ref.tmp210) #9
  %164 = bitcast %"class.std::__cxx11::basic_string"* %ref.tmp210 to i8*
  call void @llvm.lifetime.end.p0i8(i64 32, i8* %164) #9
  %165 = bitcast i32* %Jcols227 to i8*
  call void @llvm.lifetime.start.p0i8(i64 4, i8* %165) #9
  %k228 = getelementptr inbounds %struct.GMMInput, %struct.GMMInput* %input209, i32 0, i32 1
  %166 = load i32, i32* %k228, align 4, !tbaa !36
  %d229 = getelementptr inbounds %struct.GMMInput, %struct.GMMInput* %input209, i32 0, i32 0
  %167 = load i32, i32* %d229, align 8, !tbaa !41
  %add230 = add nsw i32 %167, 1
  %mul231 = mul nsw i32 %166, %add230
  %d232 = getelementptr inbounds %struct.GMMInput, %struct.GMMInput* %input209, i32 0, i32 0
  %168 = load i32, i32* %d232, align 8, !tbaa !41
  %add233 = add nsw i32 %168, 2
  %mul234 = mul nsw i32 %mul231, %add233
  %div235 = sdiv i32 %mul234, 2
  store i32 %div235, i32* %Jcols227, align 4, !tbaa !20
  %169 = bitcast %struct.GMMOutput* %result236 to i8*
  call void @llvm.lifetime.start.p0i8(i64 32, i8* %169) #9
  %objective237 = getelementptr inbounds %struct.GMMOutput, %struct.GMMOutput* %result236, i32 0, i32 0
  store double 0.000000e+00, double* %objective237, align 8, !tbaa !42
  %gradient238 = getelementptr inbounds %struct.GMMOutput, %struct.GMMOutput* %result236, i32 0, i32 1
  %170 = load i32, i32* %Jcols227, align 4, !tbaa !20
  %conv239 = sext i32 %170 to i64
  %171 = bitcast %"class.std::allocator.5"* %ref.tmp240 to i8*
  call void @llvm.lifetime.start.p0i8(i64 1, i8* %171) #9
  call void @_ZNSaIdEC2Ev(%"class.std::allocator.5"* nonnull dereferenceable(1) %ref.tmp240) #9
  invoke void @_ZNSt6vectorIdSaIdEEC2EmRKS0_(%"class.std::vector.3"* nonnull dereferenceable(24) %gradient238, i64 %conv239, %"class.std::allocator.5"* nonnull align 1 dereferenceable(1) %ref.tmp240)
          to label %invoke.cont242 unwind label %lpad241

invoke.cont242:                                   ; preds = %invoke.cont224
  call void bitcast (void (%"class.__gnu_cxx::new_allocator.6"*)* @_ZN9__gnu_cxx13new_allocatorIdED2Ev to void (%"class.std::allocator.5"*)*)(%"class.std::allocator.5"* nonnull dereferenceable(1) %ref.tmp240) #9
  %172 = bitcast %"class.std::allocator.5"* %ref.tmp240 to i8*
  call void @llvm.lifetime.end.p0i8(i64 1, i8* %172) #9
  %173 = bitcast %struct.timeval* %start245 to i8*
  call void @llvm.lifetime.start.p0i8(i64 16, i8* %173) #9
  %174 = bitcast %struct.timeval* %end246 to i8*
  call void @llvm.lifetime.start.p0i8(i64 16, i8* %174) #9
  %call247 = call i32 @gettimeofday(%struct.timeval* %start245, i8* null) #9
  invoke void @_Z18calculate_jacobianIXadL_Z14dgmm_objectiveEEEvR8GMMInputR9GMMOutput(%struct.GMMInput* nonnull align 8 dereferenceable(128) %input209, %struct.GMMOutput* nonnull align 8 dereferenceable(32) %result236)
          to label %invoke.cont249 unwind label %lpad248

invoke.cont249:                                   ; preds = %invoke.cont242
  %call250 = call i32 @gettimeofday(%struct.timeval* %end246, i8* null) #9
  %call251 = call fast float @_Z5tdiffP7timevalS0_(%struct.timeval* %start245, %struct.timeval* %end246)
  %conv252 = fpext float %call251 to double
  %call254 = invoke i32 (i8*, ...) @printf(i8* getelementptr inbounds ([23 x i8], [23 x i8]* @.str.32, i64 0, i64 0), double %conv252)
          to label %invoke.cont253 unwind label %lpad248

invoke.cont253:                                   ; preds = %invoke.cont249
  %175 = bitcast i32* %i255 to i8*
  call void @llvm.lifetime.start.p0i8(i64 4, i8* %175) #9
  store i32 0, i32* %i255, align 4, !tbaa !20
  br label %for.cond256

for.cond256:                                      ; preds = %for.inc266, %invoke.cont253
  %176 = load i32, i32* %i255, align 4, !tbaa !20
  %cmp257 = icmp ult i32 %176, 5
  br i1 %cmp257, label %for.body259, label %for.cond.cleanup258

for.cond.cleanup258:                              ; preds = %for.cond256
  store i32 10, i32* %cleanup.dest.slot, align 4
  %177 = bitcast i32* %i255 to i8*
  call void @llvm.lifetime.end.p0i8(i64 4, i8* %177) #9
  br label %for.end269

lpad195:                                          ; preds = %catch
  %178 = landingpad { i8*, i32 }
          cleanup
  %179 = extractvalue { i8*, i32 } %178, 0
  store i8* %179, i8** %exn.slot, align 8
  %180 = extractvalue { i8*, i32 } %178, 1
  store i32 %180, i32* %ehselector.slot, align 4
  call void @_ZNSt9bad_allocD1Ev(%"class.std::bad_alloc"* nonnull dereferenceable(8) %0) #9
  invoke void @__cxa_end_catch()
          to label %invoke.cont202 unwind label %terminate.lpad

lpad199:                                          ; preds = %invoke.cont196
  %181 = landingpad { i8*, i32 }
          cleanup
  %182 = extractvalue { i8*, i32 } %181, 0
  store i8* %182, i8** %exn.slot, align 8
  %183 = extractvalue { i8*, i32 } %181, 1
  store i32 %183, i32* %ehselector.slot, align 4
  br label %ehcleanup203

invoke.cont202:                                   ; preds = %lpad195
  br label %ehcleanup203

ehcleanup203:                                     ; preds = %invoke.cont202, %lpad199
  %184 = bitcast %"class.std::bad_alloc"* %0 to i8*
  call void @llvm.lifetime.end.p0i8(i64 8, i8* %184) #9
  br label %ehcleanup204

ehcleanup204:                                     ; preds = %ehcleanup203, %catch.dispatch
  call void @_ZN9GMMOutputD2Ev(%struct.GMMOutput* nonnull dereferenceable(32) %result157) #9
  br label %ehcleanup205

ehcleanup205:                                     ; preds = %ehcleanup204, %lpad162
  %185 = bitcast %struct.GMMOutput* %result157 to i8*
  call void @llvm.lifetime.end.p0i8(i64 32, i8* %185) #9
  %186 = bitcast i32* %Jcols148 to i8*
  call void @llvm.lifetime.end.p0i8(i64 4, i8* %186) #9
  br label %ehcleanup207

ehcleanup207:                                     ; preds = %ehcleanup205, %ehcleanup147
  call void @_ZN8GMMInputD2Ev(%struct.GMMInput* nonnull dereferenceable(128) %input130) #9
  %187 = bitcast %struct.GMMInput* %input130 to i8*
  call void @llvm.lifetime.end.p0i8(i64 128, i8* %187) #9
  br label %ehcleanup279

lpad211:                                          ; preds = %try.cont
  %188 = landingpad { i8*, i32 }
          cleanup
  %189 = extractvalue { i8*, i32 } %188, 0
  store i8* %189, i8** %exn.slot, align 8
  %190 = extractvalue { i8*, i32 } %188, 1
  store i32 %190, i32* %ehselector.slot, align 4
  br label %ehcleanup226

lpad223:                                          ; preds = %invoke.cont212
  %191 = landingpad { i8*, i32 }
          cleanup
  %192 = extractvalue { i8*, i32 } %191, 0
  store i8* %192, i8** %exn.slot, align 8
  %193 = extractvalue { i8*, i32 } %191, 1
  store i32 %193, i32* %ehselector.slot, align 4
  call void @_ZNSt7__cxx1112basic_stringIcSt11char_traitsIcESaIcEED2Ev(%"class.std::__cxx11::basic_string"* nonnull dereferenceable(32) %ref.tmp210) #9
  br label %ehcleanup226

ehcleanup226:                                     ; preds = %lpad223, %lpad211
  %194 = bitcast %"class.std::__cxx11::basic_string"* %ref.tmp210 to i8*
  call void @llvm.lifetime.end.p0i8(i64 32, i8* %194) #9
  br label %ehcleanup277

lpad241:                                          ; preds = %invoke.cont224
  %195 = landingpad { i8*, i32 }
          cleanup
  %196 = extractvalue { i8*, i32 } %195, 0
  store i8* %196, i8** %exn.slot, align 8
  %197 = extractvalue { i8*, i32 } %195, 1
  store i32 %197, i32* %ehselector.slot, align 4
  call void bitcast (void (%"class.__gnu_cxx::new_allocator.6"*)* @_ZN9__gnu_cxx13new_allocatorIdED2Ev to void (%"class.std::allocator.5"*)*)(%"class.std::allocator.5"* nonnull dereferenceable(1) %ref.tmp240) #9
  %198 = bitcast %"class.std::allocator.5"* %ref.tmp240 to i8*
  call void @llvm.lifetime.end.p0i8(i64 1, i8* %198) #9
  br label %ehcleanup275

lpad248:                                          ; preds = %for.end269, %invoke.cont249, %invoke.cont242
  %199 = landingpad { i8*, i32 }
          cleanup
  %200 = extractvalue { i8*, i32 } %199, 0
  store i8* %200, i8** %exn.slot, align 8
  %201 = extractvalue { i8*, i32 } %199, 1
  store i32 %201, i32* %ehselector.slot, align 4
  br label %ehcleanup272

for.body259:                                      ; preds = %for.cond256
  %gradient260 = getelementptr inbounds %struct.GMMOutput, %struct.GMMOutput* %result236, i32 0, i32 1
  %202 = load i32, i32* %i255, align 4, !tbaa !20
  %conv261 = zext i32 %202 to i64
  %call262 = call nonnull align 8 dereferenceable(8) double* @_ZNSt6vectorIdSaIdEEixEm(%"class.std::vector.3"* nonnull dereferenceable(24) %gradient260, i64 %conv261) #9
  %203 = load double, double* %call262, align 8, !tbaa !44
  %call265 = invoke i32 (i8*, ...) @printf(i8* getelementptr inbounds ([4 x i8], [4 x i8]* @.str.28, i64 0, i64 0), double %203)
          to label %invoke.cont264 unwind label %lpad263

invoke.cont264:                                   ; preds = %for.body259
  br label %for.inc266

for.inc266:                                       ; preds = %invoke.cont264
  %204 = load i32, i32* %i255, align 4, !tbaa !20
  %inc267 = add i32 %204, 1
  store i32 %inc267, i32* %i255, align 4, !tbaa !20
  br label %for.cond256, !llvm.loop !47

lpad263:                                          ; preds = %for.body259
  %205 = landingpad { i8*, i32 }
          cleanup
  %206 = extractvalue { i8*, i32 } %205, 0
  store i8* %206, i8** %exn.slot, align 8
  %207 = extractvalue { i8*, i32 } %205, 1
  store i32 %207, i32* %ehselector.slot, align 4
  %208 = bitcast i32* %i255 to i8*
  call void @llvm.lifetime.end.p0i8(i64 4, i8* %208) #9
  br label %ehcleanup272

for.end269:                                       ; preds = %for.cond.cleanup258
  %call271 = invoke i32 (i8*, ...) @printf(i8* getelementptr inbounds ([2 x i8], [2 x i8]* @.str.29, i64 0, i64 0))
          to label %invoke.cont270 unwind label %lpad248

invoke.cont270:                                   ; preds = %for.end269
  %209 = bitcast %struct.timeval* %end246 to i8*
  call void @llvm.lifetime.end.p0i8(i64 16, i8* %209) #9
  %210 = bitcast %struct.timeval* %start245 to i8*
  call void @llvm.lifetime.end.p0i8(i64 16, i8* %210) #9
  call void @_ZN9GMMOutputD2Ev(%struct.GMMOutput* nonnull dereferenceable(32) %result236) #9
  %211 = bitcast %struct.GMMOutput* %result236 to i8*
  call void @llvm.lifetime.end.p0i8(i64 32, i8* %211) #9
  %212 = bitcast i32* %Jcols227 to i8*
  call void @llvm.lifetime.end.p0i8(i64 4, i8* %212) #9
  call void @_ZN8GMMInputD2Ev(%struct.GMMInput* nonnull dereferenceable(128) %input209) #9
  %213 = bitcast %struct.GMMInput* %input209 to i8*
  call void @llvm.lifetime.end.p0i8(i64 128, i8* %213) #9
  store i32 0, i32* %cleanup.dest.slot, align 4
  br label %cleanup

cleanup:                                          ; preds = %invoke.cont270, %if.then
  call void @_ZNSt7__cxx1112basic_stringIcSt11char_traitsIcESaIcEED2Ev(%"class.std::__cxx11::basic_string"* nonnull dereferenceable(32) %path) #9
  %214 = bitcast %"class.std::__cxx11::basic_string"* %path to i8*
  call void @llvm.lifetime.end.p0i8(i64 32, i8* %214) #9
  %cleanup.dest = load i32, i32* %cleanup.dest.slot, align 4
  switch i32 %cleanup.dest, label %unreachable [
    i32 0, label %cleanup.cont
    i32 3, label %for.inc282
  ]

cleanup.cont:                                     ; preds = %cleanup
  br label %for.inc282

for.inc282:                                       ; preds = %cleanup.cont, %cleanup
  %call283 = call nonnull align 8 dereferenceable(8) %"class.__gnu_cxx::__normal_iterator"* @_ZN9__gnu_cxx17__normal_iteratorIPNSt7__cxx1112basic_stringIcSt11char_traitsIcESaIcEEESt6vectorIS6_SaIS6_EEEppEv(%"class.__gnu_cxx::__normal_iterator"* nonnull dereferenceable(8) %__begin1) #9
  br label %for.cond, !llvm.loop !48

ehcleanup272:                                     ; preds = %lpad263, %lpad248
  %215 = bitcast %struct.timeval* %end246 to i8*
  call void @llvm.lifetime.end.p0i8(i64 16, i8* %215) #9
  %216 = bitcast %struct.timeval* %start245 to i8*
  call void @llvm.lifetime.end.p0i8(i64 16, i8* %216) #9
  call void @_ZN9GMMOutputD2Ev(%struct.GMMOutput* nonnull dereferenceable(32) %result236) #9
  br label %ehcleanup275

ehcleanup275:                                     ; preds = %ehcleanup272, %lpad241
  %217 = bitcast %struct.GMMOutput* %result236 to i8*
  call void @llvm.lifetime.end.p0i8(i64 32, i8* %217) #9
  %218 = bitcast i32* %Jcols227 to i8*
  call void @llvm.lifetime.end.p0i8(i64 4, i8* %218) #9
  br label %ehcleanup277

ehcleanup277:                                     ; preds = %ehcleanup275, %ehcleanup226
  call void @_ZN8GMMInputD2Ev(%struct.GMMInput* nonnull dereferenceable(128) %input209) #9
  %219 = bitcast %struct.GMMInput* %input209 to i8*
  call void @llvm.lifetime.end.p0i8(i64 128, i8* %219) #9
  br label %ehcleanup279

ehcleanup279:                                     ; preds = %ehcleanup277, %ehcleanup207, %ehcleanup128, %lpad66
  call void @_ZNSt7__cxx1112basic_stringIcSt11char_traitsIcESaIcEED2Ev(%"class.std::__cxx11::basic_string"* nonnull dereferenceable(32) %path) #9
  br label %ehcleanup281

ehcleanup281:                                     ; preds = %ehcleanup279, %lpad64
  %220 = bitcast %"class.std::__cxx11::basic_string"* %path to i8*
  call void @llvm.lifetime.end.p0i8(i64 32, i8* %220) #9
  %221 = bitcast %"class.__gnu_cxx::__normal_iterator"* %__end1 to i8*
  call void @llvm.lifetime.end.p0i8(i64 8, i8* %221) #9
  %222 = bitcast %"class.__gnu_cxx::__normal_iterator"* %__begin1 to i8*
  call void @llvm.lifetime.end.p0i8(i64 8, i8* %222) #9
  %223 = bitcast %"class.std::vector"** %__range1 to i8*
  call void @llvm.lifetime.end.p0i8(i64 8, i8* %223) #9
  br label %ehcleanup291

for.end290:                                       ; preds = %for.cond.cleanup
  call void @_ZNSt6vectorINSt7__cxx1112basic_stringIcSt11char_traitsIcESaIcEEESaIS5_EED2Ev(%"class.std::vector"* nonnull dereferenceable(24) %paths) #9
  %224 = bitcast %"class.std::vector"* %paths to i8*
  call void @llvm.lifetime.end.p0i8(i64 24, i8* %224) #9
  %225 = bitcast %struct.GMMParameters* %params to i8*
  call void @llvm.lifetime.end.p0i8(i64 1, i8* %225) #9
  call void @llvm.lifetime.end.p0i8(i64 1, i8* %replicate_point) #9
  %226 = load i32, i32* %retval, align 4
  ret i32 %226

ehcleanup291:                                     ; preds = %ehcleanup281, %ehcleanup57, %ehcleanup48, %ehcleanup39
  call void @_ZNSt6vectorINSt7__cxx1112basic_stringIcSt11char_traitsIcESaIcEEESaIS5_EED2Ev(%"class.std::vector"* nonnull dereferenceable(24) %paths) #9
  %227 = bitcast %"class.std::vector"* %paths to i8*
  call void @llvm.lifetime.end.p0i8(i64 24, i8* %227) #9
  %228 = bitcast %struct.GMMParameters* %params to i8*
  call void @llvm.lifetime.end.p0i8(i64 1, i8* %228) #9
  br label %ehcleanup294

ehcleanup294:                                     ; preds = %ehcleanup291, %cleanup.done30
  call void @llvm.lifetime.end.p0i8(i64 1, i8* %replicate_point) #9
  br label %eh.resume

eh.resume:                                        ; preds = %ehcleanup294
  %exn295 = load i8*, i8** %exn.slot, align 8
  %sel296 = load i32, i32* %ehselector.slot, align 4
  %lpad.val = insertvalue { i8*, i32 } undef, i8* %exn295, 0
  %lpad.val297 = insertvalue { i8*, i32 } %lpad.val, i32 %sel296, 1
  resume { i8*, i32 } %lpad.val297

terminate.lpad:                                   ; preds = %lpad195
  %229 = landingpad { i8*, i32 }
          catch i8* null
  %230 = extractvalue { i8*, i32 } %229, 0
  call void @__clang_call_terminate(i8* %230) #29
  unreachable

unreachable:                                      ; preds = %cleanup
  unreachable
}

; Function Attrs: inlinehint nounwind uwtable mustprogress
define linkonce_odr dso_local zeroext i1 @_ZSteqIcSt11char_traitsIcESaIcEEbRKNSt7__cxx1112basic_stringIT_T0_T1_EEPKS5_(%"class.std::__cxx11::basic_string"* nonnull align 8 dereferenceable(32) %__lhs, i8* %__rhs) #12 comdat {
entry:
  %__lhs.addr = alloca %"class.std::__cxx11::basic_string"*, align 8
  %__rhs.addr = alloca i8*, align 8
  store %"class.std::__cxx11::basic_string"* %__lhs, %"class.std::__cxx11::basic_string"** %__lhs.addr, align 8, !tbaa !2
  store i8* %__rhs, i8** %__rhs.addr, align 8, !tbaa !2
  %0 = load %"class.std::__cxx11::basic_string"*, %"class.std::__cxx11::basic_string"** %__lhs.addr, align 8, !tbaa !2
  %1 = load i8*, i8** %__rhs.addr, align 8, !tbaa !2
  %call = call i32 @_ZNKSt7__cxx1112basic_stringIcSt11char_traitsIcESaIcEE7compareEPKc(%"class.std::__cxx11::basic_string"* nonnull dereferenceable(32) %0, i8* %1) #9
  %cmp = icmp eq i32 %call, 0
  ret i1 %cmp
}

; Function Attrs: nounwind uwtable
define linkonce_odr dso_local void @_ZNSt6vectorINSt7__cxx1112basic_stringIcSt11char_traitsIcESaIcEEESaIS5_EEC2Ev(%"class.std::vector"* nonnull dereferenceable(24) %this) unnamed_addr #6 comdat align 2 {
entry:
  %this.addr = alloca %"class.std::vector"*, align 8
  store %"class.std::vector"* %this, %"class.std::vector"** %this.addr, align 8, !tbaa !2
  %this1 = load %"class.std::vector"*, %"class.std::vector"** %this.addr, align 8
  %0 = bitcast %"class.std::vector"* %this1 to %"struct.std::_Vector_base"*
  call void @_ZNSt12_Vector_baseINSt7__cxx1112basic_stringIcSt11char_traitsIcESaIcEEESaIS5_EEC2Ev(%"struct.std::_Vector_base"* nonnull dereferenceable(24) %0) #9
  ret void
}

; Function Attrs: nounwind uwtable mustprogress
define linkonce_odr dso_local %"class.std::__cxx11::basic_string"* @_ZNSt6vectorINSt7__cxx1112basic_stringIcSt11char_traitsIcESaIcEEESaIS5_EE5beginEv(%"class.std::vector"* nonnull dereferenceable(24) %this) #8 comdat align 2 {
entry:
  %retval = alloca %"class.__gnu_cxx::__normal_iterator", align 8
  %this.addr = alloca %"class.std::vector"*, align 8
  store %"class.std::vector"* %this, %"class.std::vector"** %this.addr, align 8, !tbaa !2
  %this1 = load %"class.std::vector"*, %"class.std::vector"** %this.addr, align 8
  %0 = bitcast %"class.std::vector"* %this1 to %"struct.std::_Vector_base"*
  %_M_impl = getelementptr inbounds %"struct.std::_Vector_base", %"struct.std::_Vector_base"* %0, i32 0, i32 0
  %1 = bitcast %"struct.std::_Vector_base<std::__cxx11::basic_string<char>, std::allocator<std::__cxx11::basic_string<char>>>::_Vector_impl"* %_M_impl to %"struct.std::_Vector_base<std::__cxx11::basic_string<char>, std::allocator<std::__cxx11::basic_string<char>>>::_Vector_impl_data"*
  %_M_start = getelementptr inbounds %"struct.std::_Vector_base<std::__cxx11::basic_string<char>, std::allocator<std::__cxx11::basic_string<char>>>::_Vector_impl_data", %"struct.std::_Vector_base<std::__cxx11::basic_string<char>, std::allocator<std::__cxx11::basic_string<char>>>::_Vector_impl_data"* %1, i32 0, i32 0
  call void @_ZN9__gnu_cxx17__normal_iteratorIPNSt7__cxx1112basic_stringIcSt11char_traitsIcESaIcEEESt6vectorIS6_SaIS6_EEEC2ERKS7_(%"class.__gnu_cxx::__normal_iterator"* nonnull dereferenceable(8) %retval, %"class.std::__cxx11::basic_string"** nonnull align 8 dereferenceable(8) %_M_start) #9
  %coerce.dive = getelementptr inbounds %"class.__gnu_cxx::__normal_iterator", %"class.__gnu_cxx::__normal_iterator"* %retval, i32 0, i32 0
  %2 = load %"class.std::__cxx11::basic_string"*, %"class.std::__cxx11::basic_string"** %coerce.dive, align 8
  ret %"class.std::__cxx11::basic_string"* %2
}

; Function Attrs: nounwind uwtable mustprogress
define linkonce_odr dso_local %"class.std::__cxx11::basic_string"* @_ZNSt6vectorINSt7__cxx1112basic_stringIcSt11char_traitsIcESaIcEEESaIS5_EE3endEv(%"class.std::vector"* nonnull dereferenceable(24) %this) #8 comdat align 2 {
entry:
  %retval = alloca %"class.__gnu_cxx::__normal_iterator", align 8
  %this.addr = alloca %"class.std::vector"*, align 8
  store %"class.std::vector"* %this, %"class.std::vector"** %this.addr, align 8, !tbaa !2
  %this1 = load %"class.std::vector"*, %"class.std::vector"** %this.addr, align 8
  %0 = bitcast %"class.std::vector"* %this1 to %"struct.std::_Vector_base"*
  %_M_impl = getelementptr inbounds %"struct.std::_Vector_base", %"struct.std::_Vector_base"* %0, i32 0, i32 0
  %1 = bitcast %"struct.std::_Vector_base<std::__cxx11::basic_string<char>, std::allocator<std::__cxx11::basic_string<char>>>::_Vector_impl"* %_M_impl to %"struct.std::_Vector_base<std::__cxx11::basic_string<char>, std::allocator<std::__cxx11::basic_string<char>>>::_Vector_impl_data"*
  %_M_finish = getelementptr inbounds %"struct.std::_Vector_base<std::__cxx11::basic_string<char>, std::allocator<std::__cxx11::basic_string<char>>>::_Vector_impl_data", %"struct.std::_Vector_base<std::__cxx11::basic_string<char>, std::allocator<std::__cxx11::basic_string<char>>>::_Vector_impl_data"* %1, i32 0, i32 1
  call void @_ZN9__gnu_cxx17__normal_iteratorIPNSt7__cxx1112basic_stringIcSt11char_traitsIcESaIcEEESt6vectorIS6_SaIS6_EEEC2ERKS7_(%"class.__gnu_cxx::__normal_iterator"* nonnull dereferenceable(8) %retval, %"class.std::__cxx11::basic_string"** nonnull align 8 dereferenceable(8) %_M_finish) #9
  %coerce.dive = getelementptr inbounds %"class.__gnu_cxx::__normal_iterator", %"class.__gnu_cxx::__normal_iterator"* %retval, i32 0, i32 0
  %2 = load %"class.std::__cxx11::basic_string"*, %"class.std::__cxx11::basic_string"** %coerce.dive, align 8
  ret %"class.std::__cxx11::basic_string"* %2
}

; Function Attrs: inlinehint nounwind uwtable mustprogress
define linkonce_odr dso_local zeroext i1 @_ZN9__gnu_cxxneIPNSt7__cxx1112basic_stringIcSt11char_traitsIcESaIcEEESt6vectorIS6_SaIS6_EEEEbRKNS_17__normal_iteratorIT_T0_EESG_(%"class.__gnu_cxx::__normal_iterator"* nonnull align 8 dereferenceable(8) %__lhs, %"class.__gnu_cxx::__normal_iterator"* nonnull align 8 dereferenceable(8) %__rhs) #12 comdat {
entry:
  %__lhs.addr = alloca %"class.__gnu_cxx::__normal_iterator"*, align 8
  %__rhs.addr = alloca %"class.__gnu_cxx::__normal_iterator"*, align 8
  store %"class.__gnu_cxx::__normal_iterator"* %__lhs, %"class.__gnu_cxx::__normal_iterator"** %__lhs.addr, align 8, !tbaa !2
  store %"class.__gnu_cxx::__normal_iterator"* %__rhs, %"class.__gnu_cxx::__normal_iterator"** %__rhs.addr, align 8, !tbaa !2
  %0 = load %"class.__gnu_cxx::__normal_iterator"*, %"class.__gnu_cxx::__normal_iterator"** %__lhs.addr, align 8, !tbaa !2
  %call = call nonnull align 8 dereferenceable(8) %"class.std::__cxx11::basic_string"** @_ZNK9__gnu_cxx17__normal_iteratorIPNSt7__cxx1112basic_stringIcSt11char_traitsIcESaIcEEESt6vectorIS6_SaIS6_EEE4baseEv(%"class.__gnu_cxx::__normal_iterator"* nonnull dereferenceable(8) %0) #9
  %1 = load %"class.std::__cxx11::basic_string"*, %"class.std::__cxx11::basic_string"** %call, align 8, !tbaa !2
  %2 = load %"class.__gnu_cxx::__normal_iterator"*, %"class.__gnu_cxx::__normal_iterator"** %__rhs.addr, align 8, !tbaa !2
  %call1 = call nonnull align 8 dereferenceable(8) %"class.std::__cxx11::basic_string"** @_ZNK9__gnu_cxx17__normal_iteratorIPNSt7__cxx1112basic_stringIcSt11char_traitsIcESaIcEEESt6vectorIS6_SaIS6_EEE4baseEv(%"class.__gnu_cxx::__normal_iterator"* nonnull dereferenceable(8) %2) #9
  %3 = load %"class.std::__cxx11::basic_string"*, %"class.std::__cxx11::basic_string"** %call1, align 8, !tbaa !2
  %cmp = icmp ne %"class.std::__cxx11::basic_string"* %1, %3
  ret i1 %cmp
}

; Function Attrs: nounwind uwtable mustprogress
define linkonce_odr dso_local nonnull align 8 dereferenceable(32) %"class.std::__cxx11::basic_string"* @_ZNK9__gnu_cxx17__normal_iteratorIPNSt7__cxx1112basic_stringIcSt11char_traitsIcESaIcEEESt6vectorIS6_SaIS6_EEEdeEv(%"class.__gnu_cxx::__normal_iterator"* nonnull dereferenceable(8) %this) #8 comdat align 2 {
entry:
  %this.addr = alloca %"class.__gnu_cxx::__normal_iterator"*, align 8
  store %"class.__gnu_cxx::__normal_iterator"* %this, %"class.__gnu_cxx::__normal_iterator"** %this.addr, align 8, !tbaa !2
  %this1 = load %"class.__gnu_cxx::__normal_iterator"*, %"class.__gnu_cxx::__normal_iterator"** %this.addr, align 8
  %_M_current = getelementptr inbounds %"class.__gnu_cxx::__normal_iterator", %"class.__gnu_cxx::__normal_iterator"* %this1, i32 0, i32 0
  %0 = load %"class.std::__cxx11::basic_string"*, %"class.std::__cxx11::basic_string"** %_M_current, align 8, !tbaa !49
  ret %"class.std::__cxx11::basic_string"* %0
}

; Function Attrs: inlinehint nounwind uwtable
define linkonce_odr dso_local void @_ZN8GMMInputC2Ev(%struct.GMMInput* nonnull dereferenceable(128) %this) unnamed_addr #13 comdat align 2 {
entry:
  %this.addr = alloca %struct.GMMInput*, align 8
  store %struct.GMMInput* %this, %struct.GMMInput** %this.addr, align 8, !tbaa !2
  %this1 = load %struct.GMMInput*, %struct.GMMInput** %this.addr, align 8
  %alphas = getelementptr inbounds %struct.GMMInput, %struct.GMMInput* %this1, i32 0, i32 3
  call void @_ZNSt6vectorIdSaIdEEC2Ev(%"class.std::vector.3"* nonnull dereferenceable(24) %alphas) #9
  %means = getelementptr inbounds %struct.GMMInput, %struct.GMMInput* %this1, i32 0, i32 4
  call void @_ZNSt6vectorIdSaIdEEC2Ev(%"class.std::vector.3"* nonnull dereferenceable(24) %means) #9
  %icf = getelementptr inbounds %struct.GMMInput, %struct.GMMInput* %this1, i32 0, i32 5
  call void @_ZNSt6vectorIdSaIdEEC2Ev(%"class.std::vector.3"* nonnull dereferenceable(24) %icf) #9
  %x = getelementptr inbounds %struct.GMMInput, %struct.GMMInput* %this1, i32 0, i32 6
  call void @_ZNSt6vectorIdSaIdEEC2Ev(%"class.std::vector.3"* nonnull dereferenceable(24) %x) #9
  %wishart = getelementptr inbounds %struct.GMMInput, %struct.GMMInput* %this1, i32 0, i32 7
  ret void
}

; Function Attrs: uwtable mustprogress
define linkonce_odr dso_local void @_ZStplIcSt11char_traitsIcESaIcEENSt7__cxx1112basic_stringIT_T0_T1_EEPKS5_RKS8_(%"class.std::__cxx11::basic_string"* noalias sret(%"class.std::__cxx11::basic_string") align 8 %agg.result, i8* %__lhs, %"class.std::__cxx11::basic_string"* nonnull align 8 dereferenceable(32) %__rhs) #0 comdat personality i8* bitcast (i32 (...)* @__gxx_personality_v0 to i8*) {
entry:
  %result.ptr = alloca i8*, align 8
  %__lhs.addr = alloca i8*, align 8
  %__rhs.addr = alloca %"class.std::__cxx11::basic_string"*, align 8
  %__len = alloca i64, align 8
  %nrvo = alloca i1, align 1
  %exn.slot = alloca i8*, align 8
  %ehselector.slot = alloca i32, align 4
  %0 = bitcast %"class.std::__cxx11::basic_string"* %agg.result to i8*
  store i8* %0, i8** %result.ptr, align 8
  store i8* %__lhs, i8** %__lhs.addr, align 8, !tbaa !2
  store %"class.std::__cxx11::basic_string"* %__rhs, %"class.std::__cxx11::basic_string"** %__rhs.addr, align 8, !tbaa !2
  %1 = bitcast i64* %__len to i8*
  call void @llvm.lifetime.start.p0i8(i64 8, i8* %1) #9
  %2 = load i8*, i8** %__lhs.addr, align 8, !tbaa !2
  %call = call i64 @_ZNSt11char_traitsIcE6lengthEPKc(i8* %2)
  store i64 %call, i64* %__len, align 8, !tbaa !13
  store i1 false, i1* %nrvo, align 1
  call void @_ZNSt7__cxx1112basic_stringIcSt11char_traitsIcESaIcEEC2Ev(%"class.std::__cxx11::basic_string"* nonnull dereferenceable(32) %agg.result) #9
  %3 = load i64, i64* %__len, align 8, !tbaa !13
  %4 = load %"class.std::__cxx11::basic_string"*, %"class.std::__cxx11::basic_string"** %__rhs.addr, align 8, !tbaa !2
  %call1 = call i64 @_ZNKSt7__cxx1112basic_stringIcSt11char_traitsIcESaIcEE4sizeEv(%"class.std::__cxx11::basic_string"* nonnull dereferenceable(32) %4) #9
  %add = add i64 %3, %call1
  invoke void @_ZNSt7__cxx1112basic_stringIcSt11char_traitsIcESaIcEE7reserveEm(%"class.std::__cxx11::basic_string"* nonnull dereferenceable(32) %agg.result, i64 %add)
          to label %invoke.cont unwind label %lpad

invoke.cont:                                      ; preds = %entry
  %5 = load i8*, i8** %__lhs.addr, align 8, !tbaa !2
  %6 = load i64, i64* %__len, align 8, !tbaa !13
  %call3 = invoke nonnull align 8 dereferenceable(32) %"class.std::__cxx11::basic_string"* @_ZNSt7__cxx1112basic_stringIcSt11char_traitsIcESaIcEE6appendEPKcm(%"class.std::__cxx11::basic_string"* nonnull dereferenceable(32) %agg.result, i8* %5, i64 %6)
          to label %invoke.cont2 unwind label %lpad

invoke.cont2:                                     ; preds = %invoke.cont
  %7 = load %"class.std::__cxx11::basic_string"*, %"class.std::__cxx11::basic_string"** %__rhs.addr, align 8, !tbaa !2
  %call5 = invoke nonnull align 8 dereferenceable(32) %"class.std::__cxx11::basic_string"* @_ZNSt7__cxx1112basic_stringIcSt11char_traitsIcESaIcEE6appendERKS4_(%"class.std::__cxx11::basic_string"* nonnull dereferenceable(32) %agg.result, %"class.std::__cxx11::basic_string"* nonnull align 8 dereferenceable(32) %7)
          to label %invoke.cont4 unwind label %lpad

invoke.cont4:                                     ; preds = %invoke.cont2
  store i1 true, i1* %nrvo, align 1
  %nrvo.val = load i1, i1* %nrvo, align 1
  br i1 %nrvo.val, label %nrvo.skipdtor, label %nrvo.unused

lpad:                                             ; preds = %invoke.cont2, %invoke.cont, %entry
  %8 = landingpad { i8*, i32 }
          cleanup
  %9 = extractvalue { i8*, i32 } %8, 0
  store i8* %9, i8** %exn.slot, align 8
  %10 = extractvalue { i8*, i32 } %8, 1
  store i32 %10, i32* %ehselector.slot, align 4
  call void @_ZNSt7__cxx1112basic_stringIcSt11char_traitsIcESaIcEED2Ev(%"class.std::__cxx11::basic_string"* nonnull dereferenceable(32) %agg.result) #9
  %11 = bitcast i64* %__len to i8*
  call void @llvm.lifetime.end.p0i8(i64 8, i8* %11) #9
  br label %eh.resume

nrvo.unused:                                      ; preds = %invoke.cont4
  call void @_ZNSt7__cxx1112basic_stringIcSt11char_traitsIcESaIcEED2Ev(%"class.std::__cxx11::basic_string"* nonnull dereferenceable(32) %agg.result) #9
  br label %nrvo.skipdtor

nrvo.skipdtor:                                    ; preds = %nrvo.unused, %invoke.cont4
  %12 = bitcast i64* %__len to i8*
  call void @llvm.lifetime.end.p0i8(i64 8, i8* %12) #9
  ret void

eh.resume:                                        ; preds = %lpad
  %exn = load i8*, i8** %exn.slot, align 8
  %sel = load i32, i32* %ehselector.slot, align 4
  %lpad.val = insertvalue { i8*, i32 } undef, i8* %exn, 0
  %lpad.val6 = insertvalue { i8*, i32 } %lpad.val, i32 %sel, 1
  resume { i8*, i32 } %lpad.val6
}

; Function Attrs: nounwind uwtable
define linkonce_odr dso_local void @_ZNSaIdEC2Ev(%"class.std::allocator.5"* nonnull dereferenceable(1) %this) unnamed_addr #6 comdat align 2 {
entry:
  %this.addr = alloca %"class.std::allocator.5"*, align 8
  store %"class.std::allocator.5"* %this, %"class.std::allocator.5"** %this.addr, align 8, !tbaa !2
  %this1 = load %"class.std::allocator.5"*, %"class.std::allocator.5"** %this.addr, align 8
  %0 = bitcast %"class.std::allocator.5"* %this1 to %"class.__gnu_cxx::new_allocator.6"*
  call void @_ZN9__gnu_cxx13new_allocatorIdEC2Ev(%"class.__gnu_cxx::new_allocator.6"* nonnull dereferenceable(1) %0) #9
  ret void
}

; Function Attrs: uwtable
define linkonce_odr dso_local void @_ZNSt6vectorIdSaIdEEC2EmRKS0_(%"class.std::vector.3"* nonnull dereferenceable(24) %this, i64 %__n, %"class.std::allocator.5"* nonnull align 1 dereferenceable(1) %__a) unnamed_addr #7 comdat align 2 personality i8* bitcast (i32 (...)* @__gxx_personality_v0 to i8*) {
entry:
  %this.addr = alloca %"class.std::vector.3"*, align 8
  %__n.addr = alloca i64, align 8
  %__a.addr = alloca %"class.std::allocator.5"*, align 8
  %exn.slot = alloca i8*, align 8
  %ehselector.slot = alloca i32, align 4
  store %"class.std::vector.3"* %this, %"class.std::vector.3"** %this.addr, align 8, !tbaa !2
  store i64 %__n, i64* %__n.addr, align 8, !tbaa !13
  store %"class.std::allocator.5"* %__a, %"class.std::allocator.5"** %__a.addr, align 8, !tbaa !2
  %this1 = load %"class.std::vector.3"*, %"class.std::vector.3"** %this.addr, align 8
  %0 = bitcast %"class.std::vector.3"* %this1 to %"struct.std::_Vector_base.4"*
  %1 = load i64, i64* %__n.addr, align 8, !tbaa !13
  %2 = load %"class.std::allocator.5"*, %"class.std::allocator.5"** %__a.addr, align 8, !tbaa !2
  %call = call i64 @_ZNSt6vectorIdSaIdEE17_S_check_init_lenEmRKS0_(i64 %1, %"class.std::allocator.5"* nonnull align 1 dereferenceable(1) %2)
  %3 = load %"class.std::allocator.5"*, %"class.std::allocator.5"** %__a.addr, align 8, !tbaa !2
  call void @_ZNSt12_Vector_baseIdSaIdEEC2EmRKS0_(%"struct.std::_Vector_base.4"* nonnull dereferenceable(24) %0, i64 %call, %"class.std::allocator.5"* nonnull align 1 dereferenceable(1) %3)
  %4 = load i64, i64* %__n.addr, align 8, !tbaa !13
  invoke void @_ZNSt6vectorIdSaIdEE21_M_default_initializeEm(%"class.std::vector.3"* nonnull dereferenceable(24) %this1, i64 %4)
          to label %invoke.cont unwind label %lpad

invoke.cont:                                      ; preds = %entry
  ret void

lpad:                                             ; preds = %entry
  %5 = landingpad { i8*, i32 }
          cleanup
  %6 = extractvalue { i8*, i32 } %5, 0
  store i8* %6, i8** %exn.slot, align 8
  %7 = extractvalue { i8*, i32 } %5, 1
  store i32 %7, i32* %ehselector.slot, align 4
  %8 = bitcast %"class.std::vector.3"* %this1 to %"struct.std::_Vector_base.4"*
  call void @_ZNSt12_Vector_baseIdSaIdEED2Ev(%"struct.std::_Vector_base.4"* nonnull dereferenceable(24) %8) #9
  br label %eh.resume

eh.resume:                                        ; preds = %lpad
  %exn = load i8*, i8** %exn.slot, align 8
  %sel = load i32, i32* %ehselector.slot, align 4
  %lpad.val = insertvalue { i8*, i32 } undef, i8* %exn, 0
  %lpad.val2 = insertvalue { i8*, i32 } %lpad.val, i32 %sel, 1
  resume { i8*, i32 } %lpad.val2
}

; Function Attrs: nounwind uwtable
define linkonce_odr dso_local void @_ZN9__gnu_cxx13new_allocatorIdED2Ev(%"class.__gnu_cxx::new_allocator.6"* nonnull dereferenceable(1) %this) unnamed_addr #6 comdat align 2 {
entry:
  %this.addr = alloca %"class.__gnu_cxx::new_allocator.6"*, align 8
  store %"class.__gnu_cxx::new_allocator.6"* %this, %"class.__gnu_cxx::new_allocator.6"** %this.addr, align 8, !tbaa !2
  %this1 = load %"class.__gnu_cxx::new_allocator.6"*, %"class.__gnu_cxx::new_allocator.6"** %this.addr, align 8
  ret void
}

; Function Attrs: nounwind
declare dso_local i32 @gettimeofday(%struct.timeval*, i8*) #4

; Function Attrs: uwtable mustprogress
define linkonce_odr dso_local void @_Z18calculate_jacobianIXadL_Z15gmm_objective_bEEEvR8GMMInputR9GMMOutput(%struct.GMMInput* nonnull align 8 dereferenceable(128) %input, %struct.GMMOutput* nonnull align 8 dereferenceable(32) %result) #0 comdat {
entry:
  %input.addr = alloca %struct.GMMInput*, align 8
  %result.addr = alloca %struct.GMMOutput*, align 8
  %alphas_gradient_part = alloca double*, align 8
  %means_gradient_part = alloca double*, align 8
  %icf_gradient_part = alloca double*, align 8
  %tmp = alloca double, align 8
  %errb = alloca double, align 8
  %agg.tmp = alloca %struct.Wishart, align 8
  store %struct.GMMInput* %input, %struct.GMMInput** %input.addr, align 8, !tbaa !2
  store %struct.GMMOutput* %result, %struct.GMMOutput** %result.addr, align 8, !tbaa !2
  %0 = bitcast double** %alphas_gradient_part to i8*
  call void @llvm.lifetime.start.p0i8(i64 8, i8* %0) #9
  %1 = load %struct.GMMOutput*, %struct.GMMOutput** %result.addr, align 8, !tbaa !2
  %gradient = getelementptr inbounds %struct.GMMOutput, %struct.GMMOutput* %1, i32 0, i32 1
  %call = call double* @_ZNSt6vectorIdSaIdEE4dataEv(%"class.std::vector.3"* nonnull dereferenceable(24) %gradient) #9
  store double* %call, double** %alphas_gradient_part, align 8, !tbaa !2
  %2 = bitcast double** %means_gradient_part to i8*
  call void @llvm.lifetime.start.p0i8(i64 8, i8* %2) #9
  %3 = load %struct.GMMOutput*, %struct.GMMOutput** %result.addr, align 8, !tbaa !2
  %gradient1 = getelementptr inbounds %struct.GMMOutput, %struct.GMMOutput* %3, i32 0, i32 1
  %call2 = call double* @_ZNSt6vectorIdSaIdEE4dataEv(%"class.std::vector.3"* nonnull dereferenceable(24) %gradient1) #9
  %4 = load %struct.GMMInput*, %struct.GMMInput** %input.addr, align 8, !tbaa !2
  %alphas = getelementptr inbounds %struct.GMMInput, %struct.GMMInput* %4, i32 0, i32 3
  %call3 = call i64 @_ZNKSt6vectorIdSaIdEE4sizeEv(%"class.std::vector.3"* nonnull dereferenceable(24) %alphas) #9
  %add.ptr = getelementptr inbounds double, double* %call2, i64 %call3
  store double* %add.ptr, double** %means_gradient_part, align 8, !tbaa !2
  %5 = bitcast double** %icf_gradient_part to i8*
  call void @llvm.lifetime.start.p0i8(i64 8, i8* %5) #9
  %6 = load %struct.GMMOutput*, %struct.GMMOutput** %result.addr, align 8, !tbaa !2
  %gradient4 = getelementptr inbounds %struct.GMMOutput, %struct.GMMOutput* %6, i32 0, i32 1
  %call5 = call double* @_ZNSt6vectorIdSaIdEE4dataEv(%"class.std::vector.3"* nonnull dereferenceable(24) %gradient4) #9
  %7 = load %struct.GMMInput*, %struct.GMMInput** %input.addr, align 8, !tbaa !2
  %alphas6 = getelementptr inbounds %struct.GMMInput, %struct.GMMInput* %7, i32 0, i32 3
  %call7 = call i64 @_ZNKSt6vectorIdSaIdEE4sizeEv(%"class.std::vector.3"* nonnull dereferenceable(24) %alphas6) #9
  %add.ptr8 = getelementptr inbounds double, double* %call5, i64 %call7
  %8 = load %struct.GMMInput*, %struct.GMMInput** %input.addr, align 8, !tbaa !2
  %means = getelementptr inbounds %struct.GMMInput, %struct.GMMInput* %8, i32 0, i32 4
  %call9 = call i64 @_ZNKSt6vectorIdSaIdEE4sizeEv(%"class.std::vector.3"* nonnull dereferenceable(24) %means) #9
  %add.ptr10 = getelementptr inbounds double, double* %add.ptr8, i64 %call9
  store double* %add.ptr10, double** %icf_gradient_part, align 8, !tbaa !2
  %9 = bitcast double* %tmp to i8*
  call void @llvm.lifetime.start.p0i8(i64 8, i8* %9) #9
  store double 0.000000e+00, double* %tmp, align 8, !tbaa !44
  %10 = bitcast double* %errb to i8*
  call void @llvm.lifetime.start.p0i8(i64 8, i8* %10) #9
  store double 1.000000e+00, double* %errb, align 8, !tbaa !44
  %11 = load %struct.GMMInput*, %struct.GMMInput** %input.addr, align 8, !tbaa !2
  %d = getelementptr inbounds %struct.GMMInput, %struct.GMMInput* %11, i32 0, i32 0
  %12 = load i32, i32* %d, align 8, !tbaa !41
  %13 = load %struct.GMMInput*, %struct.GMMInput** %input.addr, align 8, !tbaa !2
  %k = getelementptr inbounds %struct.GMMInput, %struct.GMMInput* %13, i32 0, i32 1
  %14 = load i32, i32* %k, align 4, !tbaa !36
  %15 = load %struct.GMMInput*, %struct.GMMInput** %input.addr, align 8, !tbaa !2
  %n = getelementptr inbounds %struct.GMMInput, %struct.GMMInput* %15, i32 0, i32 2
  %16 = load i32, i32* %n, align 8, !tbaa !51
  %17 = load %struct.GMMInput*, %struct.GMMInput** %input.addr, align 8, !tbaa !2
  %alphas11 = getelementptr inbounds %struct.GMMInput, %struct.GMMInput* %17, i32 0, i32 3
  %call12 = call double* @_ZNSt6vectorIdSaIdEE4dataEv(%"class.std::vector.3"* nonnull dereferenceable(24) %alphas11) #9
  %18 = load double*, double** %alphas_gradient_part, align 8, !tbaa !2
  %19 = load %struct.GMMInput*, %struct.GMMInput** %input.addr, align 8, !tbaa !2
  %means13 = getelementptr inbounds %struct.GMMInput, %struct.GMMInput* %19, i32 0, i32 4
  %call14 = call double* @_ZNSt6vectorIdSaIdEE4dataEv(%"class.std::vector.3"* nonnull dereferenceable(24) %means13) #9
  %20 = load double*, double** %means_gradient_part, align 8, !tbaa !2
  %21 = load %struct.GMMInput*, %struct.GMMInput** %input.addr, align 8, !tbaa !2
  %icf = getelementptr inbounds %struct.GMMInput, %struct.GMMInput* %21, i32 0, i32 5
  %call15 = call double* @_ZNSt6vectorIdSaIdEE4dataEv(%"class.std::vector.3"* nonnull dereferenceable(24) %icf) #9
  %22 = load double*, double** %icf_gradient_part, align 8, !tbaa !2
  %23 = load %struct.GMMInput*, %struct.GMMInput** %input.addr, align 8, !tbaa !2
  %x = getelementptr inbounds %struct.GMMInput, %struct.GMMInput* %23, i32 0, i32 6
  %call16 = call double* @_ZNSt6vectorIdSaIdEE4dataEv(%"class.std::vector.3"* nonnull dereferenceable(24) %x) #9
  %24 = load %struct.GMMInput*, %struct.GMMInput** %input.addr, align 8, !tbaa !2
  %wishart = getelementptr inbounds %struct.GMMInput, %struct.GMMInput* %24, i32 0, i32 7
  %25 = bitcast %struct.Wishart* %agg.tmp to i8*
  %26 = bitcast %struct.Wishart* %wishart to i8*
  call void @llvm.memcpy.p0i8.p0i8.i64(i8* align 8 %25, i8* align 8 %26, i64 16, i1 false), !tbaa.struct !52
  call void @gmm_objective_b(i32 %12, i32 %14, i32 %16, double* %call12, double* %18, double* %call14, double* %20, double* %call15, double* %22, double* %call16, %struct.Wishart* byval(%struct.Wishart) align 8 %agg.tmp, double* %tmp, double* %errb)
  %27 = bitcast double* %errb to i8*
  call void @llvm.lifetime.end.p0i8(i64 8, i8* %27) #9
  %28 = bitcast double* %tmp to i8*
  call void @llvm.lifetime.end.p0i8(i64 8, i8* %28) #9
  %29 = bitcast double** %icf_gradient_part to i8*
  call void @llvm.lifetime.end.p0i8(i64 8, i8* %29) #9
  %30 = bitcast double** %means_gradient_part to i8*
  call void @llvm.lifetime.end.p0i8(i64 8, i8* %30) #9
  %31 = bitcast double** %alphas_gradient_part to i8*
  call void @llvm.lifetime.end.p0i8(i64 8, i8* %31) #9
  ret void
}

; Function Attrs: inlinehint nounwind uwtable
define linkonce_odr dso_local void @_ZN9GMMOutputD2Ev(%struct.GMMOutput* nonnull dereferenceable(32) %this) unnamed_addr #13 comdat align 2 {
entry:
  %this.addr = alloca %struct.GMMOutput*, align 8
  store %struct.GMMOutput* %this, %struct.GMMOutput** %this.addr, align 8, !tbaa !2
  %this1 = load %struct.GMMOutput*, %struct.GMMOutput** %this.addr, align 8
  %gradient = getelementptr inbounds %struct.GMMOutput, %struct.GMMOutput* %this1, i32 0, i32 1
  call void @_ZNSt6vectorIdSaIdEED2Ev(%"class.std::vector.3"* nonnull dereferenceable(24) %gradient) #9
  ret void
}

; Function Attrs: inlinehint nounwind uwtable
define linkonce_odr dso_local void @_ZN8GMMInputD2Ev(%struct.GMMInput* nonnull dereferenceable(128) %this) unnamed_addr #13 comdat align 2 {
entry:
  %this.addr = alloca %struct.GMMInput*, align 8
  store %struct.GMMInput* %this, %struct.GMMInput** %this.addr, align 8, !tbaa !2
  %this1 = load %struct.GMMInput*, %struct.GMMInput** %this.addr, align 8
  %x = getelementptr inbounds %struct.GMMInput, %struct.GMMInput* %this1, i32 0, i32 6
  call void @_ZNSt6vectorIdSaIdEED2Ev(%"class.std::vector.3"* nonnull dereferenceable(24) %x) #9
  %icf = getelementptr inbounds %struct.GMMInput, %struct.GMMInput* %this1, i32 0, i32 5
  call void @_ZNSt6vectorIdSaIdEED2Ev(%"class.std::vector.3"* nonnull dereferenceable(24) %icf) #9
  %means = getelementptr inbounds %struct.GMMInput, %struct.GMMInput* %this1, i32 0, i32 4
  call void @_ZNSt6vectorIdSaIdEED2Ev(%"class.std::vector.3"* nonnull dereferenceable(24) %means) #9
  %alphas = getelementptr inbounds %struct.GMMInput, %struct.GMMInput* %this1, i32 0, i32 3
  call void @_ZNSt6vectorIdSaIdEED2Ev(%"class.std::vector.3"* nonnull dereferenceable(24) %alphas) #9
  ret void
}

; Function Attrs: uwtable mustprogress
define linkonce_odr dso_local void @_Z18calculate_jacobianIXadL_Z20adept_dgmm_objectiveEEEvR8GMMInputR9GMMOutput(%struct.GMMInput* nonnull align 8 dereferenceable(128) %input, %struct.GMMOutput* nonnull align 8 dereferenceable(32) %result) #0 comdat {
entry:
  %input.addr = alloca %struct.GMMInput*, align 8
  %result.addr = alloca %struct.GMMOutput*, align 8
  %alphas_gradient_part = alloca double*, align 8
  %means_gradient_part = alloca double*, align 8
  %icf_gradient_part = alloca double*, align 8
  %tmp = alloca double, align 8
  %errb = alloca double, align 8
  %agg.tmp = alloca %struct.Wishart, align 8
  store %struct.GMMInput* %input, %struct.GMMInput** %input.addr, align 8, !tbaa !2
  store %struct.GMMOutput* %result, %struct.GMMOutput** %result.addr, align 8, !tbaa !2
  %0 = bitcast double** %alphas_gradient_part to i8*
  call void @llvm.lifetime.start.p0i8(i64 8, i8* %0) #9
  %1 = load %struct.GMMOutput*, %struct.GMMOutput** %result.addr, align 8, !tbaa !2
  %gradient = getelementptr inbounds %struct.GMMOutput, %struct.GMMOutput* %1, i32 0, i32 1
  %call = call double* @_ZNSt6vectorIdSaIdEE4dataEv(%"class.std::vector.3"* nonnull dereferenceable(24) %gradient) #9
  store double* %call, double** %alphas_gradient_part, align 8, !tbaa !2
  %2 = bitcast double** %means_gradient_part to i8*
  call void @llvm.lifetime.start.p0i8(i64 8, i8* %2) #9
  %3 = load %struct.GMMOutput*, %struct.GMMOutput** %result.addr, align 8, !tbaa !2
  %gradient1 = getelementptr inbounds %struct.GMMOutput, %struct.GMMOutput* %3, i32 0, i32 1
  %call2 = call double* @_ZNSt6vectorIdSaIdEE4dataEv(%"class.std::vector.3"* nonnull dereferenceable(24) %gradient1) #9
  %4 = load %struct.GMMInput*, %struct.GMMInput** %input.addr, align 8, !tbaa !2
  %alphas = getelementptr inbounds %struct.GMMInput, %struct.GMMInput* %4, i32 0, i32 3
  %call3 = call i64 @_ZNKSt6vectorIdSaIdEE4sizeEv(%"class.std::vector.3"* nonnull dereferenceable(24) %alphas) #9
  %add.ptr = getelementptr inbounds double, double* %call2, i64 %call3
  store double* %add.ptr, double** %means_gradient_part, align 8, !tbaa !2
  %5 = bitcast double** %icf_gradient_part to i8*
  call void @llvm.lifetime.start.p0i8(i64 8, i8* %5) #9
  %6 = load %struct.GMMOutput*, %struct.GMMOutput** %result.addr, align 8, !tbaa !2
  %gradient4 = getelementptr inbounds %struct.GMMOutput, %struct.GMMOutput* %6, i32 0, i32 1
  %call5 = call double* @_ZNSt6vectorIdSaIdEE4dataEv(%"class.std::vector.3"* nonnull dereferenceable(24) %gradient4) #9
  %7 = load %struct.GMMInput*, %struct.GMMInput** %input.addr, align 8, !tbaa !2
  %alphas6 = getelementptr inbounds %struct.GMMInput, %struct.GMMInput* %7, i32 0, i32 3
  %call7 = call i64 @_ZNKSt6vectorIdSaIdEE4sizeEv(%"class.std::vector.3"* nonnull dereferenceable(24) %alphas6) #9
  %add.ptr8 = getelementptr inbounds double, double* %call5, i64 %call7
  %8 = load %struct.GMMInput*, %struct.GMMInput** %input.addr, align 8, !tbaa !2
  %means = getelementptr inbounds %struct.GMMInput, %struct.GMMInput* %8, i32 0, i32 4
  %call9 = call i64 @_ZNKSt6vectorIdSaIdEE4sizeEv(%"class.std::vector.3"* nonnull dereferenceable(24) %means) #9
  %add.ptr10 = getelementptr inbounds double, double* %add.ptr8, i64 %call9
  store double* %add.ptr10, double** %icf_gradient_part, align 8, !tbaa !2
  %9 = bitcast double* %tmp to i8*
  call void @llvm.lifetime.start.p0i8(i64 8, i8* %9) #9
  store double 0.000000e+00, double* %tmp, align 8, !tbaa !44
  %10 = bitcast double* %errb to i8*
  call void @llvm.lifetime.start.p0i8(i64 8, i8* %10) #9
  store double 1.000000e+00, double* %errb, align 8, !tbaa !44
  %11 = load %struct.GMMInput*, %struct.GMMInput** %input.addr, align 8, !tbaa !2
  %d = getelementptr inbounds %struct.GMMInput, %struct.GMMInput* %11, i32 0, i32 0
  %12 = load i32, i32* %d, align 8, !tbaa !41
  %13 = load %struct.GMMInput*, %struct.GMMInput** %input.addr, align 8, !tbaa !2
  %k = getelementptr inbounds %struct.GMMInput, %struct.GMMInput* %13, i32 0, i32 1
  %14 = load i32, i32* %k, align 4, !tbaa !36
  %15 = load %struct.GMMInput*, %struct.GMMInput** %input.addr, align 8, !tbaa !2
  %n = getelementptr inbounds %struct.GMMInput, %struct.GMMInput* %15, i32 0, i32 2
  %16 = load i32, i32* %n, align 8, !tbaa !51
  %17 = load %struct.GMMInput*, %struct.GMMInput** %input.addr, align 8, !tbaa !2
  %alphas11 = getelementptr inbounds %struct.GMMInput, %struct.GMMInput* %17, i32 0, i32 3
  %call12 = call double* @_ZNSt6vectorIdSaIdEE4dataEv(%"class.std::vector.3"* nonnull dereferenceable(24) %alphas11) #9
  %18 = load double*, double** %alphas_gradient_part, align 8, !tbaa !2
  %19 = load %struct.GMMInput*, %struct.GMMInput** %input.addr, align 8, !tbaa !2
  %means13 = getelementptr inbounds %struct.GMMInput, %struct.GMMInput* %19, i32 0, i32 4
  %call14 = call double* @_ZNSt6vectorIdSaIdEE4dataEv(%"class.std::vector.3"* nonnull dereferenceable(24) %means13) #9
  %20 = load double*, double** %means_gradient_part, align 8, !tbaa !2
  %21 = load %struct.GMMInput*, %struct.GMMInput** %input.addr, align 8, !tbaa !2
  %icf = getelementptr inbounds %struct.GMMInput, %struct.GMMInput* %21, i32 0, i32 5
  %call15 = call double* @_ZNSt6vectorIdSaIdEE4dataEv(%"class.std::vector.3"* nonnull dereferenceable(24) %icf) #9
  %22 = load double*, double** %icf_gradient_part, align 8, !tbaa !2
  %23 = load %struct.GMMInput*, %struct.GMMInput** %input.addr, align 8, !tbaa !2
  %x = getelementptr inbounds %struct.GMMInput, %struct.GMMInput* %23, i32 0, i32 6
  %call16 = call double* @_ZNSt6vectorIdSaIdEE4dataEv(%"class.std::vector.3"* nonnull dereferenceable(24) %x) #9
  %24 = load %struct.GMMInput*, %struct.GMMInput** %input.addr, align 8, !tbaa !2
  %wishart = getelementptr inbounds %struct.GMMInput, %struct.GMMInput* %24, i32 0, i32 7
  %25 = bitcast %struct.Wishart* %agg.tmp to i8*
  %26 = bitcast %struct.Wishart* %wishart to i8*
  call void @llvm.memcpy.p0i8.p0i8.i64(i8* align 8 %25, i8* align 8 %26, i64 16, i1 false), !tbaa.struct !52
  call void @adept_dgmm_objective(i32 %12, i32 %14, i32 %16, double* %call12, double* %18, double* %call14, double* %20, double* %call15, double* %22, double* %call16, %struct.Wishart* byval(%struct.Wishart) align 8 %agg.tmp, double* %tmp, double* %errb)
  %27 = bitcast double* %errb to i8*
  call void @llvm.lifetime.end.p0i8(i64 8, i8* %27) #9
  %28 = bitcast double* %tmp to i8*
  call void @llvm.lifetime.end.p0i8(i64 8, i8* %28) #9
  %29 = bitcast double** %icf_gradient_part to i8*
  call void @llvm.lifetime.end.p0i8(i64 8, i8* %29) #9
  %30 = bitcast double** %means_gradient_part to i8*
  call void @llvm.lifetime.end.p0i8(i64 8, i8* %30) #9
  %31 = bitcast double** %alphas_gradient_part to i8*
  call void @llvm.lifetime.end.p0i8(i64 8, i8* %31) #9
  ret void
}

; Function Attrs: nounwind readnone
declare i32 @llvm.eh.typeid.for(i8*) #14

declare dso_local i8* @__cxa_get_exception_ptr(i8*)

; Function Attrs: nounwind uwtable
define linkonce_odr dso_local void @_ZNSt9bad_allocC2ERKS_(%"class.std::bad_alloc"* nonnull dereferenceable(8) %this, %"class.std::bad_alloc"* nonnull align 8 dereferenceable(8) %0) unnamed_addr #6 comdat align 2 {
entry:
  %this.addr = alloca %"class.std::bad_alloc"*, align 8
  %.addr = alloca %"class.std::bad_alloc"*, align 8
  store %"class.std::bad_alloc"* %this, %"class.std::bad_alloc"** %this.addr, align 8, !tbaa !2
  store %"class.std::bad_alloc"* %0, %"class.std::bad_alloc"** %.addr, align 8, !tbaa !2
  %this1 = load %"class.std::bad_alloc"*, %"class.std::bad_alloc"** %this.addr, align 8
  %1 = bitcast %"class.std::bad_alloc"* %this1 to %"class.std::exception"*
  %2 = load %"class.std::bad_alloc"*, %"class.std::bad_alloc"** %.addr, align 8, !tbaa !2
  %3 = bitcast %"class.std::bad_alloc"* %2 to %"class.std::exception"*
  call void @_ZNSt9exceptionC2ERKS_(%"class.std::exception"* nonnull dereferenceable(8) %1, %"class.std::exception"* nonnull align 8 dereferenceable(8) %3) #9
  %4 = bitcast %"class.std::bad_alloc"* %this1 to i32 (...)***
  store i32 (...)** bitcast (i8** getelementptr inbounds ({ [5 x i8*] }, { [5 x i8*] }* @_ZTVSt9bad_alloc, i32 0, inrange i32 0, i32 2) to i32 (...)**), i32 (...)*** %4, align 8, !tbaa !53
  ret void
}

declare dso_local i8* @__cxa_begin_catch(i8*)

; Function Attrs: nounwind
declare dso_local void @_ZNSt9bad_allocD1Ev(%"class.std::bad_alloc"* nonnull dereferenceable(8)) unnamed_addr #4

declare dso_local void @__cxa_end_catch()

; Function Attrs: noinline noreturn nounwind
define linkonce_odr hidden void @__clang_call_terminate(i8* %0) #15 comdat {
  %2 = call i8* @__cxa_begin_catch(i8* %0) #9
  call void @_ZSt9terminatev() #29
  unreachable
}

declare dso_local void @_ZSt9terminatev()

; Function Attrs: nounwind uwtable mustprogress
define linkonce_odr dso_local void @_Z18calculate_jacobianIXadL_Z14dgmm_objectiveEEEvR8GMMInputR9GMMOutput(%struct.GMMInput* nonnull align 8 dereferenceable(128) %input, %struct.GMMOutput* nonnull align 8 dereferenceable(32) %result) #8 comdat {
entry:
  %input.addr = alloca %struct.GMMInput*, align 8
  %result.addr = alloca %struct.GMMOutput*, align 8
  %alphas_gradient_part = alloca double*, align 8
  %means_gradient_part = alloca double*, align 8
  %icf_gradient_part = alloca double*, align 8
  %tmp = alloca double, align 8
  %errb = alloca double, align 8
  %agg.tmp = alloca %struct.Wishart, align 8
  store %struct.GMMInput* %input, %struct.GMMInput** %input.addr, align 8, !tbaa !2
  store %struct.GMMOutput* %result, %struct.GMMOutput** %result.addr, align 8, !tbaa !2
  %0 = bitcast double** %alphas_gradient_part to i8*
  call void @llvm.lifetime.start.p0i8(i64 8, i8* %0) #9
  %1 = load %struct.GMMOutput*, %struct.GMMOutput** %result.addr, align 8, !tbaa !2
  %gradient = getelementptr inbounds %struct.GMMOutput, %struct.GMMOutput* %1, i32 0, i32 1
  %call = call double* @_ZNSt6vectorIdSaIdEE4dataEv(%"class.std::vector.3"* nonnull dereferenceable(24) %gradient) #9
  store double* %call, double** %alphas_gradient_part, align 8, !tbaa !2
  %2 = bitcast double** %means_gradient_part to i8*
  call void @llvm.lifetime.start.p0i8(i64 8, i8* %2) #9
  %3 = load %struct.GMMOutput*, %struct.GMMOutput** %result.addr, align 8, !tbaa !2
  %gradient1 = getelementptr inbounds %struct.GMMOutput, %struct.GMMOutput* %3, i32 0, i32 1
  %call2 = call double* @_ZNSt6vectorIdSaIdEE4dataEv(%"class.std::vector.3"* nonnull dereferenceable(24) %gradient1) #9
  %4 = load %struct.GMMInput*, %struct.GMMInput** %input.addr, align 8, !tbaa !2
  %alphas = getelementptr inbounds %struct.GMMInput, %struct.GMMInput* %4, i32 0, i32 3
  %call3 = call i64 @_ZNKSt6vectorIdSaIdEE4sizeEv(%"class.std::vector.3"* nonnull dereferenceable(24) %alphas) #9
  %add.ptr = getelementptr inbounds double, double* %call2, i64 %call3
  store double* %add.ptr, double** %means_gradient_part, align 8, !tbaa !2
  %5 = bitcast double** %icf_gradient_part to i8*
  call void @llvm.lifetime.start.p0i8(i64 8, i8* %5) #9
  %6 = load %struct.GMMOutput*, %struct.GMMOutput** %result.addr, align 8, !tbaa !2
  %gradient4 = getelementptr inbounds %struct.GMMOutput, %struct.GMMOutput* %6, i32 0, i32 1
  %call5 = call double* @_ZNSt6vectorIdSaIdEE4dataEv(%"class.std::vector.3"* nonnull dereferenceable(24) %gradient4) #9
  %7 = load %struct.GMMInput*, %struct.GMMInput** %input.addr, align 8, !tbaa !2
  %alphas6 = getelementptr inbounds %struct.GMMInput, %struct.GMMInput* %7, i32 0, i32 3
  %call7 = call i64 @_ZNKSt6vectorIdSaIdEE4sizeEv(%"class.std::vector.3"* nonnull dereferenceable(24) %alphas6) #9
  %add.ptr8 = getelementptr inbounds double, double* %call5, i64 %call7
  %8 = load %struct.GMMInput*, %struct.GMMInput** %input.addr, align 8, !tbaa !2
  %means = getelementptr inbounds %struct.GMMInput, %struct.GMMInput* %8, i32 0, i32 4
  %call9 = call i64 @_ZNKSt6vectorIdSaIdEE4sizeEv(%"class.std::vector.3"* nonnull dereferenceable(24) %means) #9
  %add.ptr10 = getelementptr inbounds double, double* %add.ptr8, i64 %call9
  store double* %add.ptr10, double** %icf_gradient_part, align 8, !tbaa !2
  %9 = bitcast double* %tmp to i8*
  call void @llvm.lifetime.start.p0i8(i64 8, i8* %9) #9
  store double 0.000000e+00, double* %tmp, align 8, !tbaa !44
  %10 = bitcast double* %errb to i8*
  call void @llvm.lifetime.start.p0i8(i64 8, i8* %10) #9
  store double 1.000000e+00, double* %errb, align 8, !tbaa !44
  %11 = load %struct.GMMInput*, %struct.GMMInput** %input.addr, align 8, !tbaa !2
  %d = getelementptr inbounds %struct.GMMInput, %struct.GMMInput* %11, i32 0, i32 0
  %12 = load i32, i32* %d, align 8, !tbaa !41
  %13 = load %struct.GMMInput*, %struct.GMMInput** %input.addr, align 8, !tbaa !2
  %k = getelementptr inbounds %struct.GMMInput, %struct.GMMInput* %13, i32 0, i32 1
  %14 = load i32, i32* %k, align 4, !tbaa !36
  %15 = load %struct.GMMInput*, %struct.GMMInput** %input.addr, align 8, !tbaa !2
  %n = getelementptr inbounds %struct.GMMInput, %struct.GMMInput* %15, i32 0, i32 2
  %16 = load i32, i32* %n, align 8, !tbaa !51
  %17 = load %struct.GMMInput*, %struct.GMMInput** %input.addr, align 8, !tbaa !2
  %alphas11 = getelementptr inbounds %struct.GMMInput, %struct.GMMInput* %17, i32 0, i32 3
  %call12 = call double* @_ZNSt6vectorIdSaIdEE4dataEv(%"class.std::vector.3"* nonnull dereferenceable(24) %alphas11) #9
  %18 = load double*, double** %alphas_gradient_part, align 8, !tbaa !2
  %19 = load %struct.GMMInput*, %struct.GMMInput** %input.addr, align 8, !tbaa !2
  %means13 = getelementptr inbounds %struct.GMMInput, %struct.GMMInput* %19, i32 0, i32 4
  %call14 = call double* @_ZNSt6vectorIdSaIdEE4dataEv(%"class.std::vector.3"* nonnull dereferenceable(24) %means13) #9
  %20 = load double*, double** %means_gradient_part, align 8, !tbaa !2
  %21 = load %struct.GMMInput*, %struct.GMMInput** %input.addr, align 8, !tbaa !2
  %icf = getelementptr inbounds %struct.GMMInput, %struct.GMMInput* %21, i32 0, i32 5
  %call15 = call double* @_ZNSt6vectorIdSaIdEE4dataEv(%"class.std::vector.3"* nonnull dereferenceable(24) %icf) #9
  %22 = load double*, double** %icf_gradient_part, align 8, !tbaa !2
  %23 = load %struct.GMMInput*, %struct.GMMInput** %input.addr, align 8, !tbaa !2
  %x = getelementptr inbounds %struct.GMMInput, %struct.GMMInput* %23, i32 0, i32 6
  %call16 = call double* @_ZNSt6vectorIdSaIdEE4dataEv(%"class.std::vector.3"* nonnull dereferenceable(24) %x) #9
  %24 = load %struct.GMMInput*, %struct.GMMInput** %input.addr, align 8, !tbaa !2
  %wishart = getelementptr inbounds %struct.GMMInput, %struct.GMMInput* %24, i32 0, i32 7
  %25 = bitcast %struct.Wishart* %agg.tmp to i8*
  %26 = bitcast %struct.Wishart* %wishart to i8*
  call void @llvm.memcpy.p0i8.p0i8.i64(i8* align 8 %25, i8* align 8 %26, i64 16, i1 false), !tbaa.struct !52
  call void @dgmm_objective(i32 %12, i32 %14, i32 %16, double* %call12, double* %18, double* %call14, double* %20, double* %call15, double* %22, double* %call16, %struct.Wishart* byval(%struct.Wishart) align 8 %agg.tmp, double* %tmp, double* %errb)
  %27 = bitcast double* %errb to i8*
  call void @llvm.lifetime.end.p0i8(i64 8, i8* %27) #9
  %28 = bitcast double* %tmp to i8*
  call void @llvm.lifetime.end.p0i8(i64 8, i8* %28) #9
  %29 = bitcast double** %icf_gradient_part to i8*
  call void @llvm.lifetime.end.p0i8(i64 8, i8* %29) #9
  %30 = bitcast double** %means_gradient_part to i8*
  call void @llvm.lifetime.end.p0i8(i64 8, i8* %30) #9
  %31 = bitcast double** %alphas_gradient_part to i8*
  call void @llvm.lifetime.end.p0i8(i64 8, i8* %31) #9
  ret void
}

; Function Attrs: nounwind uwtable mustprogress
define linkonce_odr dso_local nonnull align 8 dereferenceable(8) %"class.__gnu_cxx::__normal_iterator"* @_ZN9__gnu_cxx17__normal_iteratorIPNSt7__cxx1112basic_stringIcSt11char_traitsIcESaIcEEESt6vectorIS6_SaIS6_EEEppEv(%"class.__gnu_cxx::__normal_iterator"* nonnull dereferenceable(8) %this) #8 comdat align 2 {
entry:
  %this.addr = alloca %"class.__gnu_cxx::__normal_iterator"*, align 8
  store %"class.__gnu_cxx::__normal_iterator"* %this, %"class.__gnu_cxx::__normal_iterator"** %this.addr, align 8, !tbaa !2
  %this1 = load %"class.__gnu_cxx::__normal_iterator"*, %"class.__gnu_cxx::__normal_iterator"** %this.addr, align 8
  %_M_current = getelementptr inbounds %"class.__gnu_cxx::__normal_iterator", %"class.__gnu_cxx::__normal_iterator"* %this1, i32 0, i32 0
  %0 = load %"class.std::__cxx11::basic_string"*, %"class.std::__cxx11::basic_string"** %_M_current, align 8, !tbaa !49
  %incdec.ptr = getelementptr inbounds %"class.std::__cxx11::basic_string", %"class.std::__cxx11::basic_string"* %0, i32 1
  store %"class.std::__cxx11::basic_string"* %incdec.ptr, %"class.std::__cxx11::basic_string"** %_M_current, align 8, !tbaa !49
  ret %"class.__gnu_cxx::__normal_iterator"* %this1
}

; Function Attrs: nounwind uwtable
define linkonce_odr dso_local void @_ZNSt6vectorINSt7__cxx1112basic_stringIcSt11char_traitsIcESaIcEEESaIS5_EED2Ev(%"class.std::vector"* nonnull dereferenceable(24) %this) unnamed_addr #6 comdat align 2 personality i8* bitcast (i32 (...)* @__gxx_personality_v0 to i8*) {
entry:
  %this.addr = alloca %"class.std::vector"*, align 8
  %exn.slot = alloca i8*, align 8
  %ehselector.slot = alloca i32, align 4
  store %"class.std::vector"* %this, %"class.std::vector"** %this.addr, align 8, !tbaa !2
  %this1 = load %"class.std::vector"*, %"class.std::vector"** %this.addr, align 8
  %0 = bitcast %"class.std::vector"* %this1 to %"struct.std::_Vector_base"*
  %_M_impl = getelementptr inbounds %"struct.std::_Vector_base", %"struct.std::_Vector_base"* %0, i32 0, i32 0
  %1 = bitcast %"struct.std::_Vector_base<std::__cxx11::basic_string<char>, std::allocator<std::__cxx11::basic_string<char>>>::_Vector_impl"* %_M_impl to %"struct.std::_Vector_base<std::__cxx11::basic_string<char>, std::allocator<std::__cxx11::basic_string<char>>>::_Vector_impl_data"*
  %_M_start = getelementptr inbounds %"struct.std::_Vector_base<std::__cxx11::basic_string<char>, std::allocator<std::__cxx11::basic_string<char>>>::_Vector_impl_data", %"struct.std::_Vector_base<std::__cxx11::basic_string<char>, std::allocator<std::__cxx11::basic_string<char>>>::_Vector_impl_data"* %1, i32 0, i32 0
  %2 = load %"class.std::__cxx11::basic_string"*, %"class.std::__cxx11::basic_string"** %_M_start, align 8, !tbaa !55
  %3 = bitcast %"class.std::vector"* %this1 to %"struct.std::_Vector_base"*
  %_M_impl2 = getelementptr inbounds %"struct.std::_Vector_base", %"struct.std::_Vector_base"* %3, i32 0, i32 0
  %4 = bitcast %"struct.std::_Vector_base<std::__cxx11::basic_string<char>, std::allocator<std::__cxx11::basic_string<char>>>::_Vector_impl"* %_M_impl2 to %"struct.std::_Vector_base<std::__cxx11::basic_string<char>, std::allocator<std::__cxx11::basic_string<char>>>::_Vector_impl_data"*
  %_M_finish = getelementptr inbounds %"struct.std::_Vector_base<std::__cxx11::basic_string<char>, std::allocator<std::__cxx11::basic_string<char>>>::_Vector_impl_data", %"struct.std::_Vector_base<std::__cxx11::basic_string<char>, std::allocator<std::__cxx11::basic_string<char>>>::_Vector_impl_data"* %4, i32 0, i32 1
  %5 = load %"class.std::__cxx11::basic_string"*, %"class.std::__cxx11::basic_string"** %_M_finish, align 8, !tbaa !57
  %6 = bitcast %"class.std::vector"* %this1 to %"struct.std::_Vector_base"*
  %call = call nonnull align 1 dereferenceable(1) %"class.std::allocator"* @_ZNSt12_Vector_baseINSt7__cxx1112basic_stringIcSt11char_traitsIcESaIcEEESaIS5_EE19_M_get_Tp_allocatorEv(%"struct.std::_Vector_base"* nonnull dereferenceable(24) %6) #9
  invoke void @_ZSt8_DestroyIPNSt7__cxx1112basic_stringIcSt11char_traitsIcESaIcEEES5_EvT_S7_RSaIT0_E(%"class.std::__cxx11::basic_string"* %2, %"class.std::__cxx11::basic_string"* %5, %"class.std::allocator"* nonnull align 1 dereferenceable(1) %call)
          to label %invoke.cont unwind label %lpad

invoke.cont:                                      ; preds = %entry
  %7 = bitcast %"class.std::vector"* %this1 to %"struct.std::_Vector_base"*
  call void @_ZNSt12_Vector_baseINSt7__cxx1112basic_stringIcSt11char_traitsIcESaIcEEESaIS5_EED2Ev(%"struct.std::_Vector_base"* nonnull dereferenceable(24) %7) #9
  ret void

lpad:                                             ; preds = %entry
  %8 = landingpad { i8*, i32 }
          catch i8* null
  %9 = extractvalue { i8*, i32 } %8, 0
  store i8* %9, i8** %exn.slot, align 8
  %10 = extractvalue { i8*, i32 } %8, 1
  store i32 %10, i32* %ehselector.slot, align 4
  %11 = bitcast %"class.std::vector"* %this1 to %"struct.std::_Vector_base"*
  call void @_ZNSt12_Vector_baseINSt7__cxx1112basic_stringIcSt11char_traitsIcESaIcEEESaIS5_EED2Ev(%"struct.std::_Vector_base"* nonnull dereferenceable(24) %11) #9
  br label %terminate.handler

terminate.handler:                                ; preds = %lpad
  %exn = load i8*, i8** %exn.slot, align 8
  call void @__clang_call_terminate(i8* %exn) #29
  unreachable
}

; Function Attrs: nounwind uwtable mustprogress
define dso_local double @arr_max(i32 %n, double* %x) #8 {
entry:
  %n.addr = alloca i32, align 4
  %x.addr = alloca double*, align 8
  %i = alloca i32, align 4
  %m = alloca double, align 8
  store i32 %n, i32* %n.addr, align 4, !tbaa !20
  store double* %x, double** %x.addr, align 8, !tbaa !2
  %0 = bitcast i32* %i to i8*
  call void @llvm.lifetime.start.p0i8(i64 4, i8* %0) #9
  %1 = bitcast double* %m to i8*
  call void @llvm.lifetime.start.p0i8(i64 8, i8* %1) #9
  %2 = load double*, double** %x.addr, align 8, !tbaa !2
  %arrayidx = getelementptr inbounds double, double* %2, i64 0
  %3 = load double, double* %arrayidx, align 8, !tbaa !44
  store double %3, double* %m, align 8, !tbaa !44
  store i32 1, i32* %i, align 4, !tbaa !20
  br label %for.cond

for.cond:                                         ; preds = %for.inc, %entry
  %4 = load i32, i32* %i, align 4, !tbaa !20
  %5 = load i32, i32* %n.addr, align 4, !tbaa !20
  %cmp = icmp slt i32 %4, %5
  br i1 %cmp, label %for.body, label %for.end

for.body:                                         ; preds = %for.cond
  %6 = load double, double* %m, align 8, !tbaa !44
  %7 = load double*, double** %x.addr, align 8, !tbaa !2
  %8 = load i32, i32* %i, align 4, !tbaa !20
  %idxprom = sext i32 %8 to i64
  %arrayidx1 = getelementptr inbounds double, double* %7, i64 %idxprom
  %9 = load double, double* %arrayidx1, align 8, !tbaa !44
  %cmp2 = fcmp fast olt double %6, %9
  br i1 %cmp2, label %if.then, label %if.end

if.then:                                          ; preds = %for.body
  %10 = load double*, double** %x.addr, align 8, !tbaa !2
  %11 = load i32, i32* %i, align 4, !tbaa !20
  %idxprom3 = sext i32 %11 to i64
  %arrayidx4 = getelementptr inbounds double, double* %10, i64 %idxprom3
  %12 = load double, double* %arrayidx4, align 8, !tbaa !44
  store double %12, double* %m, align 8, !tbaa !44
  br label %if.end

if.end:                                           ; preds = %if.then, %for.body
  br label %for.inc

for.inc:                                          ; preds = %if.end
  %13 = load i32, i32* %i, align 4, !tbaa !20
  %inc = add nsw i32 %13, 1
  store i32 %inc, i32* %i, align 4, !tbaa !20
  br label %for.cond, !llvm.loop !58

for.end:                                          ; preds = %for.cond
  %14 = load double, double* %m, align 8, !tbaa !44
  %15 = bitcast double* %m to i8*
  call void @llvm.lifetime.end.p0i8(i64 8, i8* %15) #9
  %16 = bitcast i32* %i to i8*
  call void @llvm.lifetime.end.p0i8(i64 4, i8* %16) #9
  ret double %14
}

; Function Attrs: nounwind uwtable mustprogress
define dso_local double @sqnorm(i32 %n, double* %x) #8 {
entry:
  %n.addr = alloca i32, align 4
  %x.addr = alloca double*, align 8
  %i = alloca i32, align 4
  %res = alloca double, align 8
  store i32 %n, i32* %n.addr, align 4, !tbaa !20
  store double* %x, double** %x.addr, align 8, !tbaa !2
  %0 = bitcast i32* %i to i8*
  call void @llvm.lifetime.start.p0i8(i64 4, i8* %0) #9
  %1 = bitcast double* %res to i8*
  call void @llvm.lifetime.start.p0i8(i64 8, i8* %1) #9
  %2 = load double*, double** %x.addr, align 8, !tbaa !2
  %arrayidx = getelementptr inbounds double, double* %2, i64 0
  %3 = load double, double* %arrayidx, align 8, !tbaa !44
  %4 = load double*, double** %x.addr, align 8, !tbaa !2
  %arrayidx1 = getelementptr inbounds double, double* %4, i64 0
  %5 = load double, double* %arrayidx1, align 8, !tbaa !44
  %mul = fmul fast double %3, %5
  store double %mul, double* %res, align 8, !tbaa !44
  store i32 1, i32* %i, align 4, !tbaa !20
  br label %for.cond

for.cond:                                         ; preds = %for.inc, %entry
  %6 = load i32, i32* %i, align 4, !tbaa !20
  %7 = load i32, i32* %n.addr, align 4, !tbaa !20
  %cmp = icmp slt i32 %6, %7
  br i1 %cmp, label %for.body, label %for.end

for.body:                                         ; preds = %for.cond
  %8 = load double, double* %res, align 8, !tbaa !44
  %9 = load double*, double** %x.addr, align 8, !tbaa !2
  %10 = load i32, i32* %i, align 4, !tbaa !20
  %idxprom = sext i32 %10 to i64
  %arrayidx2 = getelementptr inbounds double, double* %9, i64 %idxprom
  %11 = load double, double* %arrayidx2, align 8, !tbaa !44
  %12 = load double*, double** %x.addr, align 8, !tbaa !2
  %13 = load i32, i32* %i, align 4, !tbaa !20
  %idxprom3 = sext i32 %13 to i64
  %arrayidx4 = getelementptr inbounds double, double* %12, i64 %idxprom3
  %14 = load double, double* %arrayidx4, align 8, !tbaa !44
  %mul5 = fmul fast double %11, %14
  %add = fadd fast double %8, %mul5
  store double %add, double* %res, align 8, !tbaa !44
  br label %for.inc

for.inc:                                          ; preds = %for.body
  %15 = load i32, i32* %i, align 4, !tbaa !20
  %inc = add nsw i32 %15, 1
  store i32 %inc, i32* %i, align 4, !tbaa !20
  br label %for.cond, !llvm.loop !59

for.end:                                          ; preds = %for.cond
  %16 = load double, double* %res, align 8, !tbaa !44
  %17 = bitcast double* %res to i8*
  call void @llvm.lifetime.end.p0i8(i64 8, i8* %17) #9
  %18 = bitcast i32* %i to i8*
  call void @llvm.lifetime.end.p0i8(i64 4, i8* %18) #9
  ret double %16
}

; Function Attrs: nounwind uwtable mustprogress
define dso_local void @subtract(i32 %d, double* %x, double* %y, double* %out) #8 {
entry:
  %d.addr = alloca i32, align 4
  %x.addr = alloca double*, align 8
  %y.addr = alloca double*, align 8
  %out.addr = alloca double*, align 8
  %id = alloca i32, align 4
  store i32 %d, i32* %d.addr, align 4, !tbaa !20
  store double* %x, double** %x.addr, align 8, !tbaa !2
  store double* %y, double** %y.addr, align 8, !tbaa !2
  store double* %out, double** %out.addr, align 8, !tbaa !2
  %0 = bitcast i32* %id to i8*
  call void @llvm.lifetime.start.p0i8(i64 4, i8* %0) #9
  store i32 0, i32* %id, align 4, !tbaa !20
  br label %for.cond

for.cond:                                         ; preds = %for.inc, %entry
  %1 = load i32, i32* %id, align 4, !tbaa !20
  %2 = load i32, i32* %d.addr, align 4, !tbaa !20
  %cmp = icmp slt i32 %1, %2
  br i1 %cmp, label %for.body, label %for.end

for.body:                                         ; preds = %for.cond
  %3 = load double*, double** %x.addr, align 8, !tbaa !2
  %4 = load i32, i32* %id, align 4, !tbaa !20
  %idxprom = sext i32 %4 to i64
  %arrayidx = getelementptr inbounds double, double* %3, i64 %idxprom
  %5 = load double, double* %arrayidx, align 8, !tbaa !44
  %6 = load double*, double** %y.addr, align 8, !tbaa !2
  %7 = load i32, i32* %id, align 4, !tbaa !20
  %idxprom1 = sext i32 %7 to i64
  %arrayidx2 = getelementptr inbounds double, double* %6, i64 %idxprom1
  %8 = load double, double* %arrayidx2, align 8, !tbaa !44
  %sub = fsub fast double %5, %8
  %9 = load double*, double** %out.addr, align 8, !tbaa !2
  %10 = load i32, i32* %id, align 4, !tbaa !20
  %idxprom3 = sext i32 %10 to i64
  %arrayidx4 = getelementptr inbounds double, double* %9, i64 %idxprom3
  store double %sub, double* %arrayidx4, align 8, !tbaa !44
  br label %for.inc

for.inc:                                          ; preds = %for.body
  %11 = load i32, i32* %id, align 4, !tbaa !20
  %inc = add nsw i32 %11, 1
  store i32 %inc, i32* %id, align 4, !tbaa !20
  br label %for.cond, !llvm.loop !60

for.end:                                          ; preds = %for.cond
  %12 = bitcast i32* %id to i8*
  call void @llvm.lifetime.end.p0i8(i64 4, i8* %12) #9
  ret void
}

; Function Attrs: nounwind uwtable mustprogress
define dso_local double @log_sum_exp(i32 %n, double* %x) #8 {
entry:
  %n.addr = alloca i32, align 4
  %x.addr = alloca double*, align 8
  %i = alloca i32, align 4
  %mx = alloca double, align 8
  %semx = alloca double, align 8
  store i32 %n, i32* %n.addr, align 4, !tbaa !20
  store double* %x, double** %x.addr, align 8, !tbaa !2
  %0 = bitcast i32* %i to i8*
  call void @llvm.lifetime.start.p0i8(i64 4, i8* %0) #9
  %1 = bitcast double* %mx to i8*
  call void @llvm.lifetime.start.p0i8(i64 8, i8* %1) #9
  %2 = load i32, i32* %n.addr, align 4, !tbaa !20
  %3 = load double*, double** %x.addr, align 8, !tbaa !2
  %call = call fast double @arr_max(i32 %2, double* %3)
  store double %call, double* %mx, align 8, !tbaa !44
  %4 = bitcast double* %semx to i8*
  call void @llvm.lifetime.start.p0i8(i64 8, i8* %4) #9
  store double 0.000000e+00, double* %semx, align 8, !tbaa !44
  store i32 0, i32* %i, align 4, !tbaa !20
  br label %for.cond

for.cond:                                         ; preds = %for.inc, %entry
  %5 = load i32, i32* %i, align 4, !tbaa !20
  %6 = load i32, i32* %n.addr, align 4, !tbaa !20
  %cmp = icmp slt i32 %5, %6
  br i1 %cmp, label %for.body, label %for.end

for.body:                                         ; preds = %for.cond
  %7 = load double, double* %semx, align 8, !tbaa !44
  %8 = load double*, double** %x.addr, align 8, !tbaa !2
  %9 = load i32, i32* %i, align 4, !tbaa !20
  %idxprom = sext i32 %9 to i64
  %arrayidx = getelementptr inbounds double, double* %8, i64 %idxprom
  %10 = load double, double* %arrayidx, align 8, !tbaa !44
  %11 = load double, double* %mx, align 8, !tbaa !44
  %sub = fsub fast double %10, %11
  %12 = call fast double @llvm.exp.f64(double %sub)
  %add = fadd fast double %7, %12
  store double %add, double* %semx, align 8, !tbaa !44
  br label %for.inc

for.inc:                                          ; preds = %for.body
  %13 = load i32, i32* %i, align 4, !tbaa !20
  %inc = add nsw i32 %13, 1
  store i32 %inc, i32* %i, align 4, !tbaa !20
  br label %for.cond, !llvm.loop !61

for.end:                                          ; preds = %for.cond
  %14 = load double, double* %semx, align 8, !tbaa !44
  %15 = call fast double @llvm.log.f64(double %14)
  %16 = load double, double* %mx, align 8, !tbaa !44
  %add1 = fadd fast double %15, %16
  %17 = bitcast double* %semx to i8*
  call void @llvm.lifetime.end.p0i8(i64 8, i8* %17) #9
  %18 = bitcast double* %mx to i8*
  call void @llvm.lifetime.end.p0i8(i64 8, i8* %18) #9
  %19 = bitcast i32* %i to i8*
  call void @llvm.lifetime.end.p0i8(i64 4, i8* %19) #9
  ret double %add1
}

; Function Attrs: nofree nosync nounwind readnone speculatable willreturn
declare double @llvm.exp.f64(double) #16

; Function Attrs: nofree nosync nounwind readnone speculatable willreturn
declare double @llvm.log.f64(double) #16

; Function Attrs: nounwind readnone uwtable willreturn mustprogress
define dso_local double @log_gamma_distrib(double %a, double %p) #17 {
entry:
  %a.addr = alloca double, align 8
  %p.addr = alloca double, align 8
  %j = alloca i32, align 4
  %out = alloca double, align 8
  store double %a, double* %a.addr, align 8, !tbaa !44
  store double %p, double* %p.addr, align 8, !tbaa !44
  %0 = bitcast i32* %j to i8*
  call void @llvm.lifetime.start.p0i8(i64 4, i8* %0) #9
  %1 = bitcast double* %out to i8*
  call void @llvm.lifetime.start.p0i8(i64 8, i8* %1) #9
  %2 = load double, double* %p.addr, align 8, !tbaa !44
  %mul = fmul fast double 2.500000e-01, %2
  %3 = load double, double* %p.addr, align 8, !tbaa !44
  %sub = fsub fast double %3, 1.000000e+00
  %mul1 = fmul fast double %mul, %sub
  %4 = call fast double @llvm.log.f64(double 0x400921FB54442EEA)
  %mul2 = fmul fast double %mul1, %4
  store double %mul2, double* %out, align 8, !tbaa !44
  store i32 1, i32* %j, align 4, !tbaa !20
  br label %for.cond

for.cond:                                         ; preds = %for.inc, %entry
  %5 = load i32, i32* %j, align 4, !tbaa !20
  %conv = sitofp i32 %5 to double
  %6 = load double, double* %p.addr, align 8, !tbaa !44
  %cmp = fcmp fast ole double %conv, %6
  br i1 %cmp, label %for.body, label %for.end

for.body:                                         ; preds = %for.cond
  %7 = load double, double* %out, align 8, !tbaa !44
  %8 = load double, double* %a.addr, align 8, !tbaa !44
  %9 = load i32, i32* %j, align 4, !tbaa !20
  %sub3 = sub nsw i32 1, %9
  %conv4 = sitofp i32 %sub3 to double
  %mul5 = fmul fast double 5.000000e-01, %conv4
  %add = fadd fast double %8, %mul5
  %call = call fast double @lgamma(double %add) #9
  %add6 = fadd fast double %7, %call
  store double %add6, double* %out, align 8, !tbaa !44
  br label %for.inc

for.inc:                                          ; preds = %for.body
  %10 = load i32, i32* %j, align 4, !tbaa !20
  %inc = add nsw i32 %10, 1
  store i32 %inc, i32* %j, align 4, !tbaa !20
  br label %for.cond, !llvm.loop !62

for.end:                                          ; preds = %for.cond
  %11 = load double, double* %out, align 8, !tbaa !44
  %12 = bitcast double* %out to i8*
  call void @llvm.lifetime.end.p0i8(i64 8, i8* %12) #9
  %13 = bitcast i32* %j to i8*
  call void @llvm.lifetime.end.p0i8(i64 4, i8* %13) #9
  ret double %11
}

; Function Attrs: nounwind
declare dso_local double @lgamma(double) #4

; Function Attrs: uwtable mustprogress
define dso_local double @log_wishart_prior(i32 %p, i32 %k, double %wishart.coerce0, i32 %wishart.coerce1, double* %sum_qs, double* %Qdiags, double* %icf) #0 {
entry:
  %wishart = alloca %struct.Wishart, align 8
  %p.addr = alloca i32, align 4
  %k.addr = alloca i32, align 4
  %sum_qs.addr = alloca double*, align 8
  %Qdiags.addr = alloca double*, align 8
  %icf.addr = alloca double*, align 8
  %ik = alloca i32, align 4
  %n = alloca i32, align 4
  %icf_sz = alloca i32, align 4
  %C = alloca double, align 8
  %out = alloca double, align 8
  %frobenius = alloca double, align 8
  %0 = bitcast %struct.Wishart* %wishart to { double, i32 }*
  %1 = getelementptr inbounds { double, i32 }, { double, i32 }* %0, i32 0, i32 0
  store double %wishart.coerce0, double* %1, align 8
  %2 = getelementptr inbounds { double, i32 }, { double, i32 }* %0, i32 0, i32 1
  store i32 %wishart.coerce1, i32* %2, align 8
  store i32 %p, i32* %p.addr, align 4, !tbaa !20
  store i32 %k, i32* %k.addr, align 4, !tbaa !20
  store double* %sum_qs, double** %sum_qs.addr, align 8, !tbaa !2
  store double* %Qdiags, double** %Qdiags.addr, align 8, !tbaa !2
  store double* %icf, double** %icf.addr, align 8, !tbaa !2
  %3 = bitcast i32* %ik to i8*
  call void @llvm.lifetime.start.p0i8(i64 4, i8* %3) #9
  %4 = bitcast i32* %n to i8*
  call void @llvm.lifetime.start.p0i8(i64 4, i8* %4) #9
  %5 = load i32, i32* %p.addr, align 4, !tbaa !20
  %m = getelementptr inbounds %struct.Wishart, %struct.Wishart* %wishart, i32 0, i32 1
  %6 = load i32, i32* %m, align 8, !tbaa !63
  %add = add nsw i32 %5, %6
  %add1 = add nsw i32 %add, 1
  store i32 %add1, i32* %n, align 4, !tbaa !20
  %7 = bitcast i32* %icf_sz to i8*
  call void @llvm.lifetime.start.p0i8(i64 4, i8* %7) #9
  %8 = load i32, i32* %p.addr, align 4, !tbaa !20
  %9 = load i32, i32* %p.addr, align 4, !tbaa !20
  %add2 = add nsw i32 %9, 1
  %mul = mul nsw i32 %8, %add2
  %div = sdiv i32 %mul, 2
  store i32 %div, i32* %icf_sz, align 4, !tbaa !20
  %10 = bitcast double* %C to i8*
  call void @llvm.lifetime.start.p0i8(i64 8, i8* %10) #9
  %11 = load i32, i32* %n, align 4, !tbaa !20
  %12 = load i32, i32* %p.addr, align 4, !tbaa !20
  %mul3 = mul nsw i32 %11, %12
  %conv = sitofp i32 %mul3 to double
  %gamma = getelementptr inbounds %struct.Wishart, %struct.Wishart* %wishart, i32 0, i32 0
  %13 = load double, double* %gamma, align 8, !tbaa !64
  %14 = call fast double @llvm.log.f64(double %13)
  %call = call fast double @_ZSt3logIiEN9__gnu_cxx11__enable_ifIXsr12__is_integerIT_EE7__valueEdE6__typeES2_(i32 2)
  %mul4 = fmul fast double 5.000000e-01, %call
  %sub = fsub fast double %14, %mul4
  %mul5 = fmul fast double %conv, %sub
  %15 = load i32, i32* %n, align 4, !tbaa !20
  %conv6 = sitofp i32 %15 to double
  %mul7 = fmul fast double 5.000000e-01, %conv6
  %16 = load i32, i32* %p.addr, align 4, !tbaa !20
  %conv8 = sitofp i32 %16 to double
  %call9 = call fast double @log_gamma_distrib(double %mul7, double %conv8) #30
  %sub10 = fsub fast double %mul5, %call9
  store double %sub10, double* %C, align 8, !tbaa !44
  %17 = bitcast double* %out to i8*
  call void @llvm.lifetime.start.p0i8(i64 8, i8* %17) #9
  store double 0.000000e+00, double* %out, align 8, !tbaa !44
  store i32 0, i32* %ik, align 4, !tbaa !20
  br label %for.cond

for.cond:                                         ; preds = %for.inc, %entry
  %18 = load i32, i32* %ik, align 4, !tbaa !20
  %19 = load i32, i32* %k.addr, align 4, !tbaa !20
  %cmp = icmp slt i32 %18, %19
  br i1 %cmp, label %for.body, label %for.end

for.body:                                         ; preds = %for.cond
  %20 = bitcast double* %frobenius to i8*
  call void @llvm.lifetime.start.p0i8(i64 8, i8* %20) #9
  %21 = load i32, i32* %p.addr, align 4, !tbaa !20
  %22 = load double*, double** %Qdiags.addr, align 8, !tbaa !2
  %23 = load i32, i32* %ik, align 4, !tbaa !20
  %24 = load i32, i32* %p.addr, align 4, !tbaa !20
  %mul11 = mul nsw i32 %23, %24
  %idxprom = sext i32 %mul11 to i64
  %arrayidx = getelementptr inbounds double, double* %22, i64 %idxprom
  %call12 = call fast double @sqnorm(i32 %21, double* %arrayidx)
  %25 = load i32, i32* %icf_sz, align 4, !tbaa !20
  %26 = load i32, i32* %p.addr, align 4, !tbaa !20
  %sub13 = sub nsw i32 %25, %26
  %27 = load double*, double** %icf.addr, align 8, !tbaa !2
  %28 = load i32, i32* %ik, align 4, !tbaa !20
  %29 = load i32, i32* %icf_sz, align 4, !tbaa !20
  %mul14 = mul nsw i32 %28, %29
  %30 = load i32, i32* %p.addr, align 4, !tbaa !20
  %add15 = add nsw i32 %mul14, %30
  %idxprom16 = sext i32 %add15 to i64
  %arrayidx17 = getelementptr inbounds double, double* %27, i64 %idxprom16
  %call18 = call fast double @sqnorm(i32 %sub13, double* %arrayidx17)
  %add19 = fadd fast double %call12, %call18
  store double %add19, double* %frobenius, align 8, !tbaa !44
  %31 = load double, double* %out, align 8, !tbaa !44
  %gamma20 = getelementptr inbounds %struct.Wishart, %struct.Wishart* %wishart, i32 0, i32 0
  %32 = load double, double* %gamma20, align 8, !tbaa !64
  %mul21 = fmul fast double 5.000000e-01, %32
  %gamma22 = getelementptr inbounds %struct.Wishart, %struct.Wishart* %wishart, i32 0, i32 0
  %33 = load double, double* %gamma22, align 8, !tbaa !64
  %mul23 = fmul fast double %mul21, %33
  %34 = load double, double* %frobenius, align 8, !tbaa !44
  %mul24 = fmul fast double %mul23, %34
  %add25 = fadd fast double %31, %mul24
  %m26 = getelementptr inbounds %struct.Wishart, %struct.Wishart* %wishart, i32 0, i32 1
  %35 = load i32, i32* %m26, align 8, !tbaa !63
  %conv27 = sitofp i32 %35 to double
  %36 = load double*, double** %sum_qs.addr, align 8, !tbaa !2
  %37 = load i32, i32* %ik, align 4, !tbaa !20
  %idxprom28 = sext i32 %37 to i64
  %arrayidx29 = getelementptr inbounds double, double* %36, i64 %idxprom28
  %38 = load double, double* %arrayidx29, align 8, !tbaa !44
  %mul30 = fmul fast double %conv27, %38
  %sub31 = fsub fast double %add25, %mul30
  store double %sub31, double* %out, align 8, !tbaa !44
  %39 = bitcast double* %frobenius to i8*
  call void @llvm.lifetime.end.p0i8(i64 8, i8* %39) #9
  br label %for.inc

for.inc:                                          ; preds = %for.body
  %40 = load i32, i32* %ik, align 4, !tbaa !20
  %inc = add nsw i32 %40, 1
  store i32 %inc, i32* %ik, align 4, !tbaa !20
  br label %for.cond, !llvm.loop !65

for.end:                                          ; preds = %for.cond
  %41 = load double, double* %out, align 8, !tbaa !44
  %42 = load i32, i32* %k.addr, align 4, !tbaa !20
  %conv32 = sitofp i32 %42 to double
  %43 = load double, double* %C, align 8, !tbaa !44
  %mul33 = fmul fast double %conv32, %43
  %sub34 = fsub fast double %41, %mul33
  %44 = bitcast double* %out to i8*
  call void @llvm.lifetime.end.p0i8(i64 8, i8* %44) #9
  %45 = bitcast double* %C to i8*
  call void @llvm.lifetime.end.p0i8(i64 8, i8* %45) #9
  %46 = bitcast i32* %icf_sz to i8*
  call void @llvm.lifetime.end.p0i8(i64 4, i8* %46) #9
  %47 = bitcast i32* %n to i8*
  call void @llvm.lifetime.end.p0i8(i64 4, i8* %47) #9
  %48 = bitcast i32* %ik to i8*
  call void @llvm.lifetime.end.p0i8(i64 4, i8* %48) #9
  ret double %sub34
}

; Function Attrs: inlinehint nounwind uwtable mustprogress
define linkonce_odr dso_local double @_ZSt3logIiEN9__gnu_cxx11__enable_ifIXsr12__is_integerIT_EE7__valueEdE6__typeES2_(i32 %__x) #12 comdat {
entry:
  %__x.addr = alloca i32, align 4
  store i32 %__x, i32* %__x.addr, align 4, !tbaa !20
  %0 = load i32, i32* %__x.addr, align 4, !tbaa !20
  %conv = sitofp i32 %0 to double
  %1 = call fast double @llvm.log.f64(double %conv)
  ret double %1
}

; Function Attrs: nounwind uwtable mustprogress
define dso_local void @preprocess_qs(i32 %d, i32 %k, double* %icf, double* %sum_qs, double* %Qdiags) #8 {
entry:
  %d.addr = alloca i32, align 4
  %k.addr = alloca i32, align 4
  %icf.addr = alloca double*, align 8
  %sum_qs.addr = alloca double*, align 8
  %Qdiags.addr = alloca double*, align 8
  %ik = alloca i32, align 4
  %id = alloca i32, align 4
  %icf_sz = alloca i32, align 4
  %q = alloca double, align 8
  store i32 %d, i32* %d.addr, align 4, !tbaa !20
  store i32 %k, i32* %k.addr, align 4, !tbaa !20
  store double* %icf, double** %icf.addr, align 8, !tbaa !2
  store double* %sum_qs, double** %sum_qs.addr, align 8, !tbaa !2
  store double* %Qdiags, double** %Qdiags.addr, align 8, !tbaa !2
  %0 = bitcast i32* %ik to i8*
  call void @llvm.lifetime.start.p0i8(i64 4, i8* %0) #9
  %1 = bitcast i32* %id to i8*
  call void @llvm.lifetime.start.p0i8(i64 4, i8* %1) #9
  %2 = bitcast i32* %icf_sz to i8*
  call void @llvm.lifetime.start.p0i8(i64 4, i8* %2) #9
  %3 = load i32, i32* %d.addr, align 4, !tbaa !20
  %4 = load i32, i32* %d.addr, align 4, !tbaa !20
  %add = add nsw i32 %4, 1
  %mul = mul nsw i32 %3, %add
  %div = sdiv i32 %mul, 2
  store i32 %div, i32* %icf_sz, align 4, !tbaa !20
  store i32 0, i32* %ik, align 4, !tbaa !20
  br label %for.cond

for.cond:                                         ; preds = %for.inc17, %entry
  %5 = load i32, i32* %ik, align 4, !tbaa !20
  %6 = load i32, i32* %k.addr, align 4, !tbaa !20
  %cmp = icmp slt i32 %5, %6
  br i1 %cmp, label %for.body, label %for.end19

for.body:                                         ; preds = %for.cond
  %7 = load double*, double** %sum_qs.addr, align 8, !tbaa !2
  %8 = load i32, i32* %ik, align 4, !tbaa !20
  %idxprom = sext i32 %8 to i64
  %arrayidx = getelementptr inbounds double, double* %7, i64 %idxprom
  store double 0.000000e+00, double* %arrayidx, align 8, !tbaa !44
  store i32 0, i32* %id, align 4, !tbaa !20
  br label %for.cond1

for.cond1:                                        ; preds = %for.inc, %for.body
  %9 = load i32, i32* %id, align 4, !tbaa !20
  %10 = load i32, i32* %d.addr, align 4, !tbaa !20
  %cmp2 = icmp slt i32 %9, %10
  br i1 %cmp2, label %for.body3, label %for.end

for.body3:                                        ; preds = %for.cond1
  %11 = bitcast double* %q to i8*
  call void @llvm.lifetime.start.p0i8(i64 8, i8* %11) #9
  %12 = load double*, double** %icf.addr, align 8, !tbaa !2
  %13 = load i32, i32* %ik, align 4, !tbaa !20
  %14 = load i32, i32* %icf_sz, align 4, !tbaa !20
  %mul4 = mul nsw i32 %13, %14
  %15 = load i32, i32* %id, align 4, !tbaa !20
  %add5 = add nsw i32 %mul4, %15
  %idxprom6 = sext i32 %add5 to i64
  %arrayidx7 = getelementptr inbounds double, double* %12, i64 %idxprom6
  %16 = load double, double* %arrayidx7, align 8, !tbaa !44
  store double %16, double* %q, align 8, !tbaa !44
  %17 = load double*, double** %sum_qs.addr, align 8, !tbaa !2
  %18 = load i32, i32* %ik, align 4, !tbaa !20
  %idxprom8 = sext i32 %18 to i64
  %arrayidx9 = getelementptr inbounds double, double* %17, i64 %idxprom8
  %19 = load double, double* %arrayidx9, align 8, !tbaa !44
  %20 = load double, double* %q, align 8, !tbaa !44
  %add10 = fadd fast double %19, %20
  %21 = load double*, double** %sum_qs.addr, align 8, !tbaa !2
  %22 = load i32, i32* %ik, align 4, !tbaa !20
  %idxprom11 = sext i32 %22 to i64
  %arrayidx12 = getelementptr inbounds double, double* %21, i64 %idxprom11
  store double %add10, double* %arrayidx12, align 8, !tbaa !44
  %23 = load double, double* %q, align 8, !tbaa !44
  %24 = call fast double @llvm.exp.f64(double %23)
  %25 = load double*, double** %Qdiags.addr, align 8, !tbaa !2
  %26 = load i32, i32* %ik, align 4, !tbaa !20
  %27 = load i32, i32* %d.addr, align 4, !tbaa !20
  %mul13 = mul nsw i32 %26, %27
  %28 = load i32, i32* %id, align 4, !tbaa !20
  %add14 = add nsw i32 %mul13, %28
  %idxprom15 = sext i32 %add14 to i64
  %arrayidx16 = getelementptr inbounds double, double* %25, i64 %idxprom15
  store double %24, double* %arrayidx16, align 8, !tbaa !44
  %29 = bitcast double* %q to i8*
  call void @llvm.lifetime.end.p0i8(i64 8, i8* %29) #9
  br label %for.inc

for.inc:                                          ; preds = %for.body3
  %30 = load i32, i32* %id, align 4, !tbaa !20
  %inc = add nsw i32 %30, 1
  store i32 %inc, i32* %id, align 4, !tbaa !20
  br label %for.cond1, !llvm.loop !66

for.end:                                          ; preds = %for.cond1
  br label %for.inc17

for.inc17:                                        ; preds = %for.end
  %31 = load i32, i32* %ik, align 4, !tbaa !20
  %inc18 = add nsw i32 %31, 1
  store i32 %inc18, i32* %ik, align 4, !tbaa !20
  br label %for.cond, !llvm.loop !67

for.end19:                                        ; preds = %for.cond
  %32 = bitcast i32* %icf_sz to i8*
  call void @llvm.lifetime.end.p0i8(i64 4, i8* %32) #9
  %33 = bitcast i32* %id to i8*
  call void @llvm.lifetime.end.p0i8(i64 4, i8* %33) #9
  %34 = bitcast i32* %ik to i8*
  call void @llvm.lifetime.end.p0i8(i64 4, i8* %34) #9
  ret void
}

; Function Attrs: nounwind uwtable mustprogress
define dso_local void @Qtimesx(i32 %d, double* %Qdiag, double* %ltri, double* %x, double* %out) #8 {
entry:
  %d.addr = alloca i32, align 4
  %Qdiag.addr = alloca double*, align 8
  %ltri.addr = alloca double*, align 8
  %x.addr = alloca double*, align 8
  %out.addr = alloca double*, align 8
  %i = alloca i32, align 4
  %j = alloca i32, align 4
  %Lparamsidx = alloca i32, align 4
  store i32 %d, i32* %d.addr, align 4, !tbaa !20
  store double* %Qdiag, double** %Qdiag.addr, align 8, !tbaa !2
  store double* %ltri, double** %ltri.addr, align 8, !tbaa !2
  store double* %x, double** %x.addr, align 8, !tbaa !2
  store double* %out, double** %out.addr, align 8, !tbaa !2
  %0 = bitcast i32* %i to i8*
  call void @llvm.lifetime.start.p0i8(i64 4, i8* %0) #9
  %1 = bitcast i32* %j to i8*
  call void @llvm.lifetime.start.p0i8(i64 4, i8* %1) #9
  store i32 0, i32* %i, align 4, !tbaa !20
  br label %for.cond

for.cond:                                         ; preds = %for.inc, %entry
  %2 = load i32, i32* %i, align 4, !tbaa !20
  %3 = load i32, i32* %d.addr, align 4, !tbaa !20
  %cmp = icmp slt i32 %2, %3
  br i1 %cmp, label %for.body, label %for.end

for.body:                                         ; preds = %for.cond
  %4 = load double*, double** %Qdiag.addr, align 8, !tbaa !2
  %5 = load i32, i32* %i, align 4, !tbaa !20
  %idxprom = sext i32 %5 to i64
  %arrayidx = getelementptr inbounds double, double* %4, i64 %idxprom
  %6 = load double, double* %arrayidx, align 8, !tbaa !44
  %7 = load double*, double** %x.addr, align 8, !tbaa !2
  %8 = load i32, i32* %i, align 4, !tbaa !20
  %idxprom1 = sext i32 %8 to i64
  %arrayidx2 = getelementptr inbounds double, double* %7, i64 %idxprom1
  %9 = load double, double* %arrayidx2, align 8, !tbaa !44
  %mul = fmul fast double %6, %9
  %10 = load double*, double** %out.addr, align 8, !tbaa !2
  %11 = load i32, i32* %i, align 4, !tbaa !20
  %idxprom3 = sext i32 %11 to i64
  %arrayidx4 = getelementptr inbounds double, double* %10, i64 %idxprom3
  store double %mul, double* %arrayidx4, align 8, !tbaa !44
  br label %for.inc

for.inc:                                          ; preds = %for.body
  %12 = load i32, i32* %i, align 4, !tbaa !20
  %inc = add nsw i32 %12, 1
  store i32 %inc, i32* %i, align 4, !tbaa !20
  br label %for.cond, !llvm.loop !68

for.end:                                          ; preds = %for.cond
  store i32 0, i32* %i, align 4, !tbaa !20
  br label %for.cond5

for.cond5:                                        ; preds = %for.inc28, %for.end
  %13 = load i32, i32* %i, align 4, !tbaa !20
  %14 = load i32, i32* %d.addr, align 4, !tbaa !20
  %cmp6 = icmp slt i32 %13, %14
  br i1 %cmp6, label %for.body7, label %for.end30

for.body7:                                        ; preds = %for.cond5
  %15 = bitcast i32* %Lparamsidx to i8*
  call void @llvm.lifetime.start.p0i8(i64 4, i8* %15) #9
  %16 = load i32, i32* %i, align 4, !tbaa !20
  %17 = load i32, i32* %d.addr, align 4, !tbaa !20
  %mul8 = mul nsw i32 2, %17
  %18 = load i32, i32* %i, align 4, !tbaa !20
  %sub = sub nsw i32 %mul8, %18
  %sub9 = sub nsw i32 %sub, 1
  %mul10 = mul nsw i32 %16, %sub9
  %div = sdiv i32 %mul10, 2
  store i32 %div, i32* %Lparamsidx, align 4, !tbaa !20
  %19 = load i32, i32* %i, align 4, !tbaa !20
  %add = add nsw i32 %19, 1
  store i32 %add, i32* %j, align 4, !tbaa !20
  br label %for.cond11

for.cond11:                                       ; preds = %for.inc25, %for.body7
  %20 = load i32, i32* %j, align 4, !tbaa !20
  %21 = load i32, i32* %d.addr, align 4, !tbaa !20
  %cmp12 = icmp slt i32 %20, %21
  br i1 %cmp12, label %for.body13, label %for.end27

for.body13:                                       ; preds = %for.cond11
  %22 = load double*, double** %out.addr, align 8, !tbaa !2
  %23 = load i32, i32* %j, align 4, !tbaa !20
  %idxprom14 = sext i32 %23 to i64
  %arrayidx15 = getelementptr inbounds double, double* %22, i64 %idxprom14
  %24 = load double, double* %arrayidx15, align 8, !tbaa !44
  %25 = load double*, double** %ltri.addr, align 8, !tbaa !2
  %26 = load i32, i32* %Lparamsidx, align 4, !tbaa !20
  %idxprom16 = sext i32 %26 to i64
  %arrayidx17 = getelementptr inbounds double, double* %25, i64 %idxprom16
  %27 = load double, double* %arrayidx17, align 8, !tbaa !44
  %28 = load double*, double** %x.addr, align 8, !tbaa !2
  %29 = load i32, i32* %i, align 4, !tbaa !20
  %idxprom18 = sext i32 %29 to i64
  %arrayidx19 = getelementptr inbounds double, double* %28, i64 %idxprom18
  %30 = load double, double* %arrayidx19, align 8, !tbaa !44
  %mul20 = fmul fast double %27, %30
  %add21 = fadd fast double %24, %mul20
  %31 = load double*, double** %out.addr, align 8, !tbaa !2
  %32 = load i32, i32* %j, align 4, !tbaa !20
  %idxprom22 = sext i32 %32 to i64
  %arrayidx23 = getelementptr inbounds double, double* %31, i64 %idxprom22
  store double %add21, double* %arrayidx23, align 8, !tbaa !44
  %33 = load i32, i32* %Lparamsidx, align 4, !tbaa !20
  %inc24 = add nsw i32 %33, 1
  store i32 %inc24, i32* %Lparamsidx, align 4, !tbaa !20
  br label %for.inc25

for.inc25:                                        ; preds = %for.body13
  %34 = load i32, i32* %j, align 4, !tbaa !20
  %inc26 = add nsw i32 %34, 1
  store i32 %inc26, i32* %j, align 4, !tbaa !20
  br label %for.cond11, !llvm.loop !69

for.end27:                                        ; preds = %for.cond11
  %35 = bitcast i32* %Lparamsidx to i8*
  call void @llvm.lifetime.end.p0i8(i64 4, i8* %35) #9
  br label %for.inc28

for.inc28:                                        ; preds = %for.end27
  %36 = load i32, i32* %i, align 4, !tbaa !20
  %inc29 = add nsw i32 %36, 1
  store i32 %inc29, i32* %i, align 4, !tbaa !20
  br label %for.cond5, !llvm.loop !70

for.end30:                                        ; preds = %for.cond5
  %37 = bitcast i32* %j to i8*
  call void @llvm.lifetime.end.p0i8(i64 4, i8* %37) #9
  %38 = bitcast i32* %i to i8*
  call void @llvm.lifetime.end.p0i8(i64 4, i8* %38) #9
  ret void
}

; Function Attrs: uwtable mustprogress
define dso_local void @gmm_objective(i32 %d, i32 %k, i32 %n, double* noalias %alphas, double* noalias %means, double* noalias %icf, double* noalias %x, %struct.Wishart* byval(%struct.Wishart) align 8 %wishart, double* noalias %err) #0 {
entry:
  %d.addr = alloca i32, align 4
  %k.addr = alloca i32, align 4
  %n.addr = alloca i32, align 4
  %alphas.addr = alloca double*, align 8
  %means.addr = alloca double*, align 8
  %icf.addr = alloca double*, align 8
  %x.addr = alloca double*, align 8
  %err.addr = alloca double*, align 8
  %ix = alloca i64, align 8
  %ik = alloca i64, align 8
  %CONSTANT = alloca double, align 8
  %icf_sz = alloca i64, align 8
  %Qdiags = alloca double*, align 8
  %sum_qs = alloca double*, align 8
  %xcentered = alloca double*, align 8
  %Qxcentered = alloca double*, align 8
  %main_term = alloca double*, align 8
  %slse = alloca double, align 8
  %lse_alphas = alloca double, align 8
  %agg.tmp = alloca %struct.Wishart, align 8
  store i32 %d, i32* %d.addr, align 4, !tbaa !20
  store i32 %k, i32* %k.addr, align 4, !tbaa !20
  store i32 %n, i32* %n.addr, align 4, !tbaa !20
  store double* %alphas, double** %alphas.addr, align 8, !tbaa !2
  store double* %means, double** %means.addr, align 8, !tbaa !2
  store double* %icf, double** %icf.addr, align 8, !tbaa !2
  store double* %x, double** %x.addr, align 8, !tbaa !2
  store double* %err, double** %err.addr, align 8, !tbaa !2
  %0 = bitcast i64* %ix to i8*
  call void @llvm.lifetime.start.p0i8(i64 8, i8* %0) #9
  %1 = bitcast i64* %ik to i8*
  call void @llvm.lifetime.start.p0i8(i64 8, i8* %1) #9
  %2 = bitcast double* %CONSTANT to i8*
  call void @llvm.lifetime.start.p0i8(i64 8, i8* %2) #9
  %3 = load i32, i32* %n.addr, align 4, !tbaa !20
  %sub = sub nsw i32 0, %3
  %4 = load i32, i32* %d.addr, align 4, !tbaa !20
  %mul = mul nsw i32 %sub, %4
  %conv = sitofp i32 %mul to double
  %mul1 = fmul fast double %conv, 5.000000e-01
  %5 = call fast double @llvm.log.f64(double 0x401921FB54442EEA)
  %mul2 = fmul fast double %mul1, %5
  store double %mul2, double* %CONSTANT, align 8, !tbaa !44
  %6 = bitcast i64* %icf_sz to i8*
  call void @llvm.lifetime.start.p0i8(i64 8, i8* %6) #9
  %7 = load i32, i32* %d.addr, align 4, !tbaa !20
  %8 = load i32, i32* %d.addr, align 4, !tbaa !20
  %add = add nsw i32 %8, 1
  %mul3 = mul nsw i32 %7, %add
  %div = sdiv i32 %mul3, 2
  %conv4 = sext i32 %div to i64
  store i64 %conv4, i64* %icf_sz, align 8, !tbaa !13
  %9 = bitcast double** %Qdiags to i8*
  call void @llvm.lifetime.start.p0i8(i64 8, i8* %9) #9
  %10 = load i32, i32* %d.addr, align 4, !tbaa !20
  %11 = load i32, i32* %k.addr, align 4, !tbaa !20
  %mul5 = mul nsw i32 %10, %11
  %conv6 = sext i32 %mul5 to i64
  %mul7 = mul i64 %conv6, 8
  %call = call noalias i8* @malloc(i64 %mul7) #9
  %12 = bitcast i8* %call to double*
  store double* %12, double** %Qdiags, align 8, !tbaa !2
  %13 = bitcast double** %sum_qs to i8*
  call void @llvm.lifetime.start.p0i8(i64 8, i8* %13) #9
  %14 = load i32, i32* %k.addr, align 4, !tbaa !20
  %conv8 = sext i32 %14 to i64
  %mul9 = mul i64 %conv8, 8
  %call10 = call noalias i8* @malloc(i64 %mul9) #9
  %15 = bitcast i8* %call10 to double*
  store double* %15, double** %sum_qs, align 8, !tbaa !2
  %16 = bitcast double** %xcentered to i8*
  call void @llvm.lifetime.start.p0i8(i64 8, i8* %16) #9
  %17 = load i32, i32* %d.addr, align 4, !tbaa !20
  %conv11 = sext i32 %17 to i64
  %mul12 = mul i64 %conv11, 8
  %call13 = call noalias i8* @malloc(i64 %mul12) #9
  %18 = bitcast i8* %call13 to double*
  store double* %18, double** %xcentered, align 8, !tbaa !2
  %19 = bitcast double** %Qxcentered to i8*
  call void @llvm.lifetime.start.p0i8(i64 8, i8* %19) #9
  %20 = load i32, i32* %d.addr, align 4, !tbaa !20
  %conv14 = sext i32 %20 to i64
  %mul15 = mul i64 %conv14, 8
  %call16 = call noalias i8* @malloc(i64 %mul15) #9
  %21 = bitcast i8* %call16 to double*
  store double* %21, double** %Qxcentered, align 8, !tbaa !2
  %22 = bitcast double** %main_term to i8*
  call void @llvm.lifetime.start.p0i8(i64 8, i8* %22) #9
  %23 = load i32, i32* %k.addr, align 4, !tbaa !20
  %conv17 = sext i32 %23 to i64
  %mul18 = mul i64 %conv17, 8
  %call19 = call noalias i8* @malloc(i64 %mul18) #9
  %24 = bitcast i8* %call19 to double*
  store double* %24, double** %main_term, align 8, !tbaa !2
  %25 = load i32, i32* %d.addr, align 4, !tbaa !20
  %26 = load i32, i32* %k.addr, align 4, !tbaa !20
  %27 = load double*, double** %icf.addr, align 8, !tbaa !2
  %28 = load double*, double** %sum_qs, align 8, !tbaa !2
  %arrayidx = getelementptr inbounds double, double* %28, i64 0
  %29 = load double*, double** %Qdiags, align 8, !tbaa !2
  %arrayidx20 = getelementptr inbounds double, double* %29, i64 0
  call void @preprocess_qs(i32 %25, i32 %26, double* %27, double* %arrayidx, double* %arrayidx20)
  %30 = bitcast double* %slse to i8*
  call void @llvm.lifetime.start.p0i8(i64 8, i8* %30) #9
  store double 0.000000e+00, double* %slse, align 8, !tbaa !44
  store i64 0, i64* %ix, align 8, !tbaa !13
  br label %for.cond

for.cond:                                         ; preds = %for.inc53, %entry
  %31 = load i64, i64* %ix, align 8, !tbaa !13
  %32 = load i32, i32* %n.addr, align 4, !tbaa !20
  %conv21 = sext i32 %32 to i64
  %cmp = icmp slt i64 %31, %conv21
  br i1 %cmp, label %for.body, label %for.end55

for.body:                                         ; preds = %for.cond
  store i64 0, i64* %ik, align 8, !tbaa !13
  br label %for.cond22

for.cond22:                                       ; preds = %for.inc, %for.body
  %33 = load i64, i64* %ik, align 8, !tbaa !13
  %34 = load i32, i32* %k.addr, align 4, !tbaa !20
  %conv23 = sext i32 %34 to i64
  %cmp24 = icmp slt i64 %33, %conv23
  br i1 %cmp24, label %for.body25, label %for.end

for.body25:                                       ; preds = %for.cond22
  %35 = load i32, i32* %d.addr, align 4, !tbaa !20
  %36 = load double*, double** %x.addr, align 8, !tbaa !2
  %37 = load i64, i64* %ix, align 8, !tbaa !13
  %38 = load i32, i32* %d.addr, align 4, !tbaa !20
  %conv26 = sext i32 %38 to i64
  %mul27 = mul nsw i64 %37, %conv26
  %arrayidx28 = getelementptr inbounds double, double* %36, i64 %mul27
  %39 = load double*, double** %means.addr, align 8, !tbaa !2
  %40 = load i64, i64* %ik, align 8, !tbaa !13
  %41 = load i32, i32* %d.addr, align 4, !tbaa !20
  %conv29 = sext i32 %41 to i64
  %mul30 = mul nsw i64 %40, %conv29
  %arrayidx31 = getelementptr inbounds double, double* %39, i64 %mul30
  %42 = load double*, double** %xcentered, align 8, !tbaa !2
  %arrayidx32 = getelementptr inbounds double, double* %42, i64 0
  call void @subtract(i32 %35, double* %arrayidx28, double* %arrayidx31, double* %arrayidx32)
  %43 = load i32, i32* %d.addr, align 4, !tbaa !20
  %44 = load double*, double** %Qdiags, align 8, !tbaa !2
  %45 = load i64, i64* %ik, align 8, !tbaa !13
  %46 = load i32, i32* %d.addr, align 4, !tbaa !20
  %conv33 = sext i32 %46 to i64
  %mul34 = mul nsw i64 %45, %conv33
  %arrayidx35 = getelementptr inbounds double, double* %44, i64 %mul34
  %47 = load double*, double** %icf.addr, align 8, !tbaa !2
  %48 = load i64, i64* %ik, align 8, !tbaa !13
  %49 = load i64, i64* %icf_sz, align 8, !tbaa !13
  %mul36 = mul nsw i64 %48, %49
  %50 = load i32, i32* %d.addr, align 4, !tbaa !20
  %conv37 = sext i32 %50 to i64
  %add38 = add nsw i64 %mul36, %conv37
  %arrayidx39 = getelementptr inbounds double, double* %47, i64 %add38
  %51 = load double*, double** %xcentered, align 8, !tbaa !2
  %arrayidx40 = getelementptr inbounds double, double* %51, i64 0
  %52 = load double*, double** %Qxcentered, align 8, !tbaa !2
  %arrayidx41 = getelementptr inbounds double, double* %52, i64 0
  call void @Qtimesx(i32 %43, double* %arrayidx35, double* %arrayidx39, double* %arrayidx40, double* %arrayidx41)
  %53 = load double*, double** %alphas.addr, align 8, !tbaa !2
  %54 = load i64, i64* %ik, align 8, !tbaa !13
  %arrayidx42 = getelementptr inbounds double, double* %53, i64 %54
  %55 = load double, double* %arrayidx42, align 8, !tbaa !44
  %56 = load double*, double** %sum_qs, align 8, !tbaa !2
  %57 = load i64, i64* %ik, align 8, !tbaa !13
  %arrayidx43 = getelementptr inbounds double, double* %56, i64 %57
  %58 = load double, double* %arrayidx43, align 8, !tbaa !44
  %add44 = fadd fast double %55, %58
  %59 = load i32, i32* %d.addr, align 4, !tbaa !20
  %60 = load double*, double** %Qxcentered, align 8, !tbaa !2
  %arrayidx45 = getelementptr inbounds double, double* %60, i64 0
  %call46 = call fast double @sqnorm(i32 %59, double* %arrayidx45)
  %mul47 = fmul fast double 5.000000e-01, %call46
  %sub48 = fsub fast double %add44, %mul47
  %61 = load double*, double** %main_term, align 8, !tbaa !2
  %62 = load i64, i64* %ik, align 8, !tbaa !13
  %arrayidx49 = getelementptr inbounds double, double* %61, i64 %62
  store double %sub48, double* %arrayidx49, align 8, !tbaa !44
  br label %for.inc

for.inc:                                          ; preds = %for.body25
  %63 = load i64, i64* %ik, align 8, !tbaa !13
  %inc = add nsw i64 %63, 1
  store i64 %inc, i64* %ik, align 8, !tbaa !13
  br label %for.cond22, !llvm.loop !71

for.end:                                          ; preds = %for.cond22
  %64 = load double, double* %slse, align 8, !tbaa !44
  %65 = load i32, i32* %k.addr, align 4, !tbaa !20
  %66 = load double*, double** %main_term, align 8, !tbaa !2
  %arrayidx50 = getelementptr inbounds double, double* %66, i64 0
  %call51 = call fast double @log_sum_exp(i32 %65, double* %arrayidx50)
  %add52 = fadd fast double %64, %call51
  store double %add52, double* %slse, align 8, !tbaa !44
  br label %for.inc53

for.inc53:                                        ; preds = %for.end
  %67 = load i64, i64* %ix, align 8, !tbaa !13
  %inc54 = add nsw i64 %67, 1
  store i64 %inc54, i64* %ix, align 8, !tbaa !13
  br label %for.cond, !llvm.loop !72

for.end55:                                        ; preds = %for.cond
  %68 = bitcast double* %lse_alphas to i8*
  call void @llvm.lifetime.start.p0i8(i64 8, i8* %68) #9
  %69 = load i32, i32* %k.addr, align 4, !tbaa !20
  %70 = load double*, double** %alphas.addr, align 8, !tbaa !2
  %call56 = call fast double @log_sum_exp(i32 %69, double* %70)
  store double %call56, double* %lse_alphas, align 8, !tbaa !44
  %71 = load double, double* %CONSTANT, align 8, !tbaa !44
  %72 = load double, double* %slse, align 8, !tbaa !44
  %add57 = fadd fast double %71, %72
  %73 = load i32, i32* %n.addr, align 4, !tbaa !20
  %conv58 = sitofp i32 %73 to double
  %74 = load double, double* %lse_alphas, align 8, !tbaa !44
  %mul59 = fmul fast double %conv58, %74
  %sub60 = fsub fast double %add57, %mul59
  %75 = load i32, i32* %d.addr, align 4, !tbaa !20
  %76 = load i32, i32* %k.addr, align 4, !tbaa !20
  %77 = bitcast %struct.Wishart* %agg.tmp to i8*
  %78 = bitcast %struct.Wishart* %wishart to i8*
  call void @llvm.memcpy.p0i8.p0i8.i64(i8* align 8 %77, i8* align 8 %78, i64 16, i1 false), !tbaa.struct !52
  %79 = load double*, double** %sum_qs, align 8, !tbaa !2
  %arrayidx61 = getelementptr inbounds double, double* %79, i64 0
  %80 = load double*, double** %Qdiags, align 8, !tbaa !2
  %arrayidx62 = getelementptr inbounds double, double* %80, i64 0
  %81 = load double*, double** %icf.addr, align 8, !tbaa !2
  %82 = bitcast %struct.Wishart* %agg.tmp to { double, i32 }*
  %83 = getelementptr inbounds { double, i32 }, { double, i32 }* %82, i32 0, i32 0
  %84 = load double, double* %83, align 8
  %85 = getelementptr inbounds { double, i32 }, { double, i32 }* %82, i32 0, i32 1
  %86 = load i32, i32* %85, align 8
  %call63 = call fast double @log_wishart_prior(i32 %75, i32 %76, double %84, i32 %86, double* %arrayidx61, double* %arrayidx62, double* %81)
  %add64 = fadd fast double %sub60, %call63
  %87 = load double*, double** %err.addr, align 8, !tbaa !2
  store double %add64, double* %87, align 8, !tbaa !44
  %88 = load double*, double** %Qdiags, align 8, !tbaa !2
  %89 = bitcast double* %88 to i8*
  call void @free(i8* %89) #9
  %90 = load double*, double** %sum_qs, align 8, !tbaa !2
  %91 = bitcast double* %90 to i8*
  call void @free(i8* %91) #9
  %92 = load double*, double** %xcentered, align 8, !tbaa !2
  %93 = bitcast double* %92 to i8*
  call void @free(i8* %93) #9
  %94 = load double*, double** %Qxcentered, align 8, !tbaa !2
  %95 = bitcast double* %94 to i8*
  call void @free(i8* %95) #9
  %96 = load double*, double** %main_term, align 8, !tbaa !2
  %97 = bitcast double* %96 to i8*
  call void @free(i8* %97) #9
  %98 = bitcast double* %lse_alphas to i8*
  call void @llvm.lifetime.end.p0i8(i64 8, i8* %98) #9
  %99 = bitcast double* %slse to i8*
  call void @llvm.lifetime.end.p0i8(i64 8, i8* %99) #9
  %100 = bitcast double** %main_term to i8*
  call void @llvm.lifetime.end.p0i8(i64 8, i8* %100) #9
  %101 = bitcast double** %Qxcentered to i8*
  call void @llvm.lifetime.end.p0i8(i64 8, i8* %101) #9
  %102 = bitcast double** %xcentered to i8*
  call void @llvm.lifetime.end.p0i8(i64 8, i8* %102) #9
  %103 = bitcast double** %sum_qs to i8*
  call void @llvm.lifetime.end.p0i8(i64 8, i8* %103) #9
  %104 = bitcast double** %Qdiags to i8*
  call void @llvm.lifetime.end.p0i8(i64 8, i8* %104) #9
  %105 = bitcast i64* %icf_sz to i8*
  call void @llvm.lifetime.end.p0i8(i64 8, i8* %105) #9
  %106 = bitcast double* %CONSTANT to i8*
  call void @llvm.lifetime.end.p0i8(i64 8, i8* %106) #9
  %107 = bitcast i64* %ik to i8*
  call void @llvm.lifetime.end.p0i8(i64 8, i8* %107) #9
  %108 = bitcast i64* %ix to i8*
  call void @llvm.lifetime.end.p0i8(i64 8, i8* %108) #9
  ret void
}

; Function Attrs: nounwind
declare dso_local noalias i8* @malloc(i64) #4

; Function Attrs: nounwind
declare dso_local void @free(i8*) #4

; Function Attrs: nounwind uwtable mustprogress
define dso_local void @dgmm_objective(i32 %d, i32 %k, i32 %n, double* %alphas, double* %alphasb, double* %means, double* %meansb, double* %icf, double* %icfb, double* %x, %struct.Wishart* byval(%struct.Wishart) align 8 %wishart, double* %err, double* %errb) #8 {
entry:
  %d.addr = alloca i32, align 4
  %k.addr = alloca i32, align 4
  %n.addr = alloca i32, align 4
  %alphas.addr = alloca double*, align 8
  %alphasb.addr = alloca double*, align 8
  %means.addr = alloca double*, align 8
  %meansb.addr = alloca double*, align 8
  %icf.addr = alloca double*, align 8
  %icfb.addr = alloca double*, align 8
  %x.addr = alloca double*, align 8
  %err.addr = alloca double*, align 8
  %errb.addr = alloca double*, align 8
  %agg.tmp = alloca %struct.Wishart, align 8
  store i32 %d, i32* %d.addr, align 4, !tbaa !20
  store i32 %k, i32* %k.addr, align 4, !tbaa !20
  store i32 %n, i32* %n.addr, align 4, !tbaa !20
  store double* %alphas, double** %alphas.addr, align 8, !tbaa !2
  store double* %alphasb, double** %alphasb.addr, align 8, !tbaa !2
  store double* %means, double** %means.addr, align 8, !tbaa !2
  store double* %meansb, double** %meansb.addr, align 8, !tbaa !2
  store double* %icf, double** %icf.addr, align 8, !tbaa !2
  store double* %icfb, double** %icfb.addr, align 8, !tbaa !2
  store double* %x, double** %x.addr, align 8, !tbaa !2
  store double* %err, double** %err.addr, align 8, !tbaa !2
  store double* %errb, double** %errb.addr, align 8, !tbaa !2
  %0 = load i32, i32* @enzyme_const, align 4, !tbaa !20
  %1 = load i32, i32* %d.addr, align 4, !tbaa !20
  %2 = load i32, i32* @enzyme_const, align 4, !tbaa !20
  %3 = load i32, i32* %k.addr, align 4, !tbaa !20
  %4 = load i32, i32* @enzyme_const, align 4, !tbaa !20
  %5 = load i32, i32* %n.addr, align 4, !tbaa !20
  %6 = load i32, i32* @enzyme_dup, align 4, !tbaa !20
  %7 = load double*, double** %alphas.addr, align 8, !tbaa !2
  %8 = load double*, double** %alphasb.addr, align 8, !tbaa !2
  %9 = load i32, i32* @enzyme_dup, align 4, !tbaa !20
  %10 = load double*, double** %means.addr, align 8, !tbaa !2
  %11 = load double*, double** %meansb.addr, align 8, !tbaa !2
  %12 = load i32, i32* @enzyme_dup, align 4, !tbaa !20
  %13 = load double*, double** %icf.addr, align 8, !tbaa !2
  %14 = load double*, double** %icfb.addr, align 8, !tbaa !2
  %15 = load i32, i32* @enzyme_const, align 4, !tbaa !20
  %16 = load double*, double** %x.addr, align 8, !tbaa !2
  %17 = load i32, i32* @enzyme_const, align 4, !tbaa !20
  %18 = bitcast %struct.Wishart* %agg.tmp to i8*
  %19 = bitcast %struct.Wishart* %wishart to i8*
  call void @llvm.memcpy.p0i8.p0i8.i64(i8* align 8 %18, i8* align 8 %19, i64 16, i1 false), !tbaa.struct !52
  %20 = load i32, i32* @enzyme_dupnoneed, align 4, !tbaa !20
  %21 = load double*, double** %err.addr, align 8, !tbaa !2
  %22 = load double*, double** %errb.addr, align 8, !tbaa !2
  call void @diffegmm_objective(i32 %1, i32 %3, i32 %5, double* %7, double* %8, double* %10, double* %11, double* %13, double* %14, double* %16, %struct.Wishart* byval(%struct.Wishart) %agg.tmp, double* %21, double* %22)
  ret void
}

; Function Attrs: nounwind
declare dso_local void @__enzyme_autodiff(...) #4

; Function Attrs: uwtable mustprogress
define dso_local void @arr_max_b(i32 %n, double* %x, double* %xb, double %arr_maxb) #0 {
entry:
  %n.addr = alloca i32, align 4
  %x.addr = alloca double*, align 8
  %xb.addr = alloca double*, align 8
  %arr_maxb.addr = alloca double, align 8
  %i = alloca i32, align 4
  %m = alloca double, align 8
  %mb = alloca double, align 8
  %branch = alloca i32, align 4
  %arr_max = alloca double, align 8
  store i32 %n, i32* %n.addr, align 4, !tbaa !20
  store double* %x, double** %x.addr, align 8, !tbaa !2
  store double* %xb, double** %xb.addr, align 8, !tbaa !2
  store double %arr_maxb, double* %arr_maxb.addr, align 8, !tbaa !44
  %0 = bitcast i32* %i to i8*
  call void @llvm.lifetime.start.p0i8(i64 4, i8* %0) #9
  %1 = bitcast double* %m to i8*
  call void @llvm.lifetime.start.p0i8(i64 8, i8* %1) #9
  %2 = load double*, double** %x.addr, align 8, !tbaa !2
  %arrayidx = getelementptr inbounds double, double* %2, i64 0
  %3 = load double, double* %arrayidx, align 8, !tbaa !44
  store double %3, double* %m, align 8, !tbaa !44
  %4 = bitcast double* %mb to i8*
  call void @llvm.lifetime.start.p0i8(i64 8, i8* %4) #9
  store double 0.000000e+00, double* %mb, align 8, !tbaa !44
  %5 = bitcast i32* %branch to i8*
  call void @llvm.lifetime.start.p0i8(i64 4, i8* %5) #9
  %6 = bitcast double* %arr_max to i8*
  call void @llvm.lifetime.start.p0i8(i64 8, i8* %6) #9
  store i32 1, i32* %i, align 4, !tbaa !20
  br label %for.cond

for.cond:                                         ; preds = %for.inc, %entry
  %7 = load i32, i32* %i, align 4, !tbaa !20
  %8 = load i32, i32* %n.addr, align 4, !tbaa !20
  %cmp = icmp slt i32 %7, %8
  br i1 %cmp, label %for.body, label %for.end

for.body:                                         ; preds = %for.cond
  %9 = load double, double* %m, align 8, !tbaa !44
  %10 = load double*, double** %x.addr, align 8, !tbaa !2
  %11 = load i32, i32* %i, align 4, !tbaa !20
  %idxprom = sext i32 %11 to i64
  %arrayidx1 = getelementptr inbounds double, double* %10, i64 %idxprom
  %12 = load double, double* %arrayidx1, align 8, !tbaa !44
  %cmp2 = fcmp fast olt double %9, %12
  br i1 %cmp2, label %if.then, label %if.else

if.then:                                          ; preds = %for.body
  %13 = load double*, double** %x.addr, align 8, !tbaa !2
  %14 = load i32, i32* %i, align 4, !tbaa !20
  %idxprom3 = sext i32 %14 to i64
  %arrayidx4 = getelementptr inbounds double, double* %13, i64 %idxprom3
  %15 = load double, double* %arrayidx4, align 8, !tbaa !44
  store double %15, double* %m, align 8, !tbaa !44
  call void @pushControl1b(i32 1)
  br label %if.end

if.else:                                          ; preds = %for.body
  call void @pushControl1b(i32 0)
  br label %if.end

if.end:                                           ; preds = %if.else, %if.then
  br label %for.inc

for.inc:                                          ; preds = %if.end
  %16 = load i32, i32* %i, align 4, !tbaa !20
  %inc = add nsw i32 %16, 1
  store i32 %inc, i32* %i, align 4, !tbaa !20
  br label %for.cond, !llvm.loop !73

for.end:                                          ; preds = %for.cond
  %17 = load double, double* %arr_maxb.addr, align 8, !tbaa !44
  store double %17, double* %mb, align 8, !tbaa !44
  %18 = load i32, i32* %n.addr, align 4, !tbaa !20
  %sub = sub nsw i32 %18, 1
  store i32 %sub, i32* %i, align 4, !tbaa !20
  br label %for.cond5

for.cond5:                                        ; preds = %for.inc15, %for.end
  %19 = load i32, i32* %i, align 4, !tbaa !20
  %cmp6 = icmp sgt i32 %19, 0
  br i1 %cmp6, label %for.body7, label %for.end16

for.body7:                                        ; preds = %for.cond5
  call void @popControl1b(i32* %branch)
  %20 = load i32, i32* %branch, align 4, !tbaa !20
  %cmp8 = icmp ne i32 %20, 0
  br i1 %cmp8, label %if.then9, label %if.end14

if.then9:                                         ; preds = %for.body7
  %21 = load double*, double** %xb.addr, align 8, !tbaa !2
  %22 = load i32, i32* %i, align 4, !tbaa !20
  %idxprom10 = sext i32 %22 to i64
  %arrayidx11 = getelementptr inbounds double, double* %21, i64 %idxprom10
  %23 = load double, double* %arrayidx11, align 8, !tbaa !44
  %24 = load double, double* %mb, align 8, !tbaa !44
  %add = fadd fast double %23, %24
  %25 = load double*, double** %xb.addr, align 8, !tbaa !2
  %26 = load i32, i32* %i, align 4, !tbaa !20
  %idxprom12 = sext i32 %26 to i64
  %arrayidx13 = getelementptr inbounds double, double* %25, i64 %idxprom12
  store double %add, double* %arrayidx13, align 8, !tbaa !44
  store double 0.000000e+00, double* %mb, align 8, !tbaa !44
  br label %if.end14

if.end14:                                         ; preds = %if.then9, %for.body7
  br label %for.inc15

for.inc15:                                        ; preds = %if.end14
  %27 = load i32, i32* %i, align 4, !tbaa !20
  %dec = add nsw i32 %27, -1
  store i32 %dec, i32* %i, align 4, !tbaa !20
  br label %for.cond5, !llvm.loop !74

for.end16:                                        ; preds = %for.cond5
  %28 = load double*, double** %xb.addr, align 8, !tbaa !2
  %arrayidx17 = getelementptr inbounds double, double* %28, i64 0
  %29 = load double, double* %arrayidx17, align 8, !tbaa !44
  %30 = load double, double* %mb, align 8, !tbaa !44
  %add18 = fadd fast double %29, %30
  %31 = load double*, double** %xb.addr, align 8, !tbaa !2
  %arrayidx19 = getelementptr inbounds double, double* %31, i64 0
  store double %add18, double* %arrayidx19, align 8, !tbaa !44
  %32 = bitcast double* %arr_max to i8*
  call void @llvm.lifetime.end.p0i8(i64 8, i8* %32) #9
  %33 = bitcast i32* %branch to i8*
  call void @llvm.lifetime.end.p0i8(i64 4, i8* %33) #9
  %34 = bitcast double* %mb to i8*
  call void @llvm.lifetime.end.p0i8(i64 8, i8* %34) #9
  %35 = bitcast double* %m to i8*
  call void @llvm.lifetime.end.p0i8(i64 8, i8* %35) #9
  %36 = bitcast i32* %i to i8*
  call void @llvm.lifetime.end.p0i8(i64 4, i8* %36) #9
  ret void
}

declare dso_local void @pushControl1b(i32) #2

declare dso_local void @popControl1b(i32*) #2

; Function Attrs: nounwind uwtable mustprogress
define dso_local double @arr_max_nodiff(i32 %n, double* %x) #8 {
entry:
  %n.addr = alloca i32, align 4
  %x.addr = alloca double*, align 8
  %i = alloca i32, align 4
  %m = alloca double, align 8
  store i32 %n, i32* %n.addr, align 4, !tbaa !20
  store double* %x, double** %x.addr, align 8, !tbaa !2
  %0 = bitcast i32* %i to i8*
  call void @llvm.lifetime.start.p0i8(i64 4, i8* %0) #9
  %1 = bitcast double* %m to i8*
  call void @llvm.lifetime.start.p0i8(i64 8, i8* %1) #9
  %2 = load double*, double** %x.addr, align 8, !tbaa !2
  %arrayidx = getelementptr inbounds double, double* %2, i64 0
  %3 = load double, double* %arrayidx, align 8, !tbaa !44
  store double %3, double* %m, align 8, !tbaa !44
  store i32 1, i32* %i, align 4, !tbaa !20
  br label %for.cond

for.cond:                                         ; preds = %for.inc, %entry
  %4 = load i32, i32* %i, align 4, !tbaa !20
  %5 = load i32, i32* %n.addr, align 4, !tbaa !20
  %cmp = icmp slt i32 %4, %5
  br i1 %cmp, label %for.body, label %for.end

for.body:                                         ; preds = %for.cond
  %6 = load double, double* %m, align 8, !tbaa !44
  %7 = load double*, double** %x.addr, align 8, !tbaa !2
  %8 = load i32, i32* %i, align 4, !tbaa !20
  %idxprom = sext i32 %8 to i64
  %arrayidx1 = getelementptr inbounds double, double* %7, i64 %idxprom
  %9 = load double, double* %arrayidx1, align 8, !tbaa !44
  %cmp2 = fcmp fast olt double %6, %9
  br i1 %cmp2, label %if.then, label %if.end

if.then:                                          ; preds = %for.body
  %10 = load double*, double** %x.addr, align 8, !tbaa !2
  %11 = load i32, i32* %i, align 4, !tbaa !20
  %idxprom3 = sext i32 %11 to i64
  %arrayidx4 = getelementptr inbounds double, double* %10, i64 %idxprom3
  %12 = load double, double* %arrayidx4, align 8, !tbaa !44
  store double %12, double* %m, align 8, !tbaa !44
  br label %if.end

if.end:                                           ; preds = %if.then, %for.body
  br label %for.inc

for.inc:                                          ; preds = %if.end
  %13 = load i32, i32* %i, align 4, !tbaa !20
  %inc = add nsw i32 %13, 1
  store i32 %inc, i32* %i, align 4, !tbaa !20
  br label %for.cond, !llvm.loop !75

for.end:                                          ; preds = %for.cond
  %14 = load double, double* %m, align 8, !tbaa !44
  %15 = bitcast double* %m to i8*
  call void @llvm.lifetime.end.p0i8(i64 8, i8* %15) #9
  %16 = bitcast i32* %i to i8*
  call void @llvm.lifetime.end.p0i8(i64 4, i8* %16) #9
  ret double %14
}

; Function Attrs: nounwind uwtable mustprogress
define dso_local void @sqnorm_b(i32 %n, double* %x, double* %xb, double %sqnormb) #8 {
entry:
  %n.addr = alloca i32, align 4
  %x.addr = alloca double*, align 8
  %xb.addr = alloca double*, align 8
  %sqnormb.addr = alloca double, align 8
  %i = alloca i32, align 4
  %res = alloca double, align 8
  %resb = alloca double, align 8
  %sqnorm = alloca double, align 8
  store i32 %n, i32* %n.addr, align 4, !tbaa !20
  store double* %x, double** %x.addr, align 8, !tbaa !2
  store double* %xb, double** %xb.addr, align 8, !tbaa !2
  store double %sqnormb, double* %sqnormb.addr, align 8, !tbaa !44
  %0 = bitcast i32* %i to i8*
  call void @llvm.lifetime.start.p0i8(i64 4, i8* %0) #9
  %1 = bitcast double* %res to i8*
  call void @llvm.lifetime.start.p0i8(i64 8, i8* %1) #9
  %2 = load double*, double** %x.addr, align 8, !tbaa !2
  %arrayidx = getelementptr inbounds double, double* %2, i64 0
  %3 = load double, double* %arrayidx, align 8, !tbaa !44
  %4 = load double*, double** %x.addr, align 8, !tbaa !2
  %arrayidx1 = getelementptr inbounds double, double* %4, i64 0
  %5 = load double, double* %arrayidx1, align 8, !tbaa !44
  %mul = fmul fast double %3, %5
  store double %mul, double* %res, align 8, !tbaa !44
  %6 = bitcast double* %resb to i8*
  call void @llvm.lifetime.start.p0i8(i64 8, i8* %6) #9
  store double 0.000000e+00, double* %resb, align 8, !tbaa !44
  %7 = bitcast double* %sqnorm to i8*
  call void @llvm.lifetime.start.p0i8(i64 8, i8* %7) #9
  %8 = load double, double* %sqnormb.addr, align 8, !tbaa !44
  store double %8, double* %resb, align 8, !tbaa !44
  %9 = load i32, i32* %n.addr, align 4, !tbaa !20
  %sub = sub nsw i32 %9, 1
  store i32 %sub, i32* %i, align 4, !tbaa !20
  br label %for.cond

for.cond:                                         ; preds = %for.inc, %entry
  %10 = load i32, i32* %i, align 4, !tbaa !20
  %cmp = icmp sgt i32 %10, 0
  br i1 %cmp, label %for.body, label %for.end

for.body:                                         ; preds = %for.cond
  %11 = load double*, double** %xb.addr, align 8, !tbaa !2
  %12 = load i32, i32* %i, align 4, !tbaa !20
  %idxprom = sext i32 %12 to i64
  %arrayidx2 = getelementptr inbounds double, double* %11, i64 %idxprom
  %13 = load double, double* %arrayidx2, align 8, !tbaa !44
  %14 = load double*, double** %x.addr, align 8, !tbaa !2
  %15 = load i32, i32* %i, align 4, !tbaa !20
  %idxprom3 = sext i32 %15 to i64
  %arrayidx4 = getelementptr inbounds double, double* %14, i64 %idxprom3
  %16 = load double, double* %arrayidx4, align 8, !tbaa !44
  %mul5 = fmul fast double 2.000000e+00, %16
  %17 = load double, double* %resb, align 8, !tbaa !44
  %mul6 = fmul fast double %mul5, %17
  %add = fadd fast double %13, %mul6
  %18 = load double*, double** %xb.addr, align 8, !tbaa !2
  %19 = load i32, i32* %i, align 4, !tbaa !20
  %idxprom7 = sext i32 %19 to i64
  %arrayidx8 = getelementptr inbounds double, double* %18, i64 %idxprom7
  store double %add, double* %arrayidx8, align 8, !tbaa !44
  br label %for.inc

for.inc:                                          ; preds = %for.body
  %20 = load i32, i32* %i, align 4, !tbaa !20
  %dec = add nsw i32 %20, -1
  store i32 %dec, i32* %i, align 4, !tbaa !20
  br label %for.cond, !llvm.loop !76

for.end:                                          ; preds = %for.cond
  %21 = load double*, double** %xb.addr, align 8, !tbaa !2
  %arrayidx9 = getelementptr inbounds double, double* %21, i64 0
  %22 = load double, double* %arrayidx9, align 8, !tbaa !44
  %23 = load double*, double** %x.addr, align 8, !tbaa !2
  %arrayidx10 = getelementptr inbounds double, double* %23, i64 0
  %24 = load double, double* %arrayidx10, align 8, !tbaa !44
  %mul11 = fmul fast double 2.000000e+00, %24
  %25 = load double, double* %resb, align 8, !tbaa !44
  %mul12 = fmul fast double %mul11, %25
  %add13 = fadd fast double %22, %mul12
  %26 = load double*, double** %xb.addr, align 8, !tbaa !2
  %arrayidx14 = getelementptr inbounds double, double* %26, i64 0
  store double %add13, double* %arrayidx14, align 8, !tbaa !44
  %27 = bitcast double* %sqnorm to i8*
  call void @llvm.lifetime.end.p0i8(i64 8, i8* %27) #9
  %28 = bitcast double* %resb to i8*
  call void @llvm.lifetime.end.p0i8(i64 8, i8* %28) #9
  %29 = bitcast double* %res to i8*
  call void @llvm.lifetime.end.p0i8(i64 8, i8* %29) #9
  %30 = bitcast i32* %i to i8*
  call void @llvm.lifetime.end.p0i8(i64 4, i8* %30) #9
  ret void
}

; Function Attrs: nounwind uwtable mustprogress
define dso_local double @sqnorm_nodiff(i32 %n, double* %x) #8 {
entry:
  %n.addr = alloca i32, align 4
  %x.addr = alloca double*, align 8
  %i = alloca i32, align 4
  %res = alloca double, align 8
  store i32 %n, i32* %n.addr, align 4, !tbaa !20
  store double* %x, double** %x.addr, align 8, !tbaa !2
  %0 = bitcast i32* %i to i8*
  call void @llvm.lifetime.start.p0i8(i64 4, i8* %0) #9
  %1 = bitcast double* %res to i8*
  call void @llvm.lifetime.start.p0i8(i64 8, i8* %1) #9
  %2 = load double*, double** %x.addr, align 8, !tbaa !2
  %arrayidx = getelementptr inbounds double, double* %2, i64 0
  %3 = load double, double* %arrayidx, align 8, !tbaa !44
  %4 = load double*, double** %x.addr, align 8, !tbaa !2
  %arrayidx1 = getelementptr inbounds double, double* %4, i64 0
  %5 = load double, double* %arrayidx1, align 8, !tbaa !44
  %mul = fmul fast double %3, %5
  store double %mul, double* %res, align 8, !tbaa !44
  store i32 1, i32* %i, align 4, !tbaa !20
  br label %for.cond

for.cond:                                         ; preds = %for.inc, %entry
  %6 = load i32, i32* %i, align 4, !tbaa !20
  %7 = load i32, i32* %n.addr, align 4, !tbaa !20
  %cmp = icmp slt i32 %6, %7
  br i1 %cmp, label %for.body, label %for.end

for.body:                                         ; preds = %for.cond
  %8 = load double, double* %res, align 8, !tbaa !44
  %9 = load double*, double** %x.addr, align 8, !tbaa !2
  %10 = load i32, i32* %i, align 4, !tbaa !20
  %idxprom = sext i32 %10 to i64
  %arrayidx2 = getelementptr inbounds double, double* %9, i64 %idxprom
  %11 = load double, double* %arrayidx2, align 8, !tbaa !44
  %12 = load double*, double** %x.addr, align 8, !tbaa !2
  %13 = load i32, i32* %i, align 4, !tbaa !20
  %idxprom3 = sext i32 %13 to i64
  %arrayidx4 = getelementptr inbounds double, double* %12, i64 %idxprom3
  %14 = load double, double* %arrayidx4, align 8, !tbaa !44
  %mul5 = fmul fast double %11, %14
  %add = fadd fast double %8, %mul5
  store double %add, double* %res, align 8, !tbaa !44
  br label %for.inc

for.inc:                                          ; preds = %for.body
  %15 = load i32, i32* %i, align 4, !tbaa !20
  %inc = add nsw i32 %15, 1
  store i32 %inc, i32* %i, align 4, !tbaa !20
  br label %for.cond, !llvm.loop !77

for.end:                                          ; preds = %for.cond
  %16 = load double, double* %res, align 8, !tbaa !44
  %17 = bitcast double* %res to i8*
  call void @llvm.lifetime.end.p0i8(i64 8, i8* %17) #9
  %18 = bitcast i32* %i to i8*
  call void @llvm.lifetime.end.p0i8(i64 4, i8* %18) #9
  ret double %16
}

; Function Attrs: nounwind uwtable mustprogress
define dso_local void @subtract_b(i32 %d, double* %x, double* %y, double* %yb, double* %out, double* %outb) #8 {
entry:
  %d.addr = alloca i32, align 4
  %x.addr = alloca double*, align 8
  %y.addr = alloca double*, align 8
  %yb.addr = alloca double*, align 8
  %out.addr = alloca double*, align 8
  %outb.addr = alloca double*, align 8
  %id = alloca i32, align 4
  store i32 %d, i32* %d.addr, align 4, !tbaa !20
  store double* %x, double** %x.addr, align 8, !tbaa !2
  store double* %y, double** %y.addr, align 8, !tbaa !2
  store double* %yb, double** %yb.addr, align 8, !tbaa !2
  store double* %out, double** %out.addr, align 8, !tbaa !2
  store double* %outb, double** %outb.addr, align 8, !tbaa !2
  %0 = bitcast i32* %id to i8*
  call void @llvm.lifetime.start.p0i8(i64 4, i8* %0) #9
  %1 = load i32, i32* %d.addr, align 4, !tbaa !20
  %sub = sub nsw i32 %1, 1
  store i32 %sub, i32* %id, align 4, !tbaa !20
  br label %for.cond

for.cond:                                         ; preds = %for.inc, %entry
  %2 = load i32, i32* %id, align 4, !tbaa !20
  %cmp = icmp sgt i32 %2, -1
  br i1 %cmp, label %for.body, label %for.end

for.body:                                         ; preds = %for.cond
  %3 = load double*, double** %yb.addr, align 8, !tbaa !2
  %4 = load i32, i32* %id, align 4, !tbaa !20
  %idxprom = sext i32 %4 to i64
  %arrayidx = getelementptr inbounds double, double* %3, i64 %idxprom
  %5 = load double, double* %arrayidx, align 8, !tbaa !44
  %6 = load double*, double** %outb.addr, align 8, !tbaa !2
  %7 = load i32, i32* %id, align 4, !tbaa !20
  %idxprom1 = sext i32 %7 to i64
  %arrayidx2 = getelementptr inbounds double, double* %6, i64 %idxprom1
  %8 = load double, double* %arrayidx2, align 8, !tbaa !44
  %sub3 = fsub fast double %5, %8
  %9 = load double*, double** %yb.addr, align 8, !tbaa !2
  %10 = load i32, i32* %id, align 4, !tbaa !20
  %idxprom4 = sext i32 %10 to i64
  %arrayidx5 = getelementptr inbounds double, double* %9, i64 %idxprom4
  store double %sub3, double* %arrayidx5, align 8, !tbaa !44
  %11 = load double*, double** %outb.addr, align 8, !tbaa !2
  %12 = load i32, i32* %id, align 4, !tbaa !20
  %idxprom6 = sext i32 %12 to i64
  %arrayidx7 = getelementptr inbounds double, double* %11, i64 %idxprom6
  store double 0.000000e+00, double* %arrayidx7, align 8, !tbaa !44
  br label %for.inc

for.inc:                                          ; preds = %for.body
  %13 = load i32, i32* %id, align 4, !tbaa !20
  %dec = add nsw i32 %13, -1
  store i32 %dec, i32* %id, align 4, !tbaa !20
  br label %for.cond, !llvm.loop !78

for.end:                                          ; preds = %for.cond
  %14 = bitcast i32* %id to i8*
  call void @llvm.lifetime.end.p0i8(i64 4, i8* %14) #9
  ret void
}

; Function Attrs: nounwind uwtable mustprogress
define dso_local void @subtract_nodiff(i32 %d, double* %x, double* %y, double* %out) #8 {
entry:
  %d.addr = alloca i32, align 4
  %x.addr = alloca double*, align 8
  %y.addr = alloca double*, align 8
  %out.addr = alloca double*, align 8
  %id = alloca i32, align 4
  store i32 %d, i32* %d.addr, align 4, !tbaa !20
  store double* %x, double** %x.addr, align 8, !tbaa !2
  store double* %y, double** %y.addr, align 8, !tbaa !2
  store double* %out, double** %out.addr, align 8, !tbaa !2
  %0 = bitcast i32* %id to i8*
  call void @llvm.lifetime.start.p0i8(i64 4, i8* %0) #9
  store i32 0, i32* %id, align 4, !tbaa !20
  br label %for.cond

for.cond:                                         ; preds = %for.inc, %entry
  %1 = load i32, i32* %id, align 4, !tbaa !20
  %2 = load i32, i32* %d.addr, align 4, !tbaa !20
  %cmp = icmp slt i32 %1, %2
  br i1 %cmp, label %for.body, label %for.end

for.body:                                         ; preds = %for.cond
  %3 = load double*, double** %x.addr, align 8, !tbaa !2
  %4 = load i32, i32* %id, align 4, !tbaa !20
  %idxprom = sext i32 %4 to i64
  %arrayidx = getelementptr inbounds double, double* %3, i64 %idxprom
  %5 = load double, double* %arrayidx, align 8, !tbaa !44
  %6 = load double*, double** %y.addr, align 8, !tbaa !2
  %7 = load i32, i32* %id, align 4, !tbaa !20
  %idxprom1 = sext i32 %7 to i64
  %arrayidx2 = getelementptr inbounds double, double* %6, i64 %idxprom1
  %8 = load double, double* %arrayidx2, align 8, !tbaa !44
  %sub = fsub fast double %5, %8
  %9 = load double*, double** %out.addr, align 8, !tbaa !2
  %10 = load i32, i32* %id, align 4, !tbaa !20
  %idxprom3 = sext i32 %10 to i64
  %arrayidx4 = getelementptr inbounds double, double* %9, i64 %idxprom3
  store double %sub, double* %arrayidx4, align 8, !tbaa !44
  br label %for.inc

for.inc:                                          ; preds = %for.body
  %11 = load i32, i32* %id, align 4, !tbaa !20
  %inc = add nsw i32 %11, 1
  store i32 %inc, i32* %id, align 4, !tbaa !20
  br label %for.cond, !llvm.loop !79

for.end:                                          ; preds = %for.cond
  %12 = bitcast i32* %id to i8*
  call void @llvm.lifetime.end.p0i8(i64 4, i8* %12) #9
  ret void
}

; Function Attrs: uwtable mustprogress
define dso_local void @log_sum_exp_b(i32 %n, double* %x, double* %xb, double %log_sum_expb) #0 {
entry:
  %n.addr = alloca i32, align 4
  %x.addr = alloca double*, align 8
  %xb.addr = alloca double*, align 8
  %log_sum_expb.addr = alloca double, align 8
  %i = alloca i32, align 4
  %mx = alloca double, align 8
  %mxb = alloca double, align 8
  %tempb = alloca double, align 8
  %log_sum_exp = alloca double, align 8
  %semx = alloca double, align 8
  %semxb = alloca double, align 8
  store i32 %n, i32* %n.addr, align 4, !tbaa !20
  store double* %x, double** %x.addr, align 8, !tbaa !2
  store double* %xb, double** %xb.addr, align 8, !tbaa !2
  store double %log_sum_expb, double* %log_sum_expb.addr, align 8, !tbaa !44
  %0 = bitcast i32* %i to i8*
  call void @llvm.lifetime.start.p0i8(i64 4, i8* %0) #9
  %1 = bitcast double* %mx to i8*
  call void @llvm.lifetime.start.p0i8(i64 8, i8* %1) #9
  %2 = bitcast double* %mxb to i8*
  call void @llvm.lifetime.start.p0i8(i64 8, i8* %2) #9
  %3 = bitcast double* %tempb to i8*
  call void @llvm.lifetime.start.p0i8(i64 8, i8* %3) #9
  %4 = bitcast double* %log_sum_exp to i8*
  call void @llvm.lifetime.start.p0i8(i64 8, i8* %4) #9
  %5 = load i32, i32* %n.addr, align 4, !tbaa !20
  %6 = load double*, double** %x.addr, align 8, !tbaa !2
  %call = call fast double @arr_max_nodiff(i32 %5, double* %6)
  store double %call, double* %mx, align 8, !tbaa !44
  %7 = bitcast double* %semx to i8*
  call void @llvm.lifetime.start.p0i8(i64 8, i8* %7) #9
  store double 0.000000e+00, double* %semx, align 8, !tbaa !44
  %8 = bitcast double* %semxb to i8*
  call void @llvm.lifetime.start.p0i8(i64 8, i8* %8) #9
  store double 0.000000e+00, double* %semxb, align 8, !tbaa !44
  store i32 0, i32* %i, align 4, !tbaa !20
  br label %for.cond

for.cond:                                         ; preds = %for.inc, %entry
  %9 = load i32, i32* %i, align 4, !tbaa !20
  %10 = load i32, i32* %n.addr, align 4, !tbaa !20
  %cmp = icmp slt i32 %9, %10
  br i1 %cmp, label %for.body, label %for.end

for.body:                                         ; preds = %for.cond
  %11 = load double, double* %semx, align 8, !tbaa !44
  %12 = load double*, double** %x.addr, align 8, !tbaa !2
  %13 = load i32, i32* %i, align 4, !tbaa !20
  %idxprom = sext i32 %13 to i64
  %arrayidx = getelementptr inbounds double, double* %12, i64 %idxprom
  %14 = load double, double* %arrayidx, align 8, !tbaa !44
  %15 = load double, double* %mx, align 8, !tbaa !44
  %sub = fsub fast double %14, %15
  %16 = call fast double @llvm.exp.f64(double %sub)
  %add = fadd fast double %11, %16
  store double %add, double* %semx, align 8, !tbaa !44
  br label %for.inc

for.inc:                                          ; preds = %for.body
  %17 = load i32, i32* %i, align 4, !tbaa !20
  %inc = add nsw i32 %17, 1
  store i32 %inc, i32* %i, align 4, !tbaa !20
  br label %for.cond, !llvm.loop !80

for.end:                                          ; preds = %for.cond
  %18 = load double, double* %log_sum_expb.addr, align 8, !tbaa !44
  %19 = load double, double* %semx, align 8, !tbaa !44
  %div = fdiv fast double %18, %19
  store double %div, double* %semxb, align 8, !tbaa !44
  %20 = load double, double* %log_sum_expb.addr, align 8, !tbaa !44
  store double %20, double* %mxb, align 8, !tbaa !44
  %21 = load i32, i32* %n.addr, align 4, !tbaa !20
  %sub1 = sub nsw i32 %21, 1
  store i32 %sub1, i32* %i, align 4, !tbaa !20
  br label %for.cond2

for.cond2:                                        ; preds = %for.inc14, %for.end
  %22 = load i32, i32* %i, align 4, !tbaa !20
  %cmp3 = icmp sgt i32 %22, -1
  br i1 %cmp3, label %for.body4, label %for.end15

for.body4:                                        ; preds = %for.cond2
  %23 = load double*, double** %x.addr, align 8, !tbaa !2
  %24 = load i32, i32* %i, align 4, !tbaa !20
  %idxprom5 = sext i32 %24 to i64
  %arrayidx6 = getelementptr inbounds double, double* %23, i64 %idxprom5
  %25 = load double, double* %arrayidx6, align 8, !tbaa !44
  %26 = load double, double* %mx, align 8, !tbaa !44
  %sub7 = fsub fast double %25, %26
  %27 = call fast double @llvm.exp.f64(double %sub7)
  %28 = load double, double* %semxb, align 8, !tbaa !44
  %mul = fmul fast double %27, %28
  store double %mul, double* %tempb, align 8, !tbaa !44
  %29 = load double*, double** %xb.addr, align 8, !tbaa !2
  %30 = load i32, i32* %i, align 4, !tbaa !20
  %idxprom8 = sext i32 %30 to i64
  %arrayidx9 = getelementptr inbounds double, double* %29, i64 %idxprom8
  %31 = load double, double* %arrayidx9, align 8, !tbaa !44
  %32 = load double, double* %tempb, align 8, !tbaa !44
  %add10 = fadd fast double %31, %32
  %33 = load double*, double** %xb.addr, align 8, !tbaa !2
  %34 = load i32, i32* %i, align 4, !tbaa !20
  %idxprom11 = sext i32 %34 to i64
  %arrayidx12 = getelementptr inbounds double, double* %33, i64 %idxprom11
  store double %add10, double* %arrayidx12, align 8, !tbaa !44
  %35 = load double, double* %mxb, align 8, !tbaa !44
  %36 = load double, double* %tempb, align 8, !tbaa !44
  %sub13 = fsub fast double %35, %36
  store double %sub13, double* %mxb, align 8, !tbaa !44
  br label %for.inc14

for.inc14:                                        ; preds = %for.body4
  %37 = load i32, i32* %i, align 4, !tbaa !20
  %dec = add nsw i32 %37, -1
  store i32 %dec, i32* %i, align 4, !tbaa !20
  br label %for.cond2, !llvm.loop !81

for.end15:                                        ; preds = %for.cond2
  %38 = load i32, i32* %n.addr, align 4, !tbaa !20
  %39 = load double*, double** %x.addr, align 8, !tbaa !2
  %40 = load double*, double** %xb.addr, align 8, !tbaa !2
  %41 = load double, double* %mxb, align 8, !tbaa !44
  call void @arr_max_b(i32 %38, double* %39, double* %40, double %41)
  %42 = bitcast double* %semxb to i8*
  call void @llvm.lifetime.end.p0i8(i64 8, i8* %42) #9
  %43 = bitcast double* %semx to i8*
  call void @llvm.lifetime.end.p0i8(i64 8, i8* %43) #9
  %44 = bitcast double* %log_sum_exp to i8*
  call void @llvm.lifetime.end.p0i8(i64 8, i8* %44) #9
  %45 = bitcast double* %tempb to i8*
  call void @llvm.lifetime.end.p0i8(i64 8, i8* %45) #9
  %46 = bitcast double* %mxb to i8*
  call void @llvm.lifetime.end.p0i8(i64 8, i8* %46) #9
  %47 = bitcast double* %mx to i8*
  call void @llvm.lifetime.end.p0i8(i64 8, i8* %47) #9
  %48 = bitcast i32* %i to i8*
  call void @llvm.lifetime.end.p0i8(i64 4, i8* %48) #9
  ret void
}

; Function Attrs: nounwind uwtable mustprogress
define dso_local double @log_sum_exp_nodiff(i32 %n, double* %x) #8 {
entry:
  %n.addr = alloca i32, align 4
  %x.addr = alloca double*, align 8
  %i = alloca i32, align 4
  %mx = alloca double, align 8
  %semx = alloca double, align 8
  store i32 %n, i32* %n.addr, align 4, !tbaa !20
  store double* %x, double** %x.addr, align 8, !tbaa !2
  %0 = bitcast i32* %i to i8*
  call void @llvm.lifetime.start.p0i8(i64 4, i8* %0) #9
  %1 = bitcast double* %mx to i8*
  call void @llvm.lifetime.start.p0i8(i64 8, i8* %1) #9
  %2 = load i32, i32* %n.addr, align 4, !tbaa !20
  %3 = load double*, double** %x.addr, align 8, !tbaa !2
  %call = call fast double @arr_max_nodiff(i32 %2, double* %3)
  store double %call, double* %mx, align 8, !tbaa !44
  %4 = bitcast double* %semx to i8*
  call void @llvm.lifetime.start.p0i8(i64 8, i8* %4) #9
  store double 0.000000e+00, double* %semx, align 8, !tbaa !44
  store i32 0, i32* %i, align 4, !tbaa !20
  br label %for.cond

for.cond:                                         ; preds = %for.inc, %entry
  %5 = load i32, i32* %i, align 4, !tbaa !20
  %6 = load i32, i32* %n.addr, align 4, !tbaa !20
  %cmp = icmp slt i32 %5, %6
  br i1 %cmp, label %for.body, label %for.end

for.body:                                         ; preds = %for.cond
  %7 = load double, double* %semx, align 8, !tbaa !44
  %8 = load double*, double** %x.addr, align 8, !tbaa !2
  %9 = load i32, i32* %i, align 4, !tbaa !20
  %idxprom = sext i32 %9 to i64
  %arrayidx = getelementptr inbounds double, double* %8, i64 %idxprom
  %10 = load double, double* %arrayidx, align 8, !tbaa !44
  %11 = load double, double* %mx, align 8, !tbaa !44
  %sub = fsub fast double %10, %11
  %12 = call fast double @llvm.exp.f64(double %sub)
  %add = fadd fast double %7, %12
  store double %add, double* %semx, align 8, !tbaa !44
  br label %for.inc

for.inc:                                          ; preds = %for.body
  %13 = load i32, i32* %i, align 4, !tbaa !20
  %inc = add nsw i32 %13, 1
  store i32 %inc, i32* %i, align 4, !tbaa !20
  br label %for.cond, !llvm.loop !82

for.end:                                          ; preds = %for.cond
  %14 = load double, double* %semx, align 8, !tbaa !44
  %15 = call fast double @llvm.log.f64(double %14)
  %16 = load double, double* %mx, align 8, !tbaa !44
  %add1 = fadd fast double %15, %16
  %17 = bitcast double* %semx to i8*
  call void @llvm.lifetime.end.p0i8(i64 8, i8* %17) #9
  %18 = bitcast double* %mx to i8*
  call void @llvm.lifetime.end.p0i8(i64 8, i8* %18) #9
  %19 = bitcast i32* %i to i8*
  call void @llvm.lifetime.end.p0i8(i64 4, i8* %19) #9
  ret double %add1
}

; Function Attrs: nounwind uwtable mustprogress
define dso_local double @log_gamma_distrib_nodiff(double %a, double %p) #8 {
entry:
  %a.addr = alloca double, align 8
  %p.addr = alloca double, align 8
  %j = alloca i32, align 4
  %out = alloca double, align 8
  %arg1 = alloca double, align 8
  %result1 = alloca float, align 4
  store double %a, double* %a.addr, align 8, !tbaa !44
  store double %p, double* %p.addr, align 8, !tbaa !44
  %0 = bitcast i32* %j to i8*
  call void @llvm.lifetime.start.p0i8(i64 4, i8* %0) #9
  %1 = bitcast double* %out to i8*
  call void @llvm.lifetime.start.p0i8(i64 8, i8* %1) #9
  %2 = load double, double* %p.addr, align 8, !tbaa !44
  %mul = fmul fast double 2.500000e-01, %2
  %3 = load double, double* %p.addr, align 8, !tbaa !44
  %sub = fsub fast double %3, 1.000000e+00
  %mul1 = fmul fast double %mul, %sub
  %4 = call fast double @llvm.log.f64(double 0x400921FB54442EEA)
  %mul2 = fmul fast double %mul1, %4
  store double %mul2, double* %out, align 8, !tbaa !44
  %5 = bitcast double* %arg1 to i8*
  call void @llvm.lifetime.start.p0i8(i64 8, i8* %5) #9
  %6 = bitcast float* %result1 to i8*
  call void @llvm.lifetime.start.p0i8(i64 4, i8* %6) #9
  store i32 1, i32* %j, align 4, !tbaa !20
  br label %for.cond

for.cond:                                         ; preds = %for.inc, %entry
  %7 = load i32, i32* %j, align 4, !tbaa !20
  %conv = sitofp i32 %7 to double
  %8 = load double, double* %p.addr, align 8, !tbaa !44
  %add = fadd fast double %8, 1.000000e+00
  %cmp = fcmp fast olt double %conv, %add
  br i1 %cmp, label %for.body, label %for.end

for.body:                                         ; preds = %for.cond
  %9 = load double, double* %a.addr, align 8, !tbaa !44
  %10 = load i32, i32* %j, align 4, !tbaa !20
  %sub3 = sub nsw i32 1, %10
  %conv4 = sitofp i32 %sub3 to double
  %mul5 = fmul fast double 5.000000e-01, %conv4
  %add6 = fadd fast double %9, %mul5
  store double %add6, double* %arg1, align 8, !tbaa !44
  %11 = load double, double* %arg1, align 8, !tbaa !44
  %call = call fast double @lgamma(double %11) #9
  %conv7 = fptrunc double %call to float
  store float %conv7, float* %result1, align 4, !tbaa !83
  %12 = load double, double* %out, align 8, !tbaa !44
  %13 = load float, float* %result1, align 4, !tbaa !83
  %conv8 = fpext float %13 to double
  %add9 = fadd fast double %12, %conv8
  store double %add9, double* %out, align 8, !tbaa !44
  br label %for.inc

for.inc:                                          ; preds = %for.body
  %14 = load i32, i32* %j, align 4, !tbaa !20
  %inc = add nsw i32 %14, 1
  store i32 %inc, i32* %j, align 4, !tbaa !20
  br label %for.cond, !llvm.loop !85

for.end:                                          ; preds = %for.cond
  %15 = load double, double* %out, align 8, !tbaa !44
  %16 = bitcast float* %result1 to i8*
  call void @llvm.lifetime.end.p0i8(i64 4, i8* %16) #9
  %17 = bitcast double* %arg1 to i8*
  call void @llvm.lifetime.end.p0i8(i64 8, i8* %17) #9
  %18 = bitcast double* %out to i8*
  call void @llvm.lifetime.end.p0i8(i64 8, i8* %18) #9
  %19 = bitcast i32* %j to i8*
  call void @llvm.lifetime.end.p0i8(i64 4, i8* %19) #9
  ret double %15
}

; Function Attrs: nounwind uwtable mustprogress
define dso_local void @log_wishart_prior_b(i32 %p, i32 %k, double %wishart.coerce0, i32 %wishart.coerce1, double* %sum_qs, double* %sum_qsb, double* %Qdiags, double* %Qdiagsb, double* %icf, double* %icfb, double %log_wishart_priorb) #8 {
entry:
  %wishart = alloca %struct.Wishart, align 8
  %p.addr = alloca i32, align 4
  %k.addr = alloca i32, align 4
  %sum_qs.addr = alloca double*, align 8
  %sum_qsb.addr = alloca double*, align 8
  %Qdiags.addr = alloca double*, align 8
  %Qdiagsb.addr = alloca double*, align 8
  %icf.addr = alloca double*, align 8
  %icfb.addr = alloca double*, align 8
  %log_wishart_priorb.addr = alloca double, align 8
  %ik = alloca i32, align 4
  %n = alloca i32, align 4
  %icf_sz = alloca i32, align 4
  %C = alloca double, align 8
  %arg1 = alloca float, align 4
  %result1 = alloca double, align 8
  %out = alloca double, align 8
  %outb = alloca double, align 8
  %log_wishart_prior = alloca double, align 8
  %frobenius = alloca double, align 8
  %result13 = alloca double, align 8
  %arg14 = alloca i32, align 4
  %result2 = alloca double, align 8
  %frobenius32 = alloca double, align 8
  %frobeniusb = alloca double, align 8
  %result133 = alloca double, align 8
  %result1b = alloca double, align 8
  %arg134 = alloca i32, align 4
  %result235 = alloca double, align 8
  %result2b = alloca double, align 8
  %0 = bitcast %struct.Wishart* %wishart to { double, i32 }*
  %1 = getelementptr inbounds { double, i32 }, { double, i32 }* %0, i32 0, i32 0
  store double %wishart.coerce0, double* %1, align 8
  %2 = getelementptr inbounds { double, i32 }, { double, i32 }* %0, i32 0, i32 1
  store i32 %wishart.coerce1, i32* %2, align 8
  store i32 %p, i32* %p.addr, align 4, !tbaa !20
  store i32 %k, i32* %k.addr, align 4, !tbaa !20
  store double* %sum_qs, double** %sum_qs.addr, align 8, !tbaa !2
  store double* %sum_qsb, double** %sum_qsb.addr, align 8, !tbaa !2
  store double* %Qdiags, double** %Qdiags.addr, align 8, !tbaa !2
  store double* %Qdiagsb, double** %Qdiagsb.addr, align 8, !tbaa !2
  store double* %icf, double** %icf.addr, align 8, !tbaa !2
  store double* %icfb, double** %icfb.addr, align 8, !tbaa !2
  store double %log_wishart_priorb, double* %log_wishart_priorb.addr, align 8, !tbaa !44
  %3 = bitcast i32* %ik to i8*
  call void @llvm.lifetime.start.p0i8(i64 4, i8* %3) #9
  %4 = bitcast i32* %n to i8*
  call void @llvm.lifetime.start.p0i8(i64 4, i8* %4) #9
  %5 = load i32, i32* %p.addr, align 4, !tbaa !20
  %m = getelementptr inbounds %struct.Wishart, %struct.Wishart* %wishart, i32 0, i32 1
  %6 = load i32, i32* %m, align 8, !tbaa !63
  %add = add nsw i32 %5, %6
  %add1 = add nsw i32 %add, 1
  store i32 %add1, i32* %n, align 4, !tbaa !20
  %7 = bitcast i32* %icf_sz to i8*
  call void @llvm.lifetime.start.p0i8(i64 4, i8* %7) #9
  %8 = load i32, i32* %p.addr, align 4, !tbaa !20
  %9 = load i32, i32* %p.addr, align 4, !tbaa !20
  %add2 = add nsw i32 %9, 1
  %mul = mul nsw i32 %8, %add2
  %div = sdiv i32 %mul, 2
  store i32 %div, i32* %icf_sz, align 4, !tbaa !20
  %10 = bitcast double* %C to i8*
  call void @llvm.lifetime.start.p0i8(i64 8, i8* %10) #9
  %11 = bitcast float* %arg1 to i8*
  call void @llvm.lifetime.start.p0i8(i64 4, i8* %11) #9
  %12 = bitcast double* %result1 to i8*
  call void @llvm.lifetime.start.p0i8(i64 8, i8* %12) #9
  %13 = bitcast double* %out to i8*
  call void @llvm.lifetime.start.p0i8(i64 8, i8* %13) #9
  store double 0.000000e+00, double* %out, align 8, !tbaa !44
  %14 = bitcast double* %outb to i8*
  call void @llvm.lifetime.start.p0i8(i64 8, i8* %14) #9
  store double 0.000000e+00, double* %outb, align 8, !tbaa !44
  %15 = bitcast double* %log_wishart_prior to i8*
  call void @llvm.lifetime.start.p0i8(i64 8, i8* %15) #9
  store i32 0, i32* %ik, align 4, !tbaa !20
  br label %for.cond

for.cond:                                         ; preds = %for.inc, %entry
  %16 = load i32, i32* %ik, align 4, !tbaa !20
  %17 = load i32, i32* %k.addr, align 4, !tbaa !20
  %cmp = icmp slt i32 %16, %17
  br i1 %cmp, label %for.body, label %for.end

for.body:                                         ; preds = %for.cond
  %18 = bitcast double* %frobenius to i8*
  call void @llvm.lifetime.start.p0i8(i64 8, i8* %18) #9
  %19 = bitcast double* %result13 to i8*
  call void @llvm.lifetime.start.p0i8(i64 8, i8* %19) #9
  %20 = bitcast i32* %arg14 to i8*
  call void @llvm.lifetime.start.p0i8(i64 4, i8* %20) #9
  %21 = bitcast double* %result2 to i8*
  call void @llvm.lifetime.start.p0i8(i64 8, i8* %21) #9
  %22 = bitcast double* %result2 to i8*
  call void @llvm.lifetime.end.p0i8(i64 8, i8* %22) #9
  %23 = bitcast i32* %arg14 to i8*
  call void @llvm.lifetime.end.p0i8(i64 4, i8* %23) #9
  %24 = bitcast double* %result13 to i8*
  call void @llvm.lifetime.end.p0i8(i64 8, i8* %24) #9
  %25 = bitcast double* %frobenius to i8*
  call void @llvm.lifetime.end.p0i8(i64 8, i8* %25) #9
  br label %for.inc

for.inc:                                          ; preds = %for.body
  %26 = load i32, i32* %ik, align 4, !tbaa !20
  %inc = add nsw i32 %26, 1
  store i32 %inc, i32* %ik, align 4, !tbaa !20
  br label %for.cond, !llvm.loop !86

for.end:                                          ; preds = %for.cond
  %27 = load double, double* %log_wishart_priorb.addr, align 8, !tbaa !44
  store double %27, double* %outb, align 8, !tbaa !44
  store i32 0, i32* %ik, align 4, !tbaa !20
  br label %for.cond5

for.cond5:                                        ; preds = %for.inc9, %for.end
  %28 = load i32, i32* %ik, align 4, !tbaa !20
  %29 = load i32, i32* %k.addr, align 4, !tbaa !20
  %30 = load i32, i32* %p.addr, align 4, !tbaa !20
  %mul6 = mul nsw i32 %29, %30
  %cmp7 = icmp slt i32 %28, %mul6
  br i1 %cmp7, label %for.body8, label %for.end11

for.body8:                                        ; preds = %for.cond5
  %31 = load double*, double** %Qdiagsb.addr, align 8, !tbaa !2
  %32 = load i32, i32* %ik, align 4, !tbaa !20
  %idxprom = sext i32 %32 to i64
  %arrayidx = getelementptr inbounds double, double* %31, i64 %idxprom
  store double 0.000000e+00, double* %arrayidx, align 8, !tbaa !44
  br label %for.inc9

for.inc9:                                         ; preds = %for.body8
  %33 = load i32, i32* %ik, align 4, !tbaa !20
  %inc10 = add nsw i32 %33, 1
  store i32 %inc10, i32* %ik, align 4, !tbaa !20
  br label %for.cond5, !llvm.loop !87

for.end11:                                        ; preds = %for.cond5
  store i32 0, i32* %ik, align 4, !tbaa !20
  br label %for.cond12

for.cond12:                                       ; preds = %for.inc17, %for.end11
  %34 = load i32, i32* %ik, align 4, !tbaa !20
  %35 = load i32, i32* %k.addr, align 4, !tbaa !20
  %cmp13 = icmp slt i32 %34, %35
  br i1 %cmp13, label %for.body14, label %for.end19

for.body14:                                       ; preds = %for.cond12
  %36 = load double*, double** %sum_qsb.addr, align 8, !tbaa !2
  %37 = load i32, i32* %ik, align 4, !tbaa !20
  %idxprom15 = sext i32 %37 to i64
  %arrayidx16 = getelementptr inbounds double, double* %36, i64 %idxprom15
  store double 0.000000e+00, double* %arrayidx16, align 8, !tbaa !44
  br label %for.inc17

for.inc17:                                        ; preds = %for.body14
  %38 = load i32, i32* %ik, align 4, !tbaa !20
  %inc18 = add nsw i32 %38, 1
  store i32 %inc18, i32* %ik, align 4, !tbaa !20
  br label %for.cond12, !llvm.loop !88

for.end19:                                        ; preds = %for.cond12
  store i32 0, i32* %ik, align 4, !tbaa !20
  br label %for.cond20

for.cond20:                                       ; preds = %for.inc26, %for.end19
  %39 = load i32, i32* %ik, align 4, !tbaa !20
  %40 = load i32, i32* %k.addr, align 4, !tbaa !20
  %41 = load i32, i32* %icf_sz, align 4, !tbaa !20
  %mul21 = mul nsw i32 %40, %41
  %cmp22 = icmp slt i32 %39, %mul21
  br i1 %cmp22, label %for.body23, label %for.end28

for.body23:                                       ; preds = %for.cond20
  %42 = load double*, double** %icfb.addr, align 8, !tbaa !2
  %43 = load i32, i32* %ik, align 4, !tbaa !20
  %idxprom24 = sext i32 %43 to i64
  %arrayidx25 = getelementptr inbounds double, double* %42, i64 %idxprom24
  store double 0.000000e+00, double* %arrayidx25, align 8, !tbaa !44
  br label %for.inc26

for.inc26:                                        ; preds = %for.body23
  %44 = load i32, i32* %ik, align 4, !tbaa !20
  %inc27 = add nsw i32 %44, 1
  store i32 %inc27, i32* %ik, align 4, !tbaa !20
  br label %for.cond20, !llvm.loop !89

for.end28:                                        ; preds = %for.cond20
  %45 = load i32, i32* %k.addr, align 4, !tbaa !20
  %sub = sub nsw i32 %45, 1
  store i32 %sub, i32* %ik, align 4, !tbaa !20
  br label %for.cond29

for.cond29:                                       ; preds = %for.inc62, %for.end28
  %46 = load i32, i32* %ik, align 4, !tbaa !20
  %cmp30 = icmp sgt i32 %46, -1
  br i1 %cmp30, label %for.body31, label %for.end63

for.body31:                                       ; preds = %for.cond29
  %47 = bitcast double* %frobenius32 to i8*
  call void @llvm.lifetime.start.p0i8(i64 8, i8* %47) #9
  %48 = bitcast double* %frobeniusb to i8*
  call void @llvm.lifetime.start.p0i8(i64 8, i8* %48) #9
  %49 = bitcast double* %result133 to i8*
  call void @llvm.lifetime.start.p0i8(i64 8, i8* %49) #9
  %50 = bitcast double* %result1b to i8*
  call void @llvm.lifetime.start.p0i8(i64 8, i8* %50) #9
  %51 = bitcast i32* %arg134 to i8*
  call void @llvm.lifetime.start.p0i8(i64 4, i8* %51) #9
  %52 = bitcast double* %result235 to i8*
  call void @llvm.lifetime.start.p0i8(i64 8, i8* %52) #9
  %53 = bitcast double* %result2b to i8*
  call void @llvm.lifetime.start.p0i8(i64 8, i8* %53) #9
  %gamma = getelementptr inbounds %struct.Wishart, %struct.Wishart* %wishart, i32 0, i32 0
  %54 = load double, double* %gamma, align 8, !tbaa !64
  %gamma36 = getelementptr inbounds %struct.Wishart, %struct.Wishart* %wishart, i32 0, i32 0
  %55 = load double, double* %gamma36, align 8, !tbaa !64
  %mul37 = fmul fast double %54, %55
  %mul38 = fmul fast double %mul37, 5.000000e-01
  %56 = load double, double* %outb, align 8, !tbaa !44
  %mul39 = fmul fast double %mul38, %56
  store double %mul39, double* %frobeniusb, align 8, !tbaa !44
  %57 = load double*, double** %sum_qsb.addr, align 8, !tbaa !2
  %58 = load i32, i32* %ik, align 4, !tbaa !20
  %idxprom40 = sext i32 %58 to i64
  %arrayidx41 = getelementptr inbounds double, double* %57, i64 %idxprom40
  %59 = load double, double* %arrayidx41, align 8, !tbaa !44
  %m42 = getelementptr inbounds %struct.Wishart, %struct.Wishart* %wishart, i32 0, i32 1
  %60 = load i32, i32* %m42, align 8, !tbaa !63
  %conv = sitofp i32 %60 to double
  %61 = load double, double* %outb, align 8, !tbaa !44
  %mul43 = fmul fast double %conv, %61
  %sub44 = fsub fast double %59, %mul43
  %62 = load double*, double** %sum_qsb.addr, align 8, !tbaa !2
  %63 = load i32, i32* %ik, align 4, !tbaa !20
  %idxprom45 = sext i32 %63 to i64
  %arrayidx46 = getelementptr inbounds double, double* %62, i64 %idxprom45
  store double %sub44, double* %arrayidx46, align 8, !tbaa !44
  %64 = load double, double* %frobeniusb, align 8, !tbaa !44
  store double %64, double* %result1b, align 8, !tbaa !44
  %65 = load double, double* %frobeniusb, align 8, !tbaa !44
  store double %65, double* %result2b, align 8, !tbaa !44
  %66 = load i32, i32* %icf_sz, align 4, !tbaa !20
  %67 = load i32, i32* %p.addr, align 4, !tbaa !20
  %sub47 = sub nsw i32 %66, %67
  store i32 %sub47, i32* %arg134, align 4, !tbaa !20
  %68 = load i32, i32* %arg134, align 4, !tbaa !20
  %69 = load double*, double** %icf.addr, align 8, !tbaa !2
  %70 = load i32, i32* %ik, align 4, !tbaa !20
  %71 = load i32, i32* %icf_sz, align 4, !tbaa !20
  %mul48 = mul nsw i32 %70, %71
  %72 = load i32, i32* %p.addr, align 4, !tbaa !20
  %add49 = add nsw i32 %mul48, %72
  %idxprom50 = sext i32 %add49 to i64
  %arrayidx51 = getelementptr inbounds double, double* %69, i64 %idxprom50
  %73 = load double*, double** %icfb.addr, align 8, !tbaa !2
  %74 = load i32, i32* %ik, align 4, !tbaa !20
  %75 = load i32, i32* %icf_sz, align 4, !tbaa !20
  %mul52 = mul nsw i32 %74, %75
  %76 = load i32, i32* %p.addr, align 4, !tbaa !20
  %add53 = add nsw i32 %mul52, %76
  %idxprom54 = sext i32 %add53 to i64
  %arrayidx55 = getelementptr inbounds double, double* %73, i64 %idxprom54
  %77 = load double, double* %result2b, align 8, !tbaa !44
  call void @sqnorm_b(i32 %68, double* %arrayidx51, double* %arrayidx55, double %77)
  %78 = load i32, i32* %p.addr, align 4, !tbaa !20
  %79 = load double*, double** %Qdiags.addr, align 8, !tbaa !2
  %80 = load i32, i32* %ik, align 4, !tbaa !20
  %81 = load i32, i32* %p.addr, align 4, !tbaa !20
  %mul56 = mul nsw i32 %80, %81
  %idxprom57 = sext i32 %mul56 to i64
  %arrayidx58 = getelementptr inbounds double, double* %79, i64 %idxprom57
  %82 = load double*, double** %Qdiagsb.addr, align 8, !tbaa !2
  %83 = load i32, i32* %ik, align 4, !tbaa !20
  %84 = load i32, i32* %p.addr, align 4, !tbaa !20
  %mul59 = mul nsw i32 %83, %84
  %idxprom60 = sext i32 %mul59 to i64
  %arrayidx61 = getelementptr inbounds double, double* %82, i64 %idxprom60
  %85 = load double, double* %result1b, align 8, !tbaa !44
  call void @sqnorm_b(i32 %78, double* %arrayidx58, double* %arrayidx61, double %85)
  %86 = bitcast double* %result2b to i8*
  call void @llvm.lifetime.end.p0i8(i64 8, i8* %86) #9
  %87 = bitcast double* %result235 to i8*
  call void @llvm.lifetime.end.p0i8(i64 8, i8* %87) #9
  %88 = bitcast i32* %arg134 to i8*
  call void @llvm.lifetime.end.p0i8(i64 4, i8* %88) #9
  %89 = bitcast double* %result1b to i8*
  call void @llvm.lifetime.end.p0i8(i64 8, i8* %89) #9
  %90 = bitcast double* %result133 to i8*
  call void @llvm.lifetime.end.p0i8(i64 8, i8* %90) #9
  %91 = bitcast double* %frobeniusb to i8*
  call void @llvm.lifetime.end.p0i8(i64 8, i8* %91) #9
  %92 = bitcast double* %frobenius32 to i8*
  call void @llvm.lifetime.end.p0i8(i64 8, i8* %92) #9
  br label %for.inc62

for.inc62:                                        ; preds = %for.body31
  %93 = load i32, i32* %ik, align 4, !tbaa !20
  %dec = add nsw i32 %93, -1
  store i32 %dec, i32* %ik, align 4, !tbaa !20
  br label %for.cond29, !llvm.loop !90

for.end63:                                        ; preds = %for.cond29
  %94 = bitcast double* %log_wishart_prior to i8*
  call void @llvm.lifetime.end.p0i8(i64 8, i8* %94) #9
  %95 = bitcast double* %outb to i8*
  call void @llvm.lifetime.end.p0i8(i64 8, i8* %95) #9
  %96 = bitcast double* %out to i8*
  call void @llvm.lifetime.end.p0i8(i64 8, i8* %96) #9
  %97 = bitcast double* %result1 to i8*
  call void @llvm.lifetime.end.p0i8(i64 8, i8* %97) #9
  %98 = bitcast float* %arg1 to i8*
  call void @llvm.lifetime.end.p0i8(i64 4, i8* %98) #9
  %99 = bitcast double* %C to i8*
  call void @llvm.lifetime.end.p0i8(i64 8, i8* %99) #9
  %100 = bitcast i32* %icf_sz to i8*
  call void @llvm.lifetime.end.p0i8(i64 4, i8* %100) #9
  %101 = bitcast i32* %n to i8*
  call void @llvm.lifetime.end.p0i8(i64 4, i8* %101) #9
  %102 = bitcast i32* %ik to i8*
  call void @llvm.lifetime.end.p0i8(i64 4, i8* %102) #9
  ret void
}

; Function Attrs: uwtable mustprogress
define dso_local double @log_wishart_prior_nodiff(i32 %p, i32 %k, double %wishart.coerce0, i32 %wishart.coerce1, double* %sum_qs, double* %Qdiags, double* %icf) #0 {
entry:
  %wishart = alloca %struct.Wishart, align 8
  %p.addr = alloca i32, align 4
  %k.addr = alloca i32, align 4
  %sum_qs.addr = alloca double*, align 8
  %Qdiags.addr = alloca double*, align 8
  %icf.addr = alloca double*, align 8
  %ik = alloca i32, align 4
  %n = alloca i32, align 4
  %icf_sz = alloca i32, align 4
  %C = alloca double, align 8
  %arg1 = alloca float, align 4
  %result1 = alloca double, align 8
  %out = alloca double, align 8
  %frobenius = alloca double, align 8
  %result113 = alloca double, align 8
  %arg114 = alloca i32, align 4
  %result2 = alloca double, align 8
  %0 = bitcast %struct.Wishart* %wishart to { double, i32 }*
  %1 = getelementptr inbounds { double, i32 }, { double, i32 }* %0, i32 0, i32 0
  store double %wishart.coerce0, double* %1, align 8
  %2 = getelementptr inbounds { double, i32 }, { double, i32 }* %0, i32 0, i32 1
  store i32 %wishart.coerce1, i32* %2, align 8
  store i32 %p, i32* %p.addr, align 4, !tbaa !20
  store i32 %k, i32* %k.addr, align 4, !tbaa !20
  store double* %sum_qs, double** %sum_qs.addr, align 8, !tbaa !2
  store double* %Qdiags, double** %Qdiags.addr, align 8, !tbaa !2
  store double* %icf, double** %icf.addr, align 8, !tbaa !2
  %3 = bitcast i32* %ik to i8*
  call void @llvm.lifetime.start.p0i8(i64 4, i8* %3) #9
  %4 = bitcast i32* %n to i8*
  call void @llvm.lifetime.start.p0i8(i64 4, i8* %4) #9
  %5 = load i32, i32* %p.addr, align 4, !tbaa !20
  %m = getelementptr inbounds %struct.Wishart, %struct.Wishart* %wishart, i32 0, i32 1
  %6 = load i32, i32* %m, align 8, !tbaa !63
  %add = add nsw i32 %5, %6
  %add1 = add nsw i32 %add, 1
  store i32 %add1, i32* %n, align 4, !tbaa !20
  %7 = bitcast i32* %icf_sz to i8*
  call void @llvm.lifetime.start.p0i8(i64 4, i8* %7) #9
  %8 = load i32, i32* %p.addr, align 4, !tbaa !20
  %9 = load i32, i32* %p.addr, align 4, !tbaa !20
  %add2 = add nsw i32 %9, 1
  %mul = mul nsw i32 %8, %add2
  %div = sdiv i32 %mul, 2
  store i32 %div, i32* %icf_sz, align 4, !tbaa !20
  %10 = bitcast double* %C to i8*
  call void @llvm.lifetime.start.p0i8(i64 8, i8* %10) #9
  %11 = bitcast float* %arg1 to i8*
  call void @llvm.lifetime.start.p0i8(i64 4, i8* %11) #9
  %12 = bitcast double* %result1 to i8*
  call void @llvm.lifetime.start.p0i8(i64 8, i8* %12) #9
  %13 = load i32, i32* %n, align 4, !tbaa !20
  %conv = sitofp i32 %13 to double
  %mul3 = fmul fast double 5.000000e-01, %conv
  %conv4 = fptrunc double %mul3 to float
  store float %conv4, float* %arg1, align 4, !tbaa !83
  %14 = load float, float* %arg1, align 4, !tbaa !83
  %conv5 = fpext float %14 to double
  %15 = load i32, i32* %p.addr, align 4, !tbaa !20
  %conv6 = sitofp i32 %15 to double
  %call = call fast double @log_gamma_distrib_nodiff(double %conv5, double %conv6)
  store double %call, double* %result1, align 8, !tbaa !44
  %16 = load i32, i32* %n, align 4, !tbaa !20
  %17 = load i32, i32* %p.addr, align 4, !tbaa !20
  %mul7 = mul nsw i32 %16, %17
  %conv8 = sitofp i32 %mul7 to double
  %gamma = getelementptr inbounds %struct.Wishart, %struct.Wishart* %wishart, i32 0, i32 0
  %18 = load double, double* %gamma, align 8, !tbaa !64
  %19 = call fast double @llvm.log.f64(double %18)
  %call9 = call fast double @_ZSt3logIiEN9__gnu_cxx11__enable_ifIXsr12__is_integerIT_EE7__valueEdE6__typeES2_(i32 2)
  %mul10 = fmul fast double 5.000000e-01, %call9
  %sub = fsub fast double %19, %mul10
  %mul11 = fmul fast double %conv8, %sub
  %20 = load double, double* %result1, align 8, !tbaa !44
  %sub12 = fsub fast double %mul11, %20
  store double %sub12, double* %C, align 8, !tbaa !44
  %21 = bitcast double* %out to i8*
  call void @llvm.lifetime.start.p0i8(i64 8, i8* %21) #9
  store double 0.000000e+00, double* %out, align 8, !tbaa !44
  store i32 0, i32* %ik, align 4, !tbaa !20
  br label %for.cond

for.cond:                                         ; preds = %for.inc, %entry
  %22 = load i32, i32* %ik, align 4, !tbaa !20
  %23 = load i32, i32* %k.addr, align 4, !tbaa !20
  %cmp = icmp slt i32 %22, %23
  br i1 %cmp, label %for.body, label %for.end

for.body:                                         ; preds = %for.cond
  %24 = bitcast double* %frobenius to i8*
  call void @llvm.lifetime.start.p0i8(i64 8, i8* %24) #9
  %25 = bitcast double* %result113 to i8*
  call void @llvm.lifetime.start.p0i8(i64 8, i8* %25) #9
  %26 = bitcast i32* %arg114 to i8*
  call void @llvm.lifetime.start.p0i8(i64 4, i8* %26) #9
  %27 = bitcast double* %result2 to i8*
  call void @llvm.lifetime.start.p0i8(i64 8, i8* %27) #9
  %28 = load i32, i32* %p.addr, align 4, !tbaa !20
  %29 = load double*, double** %Qdiags.addr, align 8, !tbaa !2
  %30 = load i32, i32* %ik, align 4, !tbaa !20
  %31 = load i32, i32* %p.addr, align 4, !tbaa !20
  %mul15 = mul nsw i32 %30, %31
  %idxprom = sext i32 %mul15 to i64
  %arrayidx = getelementptr inbounds double, double* %29, i64 %idxprom
  %call16 = call fast double @sqnorm_nodiff(i32 %28, double* %arrayidx)
  store double %call16, double* %result113, align 8, !tbaa !44
  %32 = load i32, i32* %icf_sz, align 4, !tbaa !20
  %33 = load i32, i32* %p.addr, align 4, !tbaa !20
  %sub17 = sub nsw i32 %32, %33
  store i32 %sub17, i32* %arg114, align 4, !tbaa !20
  %34 = load i32, i32* %arg114, align 4, !tbaa !20
  %35 = load double*, double** %icf.addr, align 8, !tbaa !2
  %36 = load i32, i32* %ik, align 4, !tbaa !20
  %37 = load i32, i32* %icf_sz, align 4, !tbaa !20
  %mul18 = mul nsw i32 %36, %37
  %38 = load i32, i32* %p.addr, align 4, !tbaa !20
  %add19 = add nsw i32 %mul18, %38
  %idxprom20 = sext i32 %add19 to i64
  %arrayidx21 = getelementptr inbounds double, double* %35, i64 %idxprom20
  %call22 = call fast double @sqnorm_nodiff(i32 %34, double* %arrayidx21)
  store double %call22, double* %result2, align 8, !tbaa !44
  %39 = load double, double* %result113, align 8, !tbaa !44
  %40 = load double, double* %result2, align 8, !tbaa !44
  %add23 = fadd fast double %39, %40
  store double %add23, double* %frobenius, align 8, !tbaa !44
  %41 = load double, double* %out, align 8, !tbaa !44
  %gamma24 = getelementptr inbounds %struct.Wishart, %struct.Wishart* %wishart, i32 0, i32 0
  %42 = load double, double* %gamma24, align 8, !tbaa !64
  %mul25 = fmul fast double 5.000000e-01, %42
  %gamma26 = getelementptr inbounds %struct.Wishart, %struct.Wishart* %wishart, i32 0, i32 0
  %43 = load double, double* %gamma26, align 8, !tbaa !64
  %mul27 = fmul fast double %mul25, %43
  %44 = load double, double* %frobenius, align 8, !tbaa !44
  %mul28 = fmul fast double %mul27, %44
  %add29 = fadd fast double %41, %mul28
  %m30 = getelementptr inbounds %struct.Wishart, %struct.Wishart* %wishart, i32 0, i32 1
  %45 = load i32, i32* %m30, align 8, !tbaa !63
  %conv31 = sitofp i32 %45 to double
  %46 = load double*, double** %sum_qs.addr, align 8, !tbaa !2
  %47 = load i32, i32* %ik, align 4, !tbaa !20
  %idxprom32 = sext i32 %47 to i64
  %arrayidx33 = getelementptr inbounds double, double* %46, i64 %idxprom32
  %48 = load double, double* %arrayidx33, align 8, !tbaa !44
  %mul34 = fmul fast double %conv31, %48
  %sub35 = fsub fast double %add29, %mul34
  store double %sub35, double* %out, align 8, !tbaa !44
  %49 = bitcast double* %result2 to i8*
  call void @llvm.lifetime.end.p0i8(i64 8, i8* %49) #9
  %50 = bitcast i32* %arg114 to i8*
  call void @llvm.lifetime.end.p0i8(i64 4, i8* %50) #9
  %51 = bitcast double* %result113 to i8*
  call void @llvm.lifetime.end.p0i8(i64 8, i8* %51) #9
  %52 = bitcast double* %frobenius to i8*
  call void @llvm.lifetime.end.p0i8(i64 8, i8* %52) #9
  br label %for.inc

for.inc:                                          ; preds = %for.body
  %53 = load i32, i32* %ik, align 4, !tbaa !20
  %inc = add nsw i32 %53, 1
  store i32 %inc, i32* %ik, align 4, !tbaa !20
  br label %for.cond, !llvm.loop !91

for.end:                                          ; preds = %for.cond
  %54 = load double, double* %out, align 8, !tbaa !44
  %55 = load i32, i32* %k.addr, align 4, !tbaa !20
  %conv36 = sitofp i32 %55 to double
  %56 = load double, double* %C, align 8, !tbaa !44
  %mul37 = fmul fast double %conv36, %56
  %sub38 = fsub fast double %54, %mul37
  %57 = bitcast double* %out to i8*
  call void @llvm.lifetime.end.p0i8(i64 8, i8* %57) #9
  %58 = bitcast double* %result1 to i8*
  call void @llvm.lifetime.end.p0i8(i64 8, i8* %58) #9
  %59 = bitcast float* %arg1 to i8*
  call void @llvm.lifetime.end.p0i8(i64 4, i8* %59) #9
  %60 = bitcast double* %C to i8*
  call void @llvm.lifetime.end.p0i8(i64 8, i8* %60) #9
  %61 = bitcast i32* %icf_sz to i8*
  call void @llvm.lifetime.end.p0i8(i64 4, i8* %61) #9
  %62 = bitcast i32* %n to i8*
  call void @llvm.lifetime.end.p0i8(i64 4, i8* %62) #9
  %63 = bitcast i32* %ik to i8*
  call void @llvm.lifetime.end.p0i8(i64 4, i8* %63) #9
  ret double %sub38
}

; Function Attrs: uwtable mustprogress
define dso_local void @preprocess_qs_b(i32 %d, i32 %k, double* %icf, double* %icfb, double* %sum_qs, double* %sum_qsb, double* %Qdiags, double* %Qdiagsb) #0 {
entry:
  %d.addr = alloca i32, align 4
  %k.addr = alloca i32, align 4
  %icf.addr = alloca double*, align 8
  %icfb.addr = alloca double*, align 8
  %sum_qs.addr = alloca double*, align 8
  %sum_qsb.addr = alloca double*, align 8
  %Qdiags.addr = alloca double*, align 8
  %Qdiagsb.addr = alloca double*, align 8
  %ik = alloca i32, align 4
  %id = alloca i32, align 4
  %icf_sz = alloca i32, align 4
  %q = alloca double, align 8
  %q16 = alloca double, align 8
  %qb = alloca double, align 8
  store i32 %d, i32* %d.addr, align 4, !tbaa !20
  store i32 %k, i32* %k.addr, align 4, !tbaa !20
  store double* %icf, double** %icf.addr, align 8, !tbaa !2
  store double* %icfb, double** %icfb.addr, align 8, !tbaa !2
  store double* %sum_qs, double** %sum_qs.addr, align 8, !tbaa !2
  store double* %sum_qsb, double** %sum_qsb.addr, align 8, !tbaa !2
  store double* %Qdiags, double** %Qdiags.addr, align 8, !tbaa !2
  store double* %Qdiagsb, double** %Qdiagsb.addr, align 8, !tbaa !2
  %0 = bitcast i32* %ik to i8*
  call void @llvm.lifetime.start.p0i8(i64 4, i8* %0) #9
  %1 = bitcast i32* %id to i8*
  call void @llvm.lifetime.start.p0i8(i64 4, i8* %1) #9
  %2 = bitcast i32* %icf_sz to i8*
  call void @llvm.lifetime.start.p0i8(i64 4, i8* %2) #9
  %3 = load i32, i32* %d.addr, align 4, !tbaa !20
  %4 = load i32, i32* %d.addr, align 4, !tbaa !20
  %add = add nsw i32 %4, 1
  %mul = mul nsw i32 %3, %add
  %div = sdiv i32 %mul, 2
  store i32 %div, i32* %icf_sz, align 4, !tbaa !20
  store i32 0, i32* %ik, align 4, !tbaa !20
  br label %for.cond

for.cond:                                         ; preds = %for.inc6, %entry
  %5 = load i32, i32* %ik, align 4, !tbaa !20
  %6 = load i32, i32* %k.addr, align 4, !tbaa !20
  %cmp = icmp slt i32 %5, %6
  br i1 %cmp, label %for.body, label %for.end8

for.body:                                         ; preds = %for.cond
  store i32 0, i32* %id, align 4, !tbaa !20
  br label %for.cond1

for.cond1:                                        ; preds = %for.inc, %for.body
  %7 = load i32, i32* %id, align 4, !tbaa !20
  %8 = load i32, i32* %d.addr, align 4, !tbaa !20
  %cmp2 = icmp slt i32 %7, %8
  br i1 %cmp2, label %for.body3, label %for.end

for.body3:                                        ; preds = %for.cond1
  %9 = bitcast double* %q to i8*
  call void @llvm.lifetime.start.p0i8(i64 8, i8* %9) #9
  %10 = load double*, double** %icf.addr, align 8, !tbaa !2
  %11 = load i32, i32* %ik, align 4, !tbaa !20
  %12 = load i32, i32* %icf_sz, align 4, !tbaa !20
  %mul4 = mul nsw i32 %11, %12
  %13 = load i32, i32* %id, align 4, !tbaa !20
  %add5 = add nsw i32 %mul4, %13
  %idxprom = sext i32 %add5 to i64
  %arrayidx = getelementptr inbounds double, double* %10, i64 %idxprom
  %14 = load double, double* %arrayidx, align 8, !tbaa !44
  store double %14, double* %q, align 8, !tbaa !44
  %15 = load double, double* %q, align 8, !tbaa !44
  call void @pushReal8(double %15)
  %16 = bitcast double* %q to i8*
  call void @llvm.lifetime.end.p0i8(i64 8, i8* %16) #9
  br label %for.inc

for.inc:                                          ; preds = %for.body3
  %17 = load i32, i32* %id, align 4, !tbaa !20
  %inc = add nsw i32 %17, 1
  store i32 %inc, i32* %id, align 4, !tbaa !20
  br label %for.cond1, !llvm.loop !92

for.end:                                          ; preds = %for.cond1
  br label %for.inc6

for.inc6:                                         ; preds = %for.end
  %18 = load i32, i32* %ik, align 4, !tbaa !20
  %inc7 = add nsw i32 %18, 1
  store i32 %inc7, i32* %ik, align 4, !tbaa !20
  br label %for.cond, !llvm.loop !93

for.end8:                                         ; preds = %for.cond
  %19 = load i32, i32* %k.addr, align 4, !tbaa !20
  %sub = sub nsw i32 %19, 1
  store i32 %sub, i32* %ik, align 4, !tbaa !20
  br label %for.cond9

for.cond9:                                        ; preds = %for.inc42, %for.end8
  %20 = load i32, i32* %ik, align 4, !tbaa !20
  %cmp10 = icmp sgt i32 %20, -1
  br i1 %cmp10, label %for.body11, label %for.end44

for.body11:                                       ; preds = %for.cond9
  %21 = load i32, i32* %d.addr, align 4, !tbaa !20
  %sub12 = sub nsw i32 %21, 1
  store i32 %sub12, i32* %id, align 4, !tbaa !20
  br label %for.cond13

for.cond13:                                       ; preds = %for.inc38, %for.body11
  %22 = load i32, i32* %id, align 4, !tbaa !20
  %cmp14 = icmp sgt i32 %22, -1
  br i1 %cmp14, label %for.body15, label %for.end39

for.body15:                                       ; preds = %for.cond13
  %23 = bitcast double* %q16 to i8*
  call void @llvm.lifetime.start.p0i8(i64 8, i8* %23) #9
  %24 = bitcast double* %qb to i8*
  call void @llvm.lifetime.start.p0i8(i64 8, i8* %24) #9
  store double 0.000000e+00, double* %qb, align 8, !tbaa !44
  call void @popReal8(double* %q16)
  %25 = load double, double* %q16, align 8, !tbaa !44
  %26 = call fast double @llvm.exp.f64(double %25)
  %27 = load double*, double** %Qdiagsb.addr, align 8, !tbaa !2
  %28 = load i32, i32* %ik, align 4, !tbaa !20
  %29 = load i32, i32* %d.addr, align 4, !tbaa !20
  %mul17 = mul nsw i32 %28, %29
  %30 = load i32, i32* %id, align 4, !tbaa !20
  %add18 = add nsw i32 %mul17, %30
  %idxprom19 = sext i32 %add18 to i64
  %arrayidx20 = getelementptr inbounds double, double* %27, i64 %idxprom19
  %31 = load double, double* %arrayidx20, align 8, !tbaa !44
  %mul21 = fmul fast double %26, %31
  store double %mul21, double* %qb, align 8, !tbaa !44
  %32 = load double*, double** %Qdiagsb.addr, align 8, !tbaa !2
  %33 = load i32, i32* %ik, align 4, !tbaa !20
  %34 = load i32, i32* %d.addr, align 4, !tbaa !20
  %mul22 = mul nsw i32 %33, %34
  %35 = load i32, i32* %id, align 4, !tbaa !20
  %add23 = add nsw i32 %mul22, %35
  %idxprom24 = sext i32 %add23 to i64
  %arrayidx25 = getelementptr inbounds double, double* %32, i64 %idxprom24
  store double 0.000000e+00, double* %arrayidx25, align 8, !tbaa !44
  %36 = load double, double* %qb, align 8, !tbaa !44
  %37 = load double*, double** %sum_qsb.addr, align 8, !tbaa !2
  %38 = load i32, i32* %ik, align 4, !tbaa !20
  %idxprom26 = sext i32 %38 to i64
  %arrayidx27 = getelementptr inbounds double, double* %37, i64 %idxprom26
  %39 = load double, double* %arrayidx27, align 8, !tbaa !44
  %add28 = fadd fast double %36, %39
  store double %add28, double* %qb, align 8, !tbaa !44
  %40 = load double*, double** %icfb.addr, align 8, !tbaa !2
  %41 = load i32, i32* %ik, align 4, !tbaa !20
  %42 = load i32, i32* %icf_sz, align 4, !tbaa !20
  %mul29 = mul nsw i32 %41, %42
  %43 = load i32, i32* %id, align 4, !tbaa !20
  %add30 = add nsw i32 %mul29, %43
  %idxprom31 = sext i32 %add30 to i64
  %arrayidx32 = getelementptr inbounds double, double* %40, i64 %idxprom31
  %44 = load double, double* %arrayidx32, align 8, !tbaa !44
  %45 = load double, double* %qb, align 8, !tbaa !44
  %add33 = fadd fast double %44, %45
  %46 = load double*, double** %icfb.addr, align 8, !tbaa !2
  %47 = load i32, i32* %ik, align 4, !tbaa !20
  %48 = load i32, i32* %icf_sz, align 4, !tbaa !20
  %mul34 = mul nsw i32 %47, %48
  %49 = load i32, i32* %id, align 4, !tbaa !20
  %add35 = add nsw i32 %mul34, %49
  %idxprom36 = sext i32 %add35 to i64
  %arrayidx37 = getelementptr inbounds double, double* %46, i64 %idxprom36
  store double %add33, double* %arrayidx37, align 8, !tbaa !44
  %50 = bitcast double* %qb to i8*
  call void @llvm.lifetime.end.p0i8(i64 8, i8* %50) #9
  %51 = bitcast double* %q16 to i8*
  call void @llvm.lifetime.end.p0i8(i64 8, i8* %51) #9
  br label %for.inc38

for.inc38:                                        ; preds = %for.body15
  %52 = load i32, i32* %id, align 4, !tbaa !20
  %dec = add nsw i32 %52, -1
  store i32 %dec, i32* %id, align 4, !tbaa !20
  br label %for.cond13, !llvm.loop !94

for.end39:                                        ; preds = %for.cond13
  %53 = load double*, double** %sum_qsb.addr, align 8, !tbaa !2
  %54 = load i32, i32* %ik, align 4, !tbaa !20
  %idxprom40 = sext i32 %54 to i64
  %arrayidx41 = getelementptr inbounds double, double* %53, i64 %idxprom40
  store double 0.000000e+00, double* %arrayidx41, align 8, !tbaa !44
  br label %for.inc42

for.inc42:                                        ; preds = %for.end39
  %55 = load i32, i32* %ik, align 4, !tbaa !20
  %dec43 = add nsw i32 %55, -1
  store i32 %dec43, i32* %ik, align 4, !tbaa !20
  br label %for.cond9, !llvm.loop !95

for.end44:                                        ; preds = %for.cond9
  %56 = bitcast i32* %icf_sz to i8*
  call void @llvm.lifetime.end.p0i8(i64 4, i8* %56) #9
  %57 = bitcast i32* %id to i8*
  call void @llvm.lifetime.end.p0i8(i64 4, i8* %57) #9
  %58 = bitcast i32* %ik to i8*
  call void @llvm.lifetime.end.p0i8(i64 4, i8* %58) #9
  ret void
}

declare dso_local void @pushReal8(double) #2

declare dso_local void @popReal8(double*) #2

; Function Attrs: nounwind uwtable mustprogress
define dso_local void @preprocess_qs_nodiff(i32 %d, i32 %k, double* %icf, double* %sum_qs, double* %Qdiags) #8 {
entry:
  %d.addr = alloca i32, align 4
  %k.addr = alloca i32, align 4
  %icf.addr = alloca double*, align 8
  %sum_qs.addr = alloca double*, align 8
  %Qdiags.addr = alloca double*, align 8
  %ik = alloca i32, align 4
  %id = alloca i32, align 4
  %icf_sz = alloca i32, align 4
  %q = alloca double, align 8
  store i32 %d, i32* %d.addr, align 4, !tbaa !20
  store i32 %k, i32* %k.addr, align 4, !tbaa !20
  store double* %icf, double** %icf.addr, align 8, !tbaa !2
  store double* %sum_qs, double** %sum_qs.addr, align 8, !tbaa !2
  store double* %Qdiags, double** %Qdiags.addr, align 8, !tbaa !2
  %0 = bitcast i32* %ik to i8*
  call void @llvm.lifetime.start.p0i8(i64 4, i8* %0) #9
  %1 = bitcast i32* %id to i8*
  call void @llvm.lifetime.start.p0i8(i64 4, i8* %1) #9
  %2 = bitcast i32* %icf_sz to i8*
  call void @llvm.lifetime.start.p0i8(i64 4, i8* %2) #9
  %3 = load i32, i32* %d.addr, align 4, !tbaa !20
  %4 = load i32, i32* %d.addr, align 4, !tbaa !20
  %add = add nsw i32 %4, 1
  %mul = mul nsw i32 %3, %add
  %div = sdiv i32 %mul, 2
  store i32 %div, i32* %icf_sz, align 4, !tbaa !20
  store i32 0, i32* %ik, align 4, !tbaa !20
  br label %for.cond

for.cond:                                         ; preds = %for.inc17, %entry
  %5 = load i32, i32* %ik, align 4, !tbaa !20
  %6 = load i32, i32* %k.addr, align 4, !tbaa !20
  %cmp = icmp slt i32 %5, %6
  br i1 %cmp, label %for.body, label %for.end19

for.body:                                         ; preds = %for.cond
  %7 = load double*, double** %sum_qs.addr, align 8, !tbaa !2
  %8 = load i32, i32* %ik, align 4, !tbaa !20
  %idxprom = sext i32 %8 to i64
  %arrayidx = getelementptr inbounds double, double* %7, i64 %idxprom
  store double 0.000000e+00, double* %arrayidx, align 8, !tbaa !44
  store i32 0, i32* %id, align 4, !tbaa !20
  br label %for.cond1

for.cond1:                                        ; preds = %for.inc, %for.body
  %9 = load i32, i32* %id, align 4, !tbaa !20
  %10 = load i32, i32* %d.addr, align 4, !tbaa !20
  %cmp2 = icmp slt i32 %9, %10
  br i1 %cmp2, label %for.body3, label %for.end

for.body3:                                        ; preds = %for.cond1
  %11 = bitcast double* %q to i8*
  call void @llvm.lifetime.start.p0i8(i64 8, i8* %11) #9
  %12 = load double*, double** %icf.addr, align 8, !tbaa !2
  %13 = load i32, i32* %ik, align 4, !tbaa !20
  %14 = load i32, i32* %icf_sz, align 4, !tbaa !20
  %mul4 = mul nsw i32 %13, %14
  %15 = load i32, i32* %id, align 4, !tbaa !20
  %add5 = add nsw i32 %mul4, %15
  %idxprom6 = sext i32 %add5 to i64
  %arrayidx7 = getelementptr inbounds double, double* %12, i64 %idxprom6
  %16 = load double, double* %arrayidx7, align 8, !tbaa !44
  store double %16, double* %q, align 8, !tbaa !44
  %17 = load double*, double** %sum_qs.addr, align 8, !tbaa !2
  %18 = load i32, i32* %ik, align 4, !tbaa !20
  %idxprom8 = sext i32 %18 to i64
  %arrayidx9 = getelementptr inbounds double, double* %17, i64 %idxprom8
  %19 = load double, double* %arrayidx9, align 8, !tbaa !44
  %20 = load double, double* %q, align 8, !tbaa !44
  %add10 = fadd fast double %19, %20
  %21 = load double*, double** %sum_qs.addr, align 8, !tbaa !2
  %22 = load i32, i32* %ik, align 4, !tbaa !20
  %idxprom11 = sext i32 %22 to i64
  %arrayidx12 = getelementptr inbounds double, double* %21, i64 %idxprom11
  store double %add10, double* %arrayidx12, align 8, !tbaa !44
  %23 = load double, double* %q, align 8, !tbaa !44
  %24 = call fast double @llvm.exp.f64(double %23)
  %25 = load double*, double** %Qdiags.addr, align 8, !tbaa !2
  %26 = load i32, i32* %ik, align 4, !tbaa !20
  %27 = load i32, i32* %d.addr, align 4, !tbaa !20
  %mul13 = mul nsw i32 %26, %27
  %28 = load i32, i32* %id, align 4, !tbaa !20
  %add14 = add nsw i32 %mul13, %28
  %idxprom15 = sext i32 %add14 to i64
  %arrayidx16 = getelementptr inbounds double, double* %25, i64 %idxprom15
  store double %24, double* %arrayidx16, align 8, !tbaa !44
  %29 = bitcast double* %q to i8*
  call void @llvm.lifetime.end.p0i8(i64 8, i8* %29) #9
  br label %for.inc

for.inc:                                          ; preds = %for.body3
  %30 = load i32, i32* %id, align 4, !tbaa !20
  %inc = add nsw i32 %30, 1
  store i32 %inc, i32* %id, align 4, !tbaa !20
  br label %for.cond1, !llvm.loop !96

for.end:                                          ; preds = %for.cond1
  br label %for.inc17

for.inc17:                                        ; preds = %for.end
  %31 = load i32, i32* %ik, align 4, !tbaa !20
  %inc18 = add nsw i32 %31, 1
  store i32 %inc18, i32* %ik, align 4, !tbaa !20
  br label %for.cond, !llvm.loop !97

for.end19:                                        ; preds = %for.cond
  %32 = bitcast i32* %icf_sz to i8*
  call void @llvm.lifetime.end.p0i8(i64 4, i8* %32) #9
  %33 = bitcast i32* %id to i8*
  call void @llvm.lifetime.end.p0i8(i64 4, i8* %33) #9
  %34 = bitcast i32* %ik to i8*
  call void @llvm.lifetime.end.p0i8(i64 4, i8* %34) #9
  ret void
}

; Function Attrs: uwtable mustprogress
define dso_local void @Qtimesx_b(i32 %d, double* %Qdiag, double* %Qdiagb, double* %ltri, double* %ltrib, double* %x, double* %xb, double* %out, double* %outb) #0 {
entry:
  %d.addr = alloca i32, align 4
  %Qdiag.addr = alloca double*, align 8
  %Qdiagb.addr = alloca double*, align 8
  %ltri.addr = alloca double*, align 8
  %ltrib.addr = alloca double*, align 8
  %x.addr = alloca double*, align 8
  %xb.addr = alloca double*, align 8
  %out.addr = alloca double*, align 8
  %outb.addr = alloca double*, align 8
  %i = alloca i32, align 4
  %j = alloca i32, align 4
  %adFrom = alloca i32, align 4
  %Lparamsidx = alloca i32, align 4
  store i32 %d, i32* %d.addr, align 4, !tbaa !20
  store double* %Qdiag, double** %Qdiag.addr, align 8, !tbaa !2
  store double* %Qdiagb, double** %Qdiagb.addr, align 8, !tbaa !2
  store double* %ltri, double** %ltri.addr, align 8, !tbaa !2
  store double* %ltrib, double** %ltrib.addr, align 8, !tbaa !2
  store double* %x, double** %x.addr, align 8, !tbaa !2
  store double* %xb, double** %xb.addr, align 8, !tbaa !2
  store double* %out, double** %out.addr, align 8, !tbaa !2
  store double* %outb, double** %outb.addr, align 8, !tbaa !2
  %0 = bitcast i32* %i to i8*
  call void @llvm.lifetime.start.p0i8(i64 4, i8* %0) #9
  %1 = bitcast i32* %j to i8*
  call void @llvm.lifetime.start.p0i8(i64 4, i8* %1) #9
  %2 = bitcast i32* %adFrom to i8*
  call void @llvm.lifetime.start.p0i8(i64 4, i8* %2) #9
  %3 = bitcast i32* %Lparamsidx to i8*
  call void @llvm.lifetime.start.p0i8(i64 4, i8* %3) #9
  store i32 0, i32* %Lparamsidx, align 4, !tbaa !20
  store i32 0, i32* %i, align 4, !tbaa !20
  br label %for.cond

for.cond:                                         ; preds = %for.inc5, %entry
  %4 = load i32, i32* %i, align 4, !tbaa !20
  %5 = load i32, i32* %d.addr, align 4, !tbaa !20
  %cmp = icmp slt i32 %4, %5
  br i1 %cmp, label %for.body, label %for.end7

for.body:                                         ; preds = %for.cond
  %6 = load i32, i32* %i, align 4, !tbaa !20
  %add = add nsw i32 %6, 1
  store i32 %add, i32* %adFrom, align 4, !tbaa !20
  %7 = load i32, i32* %adFrom, align 4, !tbaa !20
  store i32 %7, i32* %j, align 4, !tbaa !20
  br label %for.cond1

for.cond1:                                        ; preds = %for.inc, %for.body
  %8 = load i32, i32* %j, align 4, !tbaa !20
  %9 = load i32, i32* %d.addr, align 4, !tbaa !20
  %cmp2 = icmp slt i32 %8, %9
  br i1 %cmp2, label %for.body3, label %for.end

for.body3:                                        ; preds = %for.cond1
  %10 = load i32, i32* %Lparamsidx, align 4, !tbaa !20
  %inc = add nsw i32 %10, 1
  store i32 %inc, i32* %Lparamsidx, align 4, !tbaa !20
  br label %for.inc

for.inc:                                          ; preds = %for.body3
  %11 = load i32, i32* %j, align 4, !tbaa !20
  %inc4 = add nsw i32 %11, 1
  store i32 %inc4, i32* %j, align 4, !tbaa !20
  br label %for.cond1, !llvm.loop !98

for.end:                                          ; preds = %for.cond1
  %12 = load i32, i32* %adFrom, align 4, !tbaa !20
  call void @pushInteger4(i32 %12)
  br label %for.inc5

for.inc5:                                         ; preds = %for.end
  %13 = load i32, i32* %i, align 4, !tbaa !20
  %inc6 = add nsw i32 %13, 1
  store i32 %inc6, i32* %i, align 4, !tbaa !20
  br label %for.cond, !llvm.loop !99

for.end7:                                         ; preds = %for.cond
  %14 = load i32, i32* %d.addr, align 4, !tbaa !20
  %sub = sub nsw i32 %14, 1
  store i32 %sub, i32* %i, align 4, !tbaa !20
  br label %for.cond8

for.cond8:                                        ; preds = %for.inc36, %for.end7
  %15 = load i32, i32* %i, align 4, !tbaa !20
  %cmp9 = icmp sgt i32 %15, -1
  br i1 %cmp9, label %for.body10, label %for.end38

for.body10:                                       ; preds = %for.cond8
  call void @popInteger4(i32* %adFrom)
  %16 = load i32, i32* %d.addr, align 4, !tbaa !20
  %sub11 = sub nsw i32 %16, 1
  store i32 %sub11, i32* %j, align 4, !tbaa !20
  br label %for.cond12

for.cond12:                                       ; preds = %for.inc33, %for.body10
  %17 = load i32, i32* %j, align 4, !tbaa !20
  %18 = load i32, i32* %adFrom, align 4, !tbaa !20
  %sub13 = sub nsw i32 %18, 1
  %cmp14 = icmp sgt i32 %17, %sub13
  br i1 %cmp14, label %for.body15, label %for.end35

for.body15:                                       ; preds = %for.cond12
  %19 = load i32, i32* %Lparamsidx, align 4, !tbaa !20
  %dec = add nsw i32 %19, -1
  store i32 %dec, i32* %Lparamsidx, align 4, !tbaa !20
  %20 = load double*, double** %ltrib.addr, align 8, !tbaa !2
  %21 = load i32, i32* %Lparamsidx, align 4, !tbaa !20
  %idxprom = sext i32 %21 to i64
  %arrayidx = getelementptr inbounds double, double* %20, i64 %idxprom
  %22 = load double, double* %arrayidx, align 8, !tbaa !44
  %23 = load double*, double** %x.addr, align 8, !tbaa !2
  %24 = load i32, i32* %i, align 4, !tbaa !20
  %idxprom16 = sext i32 %24 to i64
  %arrayidx17 = getelementptr inbounds double, double* %23, i64 %idxprom16
  %25 = load double, double* %arrayidx17, align 8, !tbaa !44
  %26 = load double*, double** %outb.addr, align 8, !tbaa !2
  %27 = load i32, i32* %j, align 4, !tbaa !20
  %idxprom18 = sext i32 %27 to i64
  %arrayidx19 = getelementptr inbounds double, double* %26, i64 %idxprom18
  %28 = load double, double* %arrayidx19, align 8, !tbaa !44
  %mul = fmul fast double %25, %28
  %add20 = fadd fast double %22, %mul
  %29 = load double*, double** %ltrib.addr, align 8, !tbaa !2
  %30 = load i32, i32* %Lparamsidx, align 4, !tbaa !20
  %idxprom21 = sext i32 %30 to i64
  %arrayidx22 = getelementptr inbounds double, double* %29, i64 %idxprom21
  store double %add20, double* %arrayidx22, align 8, !tbaa !44
  %31 = load double*, double** %xb.addr, align 8, !tbaa !2
  %32 = load i32, i32* %i, align 4, !tbaa !20
  %idxprom23 = sext i32 %32 to i64
  %arrayidx24 = getelementptr inbounds double, double* %31, i64 %idxprom23
  %33 = load double, double* %arrayidx24, align 8, !tbaa !44
  %34 = load double*, double** %ltri.addr, align 8, !tbaa !2
  %35 = load i32, i32* %Lparamsidx, align 4, !tbaa !20
  %idxprom25 = sext i32 %35 to i64
  %arrayidx26 = getelementptr inbounds double, double* %34, i64 %idxprom25
  %36 = load double, double* %arrayidx26, align 8, !tbaa !44
  %37 = load double*, double** %outb.addr, align 8, !tbaa !2
  %38 = load i32, i32* %j, align 4, !tbaa !20
  %idxprom27 = sext i32 %38 to i64
  %arrayidx28 = getelementptr inbounds double, double* %37, i64 %idxprom27
  %39 = load double, double* %arrayidx28, align 8, !tbaa !44
  %mul29 = fmul fast double %36, %39
  %add30 = fadd fast double %33, %mul29
  %40 = load double*, double** %xb.addr, align 8, !tbaa !2
  %41 = load i32, i32* %i, align 4, !tbaa !20
  %idxprom31 = sext i32 %41 to i64
  %arrayidx32 = getelementptr inbounds double, double* %40, i64 %idxprom31
  store double %add30, double* %arrayidx32, align 8, !tbaa !44
  br label %for.inc33

for.inc33:                                        ; preds = %for.body15
  %42 = load i32, i32* %j, align 4, !tbaa !20
  %dec34 = add nsw i32 %42, -1
  store i32 %dec34, i32* %j, align 4, !tbaa !20
  br label %for.cond12, !llvm.loop !100

for.end35:                                        ; preds = %for.cond12
  br label %for.inc36

for.inc36:                                        ; preds = %for.end35
  %43 = load i32, i32* %i, align 4, !tbaa !20
  %dec37 = add nsw i32 %43, -1
  store i32 %dec37, i32* %i, align 4, !tbaa !20
  br label %for.cond8, !llvm.loop !101

for.end38:                                        ; preds = %for.cond8
  %44 = load i32, i32* %d.addr, align 4, !tbaa !20
  %sub39 = sub nsw i32 %44, 1
  store i32 %sub39, i32* %i, align 4, !tbaa !20
  br label %for.cond40

for.cond40:                                       ; preds = %for.inc65, %for.end38
  %45 = load i32, i32* %i, align 4, !tbaa !20
  %cmp41 = icmp sgt i32 %45, -1
  br i1 %cmp41, label %for.body42, label %for.end67

for.body42:                                       ; preds = %for.cond40
  %46 = load double*, double** %Qdiagb.addr, align 8, !tbaa !2
  %47 = load i32, i32* %i, align 4, !tbaa !20
  %idxprom43 = sext i32 %47 to i64
  %arrayidx44 = getelementptr inbounds double, double* %46, i64 %idxprom43
  %48 = load double, double* %arrayidx44, align 8, !tbaa !44
  %49 = load double*, double** %x.addr, align 8, !tbaa !2
  %50 = load i32, i32* %i, align 4, !tbaa !20
  %idxprom45 = sext i32 %50 to i64
  %arrayidx46 = getelementptr inbounds double, double* %49, i64 %idxprom45
  %51 = load double, double* %arrayidx46, align 8, !tbaa !44
  %52 = load double*, double** %outb.addr, align 8, !tbaa !2
  %53 = load i32, i32* %i, align 4, !tbaa !20
  %idxprom47 = sext i32 %53 to i64
  %arrayidx48 = getelementptr inbounds double, double* %52, i64 %idxprom47
  %54 = load double, double* %arrayidx48, align 8, !tbaa !44
  %mul49 = fmul fast double %51, %54
  %add50 = fadd fast double %48, %mul49
  %55 = load double*, double** %Qdiagb.addr, align 8, !tbaa !2
  %56 = load i32, i32* %i, align 4, !tbaa !20
  %idxprom51 = sext i32 %56 to i64
  %arrayidx52 = getelementptr inbounds double, double* %55, i64 %idxprom51
  store double %add50, double* %arrayidx52, align 8, !tbaa !44
  %57 = load double*, double** %xb.addr, align 8, !tbaa !2
  %58 = load i32, i32* %i, align 4, !tbaa !20
  %idxprom53 = sext i32 %58 to i64
  %arrayidx54 = getelementptr inbounds double, double* %57, i64 %idxprom53
  %59 = load double, double* %arrayidx54, align 8, !tbaa !44
  %60 = load double*, double** %Qdiag.addr, align 8, !tbaa !2
  %61 = load i32, i32* %i, align 4, !tbaa !20
  %idxprom55 = sext i32 %61 to i64
  %arrayidx56 = getelementptr inbounds double, double* %60, i64 %idxprom55
  %62 = load double, double* %arrayidx56, align 8, !tbaa !44
  %63 = load double*, double** %outb.addr, align 8, !tbaa !2
  %64 = load i32, i32* %i, align 4, !tbaa !20
  %idxprom57 = sext i32 %64 to i64
  %arrayidx58 = getelementptr inbounds double, double* %63, i64 %idxprom57
  %65 = load double, double* %arrayidx58, align 8, !tbaa !44
  %mul59 = fmul fast double %62, %65
  %add60 = fadd fast double %59, %mul59
  %66 = load double*, double** %xb.addr, align 8, !tbaa !2
  %67 = load i32, i32* %i, align 4, !tbaa !20
  %idxprom61 = sext i32 %67 to i64
  %arrayidx62 = getelementptr inbounds double, double* %66, i64 %idxprom61
  store double %add60, double* %arrayidx62, align 8, !tbaa !44
  %68 = load double*, double** %outb.addr, align 8, !tbaa !2
  %69 = load i32, i32* %i, align 4, !tbaa !20
  %idxprom63 = sext i32 %69 to i64
  %arrayidx64 = getelementptr inbounds double, double* %68, i64 %idxprom63
  store double 0.000000e+00, double* %arrayidx64, align 8, !tbaa !44
  br label %for.inc65

for.inc65:                                        ; preds = %for.body42
  %70 = load i32, i32* %i, align 4, !tbaa !20
  %dec66 = add nsw i32 %70, -1
  store i32 %dec66, i32* %i, align 4, !tbaa !20
  br label %for.cond40, !llvm.loop !102

for.end67:                                        ; preds = %for.cond40
  %71 = bitcast i32* %Lparamsidx to i8*
  call void @llvm.lifetime.end.p0i8(i64 4, i8* %71) #9
  %72 = bitcast i32* %adFrom to i8*
  call void @llvm.lifetime.end.p0i8(i64 4, i8* %72) #9
  %73 = bitcast i32* %j to i8*
  call void @llvm.lifetime.end.p0i8(i64 4, i8* %73) #9
  %74 = bitcast i32* %i to i8*
  call void @llvm.lifetime.end.p0i8(i64 4, i8* %74) #9
  ret void
}

declare dso_local void @pushInteger4(i32) #2

declare dso_local void @popInteger4(i32*) #2

; Function Attrs: nounwind uwtable mustprogress
define dso_local void @Qtimesx_nodiff(i32 %d, double* %Qdiag, double* %ltri, double* %x, double* %out) #8 {
entry:
  %d.addr = alloca i32, align 4
  %Qdiag.addr = alloca double*, align 8
  %ltri.addr = alloca double*, align 8
  %x.addr = alloca double*, align 8
  %out.addr = alloca double*, align 8
  %i = alloca i32, align 4
  %j = alloca i32, align 4
  %Lparamsidx = alloca i32, align 4
  store i32 %d, i32* %d.addr, align 4, !tbaa !20
  store double* %Qdiag, double** %Qdiag.addr, align 8, !tbaa !2
  store double* %ltri, double** %ltri.addr, align 8, !tbaa !2
  store double* %x, double** %x.addr, align 8, !tbaa !2
  store double* %out, double** %out.addr, align 8, !tbaa !2
  %0 = bitcast i32* %i to i8*
  call void @llvm.lifetime.start.p0i8(i64 4, i8* %0) #9
  %1 = bitcast i32* %j to i8*
  call void @llvm.lifetime.start.p0i8(i64 4, i8* %1) #9
  store i32 0, i32* %i, align 4, !tbaa !20
  br label %for.cond

for.cond:                                         ; preds = %for.inc, %entry
  %2 = load i32, i32* %i, align 4, !tbaa !20
  %3 = load i32, i32* %d.addr, align 4, !tbaa !20
  %cmp = icmp slt i32 %2, %3
  br i1 %cmp, label %for.body, label %for.end

for.body:                                         ; preds = %for.cond
  %4 = load double*, double** %Qdiag.addr, align 8, !tbaa !2
  %5 = load i32, i32* %i, align 4, !tbaa !20
  %idxprom = sext i32 %5 to i64
  %arrayidx = getelementptr inbounds double, double* %4, i64 %idxprom
  %6 = load double, double* %arrayidx, align 8, !tbaa !44
  %7 = load double*, double** %x.addr, align 8, !tbaa !2
  %8 = load i32, i32* %i, align 4, !tbaa !20
  %idxprom1 = sext i32 %8 to i64
  %arrayidx2 = getelementptr inbounds double, double* %7, i64 %idxprom1
  %9 = load double, double* %arrayidx2, align 8, !tbaa !44
  %mul = fmul fast double %6, %9
  %10 = load double*, double** %out.addr, align 8, !tbaa !2
  %11 = load i32, i32* %i, align 4, !tbaa !20
  %idxprom3 = sext i32 %11 to i64
  %arrayidx4 = getelementptr inbounds double, double* %10, i64 %idxprom3
  store double %mul, double* %arrayidx4, align 8, !tbaa !44
  br label %for.inc

for.inc:                                          ; preds = %for.body
  %12 = load i32, i32* %i, align 4, !tbaa !20
  %inc = add nsw i32 %12, 1
  store i32 %inc, i32* %i, align 4, !tbaa !20
  br label %for.cond, !llvm.loop !103

for.end:                                          ; preds = %for.cond
  %13 = bitcast i32* %Lparamsidx to i8*
  call void @llvm.lifetime.start.p0i8(i64 4, i8* %13) #9
  store i32 0, i32* %Lparamsidx, align 4, !tbaa !20
  store i32 0, i32* %i, align 4, !tbaa !20
  br label %for.cond5

for.cond5:                                        ; preds = %for.inc25, %for.end
  %14 = load i32, i32* %i, align 4, !tbaa !20
  %15 = load i32, i32* %d.addr, align 4, !tbaa !20
  %cmp6 = icmp slt i32 %14, %15
  br i1 %cmp6, label %for.body7, label %for.end27

for.body7:                                        ; preds = %for.cond5
  %16 = load i32, i32* %i, align 4, !tbaa !20
  %add = add nsw i32 %16, 1
  store i32 %add, i32* %j, align 4, !tbaa !20
  br label %for.cond8

for.cond8:                                        ; preds = %for.inc22, %for.body7
  %17 = load i32, i32* %j, align 4, !tbaa !20
  %18 = load i32, i32* %d.addr, align 4, !tbaa !20
  %cmp9 = icmp slt i32 %17, %18
  br i1 %cmp9, label %for.body10, label %for.end24

for.body10:                                       ; preds = %for.cond8
  %19 = load double*, double** %out.addr, align 8, !tbaa !2
  %20 = load i32, i32* %j, align 4, !tbaa !20
  %idxprom11 = sext i32 %20 to i64
  %arrayidx12 = getelementptr inbounds double, double* %19, i64 %idxprom11
  %21 = load double, double* %arrayidx12, align 8, !tbaa !44
  %22 = load double*, double** %ltri.addr, align 8, !tbaa !2
  %23 = load i32, i32* %Lparamsidx, align 4, !tbaa !20
  %idxprom13 = sext i32 %23 to i64
  %arrayidx14 = getelementptr inbounds double, double* %22, i64 %idxprom13
  %24 = load double, double* %arrayidx14, align 8, !tbaa !44
  %25 = load double*, double** %x.addr, align 8, !tbaa !2
  %26 = load i32, i32* %i, align 4, !tbaa !20
  %idxprom15 = sext i32 %26 to i64
  %arrayidx16 = getelementptr inbounds double, double* %25, i64 %idxprom15
  %27 = load double, double* %arrayidx16, align 8, !tbaa !44
  %mul17 = fmul fast double %24, %27
  %add18 = fadd fast double %21, %mul17
  %28 = load double*, double** %out.addr, align 8, !tbaa !2
  %29 = load i32, i32* %j, align 4, !tbaa !20
  %idxprom19 = sext i32 %29 to i64
  %arrayidx20 = getelementptr inbounds double, double* %28, i64 %idxprom19
  store double %add18, double* %arrayidx20, align 8, !tbaa !44
  %30 = load i32, i32* %Lparamsidx, align 4, !tbaa !20
  %inc21 = add nsw i32 %30, 1
  store i32 %inc21, i32* %Lparamsidx, align 4, !tbaa !20
  br label %for.inc22

for.inc22:                                        ; preds = %for.body10
  %31 = load i32, i32* %j, align 4, !tbaa !20
  %inc23 = add nsw i32 %31, 1
  store i32 %inc23, i32* %j, align 4, !tbaa !20
  br label %for.cond8, !llvm.loop !104

for.end24:                                        ; preds = %for.cond8
  br label %for.inc25

for.inc25:                                        ; preds = %for.end24
  %32 = load i32, i32* %i, align 4, !tbaa !20
  %inc26 = add nsw i32 %32, 1
  store i32 %inc26, i32* %i, align 4, !tbaa !20
  br label %for.cond5, !llvm.loop !105

for.end27:                                        ; preds = %for.cond5
  %33 = bitcast i32* %Lparamsidx to i8*
  call void @llvm.lifetime.end.p0i8(i64 4, i8* %33) #9
  %34 = bitcast i32* %j to i8*
  call void @llvm.lifetime.end.p0i8(i64 4, i8* %34) #9
  %35 = bitcast i32* %i to i8*
  call void @llvm.lifetime.end.p0i8(i64 4, i8* %35) #9
  ret void
}

; Function Attrs: uwtable mustprogress
define dso_local void @gmm_objective_b(i32 %d, i32 %k, i32 %n, double* %alphas, double* %alphasb, double* %means, double* %meansb, double* %icf, double* %icfb, double* %x, %struct.Wishart* byval(%struct.Wishart) align 8 %wishart, double* %err, double* %errb) #0 {
entry:
  %d.addr = alloca i32, align 4
  %k.addr = alloca i32, align 4
  %n.addr = alloca i32, align 4
  %alphas.addr = alloca double*, align 8
  %alphasb.addr = alloca double*, align 8
  %means.addr = alloca double*, align 8
  %meansb.addr = alloca double*, align 8
  %icf.addr = alloca double*, align 8
  %icfb.addr = alloca double*, align 8
  %x.addr = alloca double*, align 8
  %err.addr = alloca double*, align 8
  %errb.addr = alloca double*, align 8
  %ix = alloca i32, align 4
  %ik = alloca i32, align 4
  %CONSTANT = alloca double, align 8
  %icf_sz = alloca i32, align 4
  %Qdiags = alloca double*, align 8
  %Qdiagsb = alloca double*, align 8
  %result1 = alloca double, align 8
  %result1b = alloca double, align 8
  %ii1 = alloca i32, align 4
  %sum_qs = alloca double*, align 8
  %sum_qsb = alloca double*, align 8
  %xcentered = alloca double*, align 8
  %xcenteredb = alloca double*, align 8
  %Qxcentered = alloca double*, align 8
  %Qxcenteredb = alloca double*, align 8
  %main_term = alloca double*, align 8
  %main_termb = alloca double*, align 8
  %slse = alloca double, align 8
  %slseb = alloca double, align 8
  %lse_alphas = alloca double, align 8
  %lse_alphasb = alloca double, align 8
  %agg.tmp = alloca %struct.Wishart, align 8
  store i32 %d, i32* %d.addr, align 4, !tbaa !20
  store i32 %k, i32* %k.addr, align 4, !tbaa !20
  store i32 %n, i32* %n.addr, align 4, !tbaa !20
  store double* %alphas, double** %alphas.addr, align 8, !tbaa !2
  store double* %alphasb, double** %alphasb.addr, align 8, !tbaa !2
  store double* %means, double** %means.addr, align 8, !tbaa !2
  store double* %meansb, double** %meansb.addr, align 8, !tbaa !2
  store double* %icf, double** %icf.addr, align 8, !tbaa !2
  store double* %icfb, double** %icfb.addr, align 8, !tbaa !2
  store double* %x, double** %x.addr, align 8, !tbaa !2
  store double* %err, double** %err.addr, align 8, !tbaa !2
  store double* %errb, double** %errb.addr, align 8, !tbaa !2
  %0 = bitcast i32* %ix to i8*
  call void @llvm.lifetime.start.p0i8(i64 4, i8* %0) #9
  %1 = bitcast i32* %ik to i8*
  call void @llvm.lifetime.start.p0i8(i64 4, i8* %1) #9
  %2 = bitcast double* %CONSTANT to i8*
  call void @llvm.lifetime.start.p0i8(i64 8, i8* %2) #9
  %3 = load i32, i32* %n.addr, align 4, !tbaa !20
  %sub = sub nsw i32 0, %3
  %4 = load i32, i32* %d.addr, align 4, !tbaa !20
  %mul = mul nsw i32 %sub, %4
  %conv = sitofp i32 %mul to double
  %mul1 = fmul fast double %conv, 5.000000e-01
  %5 = call fast double @llvm.log.f64(double 0x401921FB54442EEA)
  %mul2 = fmul fast double %mul1, %5
  store double %mul2, double* %CONSTANT, align 8, !tbaa !44
  %6 = bitcast i32* %icf_sz to i8*
  call void @llvm.lifetime.start.p0i8(i64 4, i8* %6) #9
  %7 = load i32, i32* %d.addr, align 4, !tbaa !20
  %8 = load i32, i32* %d.addr, align 4, !tbaa !20
  %add = add nsw i32 %8, 1
  %mul3 = mul nsw i32 %7, %add
  %div = sdiv i32 %mul3, 2
  store i32 %div, i32* %icf_sz, align 4, !tbaa !20
  %9 = bitcast double** %Qdiags to i8*
  call void @llvm.lifetime.start.p0i8(i64 8, i8* %9) #9
  %10 = bitcast double** %Qdiagsb to i8*
  call void @llvm.lifetime.start.p0i8(i64 8, i8* %10) #9
  %11 = bitcast double* %result1 to i8*
  call void @llvm.lifetime.start.p0i8(i64 8, i8* %11) #9
  %12 = bitcast double* %result1b to i8*
  call void @llvm.lifetime.start.p0i8(i64 8, i8* %12) #9
  %13 = bitcast i32* %ii1 to i8*
  call void @llvm.lifetime.start.p0i8(i64 4, i8* %13) #9
  %14 = load i32, i32* %d.addr, align 4, !tbaa !20
  %15 = load i32, i32* %k.addr, align 4, !tbaa !20
  %mul4 = mul nsw i32 %14, %15
  %conv5 = sext i32 %mul4 to i64
  %mul6 = mul i64 %conv5, 8
  %call = call noalias i8* @malloc(i64 %mul6) #9
  %16 = bitcast i8* %call to double*
  store double* %16, double** %Qdiagsb, align 8, !tbaa !2
  store i32 0, i32* %ii1, align 4, !tbaa !20
  br label %for.cond

for.cond:                                         ; preds = %for.inc, %entry
  %17 = load i32, i32* %ii1, align 4, !tbaa !20
  %18 = load i32, i32* %d.addr, align 4, !tbaa !20
  %19 = load i32, i32* %k.addr, align 4, !tbaa !20
  %mul7 = mul nsw i32 %18, %19
  %cmp = icmp slt i32 %17, %mul7
  br i1 %cmp, label %for.body, label %for.end

for.body:                                         ; preds = %for.cond
  %20 = load double*, double** %Qdiagsb, align 8, !tbaa !2
  %21 = load i32, i32* %ii1, align 4, !tbaa !20
  %idxprom = sext i32 %21 to i64
  %arrayidx = getelementptr inbounds double, double* %20, i64 %idxprom
  store double 0.000000e+00, double* %arrayidx, align 8, !tbaa !44
  br label %for.inc

for.inc:                                          ; preds = %for.body
  %22 = load i32, i32* %ii1, align 4, !tbaa !20
  %inc = add nsw i32 %22, 1
  store i32 %inc, i32* %ii1, align 4, !tbaa !20
  br label %for.cond, !llvm.loop !106

for.end:                                          ; preds = %for.cond
  %23 = load i32, i32* %d.addr, align 4, !tbaa !20
  %24 = load i32, i32* %k.addr, align 4, !tbaa !20
  %mul8 = mul nsw i32 %23, %24
  %conv9 = sext i32 %mul8 to i64
  %mul10 = mul i64 %conv9, 8
  %call11 = call noalias i8* @malloc(i64 %mul10) #9
  %25 = bitcast i8* %call11 to double*
  store double* %25, double** %Qdiags, align 8, !tbaa !2
  %26 = bitcast double** %sum_qs to i8*
  call void @llvm.lifetime.start.p0i8(i64 8, i8* %26) #9
  %27 = bitcast double** %sum_qsb to i8*
  call void @llvm.lifetime.start.p0i8(i64 8, i8* %27) #9
  %28 = load i32, i32* %k.addr, align 4, !tbaa !20
  %conv12 = sext i32 %28 to i64
  %mul13 = mul i64 %conv12, 8
  %call14 = call noalias i8* @malloc(i64 %mul13) #9
  %29 = bitcast i8* %call14 to double*
  store double* %29, double** %sum_qsb, align 8, !tbaa !2
  store i32 0, i32* %ii1, align 4, !tbaa !20
  br label %for.cond15

for.cond15:                                       ; preds = %for.inc20, %for.end
  %30 = load i32, i32* %ii1, align 4, !tbaa !20
  %31 = load i32, i32* %k.addr, align 4, !tbaa !20
  %cmp16 = icmp slt i32 %30, %31
  br i1 %cmp16, label %for.body17, label %for.end22

for.body17:                                       ; preds = %for.cond15
  %32 = load double*, double** %sum_qsb, align 8, !tbaa !2
  %33 = load i32, i32* %ii1, align 4, !tbaa !20
  %idxprom18 = sext i32 %33 to i64
  %arrayidx19 = getelementptr inbounds double, double* %32, i64 %idxprom18
  store double 0.000000e+00, double* %arrayidx19, align 8, !tbaa !44
  br label %for.inc20

for.inc20:                                        ; preds = %for.body17
  %34 = load i32, i32* %ii1, align 4, !tbaa !20
  %inc21 = add nsw i32 %34, 1
  store i32 %inc21, i32* %ii1, align 4, !tbaa !20
  br label %for.cond15, !llvm.loop !107

for.end22:                                        ; preds = %for.cond15
  %35 = load i32, i32* %k.addr, align 4, !tbaa !20
  %conv23 = sext i32 %35 to i64
  %mul24 = mul i64 %conv23, 8
  %call25 = call noalias i8* @malloc(i64 %mul24) #9
  %36 = bitcast i8* %call25 to double*
  store double* %36, double** %sum_qs, align 8, !tbaa !2
  %37 = bitcast double** %xcentered to i8*
  call void @llvm.lifetime.start.p0i8(i64 8, i8* %37) #9
  %38 = bitcast double** %xcenteredb to i8*
  call void @llvm.lifetime.start.p0i8(i64 8, i8* %38) #9
  %39 = load i32, i32* %d.addr, align 4, !tbaa !20
  %conv26 = sext i32 %39 to i64
  %mul27 = mul i64 %conv26, 8
  %call28 = call noalias i8* @malloc(i64 %mul27) #9
  %40 = bitcast i8* %call28 to double*
  store double* %40, double** %xcenteredb, align 8, !tbaa !2
  store i32 0, i32* %ii1, align 4, !tbaa !20
  br label %for.cond29

for.cond29:                                       ; preds = %for.inc34, %for.end22
  %41 = load i32, i32* %ii1, align 4, !tbaa !20
  %42 = load i32, i32* %d.addr, align 4, !tbaa !20
  %cmp30 = icmp slt i32 %41, %42
  br i1 %cmp30, label %for.body31, label %for.end36

for.body31:                                       ; preds = %for.cond29
  %43 = load double*, double** %xcenteredb, align 8, !tbaa !2
  %44 = load i32, i32* %ii1, align 4, !tbaa !20
  %idxprom32 = sext i32 %44 to i64
  %arrayidx33 = getelementptr inbounds double, double* %43, i64 %idxprom32
  store double 0.000000e+00, double* %arrayidx33, align 8, !tbaa !44
  br label %for.inc34

for.inc34:                                        ; preds = %for.body31
  %45 = load i32, i32* %ii1, align 4, !tbaa !20
  %inc35 = add nsw i32 %45, 1
  store i32 %inc35, i32* %ii1, align 4, !tbaa !20
  br label %for.cond29, !llvm.loop !108

for.end36:                                        ; preds = %for.cond29
  %46 = load i32, i32* %d.addr, align 4, !tbaa !20
  %conv37 = sext i32 %46 to i64
  %mul38 = mul i64 %conv37, 8
  %call39 = call noalias i8* @malloc(i64 %mul38) #9
  %47 = bitcast i8* %call39 to double*
  store double* %47, double** %xcentered, align 8, !tbaa !2
  %48 = bitcast double** %Qxcentered to i8*
  call void @llvm.lifetime.start.p0i8(i64 8, i8* %48) #9
  %49 = bitcast double** %Qxcenteredb to i8*
  call void @llvm.lifetime.start.p0i8(i64 8, i8* %49) #9
  %50 = load i32, i32* %d.addr, align 4, !tbaa !20
  %conv40 = sext i32 %50 to i64
  %mul41 = mul i64 %conv40, 8
  %call42 = call noalias i8* @malloc(i64 %mul41) #9
  %51 = bitcast i8* %call42 to double*
  store double* %51, double** %Qxcenteredb, align 8, !tbaa !2
  store i32 0, i32* %ii1, align 4, !tbaa !20
  br label %for.cond43

for.cond43:                                       ; preds = %for.inc48, %for.end36
  %52 = load i32, i32* %ii1, align 4, !tbaa !20
  %53 = load i32, i32* %d.addr, align 4, !tbaa !20
  %cmp44 = icmp slt i32 %52, %53
  br i1 %cmp44, label %for.body45, label %for.end50

for.body45:                                       ; preds = %for.cond43
  %54 = load double*, double** %Qxcenteredb, align 8, !tbaa !2
  %55 = load i32, i32* %ii1, align 4, !tbaa !20
  %idxprom46 = sext i32 %55 to i64
  %arrayidx47 = getelementptr inbounds double, double* %54, i64 %idxprom46
  store double 0.000000e+00, double* %arrayidx47, align 8, !tbaa !44
  br label %for.inc48

for.inc48:                                        ; preds = %for.body45
  %56 = load i32, i32* %ii1, align 4, !tbaa !20
  %inc49 = add nsw i32 %56, 1
  store i32 %inc49, i32* %ii1, align 4, !tbaa !20
  br label %for.cond43, !llvm.loop !109

for.end50:                                        ; preds = %for.cond43
  %57 = load i32, i32* %d.addr, align 4, !tbaa !20
  %conv51 = sext i32 %57 to i64
  %mul52 = mul i64 %conv51, 8
  %call53 = call noalias i8* @malloc(i64 %mul52) #9
  %58 = bitcast i8* %call53 to double*
  store double* %58, double** %Qxcentered, align 8, !tbaa !2
  %59 = bitcast double** %main_term to i8*
  call void @llvm.lifetime.start.p0i8(i64 8, i8* %59) #9
  %60 = bitcast double** %main_termb to i8*
  call void @llvm.lifetime.start.p0i8(i64 8, i8* %60) #9
  %61 = load i32, i32* %k.addr, align 4, !tbaa !20
  %conv54 = sext i32 %61 to i64
  %mul55 = mul i64 %conv54, 8
  %call56 = call noalias i8* @malloc(i64 %mul55) #9
  %62 = bitcast i8* %call56 to double*
  store double* %62, double** %main_termb, align 8, !tbaa !2
  store i32 0, i32* %ii1, align 4, !tbaa !20
  br label %for.cond57

for.cond57:                                       ; preds = %for.inc62, %for.end50
  %63 = load i32, i32* %ii1, align 4, !tbaa !20
  %64 = load i32, i32* %k.addr, align 4, !tbaa !20
  %cmp58 = icmp slt i32 %63, %64
  br i1 %cmp58, label %for.body59, label %for.end64

for.body59:                                       ; preds = %for.cond57
  %65 = load double*, double** %main_termb, align 8, !tbaa !2
  %66 = load i32, i32* %ii1, align 4, !tbaa !20
  %idxprom60 = sext i32 %66 to i64
  %arrayidx61 = getelementptr inbounds double, double* %65, i64 %idxprom60
  store double 0.000000e+00, double* %arrayidx61, align 8, !tbaa !44
  br label %for.inc62

for.inc62:                                        ; preds = %for.body59
  %67 = load i32, i32* %ii1, align 4, !tbaa !20
  %inc63 = add nsw i32 %67, 1
  store i32 %inc63, i32* %ii1, align 4, !tbaa !20
  br label %for.cond57, !llvm.loop !110

for.end64:                                        ; preds = %for.cond57
  %68 = load i32, i32* %k.addr, align 4, !tbaa !20
  %conv65 = sext i32 %68 to i64
  %mul66 = mul i64 %conv65, 8
  %call67 = call noalias i8* @malloc(i64 %mul66) #9
  %69 = bitcast i8* %call67 to double*
  store double* %69, double** %main_term, align 8, !tbaa !2
  %70 = load i32, i32* %d.addr, align 4, !tbaa !20
  %71 = load i32, i32* %k.addr, align 4, !tbaa !20
  %72 = load double*, double** %icf.addr, align 8, !tbaa !2
  %73 = load double*, double** %sum_qs, align 8, !tbaa !2
  %arrayidx68 = getelementptr inbounds double, double* %73, i64 0
  %74 = load double*, double** %Qdiags, align 8, !tbaa !2
  %arrayidx69 = getelementptr inbounds double, double* %74, i64 0
  call void @preprocess_qs_nodiff(i32 %70, i32 %71, double* %72, double* %arrayidx68, double* %arrayidx69)
  %75 = bitcast double* %slse to i8*
  call void @llvm.lifetime.start.p0i8(i64 8, i8* %75) #9
  store double 0.000000e+00, double* %slse, align 8, !tbaa !44
  %76 = bitcast double* %slseb to i8*
  call void @llvm.lifetime.start.p0i8(i64 8, i8* %76) #9
  store double 0.000000e+00, double* %slseb, align 8, !tbaa !44
  store i32 0, i32* %ix, align 4, !tbaa !20
  br label %for.cond70

for.cond70:                                       ; preds = %for.inc108, %for.end64
  %77 = load i32, i32* %ix, align 4, !tbaa !20
  %78 = load i32, i32* %n.addr, align 4, !tbaa !20
  %cmp71 = icmp slt i32 %77, %78
  br i1 %cmp71, label %for.body72, label %for.end110

for.body72:                                       ; preds = %for.cond70
  store i32 0, i32* %ik, align 4, !tbaa !20
  br label %for.cond73

for.cond73:                                       ; preds = %for.inc105, %for.body72
  %79 = load i32, i32* %ik, align 4, !tbaa !20
  %80 = load i32, i32* %k.addr, align 4, !tbaa !20
  %cmp74 = icmp slt i32 %79, %80
  br i1 %cmp74, label %for.body75, label %for.end107

for.body75:                                       ; preds = %for.cond73
  %81 = load double*, double** %xcentered, align 8, !tbaa !2
  %82 = load i32, i32* %d.addr, align 4, !tbaa !20
  call void @pushReal8Array(double* %81, i32 %82)
  %83 = load i32, i32* %d.addr, align 4, !tbaa !20
  %84 = load double*, double** %x.addr, align 8, !tbaa !2
  %85 = load i32, i32* %ix, align 4, !tbaa !20
  %86 = load i32, i32* %d.addr, align 4, !tbaa !20
  %mul76 = mul nsw i32 %85, %86
  %idxprom77 = sext i32 %mul76 to i64
  %arrayidx78 = getelementptr inbounds double, double* %84, i64 %idxprom77
  %87 = load double*, double** %means.addr, align 8, !tbaa !2
  %88 = load i32, i32* %ik, align 4, !tbaa !20
  %89 = load i32, i32* %d.addr, align 4, !tbaa !20
  %mul79 = mul nsw i32 %88, %89
  %idxprom80 = sext i32 %mul79 to i64
  %arrayidx81 = getelementptr inbounds double, double* %87, i64 %idxprom80
  %90 = load double*, double** %xcentered, align 8, !tbaa !2
  %arrayidx82 = getelementptr inbounds double, double* %90, i64 0
  call void @subtract_nodiff(i32 %83, double* %arrayidx78, double* %arrayidx81, double* %arrayidx82)
  %91 = load double*, double** %Qxcentered, align 8, !tbaa !2
  %92 = load i32, i32* %d.addr, align 4, !tbaa !20
  call void @pushReal8Array(double* %91, i32 %92)
  %93 = load i32, i32* %d.addr, align 4, !tbaa !20
  %94 = load double*, double** %Qdiags, align 8, !tbaa !2
  %95 = load i32, i32* %ik, align 4, !tbaa !20
  %96 = load i32, i32* %d.addr, align 4, !tbaa !20
  %mul83 = mul nsw i32 %95, %96
  %idxprom84 = sext i32 %mul83 to i64
  %arrayidx85 = getelementptr inbounds double, double* %94, i64 %idxprom84
  %97 = load double*, double** %icf.addr, align 8, !tbaa !2
  %98 = load i32, i32* %ik, align 4, !tbaa !20
  %99 = load i32, i32* %icf_sz, align 4, !tbaa !20
  %mul86 = mul nsw i32 %98, %99
  %100 = load i32, i32* %d.addr, align 4, !tbaa !20
  %add87 = add nsw i32 %mul86, %100
  %idxprom88 = sext i32 %add87 to i64
  %arrayidx89 = getelementptr inbounds double, double* %97, i64 %idxprom88
  %101 = load double*, double** %xcentered, align 8, !tbaa !2
  %arrayidx90 = getelementptr inbounds double, double* %101, i64 0
  %102 = load double*, double** %Qxcentered, align 8, !tbaa !2
  %arrayidx91 = getelementptr inbounds double, double* %102, i64 0
  call void @Qtimesx_nodiff(i32 %93, double* %arrayidx85, double* %arrayidx89, double* %arrayidx90, double* %arrayidx91)
  %103 = load i32, i32* %d.addr, align 4, !tbaa !20
  %104 = load double*, double** %Qxcentered, align 8, !tbaa !2
  %arrayidx92 = getelementptr inbounds double, double* %104, i64 0
  %call93 = call fast double @sqnorm_nodiff(i32 %103, double* %arrayidx92)
  store double %call93, double* %result1, align 8, !tbaa !44
  %105 = load double*, double** %main_term, align 8, !tbaa !2
  %106 = load i32, i32* %ik, align 4, !tbaa !20
  %idxprom94 = sext i32 %106 to i64
  %arrayidx95 = getelementptr inbounds double, double* %105, i64 %idxprom94
  %107 = load double, double* %arrayidx95, align 8, !tbaa !44
  call void @pushReal8(double %107)
  %108 = load double*, double** %alphas.addr, align 8, !tbaa !2
  %109 = load i32, i32* %ik, align 4, !tbaa !20
  %idxprom96 = sext i32 %109 to i64
  %arrayidx97 = getelementptr inbounds double, double* %108, i64 %idxprom96
  %110 = load double, double* %arrayidx97, align 8, !tbaa !44
  %111 = load double*, double** %sum_qs, align 8, !tbaa !2
  %112 = load i32, i32* %ik, align 4, !tbaa !20
  %idxprom98 = sext i32 %112 to i64
  %arrayidx99 = getelementptr inbounds double, double* %111, i64 %idxprom98
  %113 = load double, double* %arrayidx99, align 8, !tbaa !44
  %add100 = fadd fast double %110, %113
  %114 = load double, double* %result1, align 8, !tbaa !44
  %mul101 = fmul fast double 5.000000e-01, %114
  %sub102 = fsub fast double %add100, %mul101
  %115 = load double*, double** %main_term, align 8, !tbaa !2
  %116 = load i32, i32* %ik, align 4, !tbaa !20
  %idxprom103 = sext i32 %116 to i64
  %arrayidx104 = getelementptr inbounds double, double* %115, i64 %idxprom103
  store double %sub102, double* %arrayidx104, align 8, !tbaa !44
  br label %for.inc105

for.inc105:                                       ; preds = %for.body75
  %117 = load i32, i32* %ik, align 4, !tbaa !20
  %inc106 = add nsw i32 %117, 1
  store i32 %inc106, i32* %ik, align 4, !tbaa !20
  br label %for.cond73, !llvm.loop !111

for.end107:                                       ; preds = %for.cond73
  br label %for.inc108

for.inc108:                                       ; preds = %for.end107
  %118 = load i32, i32* %ix, align 4, !tbaa !20
  %inc109 = add nsw i32 %118, 1
  store i32 %inc109, i32* %ix, align 4, !tbaa !20
  br label %for.cond70, !llvm.loop !112

for.end110:                                       ; preds = %for.cond70
  %119 = bitcast double* %lse_alphas to i8*
  call void @llvm.lifetime.start.p0i8(i64 8, i8* %119) #9
  %120 = bitcast double* %lse_alphasb to i8*
  call void @llvm.lifetime.start.p0i8(i64 8, i8* %120) #9
  %121 = load double*, double** %errb.addr, align 8, !tbaa !2
  %122 = load double, double* %121, align 8, !tbaa !44
  store double %122, double* %slseb, align 8, !tbaa !44
  %123 = load i32, i32* %n.addr, align 4, !tbaa !20
  %conv111 = sitofp i32 %123 to double
  %124 = load double*, double** %errb.addr, align 8, !tbaa !2
  %125 = load double, double* %124, align 8, !tbaa !44
  %mul112 = fmul fast double %conv111, %125
  %fneg = fneg fast double %mul112
  store double %fneg, double* %lse_alphasb, align 8, !tbaa !44
  %126 = load double*, double** %errb.addr, align 8, !tbaa !2
  %127 = load double, double* %126, align 8, !tbaa !44
  store double %127, double* %result1b, align 8, !tbaa !44
  %128 = load double*, double** %errb.addr, align 8, !tbaa !2
  store double 0.000000e+00, double* %128, align 8, !tbaa !44
  %129 = load i32, i32* %d.addr, align 4, !tbaa !20
  %130 = load i32, i32* %k.addr, align 4, !tbaa !20
  %131 = bitcast %struct.Wishart* %agg.tmp to i8*
  %132 = bitcast %struct.Wishart* %wishart to i8*
  call void @llvm.memcpy.p0i8.p0i8.i64(i8* align 8 %131, i8* align 8 %132, i64 16, i1 false), !tbaa.struct !52
  %133 = load double*, double** %sum_qs, align 8, !tbaa !2
  %arrayidx113 = getelementptr inbounds double, double* %133, i64 0
  %134 = load double*, double** %sum_qsb, align 8, !tbaa !2
  %arrayidx114 = getelementptr inbounds double, double* %134, i64 0
  %135 = load double*, double** %Qdiags, align 8, !tbaa !2
  %arrayidx115 = getelementptr inbounds double, double* %135, i64 0
  %136 = load double*, double** %Qdiagsb, align 8, !tbaa !2
  %arrayidx116 = getelementptr inbounds double, double* %136, i64 0
  %137 = load double*, double** %icf.addr, align 8, !tbaa !2
  %138 = load double*, double** %icfb.addr, align 8, !tbaa !2
  %139 = load double, double* %result1b, align 8, !tbaa !44
  %140 = bitcast %struct.Wishart* %agg.tmp to { double, i32 }*
  %141 = getelementptr inbounds { double, i32 }, { double, i32 }* %140, i32 0, i32 0
  %142 = load double, double* %141, align 8
  %143 = getelementptr inbounds { double, i32 }, { double, i32 }* %140, i32 0, i32 1
  %144 = load i32, i32* %143, align 8
  call void @log_wishart_prior_b(i32 %129, i32 %130, double %142, i32 %144, double* %arrayidx113, double* %arrayidx114, double* %arrayidx115, double* %arrayidx116, double* %137, double* %138, double %139)
  store i32 0, i32* %ii1, align 4, !tbaa !20
  br label %for.cond117

for.cond117:                                      ; preds = %for.inc122, %for.end110
  %145 = load i32, i32* %ii1, align 4, !tbaa !20
  %146 = load i32, i32* %k.addr, align 4, !tbaa !20
  %cmp118 = icmp slt i32 %145, %146
  br i1 %cmp118, label %for.body119, label %for.end124

for.body119:                                      ; preds = %for.cond117
  %147 = load double*, double** %alphasb.addr, align 8, !tbaa !2
  %148 = load i32, i32* %ii1, align 4, !tbaa !20
  %idxprom120 = sext i32 %148 to i64
  %arrayidx121 = getelementptr inbounds double, double* %147, i64 %idxprom120
  store double 0.000000e+00, double* %arrayidx121, align 8, !tbaa !44
  br label %for.inc122

for.inc122:                                       ; preds = %for.body119
  %149 = load i32, i32* %ii1, align 4, !tbaa !20
  %inc123 = add nsw i32 %149, 1
  store i32 %inc123, i32* %ii1, align 4, !tbaa !20
  br label %for.cond117, !llvm.loop !113

for.end124:                                       ; preds = %for.cond117
  %150 = load i32, i32* %k.addr, align 4, !tbaa !20
  %151 = load double*, double** %alphas.addr, align 8, !tbaa !2
  %152 = load double*, double** %alphasb.addr, align 8, !tbaa !2
  %153 = load double, double* %lse_alphasb, align 8, !tbaa !44
  call void @log_sum_exp_b(i32 %150, double* %151, double* %152, double %153)
  store i32 0, i32* %ii1, align 4, !tbaa !20
  br label %for.cond125

for.cond125:                                      ; preds = %for.inc131, %for.end124
  %154 = load i32, i32* %ii1, align 4, !tbaa !20
  %155 = load i32, i32* %d.addr, align 4, !tbaa !20
  %156 = load i32, i32* %k.addr, align 4, !tbaa !20
  %mul126 = mul nsw i32 %155, %156
  %cmp127 = icmp slt i32 %154, %mul126
  br i1 %cmp127, label %for.body128, label %for.end133

for.body128:                                      ; preds = %for.cond125
  %157 = load double*, double** %meansb.addr, align 8, !tbaa !2
  %158 = load i32, i32* %ii1, align 4, !tbaa !20
  %idxprom129 = sext i32 %158 to i64
  %arrayidx130 = getelementptr inbounds double, double* %157, i64 %idxprom129
  store double 0.000000e+00, double* %arrayidx130, align 8, !tbaa !44
  br label %for.inc131

for.inc131:                                       ; preds = %for.body128
  %159 = load i32, i32* %ii1, align 4, !tbaa !20
  %inc132 = add nsw i32 %159, 1
  store i32 %inc132, i32* %ii1, align 4, !tbaa !20
  br label %for.cond125, !llvm.loop !114

for.end133:                                       ; preds = %for.cond125
  %160 = load i32, i32* %n.addr, align 4, !tbaa !20
  %sub134 = sub nsw i32 %160, 1
  store i32 %sub134, i32* %ix, align 4, !tbaa !20
  br label %for.cond135

for.cond135:                                      ; preds = %for.inc199, %for.end133
  %161 = load i32, i32* %ix, align 4, !tbaa !20
  %cmp136 = icmp sgt i32 %161, -1
  br i1 %cmp136, label %for.body137, label %for.end201

for.body137:                                      ; preds = %for.cond135
  %162 = load double, double* %slseb, align 8, !tbaa !44
  store double %162, double* %result1b, align 8, !tbaa !44
  %163 = load i32, i32* %k.addr, align 4, !tbaa !20
  %164 = load double*, double** %main_term, align 8, !tbaa !2
  %arrayidx138 = getelementptr inbounds double, double* %164, i64 0
  %165 = load double*, double** %main_termb, align 8, !tbaa !2
  %arrayidx139 = getelementptr inbounds double, double* %165, i64 0
  %166 = load double, double* %result1b, align 8, !tbaa !44
  call void @log_sum_exp_b(i32 %163, double* %arrayidx138, double* %arrayidx139, double %166)
  %167 = load i32, i32* %k.addr, align 4, !tbaa !20
  %sub140 = sub nsw i32 %167, 1
  store i32 %sub140, i32* %ik, align 4, !tbaa !20
  br label %for.cond141

for.cond141:                                      ; preds = %for.inc197, %for.body137
  %168 = load i32, i32* %ik, align 4, !tbaa !20
  %cmp142 = icmp sgt i32 %168, -1
  br i1 %cmp142, label %for.body143, label %for.end198

for.body143:                                      ; preds = %for.cond141
  %169 = load double*, double** %main_term, align 8, !tbaa !2
  %170 = load i32, i32* %ik, align 4, !tbaa !20
  %idxprom144 = sext i32 %170 to i64
  %arrayidx145 = getelementptr inbounds double, double* %169, i64 %idxprom144
  call void @popReal8(double* %arrayidx145)
  %171 = load double*, double** %alphasb.addr, align 8, !tbaa !2
  %172 = load i32, i32* %ik, align 4, !tbaa !20
  %idxprom146 = sext i32 %172 to i64
  %arrayidx147 = getelementptr inbounds double, double* %171, i64 %idxprom146
  %173 = load double, double* %arrayidx147, align 8, !tbaa !44
  %174 = load double*, double** %main_termb, align 8, !tbaa !2
  %175 = load i32, i32* %ik, align 4, !tbaa !20
  %idxprom148 = sext i32 %175 to i64
  %arrayidx149 = getelementptr inbounds double, double* %174, i64 %idxprom148
  %176 = load double, double* %arrayidx149, align 8, !tbaa !44
  %add150 = fadd fast double %173, %176
  %177 = load double*, double** %alphasb.addr, align 8, !tbaa !2
  %178 = load i32, i32* %ik, align 4, !tbaa !20
  %idxprom151 = sext i32 %178 to i64
  %arrayidx152 = getelementptr inbounds double, double* %177, i64 %idxprom151
  store double %add150, double* %arrayidx152, align 8, !tbaa !44
  %179 = load double*, double** %sum_qsb, align 8, !tbaa !2
  %180 = load i32, i32* %ik, align 4, !tbaa !20
  %idxprom153 = sext i32 %180 to i64
  %arrayidx154 = getelementptr inbounds double, double* %179, i64 %idxprom153
  %181 = load double, double* %arrayidx154, align 8, !tbaa !44
  %182 = load double*, double** %main_termb, align 8, !tbaa !2
  %183 = load i32, i32* %ik, align 4, !tbaa !20
  %idxprom155 = sext i32 %183 to i64
  %arrayidx156 = getelementptr inbounds double, double* %182, i64 %idxprom155
  %184 = load double, double* %arrayidx156, align 8, !tbaa !44
  %add157 = fadd fast double %181, %184
  %185 = load double*, double** %sum_qsb, align 8, !tbaa !2
  %186 = load i32, i32* %ik, align 4, !tbaa !20
  %idxprom158 = sext i32 %186 to i64
  %arrayidx159 = getelementptr inbounds double, double* %185, i64 %idxprom158
  store double %add157, double* %arrayidx159, align 8, !tbaa !44
  %187 = load double*, double** %main_termb, align 8, !tbaa !2
  %188 = load i32, i32* %ik, align 4, !tbaa !20
  %idxprom160 = sext i32 %188 to i64
  %arrayidx161 = getelementptr inbounds double, double* %187, i64 %idxprom160
  %189 = load double, double* %arrayidx161, align 8, !tbaa !44
  %mul162 = fmul fast double 5.000000e-01, %189
  %fneg163 = fneg fast double %mul162
  store double %fneg163, double* %result1b, align 8, !tbaa !44
  %190 = load double*, double** %main_termb, align 8, !tbaa !2
  %191 = load i32, i32* %ik, align 4, !tbaa !20
  %idxprom164 = sext i32 %191 to i64
  %arrayidx165 = getelementptr inbounds double, double* %190, i64 %idxprom164
  store double 0.000000e+00, double* %arrayidx165, align 8, !tbaa !44
  %192 = load i32, i32* %d.addr, align 4, !tbaa !20
  %193 = load double*, double** %Qxcentered, align 8, !tbaa !2
  %arrayidx166 = getelementptr inbounds double, double* %193, i64 0
  %194 = load double*, double** %Qxcenteredb, align 8, !tbaa !2
  %arrayidx167 = getelementptr inbounds double, double* %194, i64 0
  %195 = load double, double* %result1b, align 8, !tbaa !44
  call void @sqnorm_b(i32 %192, double* %arrayidx166, double* %arrayidx167, double %195)
  %196 = load double*, double** %Qxcentered, align 8, !tbaa !2
  %197 = load i32, i32* %d.addr, align 4, !tbaa !20
  call void @popReal8Array(double* %196, i32 %197)
  %198 = load i32, i32* %d.addr, align 4, !tbaa !20
  %199 = load double*, double** %Qdiags, align 8, !tbaa !2
  %200 = load i32, i32* %ik, align 4, !tbaa !20
  %201 = load i32, i32* %d.addr, align 4, !tbaa !20
  %mul168 = mul nsw i32 %200, %201
  %idxprom169 = sext i32 %mul168 to i64
  %arrayidx170 = getelementptr inbounds double, double* %199, i64 %idxprom169
  %202 = load double*, double** %Qdiagsb, align 8, !tbaa !2
  %203 = load i32, i32* %ik, align 4, !tbaa !20
  %204 = load i32, i32* %d.addr, align 4, !tbaa !20
  %mul171 = mul nsw i32 %203, %204
  %idxprom172 = sext i32 %mul171 to i64
  %arrayidx173 = getelementptr inbounds double, double* %202, i64 %idxprom172
  %205 = load double*, double** %icf.addr, align 8, !tbaa !2
  %206 = load i32, i32* %ik, align 4, !tbaa !20
  %207 = load i32, i32* %icf_sz, align 4, !tbaa !20
  %mul174 = mul nsw i32 %206, %207
  %208 = load i32, i32* %d.addr, align 4, !tbaa !20
  %add175 = add nsw i32 %mul174, %208
  %idxprom176 = sext i32 %add175 to i64
  %arrayidx177 = getelementptr inbounds double, double* %205, i64 %idxprom176
  %209 = load double*, double** %icfb.addr, align 8, !tbaa !2
  %210 = load i32, i32* %ik, align 4, !tbaa !20
  %211 = load i32, i32* %icf_sz, align 4, !tbaa !20
  %mul178 = mul nsw i32 %210, %211
  %212 = load i32, i32* %d.addr, align 4, !tbaa !20
  %add179 = add nsw i32 %mul178, %212
  %idxprom180 = sext i32 %add179 to i64
  %arrayidx181 = getelementptr inbounds double, double* %209, i64 %idxprom180
  %213 = load double*, double** %xcentered, align 8, !tbaa !2
  %arrayidx182 = getelementptr inbounds double, double* %213, i64 0
  %214 = load double*, double** %xcenteredb, align 8, !tbaa !2
  %arrayidx183 = getelementptr inbounds double, double* %214, i64 0
  %215 = load double*, double** %Qxcentered, align 8, !tbaa !2
  %arrayidx184 = getelementptr inbounds double, double* %215, i64 0
  %216 = load double*, double** %Qxcenteredb, align 8, !tbaa !2
  %arrayidx185 = getelementptr inbounds double, double* %216, i64 0
  call void @Qtimesx_b(i32 %198, double* %arrayidx170, double* %arrayidx173, double* %arrayidx177, double* %arrayidx181, double* %arrayidx182, double* %arrayidx183, double* %arrayidx184, double* %arrayidx185)
  %217 = load double*, double** %xcentered, align 8, !tbaa !2
  %218 = load i32, i32* %d.addr, align 4, !tbaa !20
  call void @popReal8Array(double* %217, i32 %218)
  %219 = load i32, i32* %d.addr, align 4, !tbaa !20
  %220 = load double*, double** %x.addr, align 8, !tbaa !2
  %221 = load i32, i32* %ix, align 4, !tbaa !20
  %222 = load i32, i32* %d.addr, align 4, !tbaa !20
  %mul186 = mul nsw i32 %221, %222
  %idxprom187 = sext i32 %mul186 to i64
  %arrayidx188 = getelementptr inbounds double, double* %220, i64 %idxprom187
  %223 = load double*, double** %means.addr, align 8, !tbaa !2
  %224 = load i32, i32* %ik, align 4, !tbaa !20
  %225 = load i32, i32* %d.addr, align 4, !tbaa !20
  %mul189 = mul nsw i32 %224, %225
  %idxprom190 = sext i32 %mul189 to i64
  %arrayidx191 = getelementptr inbounds double, double* %223, i64 %idxprom190
  %226 = load double*, double** %meansb.addr, align 8, !tbaa !2
  %227 = load i32, i32* %ik, align 4, !tbaa !20
  %228 = load i32, i32* %d.addr, align 4, !tbaa !20
  %mul192 = mul nsw i32 %227, %228
  %idxprom193 = sext i32 %mul192 to i64
  %arrayidx194 = getelementptr inbounds double, double* %226, i64 %idxprom193
  %229 = load double*, double** %xcentered, align 8, !tbaa !2
  %arrayidx195 = getelementptr inbounds double, double* %229, i64 0
  %230 = load double*, double** %xcenteredb, align 8, !tbaa !2
  %arrayidx196 = getelementptr inbounds double, double* %230, i64 0
  call void @subtract_b(i32 %219, double* %arrayidx188, double* %arrayidx191, double* %arrayidx194, double* %arrayidx195, double* %arrayidx196)
  br label %for.inc197

for.inc197:                                       ; preds = %for.body143
  %231 = load i32, i32* %ik, align 4, !tbaa !20
  %dec = add nsw i32 %231, -1
  store i32 %dec, i32* %ik, align 4, !tbaa !20
  br label %for.cond141, !llvm.loop !115

for.end198:                                       ; preds = %for.cond141
  br label %for.inc199

for.inc199:                                       ; preds = %for.end198
  %232 = load i32, i32* %ix, align 4, !tbaa !20
  %dec200 = add nsw i32 %232, -1
  store i32 %dec200, i32* %ix, align 4, !tbaa !20
  br label %for.cond135, !llvm.loop !116

for.end201:                                       ; preds = %for.cond135
  %233 = load i32, i32* %d.addr, align 4, !tbaa !20
  %234 = load i32, i32* %k.addr, align 4, !tbaa !20
  %235 = load double*, double** %icf.addr, align 8, !tbaa !2
  %236 = load double*, double** %icfb.addr, align 8, !tbaa !2
