; ModuleID = 'gmm-raw.ll'
source_filename = "gmm.cpp"
target datalayout = "e-m:e-p270:32:32-p271:32:32-p272:64:64-i64:64-f80:128-n8:16:32:64-S128"
target triple = "x86_64-unknown-linux-gnu"

%"class.std::ios_base::Init" = type { i8 }
%"class.std::__cxx11::basic_string" = type { %"struct.std::__cxx11::basic_string<char>::_Alloc_hider", i64, %union.anon }
%"struct.std::__cxx11::basic_string<char>::_Alloc_hider" = type { i8* }
%union.anon = type { i64, [8 x i8] }
%"class.adept::Stack" = type <{ %"class.adept::internal::StackStorageOrig", double*, %"class.std::vector.8", %"class.std::vector.8", %"class.std::__cxx11::list", %"struct.std::_List_iterator", i32, i32, i32, i32, i8, i8, i8, i8, i8, [3 x i8] }>
%"class.adept::internal::StackStorageOrig" = type { %"struct.adept::internal::Statement"*, double*, i32*, i32, i32, i32, i32 }
%"struct.adept::internal::Statement" = type { i32, i32 }
%"class.std::vector.8" = type { %"struct.std::_Vector_base.9" }
%"struct.std::_Vector_base.9" = type { %"struct.std::_Vector_base<int, std::allocator<int>>::_Vector_impl" }
%"struct.std::_Vector_base<int, std::allocator<int>>::_Vector_impl" = type { %"struct.std::_Vector_base<int, std::allocator<int>>::_Vector_impl_data" }
%"struct.std::_Vector_base<int, std::allocator<int>>::_Vector_impl_data" = type { i32*, i32*, i32* }
%"class.std::__cxx11::list" = type { %"class.std::__cxx11::_List_base" }
%"class.std::__cxx11::_List_base" = type { %"struct.std::__cxx11::_List_base<adept::Gap, std::allocator<adept::Gap>>::_List_impl" }
%"struct.std::__cxx11::_List_base<adept::Gap, std::allocator<adept::Gap>>::_List_impl" = type { %"struct.std::__detail::_List_node_header" }
%"struct.std::__detail::_List_node_header" = type { %"struct.std::__detail::_List_node_base", i64 }
%"struct.std::__detail::_List_node_base" = type { %"struct.std::__detail::_List_node_base"*, %"struct.std::__detail::_List_node_base"* }
%"struct.std::_List_iterator" = type { %"struct.std::__detail::_List_node_base"* }
%"struct.adept::internal::EndIndex" = type { i8 }
%"class.adept::internal::AllIndex" = type { i8 }
%"class.std::vector" = type { %"struct.std::_Vector_base" }
%"struct.std::_Vector_base" = type { %"struct.std::_Vector_base<std::__cxx11::basic_string<char>, std::allocator<std::__cxx11::basic_string<char>>>::_Vector_impl" }
%"struct.std::_Vector_base<std::__cxx11::basic_string<char>, std::allocator<std::__cxx11::basic_string<char>>>::_Vector_impl" = type { %"struct.std::_Vector_base<std::__cxx11::basic_string<char>, std::allocator<std::__cxx11::basic_string<char>>>::_Vector_impl_data" }
%"struct.std::_Vector_base<std::__cxx11::basic_string<char>, std::allocator<std::__cxx11::basic_string<char>>>::_Vector_impl_data" = type { %"class.std::__cxx11::basic_string"*, %"class.std::__cxx11::basic_string"*, %"class.std::__cxx11::basic_string"* }
%struct.__dirstream = type opaque
%struct.dirent = type { i64, i64, i16, i8, [256 x i8] }
%struct.timeval = type { i64, i64 }
%"class.std::vector.3" = type { %"struct.std::_Vector_base.4" }
%"struct.std::_Vector_base.4" = type { %"struct.std::_Vector_base<double, std::allocator<double>>::_Vector_impl" }
%"struct.std::_Vector_base<double, std::allocator<double>>::_Vector_impl" = type { %"struct.std::_Vector_base<double, std::allocator<double>>::_Vector_impl_data" }
%"struct.std::_Vector_base<double, std::allocator<double>>::_Vector_impl_data" = type { double*, double*, double* }
%struct.Wishart = type { double, i32 }
%struct._IO_FILE = type { i32, i8*, i8*, i8*, i8*, i8*, i8*, i8*, i8*, i8*, i8*, i8*, %struct._IO_marker*, %struct._IO_FILE*, i32, i32, i64, i16, i8, [1 x i8], i8*, i64, %struct._IO_codecvt*, %struct._IO_wide_data*, %struct._IO_FILE*, i8*, i64, i32, [20 x i8] }
%struct._IO_marker = type opaque
%struct._IO_codecvt = type opaque
%struct._IO_wide_data = type opaque
%struct.GMMInput = type { i32, i32, i32, %"class.std::vector.3", %"class.std::vector.3", %"class.std::vector.3", %"class.std::vector.3", %struct.Wishart }
%"class.std::bad_alloc" = type { %"class.std::exception" }
%"class.std::exception" = type { i32 (...)** }
%"class.adept::invalid_operation" = type { %"class.adept::array_exception" }
%"class.adept::array_exception" = type { %"class.adept::exception" }
%"class.adept::exception" = type { %"class.std::exception", %"class.std::__cxx11::basic_string" }
%"struct.adept::Gap" = type { i32, i32 }
%"struct.std::_List_node" = type { %"struct.std::__detail::_List_node_base", %"struct.__gnu_cxx::__aligned_membuf" }
%"struct.__gnu_cxx::__aligned_membuf" = type { [8 x i8] }
%"class.std::basic_ostream" = type { i32 (...)**, %"class.std::basic_ios" }
%"class.std::basic_ios" = type { %"class.std::ios_base", %"class.std::basic_ostream"*, i8, i8, %"class.std::basic_streambuf"*, %"class.std::ctype"*, %"class.std::num_put"*, %"class.std::num_get"* }
%"class.std::ios_base" = type { i32 (...)**, i64, i64, i32, i32, i32, %"struct.std::ios_base::_Callback_list"*, %"struct.std::ios_base::_Words", [8 x %"struct.std::ios_base::_Words"], i32, %"struct.std::ios_base::_Words"*, %"class.std::locale" }
%"struct.std::ios_base::_Callback_list" = type { %"struct.std::ios_base::_Callback_list"*, void (i32, %"class.std::ios_base"*, i32)*, i32, i32 }
%"struct.std::ios_base::_Words" = type { i8*, i64 }
%"class.std::locale" = type { %"class.std::locale::_Impl"* }
%"class.std::locale::_Impl" = type { i32, %"class.std::locale::facet"**, i64, %"class.std::locale::facet"**, i8** }
%"class.std::locale::facet" = type <{ i32 (...)**, i32, [4 x i8] }>
%"class.std::basic_streambuf" = type { i32 (...)**, i8*, i8*, i8*, i8*, i8*, i8*, %"class.std::locale" }
%"class.std::ctype" = type <{ %"class.std::locale::facet.base", [4 x i8], %struct.__locale_struct*, i8, [7 x i8], i32*, i32*, i16*, i8, [256 x i8], [256 x i8], i8, [6 x i8] }>
%"class.std::locale::facet.base" = type <{ i32 (...)**, i32 }>
%struct.__locale_struct = type { [13 x %struct.__locale_data*], i16*, i32*, i32*, [13 x i8*] }
%struct.__locale_data = type opaque
%"class.std::num_put" = type { %"class.std::locale::facet.base", [4 x i8] }
%"class.std::num_get" = type { %"class.std::locale::facet.base", [4 x i8] }
%"class.adept::Array" = type { float*, %"class.adept::Storage"*, %"class.adept::ExpressionSize", %"class.adept::ExpressionSize" }
%"class.adept::Storage" = type opaque
%"class.adept::ExpressionSize" = type { [2 x i32] }
%"class.adept::SpecialMatrix" = type { float*, %"class.adept::Storage"*, i32, i32 }
%"class.adept::SpecialMatrix.19" = type { float*, %"class.adept::Storage"*, i32, i32 }
%"class.adept::Array.22" = type { double*, %"class.adept::Storage.24"*, %"class.adept::ExpressionSize", %"class.adept::ExpressionSize" }
%"class.adept::Storage.24" = type <{ double*, i32, i32, i32, [4 x i8] }>
%"class.adept::SpecialMatrix.25" = type { double*, %"class.adept::Storage.24"*, i32, i32 }
%"class.adept::SpecialMatrix.27" = type { double*, %"class.adept::Storage.24"*, i32, i32 }
%"struct.adept::Block" = type { [2 x double] }
%"class.std::__cxx11::basic_stringstream" = type { %"class.std::basic_iostream.base", %"class.std::__cxx11::basic_stringbuf", %"class.std::basic_ios" }
%"class.std::basic_iostream.base" = type { %"class.std::basic_istream.base", %"class.std::basic_ostream.base" }
%"class.std::basic_istream.base" = type { i32 (...)**, i64 }
%"class.std::basic_ostream.base" = type { i32 (...)** }
%"class.std::__cxx11::basic_stringbuf" = type { %"class.std::basic_streambuf", i32, %"class.std::__cxx11::basic_string" }
%"class.adept::Array.35" = type { float*, %"class.adept::Storage"*, %"class.adept::ExpressionSize.37", %"class.adept::ExpressionSize.37" }
%"class.adept::ExpressionSize.37" = type { [1 x i32] }
%"class.adept::Array.38" = type { double*, %"class.adept::Storage.24"*, %"class.adept::ExpressionSize.37", %"class.adept::ExpressionSize.37" }
%"class.adept::Active" = type <{ double, i32, [4 x i8] }>
%"struct.adept::internal::BinaryOperation.69" = type { %"class.adept::Active"*, %"class.adept::Active"* }
%"struct.adept::internal::BinaryOperation.71" = type { %"class.adept::Active"*, %"struct.adept::internal::BinaryOperation.69" }
%"class.std::vector.45" = type { %"struct.std::_Vector_base.46" }
%"struct.std::_Vector_base.46" = type { %"struct.std::_Vector_base<adept::Active<double>, std::allocator<adept::Active<double>>>::_Vector_impl" }
%"struct.std::_Vector_base<adept::Active<double>, std::allocator<adept::Active<double>>>::_Vector_impl" = type { %"struct.std::_Vector_base<adept::Active<double>, std::allocator<adept::Active<double>>>::_Vector_impl_data" }
%"struct.std::_Vector_base<adept::Active<double>, std::allocator<adept::Active<double>>>::_Vector_impl_data" = type { %"class.adept::Active"*, %"class.adept::Active"*, %"class.adept::Active"* }
%"class.std::allocator.47" = type { i8 }
%"struct.adept::internal::BinaryOperation.51" = type { %"class.adept::Active"*, %"class.adept::Active"* }
%"struct.adept::internal::BinaryOperation.54" = type { %"struct.adept::internal::BinaryOpScalarLeft.56"*, %"struct.adept::internal::BinaryOpScalarLeft.59"* }
%"struct.adept::internal::BinaryOpScalarLeft.56" = type <{ %"struct.adept::internal::Packet", %"class.adept::Active"*, [8 x i8] }>
%"struct.adept::internal::Packet" = type { %union.anon.29 }
%union.anon.29 = type { <2 x double> }
%"struct.adept::internal::BinaryOpScalarLeft.59" = type { %"struct.adept::internal::Packet.61", %"class.adept::Active"* }
%"struct.adept::internal::Packet.61" = type { i32 }
%"struct.adept::Expression.70" = type { i8 }
%"struct.adept::Expression.72" = type { i8 }
%"struct.adept::Expression.52" = type { i8 }
%"struct.adept::Expression.55" = type { i8 }
%"class.adept::stack_already_active" = type { %"class.adept::autodiff_exception" }
%"class.adept::autodiff_exception" = type { %"class.adept::exception" }
%"class.adept::gradients_not_initialized" = type { %"class.adept::autodiff_exception" }
%"class.adept::feature_not_available" = type { %"class.adept::exception" }
%"class.adept::dependents_or_independents_not_identified" = type { %"class.adept::autodiff_exception" }
%"class.adept::invalid_dimension" = type { %"class.adept::array_exception" }
%"struct.adept::internal::BinaryOperation.74" = type { %"class.adept::Active"*, %"struct.adept::internal::UnaryOperation.76" }
%"struct.adept::internal::UnaryOperation.76" = type { %"struct.adept::internal::BinaryOperation.78" }
%"struct.adept::internal::BinaryOperation.78" = type { %"class.adept::Active"*, %"class.adept::Active"* }
%"struct.adept::internal::BinaryOperation.80" = type { %"struct.adept::internal::UnaryOperation.82", %"class.adept::Active"* }
%"struct.adept::internal::UnaryOperation.82" = type { %"class.adept::Active"* }
%"struct.adept::Expression.75" = type { i8 }
%"struct.adept::Expression.81" = type { i8 }
%"struct.adept::internal::BinaryOpScalarRight" = type { %"class.adept::Active"*, %"struct.adept::internal::Packet" }
%"struct.adept::Expression.90" = type { i8 }
%"class.adept::gradient_out_of_range" = type { %"class.adept::autodiff_exception" }

$_ZStplIcSt11char_traitsIcESaIcEENSt7__cxx1112basic_stringIT_T0_T1_EEPKS5_RKS8_ = comdat any

$__clang_call_terminate = comdat any

$_ZN5adept17invalid_operationC2ERKNSt7__cxx1112basic_stringIcSt11char_traitsIcESaIcEEE = comdat any

$_ZN5adept9exceptionD2Ev = comdat any

$_ZN5adept3invIfEENS_5ArrayILi2ET_Lb0EEERKS3_ = comdat any

$_ZN5adept3invIfLNS_8internal21SymmMatrixOrientationE0EEENS_13SpecialMatrixIT_NS1_10SymmEngineIXT0_EEELb0EEERKS7_ = comdat any

$_ZN5adept3invIfLNS_8internal21SymmMatrixOrientationE1EEENS_13SpecialMatrixIT_NS1_10SymmEngineIXT0_EEELb0EEERKS7_ = comdat any

$_ZN5adept3invIdEENS_5ArrayILi2ET_Lb0EEERKS3_ = comdat any

$_ZN5adept3invIdLNS_8internal21SymmMatrixOrientationE0EEENS_13SpecialMatrixIT_NS1_10SymmEngineIXT0_EEELb0EEERKS7_ = comdat any

$_ZN5adept3invIdLNS_8internal21SymmMatrixOrientationE1EEENS_13SpecialMatrixIT_NS1_10SymmEngineIXT0_EEELb0EEERKS7_ = comdat any

$_ZN5adept5solveIfEENS_5ArrayILi1ET_Lb0EEERKNS1_ILi2ES2_Lb0EEERKS3_ = comdat any

$_ZN5adept5solveIfLNS_8internal21SymmMatrixOrientationE0EEENS_5ArrayILi1ET_Lb0EEERKNS_13SpecialMatrixIS4_NS1_10SymmEngineIXT0_EEELb0EEERKS5_ = comdat any

$_ZN5adept5solveIfLNS_8internal21SymmMatrixOrientationE1EEENS_5ArrayILi1ET_Lb0EEERKNS_13SpecialMatrixIS4_NS1_10SymmEngineIXT0_EEELb0EEERKS5_ = comdat any

$_ZN5adept5solveIfEENS_5ArrayILi2ET_Lb0EEERKS3_S5_ = comdat any

$_ZN5adept5solveIfLNS_8internal21SymmMatrixOrientationE0EEENS_5ArrayILi2ET_Lb0EEERKNS_13SpecialMatrixIS4_NS1_10SymmEngineIXT0_EEELb0EEERKS5_ = comdat any

$_ZN5adept5solveIfLNS_8internal21SymmMatrixOrientationE1EEENS_5ArrayILi2ET_Lb0EEERKNS_13SpecialMatrixIS4_NS1_10SymmEngineIXT0_EEELb0EEERKS5_ = comdat any

$_ZN5adept5solveIdEENS_5ArrayILi1ET_Lb0EEERKNS1_ILi2ES2_Lb0EEERKS3_ = comdat any

$_ZN5adept5solveIdLNS_8internal21SymmMatrixOrientationE0EEENS_5ArrayILi1ET_Lb0EEERKNS_13SpecialMatrixIS4_NS1_10SymmEngineIXT0_EEELb0EEERKS5_ = comdat any

$_ZN5adept5solveIdLNS_8internal21SymmMatrixOrientationE1EEENS_5ArrayILi1ET_Lb0EEERKNS_13SpecialMatrixIS4_NS1_10SymmEngineIXT0_EEELb0EEERKS5_ = comdat any

$_ZN5adept5solveIdEENS_5ArrayILi2ET_Lb0EEERKS3_S5_ = comdat any

$_ZN5adept5solveIdLNS_8internal21SymmMatrixOrientationE0EEENS_5ArrayILi2ET_Lb0EEERKNS_13SpecialMatrixIS4_NS1_10SymmEngineIXT0_EEELb0EEERKS5_ = comdat any

$_ZN5adept5solveIdLNS_8internal21SymmMatrixOrientationE1EEENS_5ArrayILi2ET_Lb0EEERKNS_13SpecialMatrixIS4_NS1_10SymmEngineIXT0_EEELb0EEERKS5_ = comdat any

$_ZN5adept5StackC2Eb = comdat any

$_ZN5adept6ActiveIdED2Ev = comdat any

$_ZN5adept5Stack13new_recordingEv = comdat any

$_ZN9adeptTest13gmm_objectiveIN5adept6ActiveIdEEEEviiiPKT_S6_S6_PKd7WishartPS4_ = comdat any

$_ZN5adept17invalid_operationD0Ev = comdat any

$_ZNK5adept9exception4whatEv = comdat any

$_ZN5adept15array_exceptionD0Ev = comdat any

$_ZN5adept9exceptionD0Ev = comdat any

$_ZN5adept20stack_already_activeD0Ev = comdat any

$_ZN5adept25gradients_not_initializedD0Ev = comdat any

$_ZN5adept21feature_not_availableD0Ev = comdat any

$_ZN5adept41dependents_or_independents_not_identifiedD0Ev = comdat any

$_ZNSt6vectorINSt7__cxx1112basic_stringIcSt11char_traitsIcESaIcEEESaIS5_EE17_M_realloc_insertIJS5_EEEvN9__gnu_cxx17__normal_iteratorIPS5_S7_EEDpOT_ = comdat any

$_ZNSt6vectorIdSaIdEE17_M_default_appendEm = comdat any

$_ZN5adept5ArrayILi1EdLb0EE6resizeEPKib = comdat any

$_ZN5adept7StorageIdE11remove_linkEv = comdat any

$_ZN5adept8internal18exception_locationB5cxx11EPKci = comdat any

$_ZN5adept17invalid_dimensionC2ERKNSt7__cxx1112basic_stringIcSt11char_traitsIcESaIcEEE = comdat any

$_ZN5adept17invalid_dimensionD0Ev = comdat any

$_ZNSt6vectorIN5adept6ActiveIdEESaIS2_EEC2EmRKS3_ = comdat any

$_ZN9adeptTest13preprocess_qsIN5adept6ActiveIdEEEEviiPKT_PS4_S7_ = comdat any

$_ZN5adept6ActiveIdEC2IdEERKT_PNS_8internal9enable_ifIXsr17is_not_expressionIS3_EE5valueEvE4typeE = comdat any

$_ZN9adeptTest8subtractIdN5adept6ActiveIdEES3_EEviPKT_PKT0_PT1_ = comdat any

$_ZN9adeptTest9logsumexpIN5adept6ActiveIdEEEET_iPKS4_ = comdat any

$_ZN5adept6ActiveIdEaSIdNS_8internal15BinaryOperationIdS1_NS3_3AddES1_EEEENS3_9enable_ifIXaasrT0_9is_activeeqsrS8_4rankLi0EERS1_E4typeERKNS_10ExpressionIT_S8_EE = comdat any

$_ZN5adept6ActiveIdEaSIdNS_8internal15BinaryOperationIdNS3_18BinaryOpScalarLeftIddNS3_3AddES1_EENS3_8SubtractENS5_IdiNS3_8MultiplyES1_EEEEEENS3_9enable_ifIXaasrT0_9is_activeeqsrSD_4rankLi0EERS1_E4typeERKNS_10ExpressionIT_SD_EE = comdat any

$_ZN9adeptTest17log_wishart_priorIN5adept6ActiveIdEEEET_ii7WishartPKS4_S7_S7_ = comdat any

$_ZN5adept6ActiveIdEaSERKS1_ = comdat any

$_ZN5adept6ActiveIdEaSIdNS_8internal15BinaryOperationIdS1_NS3_8MultiplyES1_EEEENS3_9enable_ifIXaasrT0_9is_activeeqsrS8_4rankLi0EERS1_E4typeERKNS_10ExpressionIT_S8_EE = comdat any

$_ZN5adept6ActiveIdEaSIdNS_8internal15BinaryOperationIdS1_NS3_3AddENS4_IdS1_NS3_8MultiplyES1_EEEEEENS3_9enable_ifIXaasrT0_9is_activeeqsrSA_4rankLi0EERS1_E4typeERKNS_10ExpressionIT_SA_EE = comdat any

$_ZN5adept6ActiveIdEC2IdNS_8internal15BinaryOperationIdS1_NS3_8MultiplyES1_EEEERKNS_10ExpressionIT_T0_EEPNS3_9enable_ifIXaaeqsrS9_4rankLi0EsrS9_9is_activeEvE4typeE = comdat any

$_ZN5adept6ActiveIdEaSIdNS_8internal15BinaryOperationIdS1_NS3_3AddENS3_14UnaryOperationIdNS3_3ExpENS4_IdS1_NS3_8SubtractES1_EEEEEEEENS3_9enable_ifIXaasrT0_9is_activeeqsrSD_4rankLi0EERS1_E4typeERKNS_10ExpressionIT_SD_EE = comdat any

$_ZN5adept6ActiveIdEC2IdNS_8internal15BinaryOperationIdNS3_14UnaryOperationIdNS3_3LogES1_EENS3_3AddES1_EEEERKNS_10ExpressionIT_T0_EEPNS3_9enable_ifIXaaeqsrSC_4rankLi0EsrSC_9is_activeEvE4typeE = comdat any

$_ZN5adept6ActiveIdEC2IiEERKT_PNS_8internal9enable_ifIXsr17is_not_expressionIS3_EE5valueEvE4typeE = comdat any

$_ZN5adept6ActiveIdEC2IdNS_8internal15BinaryOperationIdS1_NS3_3AddES1_EEEERKNS_10ExpressionIT_T0_EEPNS3_9enable_ifIXaaeqsrS9_4rankLi0EsrS9_9is_activeEvE4typeE = comdat any

$_ZN5adept6ActiveIdEC2IdNS_8internal19BinaryOpScalarRightIdS1_NS3_8SubtractEdEEEERKNS_10ExpressionIT_T0_EEPNS3_9enable_ifIXaaeqsrS9_4rankLi0EsrS9_9is_activeEvE4typeE = comdat any

$_ZN5adept5Stack13set_gradientsIdEENS_8internal9enable_ifIXsr8internal17is_floating_pointIT_EE5valueEvE4typeEiiPKS4_ = comdat any

$_ZN5adept21gradient_out_of_rangeD0Ev = comdat any

$_ZNK5adept5Stack13get_gradientsIdEENS_8internal9enable_ifIXsr8internal17is_floating_pointIT_EE5valueEvE4typeEiiPS4_ = comdat any

$_ZTWN5adept21_stack_current_threadE = comdat any

$_ZTSN5adept17invalid_operationE = comdat any

$_ZTSN5adept15array_exceptionE = comdat any

$_ZTSN5adept9exceptionE = comdat any

$_ZTIN5adept9exceptionE = comdat any

$_ZTIN5adept15array_exceptionE = comdat any

$_ZTIN5adept17invalid_operationE = comdat any

$_ZTSN5adept20stack_already_activeE = comdat any

$_ZTSN5adept18autodiff_exceptionE = comdat any

$_ZTIN5adept18autodiff_exceptionE = comdat any

$_ZTIN5adept20stack_already_activeE = comdat any

$_ZTSN5adept25gradients_not_initializedE = comdat any

$_ZTIN5adept25gradients_not_initializedE = comdat any

$_ZTSN5adept21feature_not_availableE = comdat any

$_ZTIN5adept21feature_not_availableE = comdat any

$_ZTSN5adept41dependents_or_independents_not_identifiedE = comdat any

$_ZTIN5adept41dependents_or_independents_not_identifiedE = comdat any

$_ZTVN5adept17invalid_operationE = comdat any

$_ZTVN5adept15array_exceptionE = comdat any

$_ZTVN5adept9exceptionE = comdat any

$_ZTVN5adept20stack_already_activeE = comdat any

$_ZTVN5adept25gradients_not_initializedE = comdat any

$_ZTVN5adept21feature_not_availableE = comdat any

$_ZTVN5adept41dependents_or_independents_not_identifiedE = comdat any

$_ZTSN5adept17invalid_dimensionE = comdat any

$_ZTIN5adept17invalid_dimensionE = comdat any

$_ZTVN5adept17invalid_dimensionE = comdat any

$_ZTSN5adept21gradient_out_of_rangeE = comdat any

$_ZTIN5adept21gradient_out_of_rangeE = comdat any

$_ZTVN5adept21gradient_out_of_rangeE = comdat any

@.str = private unnamed_addr constant [2 x i8] c".\00", align 1
@.str.1 = private unnamed_addr constant [3 x i8] c"..\00", align 1
@.str.2 = private unnamed_addr constant [6 x i8] c"%s/%s\00", align 1
@.str.3 = private unnamed_addr constant [2 x i8] c"/\00", align 1
@.str.5 = private unnamed_addr constant [3 x i8] c"/\\\00", align 1
@_ZStL8__ioinit = internal global %"class.std::ios_base::Init" zeroinitializer, align 1
@__dso_handle = external hidden global i8
@.str.7 = private unnamed_addr constant [2 x i8] c"r\00", align 1
@.str.8 = private unnamed_addr constant [25 x i8] c"could not open file: %s\0A\00", align 1
@.str.9 = private unnamed_addr constant [9 x i8] c"%i %i %i\00", align 1
@.str.10 = private unnamed_addr constant [4 x i8] c"%lf\00", align 1
@.str.11 = private unnamed_addr constant [7 x i8] c"%lf %i\00", align 1
@.str.13 = private unnamed_addr constant [5 x i8] c"-rep\00", align 1
@.str.14 = private unnamed_addr constant [8 x i8] c"data/1k\00", align 1
@.str.15 = private unnamed_addr constant [4 x i8] c"1k/\00", align 1
@.str.16 = private unnamed_addr constant [10 x i8] c"data/2.5k\00", align 1
@.str.17 = private unnamed_addr constant [6 x i8] c"2.5k/\00", align 1
@.str.18 = private unnamed_addr constant [9 x i8] c"data/10k\00", align 1
@.str.20 = private unnamed_addr constant [22 x i8] c"10k/gmm_d128_K200.txt\00", align 1
@.str.21 = private unnamed_addr constant [22 x i8] c"10k/gmm_d128_K100.txt\00", align 1
@.str.22 = private unnamed_addr constant [21 x i8] c"10k/gmm_d64_K200.txt\00", align 1
@.str.23 = private unnamed_addr constant [21 x i8] c"10k/gmm_d128_K50.txt\00", align 1
@.str.24 = private unnamed_addr constant [21 x i8] c"10k/gmm_d64_K100.txt\00", align 1
@.str.25 = private unnamed_addr constant [18 x i8] c"starting path %s\0A\00", align 1
@.str.26 = private unnamed_addr constant [6 x i8] c"data/\00", align 1
@.str.27 = private unnamed_addr constant [25 x i8] c"Tapenade combined %0.6f\0A\00", align 1
@.str.28 = private unnamed_addr constant [4 x i8] c"%f \00", align 1
@.str.29 = private unnamed_addr constant [2 x i8] c"\0A\00", align 1
@_ZTISt9bad_alloc = external dso_local constant i8*
@.str.30 = private unnamed_addr constant [22 x i8] c"Adept combined %0.6f\0A\00", align 1
@.str.32 = private unnamed_addr constant [23 x i8] c"Enzyme combined %0.6f\0A\00", align 1
@_ZN5adept8internal21array_row_major_orderE = dso_local local_unnamed_addr global i8 1, align 1
@_ZN5adept8internal17array_print_styleE = dso_local local_unnamed_addr global i32 2, align 4
@_ZN5adept8internal16vector_separatorB5cxx11E = dso_local global %"class.std::__cxx11::basic_string" zeroinitializer, align 8
@.str.34 = private unnamed_addr constant [3 x i8] c", \00", align 1
@_ZN5adept8internal19vector_print_beforeB5cxx11E = dso_local global %"class.std::__cxx11::basic_string" zeroinitializer, align 8
@.str.36 = private unnamed_addr constant [2 x i8] c"{\00", align 1
@_ZN5adept8internal18vector_print_afterB5cxx11E = dso_local global %"class.std::__cxx11::basic_string" zeroinitializer, align 8
@.str.38 = private unnamed_addr constant [2 x i8] c"}\00", align 1
@_ZN5adept8internal21array_opening_bracketB5cxx11E = dso_local global %"class.std::__cxx11::basic_string" zeroinitializer, align 8
@_ZN5adept8internal21array_closing_bracketB5cxx11E = dso_local global %"class.std::__cxx11::basic_string" zeroinitializer, align 8
@_ZN5adept8internal26array_contiguous_separatorB5cxx11E = dso_local global %"class.std::__cxx11::basic_string" zeroinitializer, align 8
@_ZN5adept8internal30array_non_contiguous_separatorB5cxx11E = dso_local global %"class.std::__cxx11::basic_string" zeroinitializer, align 8
@.str.43 = private unnamed_addr constant [3 x i8] c",\0A\00", align 1
@_ZN5adept8internal18array_print_beforeB5cxx11E = dso_local global %"class.std::__cxx11::basic_string" zeroinitializer, align 8
@.str.45 = private unnamed_addr constant [3 x i8] c"\0A{\00", align 1
@_ZN5adept8internal17array_print_afterB5cxx11E = dso_local global %"class.std::__cxx11::basic_string" zeroinitializer, align 8
@_ZN5adept8internal24array_print_empty_beforeB5cxx11E = dso_local global %"class.std::__cxx11::basic_string" zeroinitializer, align 8
@.str.48 = private unnamed_addr constant [13 x i8] c"(empty rank-\00", align 1
@_ZN5adept8internal23array_print_empty_afterB5cxx11E = dso_local global %"class.std::__cxx11::basic_string" zeroinitializer, align 8
@.str.50 = private unnamed_addr constant [8 x i8] c" array)\00", align 1
@_ZN5adept8internal18array_print_indentE = dso_local local_unnamed_addr global i8 1, align 1
@_ZN5adept8internal22array_print_empty_rankE = dso_local local_unnamed_addr global i8 1, align 1
@.str.51 = private unnamed_addr constant [2 x i8] c" \00", align 1
@.str.52 = private unnamed_addr constant [1 x i8] zeroinitializer, align 1
@.str.53 = private unnamed_addr constant [6 x i8] c"empty\00", align 1
@.str.54 = private unnamed_addr constant [2 x i8] c"[\00", align 1
@.str.55 = private unnamed_addr constant [2 x i8] c"]\00", align 1
@.str.56 = private unnamed_addr constant [3 x i8] c";\0A\00", align 1
@.str.57 = private unnamed_addr constant [33 x i8] c"Array print style not understood\00", align 1
@_ZTVN10__cxxabiv120__si_class_type_infoE = external dso_local global i8*
@_ZTSN5adept17invalid_operationE = linkonce_odr dso_local constant [28 x i8] c"N5adept17invalid_operationE\00", comdat, align 1
@_ZTSN5adept15array_exceptionE = linkonce_odr dso_local constant [26 x i8] c"N5adept15array_exceptionE\00", comdat, align 1
@_ZTSN5adept9exceptionE = linkonce_odr dso_local constant [19 x i8] c"N5adept9exceptionE\00", comdat, align 1
@_ZTISt9exception = external dso_local constant i8*
@_ZTIN5adept9exceptionE = linkonce_odr dso_local constant { i8*, i8*, i8* } { i8* bitcast (i8** getelementptr inbounds (i8*, i8** @_ZTVN10__cxxabiv120__si_class_type_infoE, i64 2) to i8*), i8* getelementptr inbounds ([19 x i8], [19 x i8]* @_ZTSN5adept9exceptionE, i32 0, i32 0), i8* bitcast (i8** @_ZTISt9exception to i8*) }, comdat, align 8
@_ZTIN5adept15array_exceptionE = linkonce_odr dso_local constant { i8*, i8*, i8* } { i8* bitcast (i8** getelementptr inbounds (i8*, i8** @_ZTVN10__cxxabiv120__si_class_type_infoE, i64 2) to i8*), i8* getelementptr inbounds ([26 x i8], [26 x i8]* @_ZTSN5adept15array_exceptionE, i32 0, i32 0), i8* bitcast ({ i8*, i8*, i8* }* @_ZTIN5adept9exceptionE to i8*) }, comdat, align 8
@_ZTIN5adept17invalid_operationE = linkonce_odr dso_local constant { i8*, i8*, i8* } { i8* bitcast (i8** getelementptr inbounds (i8*, i8** @_ZTVN10__cxxabiv120__si_class_type_infoE, i64 2) to i8*), i8* getelementptr inbounds ([28 x i8], [28 x i8]* @_ZTSN5adept17invalid_operationE, i32 0, i32 0), i8* bitcast ({ i8*, i8*, i8* }* @_ZTIN5adept15array_exceptionE to i8*) }, comdat, align 8
@_ZN5adept21_stack_current_threadE = dso_local thread_local global %"class.adept::Stack"* null, align 8
@_ZN5adept28_stack_current_thread_unsafeE = dso_local local_unnamed_addr global %"class.adept::Stack"* null, align 8
@.str.58 = private unnamed_addr constant [78 x i8] c"Attempt to activate an adept::Stack when one is already active in this thread\00", align 1
@_ZTSN5adept20stack_already_activeE = linkonce_odr dso_local constant [31 x i8] c"N5adept20stack_already_activeE\00", comdat, align 1
@_ZTSN5adept18autodiff_exceptionE = linkonce_odr dso_local constant [29 x i8] c"N5adept18autodiff_exceptionE\00", comdat, align 1
@_ZTIN5adept18autodiff_exceptionE = linkonce_odr dso_local constant { i8*, i8*, i8* } { i8* bitcast (i8** getelementptr inbounds (i8*, i8** @_ZTVN10__cxxabiv120__si_class_type_infoE, i64 2) to i8*), i8* getelementptr inbounds ([29 x i8], [29 x i8]* @_ZTSN5adept18autodiff_exceptionE, i32 0, i32 0), i8* bitcast ({ i8*, i8*, i8* }* @_ZTIN5adept9exceptionE to i8*) }, comdat, align 8
@_ZTIN5adept20stack_already_activeE = linkonce_odr dso_local constant { i8*, i8*, i8* } { i8* bitcast (i8** getelementptr inbounds (i8*, i8** @_ZTVN10__cxxabiv120__si_class_type_infoE, i64 2) to i8*), i8* getelementptr inbounds ([31 x i8], [31 x i8]* @_ZTSN5adept20stack_already_activeE, i32 0, i32 0), i8* bitcast ({ i8*, i8*, i8* }* @_ZTIN5adept18autodiff_exceptionE to i8*) }, comdat, align 8
@.str.59 = private unnamed_addr constant [107 x i8] c"Gradients not initialized: at least one call to set_gradient(s) is needed before a forward or reverse pass\00", align 1
@_ZTSN5adept25gradients_not_initializedE = linkonce_odr dso_local constant [36 x i8] c"N5adept25gradients_not_initializedE\00", comdat, align 1
@_ZTIN5adept25gradients_not_initializedE = linkonce_odr dso_local constant { i8*, i8*, i8* } { i8* bitcast (i8** getelementptr inbounds (i8*, i8** @_ZTVN10__cxxabiv120__si_class_type_infoE, i64 2) to i8*), i8* getelementptr inbounds ([36 x i8], [36 x i8]* @_ZTSN5adept25gradients_not_initializedE, i32 0, i32 0), i8* bitcast ({ i8*, i8*, i8* }* @_ZTIN5adept18autodiff_exceptionE to i8*) }, comdat, align 8
@.str.60 = private unnamed_addr constant [5 x i8] c": d[\00", align 1
@.str.61 = private unnamed_addr constant [5 x i8] c"] = \00", align 1
@.str.62 = private unnamed_addr constant [3 x i8] c"0\0A\00", align 1
@.str.63 = private unnamed_addr constant [4 x i8] c" + \00", align 1
@.str.64 = private unnamed_addr constant [4 x i8] c"*d[\00", align 1
@.str.65 = private unnamed_addr constant [2 x i8] c":\00", align 1
@.str.66 = private unnamed_addr constant [26 x i8] c"No gradients initialized\0A\00", align 1
@.str.67 = private unnamed_addr constant [2 x i8] c"-\00", align 1
@.str.68 = private unnamed_addr constant [42 x i8] c"Automatic Differentiation Stack (address \00", align 1
@.str.69 = private unnamed_addr constant [4 x i8] c"):\0A\00", align 1
@.str.70 = private unnamed_addr constant [37 x i8] c"   Currently attached - thread safe\0A\00", align 1
@.str.71 = private unnamed_addr constant [39 x i8] c"   Currently attached - thread unsafe\0A\00", align 1
@.str.72 = private unnamed_addr constant [23 x i8] c"   Currently detached\0A\00", align 1
@.str.73 = private unnamed_addr constant [22 x i8] c"   Recording status:\0A\00", align 1
@.str.74 = private unnamed_addr constant [23 x i8] c"      Recording is ON\0A\00", align 1
@.str.75 = private unnamed_addr constant [27 x i8] c"      Recording is PAUSED\0A\00", align 1
@.str.76 = private unnamed_addr constant [7 x i8] c"      \00", align 1
@.str.77 = private unnamed_addr constant [14 x i8] c" statements (\00", align 1
@.str.78 = private unnamed_addr constant [12 x i8] c" allocated)\00", align 1
@.str.79 = private unnamed_addr constant [6 x i8] c" and \00", align 1
@.str.80 = private unnamed_addr constant [14 x i8] c" operations (\00", align 1
@.str.81 = private unnamed_addr constant [13 x i8] c" allocated)\0A\00", align 1
@.str.82 = private unnamed_addr constant [33 x i8] c" gradients currently registered \00", align 1
@.str.83 = private unnamed_addr constant [16 x i8] c"and a total of \00", align 1
@.str.84 = private unnamed_addr constant [24 x i8] c" needed (current index \00", align 1
@.str.85 = private unnamed_addr constant [3 x i8] c")\0A\00", align 1
@.str.86 = private unnamed_addr constant [33 x i8] c"      Gradient list has no gaps\0A\00", align 1
@.str.87 = private unnamed_addr constant [25 x i8] c"      Gradient list has \00", align 1
@.str.88 = private unnamed_addr constant [8 x i8] c" gaps (\00", align 1
@.str.89 = private unnamed_addr constant [24 x i8] c"   Computation status:\0A\00", align 1
@.str.90 = private unnamed_addr constant [22 x i8] c" gradients assigned (\00", align 1
@.str.91 = private unnamed_addr constant [29 x i8] c"      0 gradients assigned (\00", align 1
@.str.92 = private unnamed_addr constant [22 x i8] c"      Jacobian size: \00", align 1
@.str.93 = private unnamed_addr constant [2 x i8] c"x\00", align 1
@.str.94 = private unnamed_addr constant [27 x i8] c"      Independent indices:\00", align 1
@.str.95 = private unnamed_addr constant [28 x i8] c"\0A      Dependent indices:  \00", align 1
@.str.96 = private unnamed_addr constant [51 x i8] c"      Parallel Jacobian calculation not available\0A\00", align 1
@_ZN5adept8internal26n_storage_objects_created_E = dso_local local_unnamed_addr global i32 0, align 4
@_ZN5adept8internal26n_storage_objects_deleted_E = dso_local local_unnamed_addr global i32 0, align 4
@.str.97 = private unnamed_addr constant [74 x i8] c"Cannot perform matrix-matrix multiplication because compiled without BLAS\00", align 1
@_ZTSN5adept21feature_not_availableE = linkonce_odr dso_local constant [32 x i8] c"N5adept21feature_not_availableE\00", comdat, align 1
@_ZTIN5adept21feature_not_availableE = linkonce_odr dso_local constant { i8*, i8*, i8* } { i8* bitcast (i8** getelementptr inbounds (i8*, i8** @_ZTVN10__cxxabiv120__si_class_type_infoE, i64 2) to i8*), i8* getelementptr inbounds ([32 x i8], [32 x i8]* @_ZTSN5adept21feature_not_availableE, i32 0, i32 0), i8* bitcast ({ i8*, i8*, i8* }* @_ZTIN5adept9exceptionE to i8*) }, comdat, align 8
@.str.98 = private unnamed_addr constant [74 x i8] c"Cannot perform matrix-vector multiplication because compiled without BLAS\00", align 1
@.str.99 = private unnamed_addr constant [84 x i8] c"Cannot perform symmetric matrix-matrix multiplication because compiled without BLAS\00", align 1
@.str.100 = private unnamed_addr constant [84 x i8] c"Cannot perform symmetric matrix-vector multiplication because compiled without BLAS\00", align 1
@.str.101 = private unnamed_addr constant [79 x i8] c"Cannot perform band matrix-vector multiplication because compiled without BLAS\00", align 1
@_ZN5adept3endE = dso_local local_unnamed_addr global %"struct.adept::internal::EndIndex" zeroinitializer, align 1
@_ZN5adept2__E = dso_local local_unnamed_addr global %"class.adept::internal::AllIndex" zeroinitializer, align 1
@.str.102 = private unnamed_addr constant [53 x i8] c"Cannot invert matrix because compiled without LAPACK\00", align 1
@.str.103 = private unnamed_addr constant [80 x i8] c"Dependent or independent variables not identified before a Jacobian computation\00", align 1
@_ZTSN5adept41dependents_or_independents_not_identifiedE = linkonce_odr dso_local constant [52 x i8] c"N5adept41dependents_or_independents_not_identifiedE\00", comdat, align 1
@_ZTIN5adept41dependents_or_independents_not_identifiedE = linkonce_odr dso_local constant { i8*, i8*, i8* } { i8* bitcast (i8** getelementptr inbounds (i8*, i8** @_ZTVN10__cxxabiv120__si_class_type_infoE, i64 2) to i8*), i8* getelementptr inbounds ([52 x i8], [52 x i8]* @_ZTSN5adept41dependents_or_independents_not_identifiedE, i32 0, i32 0), i8* bitcast ({ i8*, i8*, i8* }* @_ZTIN5adept18autodiff_exceptionE to i8*) }, comdat, align 8
@.str.104 = private unnamed_addr constant [6 x i8] c"2.0.6\00", align 1
@.str.105 = private unnamed_addr constant [8 x i8] c"unknown\00", align 1
@.str.106 = private unnamed_addr constant [9 x i8] c" [4.2.1]\00", align 1
@.str.107 = private unnamed_addr constant [15 x i8] c"Adept version \00", align 1
@.str.108 = private unnamed_addr constant [3 x i8] c":\0A\00", align 1
@.str.109 = private unnamed_addr constant [17 x i8] c"  Compiled with \00", align 1
@.str.110 = private unnamed_addr constant [19 x i8] c"  Compiler flags \22\00", align 1
@.str.111 = private unnamed_addr constant [3 x i8] c"\22\0A\00", align 1
@.str.112 = private unnamed_addr constant [41 x i8] c"  Jacobians processed in blocks of size \00", align 1
@.str.113 = private unnamed_addr constant [62 x i8] c"Cannot solve linear equations because compiled without LAPACK\00", align 1
@.str.114 = private unnamed_addr constant [47 x i8] c"linspace(x1,x2,n) with n=1 only valid if x1=x2\00", align 1
@_ZTVSt9bad_alloc = external dso_local unnamed_addr constant { [5 x i8*] }, align 8
@.str.115 = private unnamed_addr constant [28 x i8] c"A misuse of arrays occurred\00", align 1
@_ZTVN5adept17invalid_operationE = linkonce_odr dso_local unnamed_addr constant { [5 x i8*] } { [5 x i8*] [i8* null, i8* bitcast ({ i8*, i8*, i8* }* @_ZTIN5adept17invalid_operationE to i8*), i8* bitcast (void (%"class.adept::exception"*)* @_ZN5adept9exceptionD2Ev to i8*), i8* bitcast (void (%"class.adept::invalid_operation"*)* @_ZN5adept17invalid_operationD0Ev to i8*), i8* bitcast (i8* (%"class.adept::exception"*)* @_ZNK5adept9exception4whatEv to i8*)] }, comdat, align 8
@_ZTVN5adept15array_exceptionE = linkonce_odr dso_local unnamed_addr constant { [5 x i8*] } { [5 x i8*] [i8* null, i8* bitcast ({ i8*, i8*, i8* }* @_ZTIN5adept15array_exceptionE to i8*), i8* bitcast (void (%"class.adept::exception"*)* @_ZN5adept9exceptionD2Ev to i8*), i8* bitcast (void (%"class.adept::array_exception"*)* @_ZN5adept15array_exceptionD0Ev to i8*), i8* bitcast (i8* (%"class.adept::exception"*)* @_ZNK5adept9exception4whatEv to i8*)] }, comdat, align 8
@_ZTVN5adept9exceptionE = linkonce_odr dso_local unnamed_addr constant { [5 x i8*] } { [5 x i8*] [i8* null, i8* bitcast ({ i8*, i8*, i8* }* @_ZTIN5adept9exceptionE to i8*), i8* bitcast (void (%"class.adept::exception"*)* @_ZN5adept9exceptionD2Ev to i8*), i8* bitcast (void (%"class.adept::exception"*)* @_ZN5adept9exceptionD0Ev to i8*), i8* bitcast (i8* (%"class.adept::exception"*)* @_ZNK5adept9exception4whatEv to i8*)] }, comdat, align 8
@_ZTVN5adept20stack_already_activeE = linkonce_odr dso_local unnamed_addr constant { [5 x i8*] } { [5 x i8*] [i8* null, i8* bitcast ({ i8*, i8*, i8* }* @_ZTIN5adept20stack_already_activeE to i8*), i8* bitcast (void (%"class.adept::exception"*)* @_ZN5adept9exceptionD2Ev to i8*), i8* bitcast (void (%"class.adept::stack_already_active"*)* @_ZN5adept20stack_already_activeD0Ev to i8*), i8* bitcast (i8* (%"class.adept::exception"*)* @_ZNK5adept9exception4whatEv to i8*)] }, comdat, align 8
@_ZTVN5adept25gradients_not_initializedE = linkonce_odr dso_local unnamed_addr constant { [5 x i8*] } { [5 x i8*] [i8* null, i8* bitcast ({ i8*, i8*, i8* }* @_ZTIN5adept25gradients_not_initializedE to i8*), i8* bitcast (void (%"class.adept::exception"*)* @_ZN5adept9exceptionD2Ev to i8*), i8* bitcast (void (%"class.adept::gradients_not_initialized"*)* @_ZN5adept25gradients_not_initializedD0Ev to i8*), i8* bitcast (i8* (%"class.adept::exception"*)* @_ZNK5adept9exception4whatEv to i8*)] }, comdat, align 8
@_ZTVN5adept21feature_not_availableE = linkonce_odr dso_local unnamed_addr constant { [5 x i8*] } { [5 x i8*] [i8* null, i8* bitcast ({ i8*, i8*, i8* }* @_ZTIN5adept21feature_not_availableE to i8*), i8* bitcast (void (%"class.adept::exception"*)* @_ZN5adept9exceptionD2Ev to i8*), i8* bitcast (void (%"class.adept::feature_not_available"*)* @_ZN5adept21feature_not_availableD0Ev to i8*), i8* bitcast (i8* (%"class.adept::exception"*)* @_ZNK5adept9exception4whatEv to i8*)] }, comdat, align 8
@_ZTVN5adept41dependents_or_independents_not_identifiedE = linkonce_odr dso_local unnamed_addr constant { [5 x i8*] } { [5 x i8*] [i8* null, i8* bitcast ({ i8*, i8*, i8* }* @_ZTIN5adept41dependents_or_independents_not_identifiedE to i8*), i8* bitcast (void (%"class.adept::exception"*)* @_ZN5adept9exceptionD2Ev to i8*), i8* bitcast (void (%"class.adept::dependents_or_independents_not_identified"*)* @_ZN5adept41dependents_or_independents_not_identifiedD0Ev to i8*), i8* bitcast (i8* (%"class.adept::exception"*)* @_ZNK5adept9exception4whatEv to i8*)] }, comdat, align 8
@.str.116 = private unnamed_addr constant [21 x i8] c"basic_string::append\00", align 1
@.str.117 = private unnamed_addr constant [42 x i8] c"basic_string::_M_construct null not valid\00", align 1
@.str.118 = private unnamed_addr constant [26 x i8] c"vector::_M_realloc_insert\00", align 1
@.str.119 = private unnamed_addr constant [21 x i8] c"basic_string::substr\00", align 1
@.str.120 = private unnamed_addr constant [55 x i8] c"%s: __pos (which is %zu) > this->size() (which is %zu)\00", align 1
@.str.122 = private unnamed_addr constant [26 x i8] c"vector::_M_default_append\00", align 1
@.str.123 = private unnamed_addr constant [49 x i8] c"cannot create std::vector larger than max_size()\00", align 1
@_ZTTNSt7__cxx1118basic_stringstreamIcSt11char_traitsIcESaIcEEE = external unnamed_addr constant [10 x i8*], align 8
@_ZTVNSt7__cxx1115basic_stringbufIcSt11char_traitsIcESaIcEEE = external dso_local unnamed_addr constant { [16 x i8*] }, align 8
@_ZTVSt15basic_streambufIcSt11char_traitsIcEE = external dso_local unnamed_addr constant { [16 x i8*] }, align 8
@.str.125 = private unnamed_addr constant [35 x i8] c"Negative array dimension requested\00", align 1
@.str.126 = private unnamed_addr constant [89 x i8] c"/localhome/mha157/Enzyme/enzyme/build/benchmarks/adept2/src/adept2/include/adept/Array.h\00", align 1
@_ZTSN5adept17invalid_dimensionE = linkonce_odr dso_local constant [28 x i8] c"N5adept17invalid_dimensionE\00", comdat, align 1
@_ZTIN5adept17invalid_dimensionE = linkonce_odr dso_local constant { i8*, i8*, i8* } { i8* bitcast (i8** getelementptr inbounds (i8*, i8** @_ZTVN10__cxxabiv120__si_class_type_infoE, i64 2) to i8*), i8* getelementptr inbounds ([28 x i8], [28 x i8]* @_ZTSN5adept17invalid_dimensionE, i32 0, i32 0), i8* bitcast ({ i8*, i8*, i8* }* @_ZTIN5adept15array_exceptionE to i8*) }, comdat, align 8
@.str.127 = private unnamed_addr constant [58 x i8] c"Attempt to remove more links to a storage object than set\00", align 1
@.str.128 = private unnamed_addr constant [91 x i8] c"/localhome/mha157/Enzyme/enzyme/build/benchmarks/adept2/src/adept2/include/adept/Storage.h\00", align 1
@.str.129 = private unnamed_addr constant [6 x i8] c" (in \00", align 1
@.str.130 = private unnamed_addr constant [2 x i8] c")\00", align 1
@_ZTVN5adept17invalid_dimensionE = linkonce_odr dso_local unnamed_addr constant { [5 x i8*] } { [5 x i8*] [i8* null, i8* bitcast ({ i8*, i8*, i8* }* @_ZTIN5adept17invalid_dimensionE to i8*), i8* bitcast (void (%"class.adept::exception"*)* @_ZN5adept9exceptionD2Ev to i8*), i8* bitcast (void (%"class.adept::invalid_dimension"*)* @_ZN5adept17invalid_dimensionD0Ev to i8*), i8* bitcast (i8* (%"class.adept::exception"*)* @_ZNK5adept9exception4whatEv to i8*)] }, comdat, align 8
@.str.131 = private unnamed_addr constant [99 x i8] c"Gradient index out of range: probably aReal objects have been created after a set_gradient(s) call\00", align 1
@_ZTSN5adept21gradient_out_of_rangeE = linkonce_odr dso_local constant [32 x i8] c"N5adept21gradient_out_of_rangeE\00", comdat, align 1
@_ZTIN5adept21gradient_out_of_rangeE = linkonce_odr dso_local constant { i8*, i8*, i8* } { i8* bitcast (i8** getelementptr inbounds (i8*, i8** @_ZTVN10__cxxabiv120__si_class_type_infoE, i64 2) to i8*), i8* getelementptr inbounds ([32 x i8], [32 x i8]* @_ZTSN5adept21gradient_out_of_rangeE, i32 0, i32 0), i8* bitcast ({ i8*, i8*, i8* }* @_ZTIN5adept18autodiff_exceptionE to i8*) }, comdat, align 8
@_ZTVN5adept21gradient_out_of_rangeE = linkonce_odr dso_local unnamed_addr constant { [5 x i8*] } { [5 x i8*] [i8* null, i8* bitcast ({ i8*, i8*, i8* }* @_ZTIN5adept21gradient_out_of_rangeE to i8*), i8* bitcast (void (%"class.adept::exception"*)* @_ZN5adept9exceptionD2Ev to i8*), i8* bitcast (void (%"class.adept::gradient_out_of_range"*)* @_ZN5adept21gradient_out_of_rangeD0Ev to i8*), i8* bitcast (i8* (%"class.adept::exception"*)* @_ZNK5adept9exception4whatEv to i8*)] }, comdat, align 8
@llvm.global_ctors = appending global [1 x { i32, void ()*, i8* }] [{ i32, void ()*, i8* } { i32 65535, void ()* @_GLOBAL__sub_I_gmm.cpp, i8* null }]
@str = private unnamed_addr constant [14 x i8] c"starting main\00", align 1
@str.1 = private unnamed_addr constant [29 x i8] c"Adept combined 88888888 ooms\00", align 1

@_ZN5adept5StackD1Ev = dso_local unnamed_addr alias void (%"class.adept::Stack"*), void (%"class.adept::Stack"*)* @_ZN5adept5StackD2Ev
@_ZN5adept8internal16StackStorageOrigD1Ev = dso_local unnamed_addr alias void (%"class.adept::internal::StackStorageOrig"*), void (%"class.adept::internal::StackStorageOrig"*)* @_ZN5adept8internal16StackStorageOrigD2Ev

; Function Attrs: uwtable
define dso_local void @_Z8getTestsRSt6vectorINSt7__cxx1112basic_stringIcSt11char_traitsIcESaIcEEESaIS5_EEPKcS5_(%"class.std::vector"* nonnull align 8 dereferenceable(24) %tests, i8* %name, %"class.std::__cxx11::basic_string"* nocapture readonly %indent) local_unnamed_addr #0 personality i8* bitcast (i32 (...)* @__gxx_personality_v0 to i8*) {
entry:
  %__dnew.i.i.i.i.i77 = alloca i64, align 8
  %__dnew.i.i.i.i = alloca i64, align 8
  %__dnew.i.i.i.i.i = alloca i64, align 8
  %path = alloca [1024 x i8], align 16
  %agg.tmp = alloca %"class.std::__cxx11::basic_string", align 8
  %ref.tmp = alloca %"class.std::__cxx11::basic_string", align 8
  %ref.tmp24 = alloca %"class.std::__cxx11::basic_string", align 8
  %ref.tmp30 = alloca %"class.std::__cxx11::basic_string", align 8
  %ref.tmp46 = alloca %"class.std::__cxx11::basic_string", align 8
  %call = tail call %struct.__dirstream* @opendir(i8* %name)
  %tobool.not = icmp eq %struct.__dirstream* %call, null
  br i1 %tobool.not, label %cleanup56, label %while.cond.preheader

while.cond.preheader:                             ; preds = %entry
  %call2166 = call %struct.dirent* @readdir(%struct.__dirstream* nonnull %call)
  %cmp.not167 = icmp eq %struct.dirent* %call2166, null
  br i1 %cmp.not167, label %while.end, label %while.body.lr.ph

while.body.lr.ph:                                 ; preds = %while.cond.preheader
  %0 = bitcast %"class.std::__cxx11::basic_string"* %ref.tmp24 to i8*
  %1 = getelementptr inbounds %"class.std::__cxx11::basic_string", %"class.std::__cxx11::basic_string"* %ref.tmp24, i64 0, i32 2
  %2 = bitcast %"class.std::__cxx11::basic_string"* %ref.tmp24 to %union.anon**
  %3 = bitcast %union.anon* %1 to i8*
  %4 = bitcast i64* %__dnew.i.i.i.i to i8*
  %_M_p.i6.i.i.i.i = getelementptr inbounds %"class.std::__cxx11::basic_string", %"class.std::__cxx11::basic_string"* %ref.tmp24, i64 0, i32 0, i32 0
  %_M_allocated_capacity.i.i.i.i.i = getelementptr inbounds %"class.std::__cxx11::basic_string", %"class.std::__cxx11::basic_string"* %ref.tmp24, i64 0, i32 2, i32 0
  %_M_string_length.i.i.i.i.i.i = getelementptr inbounds %"class.std::__cxx11::basic_string", %"class.std::__cxx11::basic_string"* %ref.tmp24, i64 0, i32 1
  %5 = bitcast %"class.std::__cxx11::basic_string"* %ref.tmp30 to i8*
  %6 = getelementptr inbounds %"class.std::__cxx11::basic_string", %"class.std::__cxx11::basic_string"* %ref.tmp30, i64 0, i32 2
  %7 = bitcast %"class.std::__cxx11::basic_string"* %ref.tmp30 to %union.anon**
  %8 = bitcast %union.anon* %6 to i8*
  %9 = bitcast %union.anon* %6 to i32*
  %_M_string_length.i.i.i.i.i.i60 = getelementptr inbounds %"class.std::__cxx11::basic_string", %"class.std::__cxx11::basic_string"* %ref.tmp30, i64 0, i32 1
  %10 = bitcast %"class.std::__cxx11::basic_string"* %ref.tmp46 to i8*
  %11 = getelementptr inbounds %"class.std::__cxx11::basic_string", %"class.std::__cxx11::basic_string"* %ref.tmp46, i64 0, i32 2
  %12 = bitcast %"class.std::__cxx11::basic_string"* %ref.tmp46 to %union.anon**
  %_M_p.i5.i.i78 = getelementptr inbounds %"class.std::__cxx11::basic_string", %"class.std::__cxx11::basic_string"* %indent, i64 0, i32 0, i32 0
  %_M_string_length.i.i.i79 = getelementptr inbounds %"class.std::__cxx11::basic_string", %"class.std::__cxx11::basic_string"* %indent, i64 0, i32 1
  %13 = bitcast i64* %__dnew.i.i.i.i.i77 to i8*
  %14 = bitcast %union.anon* %11 to i8*
  %_M_p.i6.i.i.i.i.i83 = getelementptr inbounds %"class.std::__cxx11::basic_string", %"class.std::__cxx11::basic_string"* %ref.tmp46, i64 0, i32 0, i32 0
  %_M_allocated_capacity.i.i.i.i.i.i84 = getelementptr inbounds %"class.std::__cxx11::basic_string", %"class.std::__cxx11::basic_string"* %ref.tmp46, i64 0, i32 2, i32 0
  %_M_string_length.i.i.i.i.i.i.i90 = getelementptr inbounds %"class.std::__cxx11::basic_string", %"class.std::__cxx11::basic_string"* %ref.tmp46, i64 0, i32 1
  %_M_finish.i.i = getelementptr inbounds %"class.std::vector", %"class.std::vector"* %tests, i64 0, i32 0, i32 0, i32 0, i32 1
  %_M_end_of_storage.i.i = getelementptr inbounds %"class.std::vector", %"class.std::vector"* %tests, i64 0, i32 0, i32 0, i32 0, i32 2
  %15 = getelementptr inbounds [1024 x i8], [1024 x i8]* %path, i64 0, i64 0
  %16 = bitcast %"class.std::__cxx11::basic_string"* %ref.tmp to i8*
  %17 = getelementptr inbounds %"class.std::__cxx11::basic_string", %"class.std::__cxx11::basic_string"* %ref.tmp, i64 0, i32 2
  %18 = bitcast %"class.std::__cxx11::basic_string"* %ref.tmp to %union.anon**
  %19 = bitcast i64* %__dnew.i.i.i.i.i to i8*
  %20 = bitcast %union.anon* %17 to i8*
  %_M_p.i6.i.i.i.i.i = getelementptr inbounds %"class.std::__cxx11::basic_string", %"class.std::__cxx11::basic_string"* %ref.tmp, i64 0, i32 0, i32 0
  %_M_allocated_capacity.i.i.i.i.i.i = getelementptr inbounds %"class.std::__cxx11::basic_string", %"class.std::__cxx11::basic_string"* %ref.tmp, i64 0, i32 2, i32 0
  %_M_string_length.i.i.i.i.i.i.i = getelementptr inbounds %"class.std::__cxx11::basic_string", %"class.std::__cxx11::basic_string"* %ref.tmp, i64 0, i32 1
  %21 = getelementptr inbounds %"class.std::__cxx11::basic_string", %"class.std::__cxx11::basic_string"* %agg.tmp, i64 0, i32 2
  %22 = bitcast %"class.std::__cxx11::basic_string"* %agg.tmp to %union.anon**
  %_M_p.i11.i.i = getelementptr inbounds %"class.std::__cxx11::basic_string", %"class.std::__cxx11::basic_string"* %agg.tmp, i64 0, i32 0, i32 0
  %_M_allocated_capacity.i.i.i = getelementptr inbounds %"class.std::__cxx11::basic_string", %"class.std::__cxx11::basic_string"* %agg.tmp, i64 0, i32 2, i32 0
  %arraydecay.i.i.i = bitcast %union.anon* %21 to i8*
  %_M_string_length.i.i.i24 = getelementptr inbounds %"class.std::__cxx11::basic_string", %"class.std::__cxx11::basic_string"* %agg.tmp, i64 0, i32 1
  %arrayidx.i.i.i.i.i61 = getelementptr inbounds i8, i8* %8, i64 4
  br label %while.body

while.body:                                       ; preds = %while.body.lr.ph, %while.cond.backedge
  %call2168 = phi %struct.dirent* [ %call2166, %while.body.lr.ph ], [ %call2, %while.cond.backedge ]
  %d_type = getelementptr inbounds %struct.dirent, %struct.dirent* %call2168, i64 0, i32 3
  %23 = load i8, i8* %d_type, align 2, !tbaa !2
  %cmp3 = icmp eq i8 %23, 4
  br i1 %cmp3, label %if.then4, label %if.else

if.then4:                                         ; preds = %while.body
  call void @llvm.lifetime.start.p0i8(i64 1024, i8* nonnull %15) #38
  %arraydecay = getelementptr inbounds %struct.dirent, %struct.dirent* %call2168, i64 0, i32 4, i64 0
  %call5 = call i32 @strcmp(i8* nonnull %arraydecay, i8* nonnull dereferenceable(2) getelementptr inbounds ([2 x i8], [2 x i8]* @.str, i64 0, i64 0)) #39
  %cmp6 = icmp eq i32 %call5, 0
  br i1 %cmp6, label %cleanup, label %lor.lhs.false, !llvm.loop !8

lor.lhs.false:                                    ; preds = %if.then4
  %call9 = call i32 @strcmp(i8* nonnull %arraydecay, i8* nonnull dereferenceable(3) getelementptr inbounds ([3 x i8], [3 x i8]* @.str.1, i64 0, i64 0)) #39
  %cmp10 = icmp eq i32 %call9, 0
  br i1 %cmp10, label %cleanup, label %if.end12, !llvm.loop !8

if.end12:                                         ; preds = %lor.lhs.false
  %call16 = call i32 (i8*, i64, i8*, ...) @snprintf(i8* nonnull %15, i64 1024, i8* getelementptr inbounds ([6 x i8], [6 x i8]* @.str.2, i64 0, i64 0), i8* %name, i8* nonnull %arraydecay) #38
  call void @llvm.lifetime.start.p0i8(i64 32, i8* nonnull %16) #38
  call void @llvm.experimental.noalias.scope.decl(metadata !11)
  store %union.anon* %17, %union.anon** %18, align 8, !tbaa !14, !alias.scope !11
  %24 = load i8*, i8** %_M_p.i5.i.i78, align 8, !tbaa !17, !noalias !11
  %25 = load i64, i64* %_M_string_length.i.i.i79, align 8, !tbaa !19, !noalias !11
  call void @llvm.lifetime.start.p0i8(i64 8, i8* nonnull %19) #38, !noalias !11
  store i64 %25, i64* %__dnew.i.i.i.i.i, align 8, !tbaa !20, !noalias !11
  %cmp3.i.i.i.i.i = icmp ugt i64 %25, 15
  br i1 %cmp3.i.i.i.i.i, label %if.then4.i.i.i.i.i, label %if.end6.i.i.i.i.i

if.then4.i.i.i.i.i:                               ; preds = %if.end12
  %call5.i.i.i4.i.i = call i8* @_ZNSt7__cxx1112basic_stringIcSt11char_traitsIcESaIcEE9_M_createERmm(%"class.std::__cxx11::basic_string"* nonnull dereferenceable(32) %ref.tmp, i64* nonnull align 8 dereferenceable(8) %__dnew.i.i.i.i.i, i64 0)
  store i8* %call5.i.i.i4.i.i, i8** %_M_p.i6.i.i.i.i.i, align 8, !tbaa !17, !alias.scope !11
  %26 = load i64, i64* %__dnew.i.i.i.i.i, align 8, !tbaa !20, !noalias !11
  store i64 %26, i64* %_M_allocated_capacity.i.i.i.i.i.i, align 8, !tbaa !21, !alias.scope !11
  br label %if.end6.i.i.i.i.i

if.end6.i.i.i.i.i:                                ; preds = %if.end12, %if.then4.i.i.i.i.i
  %27 = phi i8* [ %call5.i.i.i4.i.i, %if.then4.i.i.i.i.i ], [ %20, %if.end12 ]
  switch i64 %25, label %if.end.i.i.i.i.i.i.i.i [
    i64 1, label %if.then.i.i.i.i.i.i.i
    i64 0, label %_ZNSt7__cxx1112basic_stringIcSt11char_traitsIcESaIcEEC2ERKS4_.exit.i
  ]

if.then.i.i.i.i.i.i.i:                            ; preds = %if.end6.i.i.i.i.i
  %28 = load i8, i8* %24, align 1, !tbaa !21
  store i8 %28, i8* %27, align 1, !tbaa !21
  br label %_ZNSt7__cxx1112basic_stringIcSt11char_traitsIcESaIcEEC2ERKS4_.exit.i

if.end.i.i.i.i.i.i.i.i:                           ; preds = %if.end6.i.i.i.i.i
  call void @llvm.memcpy.p0i8.p0i8.i64(i8* align 1 %27, i8* align 1 %24, i64 %25, i1 false) #38
  br label %_ZNSt7__cxx1112basic_stringIcSt11char_traitsIcESaIcEEC2ERKS4_.exit.i

_ZNSt7__cxx1112basic_stringIcSt11char_traitsIcESaIcEEC2ERKS4_.exit.i: ; preds = %if.end.i.i.i.i.i.i.i.i, %if.then.i.i.i.i.i.i.i, %if.end6.i.i.i.i.i
  %29 = load i64, i64* %__dnew.i.i.i.i.i, align 8, !tbaa !20, !noalias !11
  store i64 %29, i64* %_M_string_length.i.i.i.i.i.i.i, align 8, !tbaa !19, !alias.scope !11
  %30 = load i8*, i8** %_M_p.i6.i.i.i.i.i, align 8, !tbaa !17, !alias.scope !11
  %arrayidx.i.i.i.i.i.i = getelementptr inbounds i8, i8* %30, i64 %29
  store i8 0, i8* %arrayidx.i.i.i.i.i.i, align 1, !tbaa !21
  call void @llvm.lifetime.end.p0i8(i64 8, i8* nonnull %19) #38, !noalias !11
  %call.i.i.i = call i64 @strlen(i8* nonnull dereferenceable(1) %arraydecay) #38, !noalias !11
  %31 = load i64, i64* %_M_string_length.i.i.i.i.i.i.i, align 8, !tbaa !19, !alias.scope !11
  %sub3.i.i.i = sub i64 4611686018427387903, %31
  %cmp.i.i.i = icmp ult i64 %sub3.i.i.i, %call.i.i.i
  br i1 %cmp.i.i.i, label %if.then.i.i.i, label %_ZNKSt7__cxx1112basic_stringIcSt11char_traitsIcESaIcEE15_M_check_lengthEmmPKc.exit.i.i

if.then.i.i.i:                                    ; preds = %_ZNSt7__cxx1112basic_stringIcSt11char_traitsIcESaIcEEC2ERKS4_.exit.i
  invoke void @_ZSt20__throw_length_errorPKc(i8* getelementptr inbounds ([21 x i8], [21 x i8]* @.str.116, i64 0, i64 0)) #40
          to label %.noexc.i unwind label %lpad.i.loopexit.split-lp

.noexc.i:                                         ; preds = %if.then.i.i.i
  unreachable

_ZNKSt7__cxx1112basic_stringIcSt11char_traitsIcESaIcEE15_M_check_lengthEmmPKc.exit.i.i: ; preds = %_ZNSt7__cxx1112basic_stringIcSt11char_traitsIcESaIcEEC2ERKS4_.exit.i
  %call2.i1.i = invoke nonnull align 8 dereferenceable(32) %"class.std::__cxx11::basic_string"* @_ZNSt7__cxx1112basic_stringIcSt11char_traitsIcESaIcEE9_M_appendEPKcm(%"class.std::__cxx11::basic_string"* nonnull dereferenceable(32) %ref.tmp, i8* nonnull %arraydecay, i64 %call.i.i.i)
          to label %_ZStplIcSt11char_traitsIcESaIcEENSt7__cxx1112basic_stringIT_T0_T1_EERKS8_PKS5_.exit unwind label %lpad.i.loopexit

lpad.i.loopexit:                                  ; preds = %_ZNKSt7__cxx1112basic_stringIcSt11char_traitsIcESaIcEE15_M_check_lengthEmmPKc.exit.i.i
  %lpad.loopexit127 = landingpad { i8*, i32 }
          cleanup
  br label %lpad.i

lpad.i.loopexit.split-lp:                         ; preds = %if.then.i.i.i
  %lpad.loopexit.split-lp128 = landingpad { i8*, i32 }
          cleanup
  br label %lpad.i

lpad.i:                                           ; preds = %lpad.i.loopexit.split-lp, %lpad.i.loopexit
  %lpad.phi129 = phi { i8*, i32 } [ %lpad.loopexit127, %lpad.i.loopexit ], [ %lpad.loopexit.split-lp128, %lpad.i.loopexit.split-lp ]
  %32 = load i8*, i8** %_M_p.i6.i.i.i.i.i, align 8, !tbaa !17, !alias.scope !11
  %cmp.i.i.i.i = icmp eq i8* %32, %20
  br i1 %cmp.i.i.i.i, label %_ZNSt7__cxx1112basic_stringIcSt11char_traitsIcESaIcEED2Ev.exit.i, label %if.then.i.i2.i

if.then.i.i2.i:                                   ; preds = %lpad.i
  call void @_ZdlPv(i8* %32) #38
  br label %_ZNSt7__cxx1112basic_stringIcSt11char_traitsIcESaIcEED2Ev.exit.i

_ZNSt7__cxx1112basic_stringIcSt11char_traitsIcESaIcEED2Ev.exit.i: ; preds = %if.then.i.i2.i, %lpad.i
  resume { i8*, i32 } %lpad.phi129

_ZStplIcSt11char_traitsIcESaIcEENSt7__cxx1112basic_stringIT_T0_T1_EERKS8_PKS5_.exit: ; preds = %_ZNKSt7__cxx1112basic_stringIcSt11char_traitsIcESaIcEE15_M_check_lengthEmmPKc.exit.i.i
  call void @llvm.experimental.noalias.scope.decl(metadata !22)
  %33 = load i64, i64* %_M_string_length.i.i.i.i.i.i.i, align 8, !tbaa !19, !noalias !22
  %cmp.i.i.i22 = icmp eq i64 %33, 4611686018427387903
  br i1 %cmp.i.i.i22, label %if.then.i.i.i23, label %_ZNSt7__cxx1112basic_stringIcSt11char_traitsIcESaIcEE6appendEPKc.exit.i

if.then.i.i.i23:                                  ; preds = %_ZStplIcSt11char_traitsIcESaIcEENSt7__cxx1112basic_stringIT_T0_T1_EERKS8_PKS5_.exit
  invoke void @_ZSt20__throw_length_errorPKc(i8* getelementptr inbounds ([21 x i8], [21 x i8]* @.str.116, i64 0, i64 0)) #40
          to label %.noexc unwind label %lpad.loopexit.split-lp131

.noexc:                                           ; preds = %if.then.i.i.i23
  unreachable

_ZNSt7__cxx1112basic_stringIcSt11char_traitsIcESaIcEE6appendEPKc.exit.i: ; preds = %_ZStplIcSt11char_traitsIcESaIcEENSt7__cxx1112basic_stringIT_T0_T1_EERKS8_PKS5_.exit
  %call2.i.i25 = invoke nonnull align 8 dereferenceable(32) %"class.std::__cxx11::basic_string"* @_ZNSt7__cxx1112basic_stringIcSt11char_traitsIcESaIcEE9_M_appendEPKcm(%"class.std::__cxx11::basic_string"* nonnull dereferenceable(32) %ref.tmp, i8* getelementptr inbounds ([2 x i8], [2 x i8]* @.str.3, i64 0, i64 0), i64 1)
          to label %call2.i.i.noexc unwind label %lpad.loopexit130

call2.i.i.noexc:                                  ; preds = %_ZNSt7__cxx1112basic_stringIcSt11char_traitsIcESaIcEE6appendEPKc.exit.i
  store %union.anon* %21, %union.anon** %22, align 8, !tbaa !14, !alias.scope !22
  %_M_p.i.i13.i.i = getelementptr inbounds %"class.std::__cxx11::basic_string", %"class.std::__cxx11::basic_string"* %call2.i.i25, i64 0, i32 0, i32 0
  %34 = load i8*, i8** %_M_p.i.i13.i.i, align 8, !tbaa !17
  %35 = getelementptr inbounds %"class.std::__cxx11::basic_string", %"class.std::__cxx11::basic_string"* %call2.i.i25, i64 0, i32 2
  %arraydecay.i.i.i.i = bitcast %union.anon* %35 to i8*
  %cmp.i.i1.i = icmp eq i8* %34, %arraydecay.i.i.i.i
  br i1 %cmp.i.i1.i, label %if.then.i.i, label %if.else.i.i

if.then.i.i:                                      ; preds = %call2.i.i.noexc
  call void @llvm.memcpy.p0i8.p0i8.i64(i8* nonnull align 8 dereferenceable(16) %arraydecay.i.i.i, i8* nonnull align 8 dereferenceable(16) %34, i64 16, i1 false) #38
  br label %invoke.cont

if.else.i.i:                                      ; preds = %call2.i.i.noexc
  store i8* %34, i8** %_M_p.i11.i.i, align 8, !tbaa !17, !alias.scope !22
  %_M_allocated_capacity.i.i = getelementptr inbounds %"class.std::__cxx11::basic_string", %"class.std::__cxx11::basic_string"* %call2.i.i25, i64 0, i32 2, i32 0
  %36 = load i64, i64* %_M_allocated_capacity.i.i, align 8, !tbaa !21
  store i64 %36, i64* %_M_allocated_capacity.i.i.i, align 8, !tbaa !21, !alias.scope !22
  br label %invoke.cont

invoke.cont:                                      ; preds = %if.else.i.i, %if.then.i.i
  %_M_string_length.i10.i.i = getelementptr inbounds %"class.std::__cxx11::basic_string", %"class.std::__cxx11::basic_string"* %call2.i.i25, i64 0, i32 1
  %37 = load i64, i64* %_M_string_length.i10.i.i, align 8, !tbaa !19
  store i64 %37, i64* %_M_string_length.i.i.i24, align 8, !tbaa !19, !alias.scope !22
  %38 = bitcast %"class.std::__cxx11::basic_string"* %call2.i.i25 to %union.anon**
  store %union.anon* %35, %union.anon** %38, align 8, !tbaa !17
  store i64 0, i64* %_M_string_length.i10.i.i, align 8, !tbaa !19
  store i8 0, i8* %arraydecay.i.i.i.i, align 8, !tbaa !21
  invoke void @_Z8getTestsRSt6vectorINSt7__cxx1112basic_stringIcSt11char_traitsIcESaIcEEESaIS5_EEPKcS5_(%"class.std::vector"* nonnull align 8 dereferenceable(24) %tests, i8* nonnull %15, %"class.std::__cxx11::basic_string"* nonnull %agg.tmp)
          to label %invoke.cont21 unwind label %lpad20

invoke.cont21:                                    ; preds = %invoke.cont
  %39 = load i8*, i8** %_M_p.i11.i.i, align 8, !tbaa !17
  %cmp.i.i.i31 = icmp eq i8* %39, %arraydecay.i.i.i
  br i1 %cmp.i.i.i31, label %_ZNSt7__cxx1112basic_stringIcSt11char_traitsIcESaIcEED2Ev.exit33, label %if.then.i.i32

if.then.i.i32:                                    ; preds = %invoke.cont21
  call void @_ZdlPv(i8* %39) #38
  br label %_ZNSt7__cxx1112basic_stringIcSt11char_traitsIcESaIcEED2Ev.exit33

_ZNSt7__cxx1112basic_stringIcSt11char_traitsIcESaIcEED2Ev.exit33: ; preds = %invoke.cont21, %if.then.i.i32
  %40 = load i8*, i8** %_M_p.i6.i.i.i.i.i, align 8, !tbaa !17
  %cmp.i.i.i36 = icmp eq i8* %40, %20
  br i1 %cmp.i.i.i36, label %_ZNSt7__cxx1112basic_stringIcSt11char_traitsIcESaIcEED2Ev.exit38, label %if.then.i.i37

if.then.i.i37:                                    ; preds = %_ZNSt7__cxx1112basic_stringIcSt11char_traitsIcESaIcEED2Ev.exit33
  call void @_ZdlPv(i8* %40) #38
  br label %_ZNSt7__cxx1112basic_stringIcSt11char_traitsIcESaIcEED2Ev.exit38

_ZNSt7__cxx1112basic_stringIcSt11char_traitsIcESaIcEED2Ev.exit38: ; preds = %_ZNSt7__cxx1112basic_stringIcSt11char_traitsIcESaIcEED2Ev.exit33, %if.then.i.i37
  call void @llvm.lifetime.end.p0i8(i64 32, i8* nonnull %16) #38
  call void @llvm.lifetime.end.p0i8(i64 1024, i8* nonnull %15) #38
  br label %while.cond.backedge

cleanup:                                          ; preds = %if.then4, %lor.lhs.false
  call void @llvm.lifetime.end.p0i8(i64 1024, i8* nonnull %15) #38
  br label %while.cond.backedge

lpad.loopexit130:                                 ; preds = %_ZNSt7__cxx1112basic_stringIcSt11char_traitsIcESaIcEE6appendEPKc.exit.i
  %lpad.loopexit132 = landingpad { i8*, i32 }
          cleanup
  br label %ehcleanup

lpad.loopexit.split-lp131:                        ; preds = %if.then.i.i.i23
  %lpad.loopexit.split-lp133 = landingpad { i8*, i32 }
          cleanup
  br label %ehcleanup

lpad20:                                           ; preds = %invoke.cont
  %41 = landingpad { i8*, i32 }
          cleanup
  %42 = load i8*, i8** %_M_p.i11.i.i, align 8, !tbaa !17
  %cmp.i.i.i41 = icmp eq i8* %42, %arraydecay.i.i.i
  br i1 %cmp.i.i.i41, label %ehcleanup, label %if.then.i.i42

if.then.i.i42:                                    ; preds = %lpad20
  call void @_ZdlPv(i8* %42) #38
  br label %ehcleanup

ehcleanup:                                        ; preds = %lpad.loopexit130, %lpad.loopexit.split-lp131, %if.then.i.i42, %lpad20
  %.pn17 = phi { i8*, i32 } [ %41, %lpad20 ], [ %41, %if.then.i.i42 ], [ %lpad.loopexit132, %lpad.loopexit130 ], [ %lpad.loopexit.split-lp133, %lpad.loopexit.split-lp131 ]
  %43 = load i8*, i8** %_M_p.i6.i.i.i.i.i, align 8, !tbaa !17
  %cmp.i.i.i46 = icmp eq i8* %43, %20
  br i1 %cmp.i.i.i46, label %_ZNSt7__cxx1112basic_stringIcSt11char_traitsIcESaIcEED2Ev.exit48, label %if.then.i.i47

if.then.i.i47:                                    ; preds = %ehcleanup
  call void @_ZdlPv(i8* %43) #38
  br label %_ZNSt7__cxx1112basic_stringIcSt11char_traitsIcESaIcEED2Ev.exit48

_ZNSt7__cxx1112basic_stringIcSt11char_traitsIcESaIcEED2Ev.exit48: ; preds = %ehcleanup, %if.then.i.i47
  call void @llvm.lifetime.end.p0i8(i64 32, i8* nonnull %16) #38
  call void @llvm.lifetime.end.p0i8(i64 1024, i8* nonnull %15) #38
  br label %ehcleanup57

if.else:                                          ; preds = %while.body
  call void @llvm.lifetime.start.p0i8(i64 32, i8* nonnull %0) #38
  %arraydecay26 = getelementptr inbounds %struct.dirent, %struct.dirent* %call2168, i64 0, i32 4, i64 0
  store %union.anon* %1, %union.anon** %2, align 8, !tbaa !14
  %call.i.i = call i64 @strlen(i8* nonnull dereferenceable(1) %arraydecay26) #38
  call void @llvm.lifetime.start.p0i8(i64 8, i8* nonnull %4) #38
  store i64 %call.i.i, i64* %__dnew.i.i.i.i, align 8, !tbaa !20
  %cmp3.i.i.i.i = icmp ugt i64 %call.i.i, 15
  br i1 %cmp3.i.i.i.i, label %if.then4.i.i.i.i, label %if.end6.i.i.i.i

if.then4.i.i.i.i:                                 ; preds = %if.else
  %call5.i.i.i5.i49 = call i8* @_ZNSt7__cxx1112basic_stringIcSt11char_traitsIcESaIcEE9_M_createERmm(%"class.std::__cxx11::basic_string"* nonnull dereferenceable(32) %ref.tmp24, i64* nonnull align 8 dereferenceable(8) %__dnew.i.i.i.i, i64 0)
  store i8* %call5.i.i.i5.i49, i8** %_M_p.i6.i.i.i.i, align 8, !tbaa !17
  %44 = load i64, i64* %__dnew.i.i.i.i, align 8, !tbaa !20
  store i64 %44, i64* %_M_allocated_capacity.i.i.i.i.i, align 8, !tbaa !21
  br label %if.end6.i.i.i.i

if.end6.i.i.i.i:                                  ; preds = %if.then4.i.i.i.i, %if.else
  %45 = phi i8* [ %call5.i.i.i5.i49, %if.then4.i.i.i.i ], [ %3, %if.else ]
  switch i64 %call.i.i, label %if.end.i.i.i.i.i.i.i [
    i64 1, label %if.then.i.i.i.i.i.i
    i64 0, label %invoke.cont29
  ]

if.then.i.i.i.i.i.i:                              ; preds = %if.end6.i.i.i.i
  %46 = load i8, i8* %arraydecay26, align 1, !tbaa !21
  store i8 %46, i8* %45, align 1, !tbaa !21
  br label %invoke.cont29

if.end.i.i.i.i.i.i.i:                             ; preds = %if.end6.i.i.i.i
  call void @llvm.memcpy.p0i8.p0i8.i64(i8* align 1 %45, i8* nonnull align 1 %arraydecay26, i64 %call.i.i, i1 false) #38
  br label %invoke.cont29

invoke.cont29:                                    ; preds = %if.end.i.i.i.i.i.i.i, %if.then.i.i.i.i.i.i, %if.end6.i.i.i.i
  %47 = load i64, i64* %__dnew.i.i.i.i, align 8, !tbaa !20
  store i64 %47, i64* %_M_string_length.i.i.i.i.i.i, align 8, !tbaa !19
  %48 = load i8*, i8** %_M_p.i6.i.i.i.i, align 8, !tbaa !17
  %arrayidx.i.i.i.i.i = getelementptr inbounds i8, i8* %48, i64 %47
  store i8 0, i8* %arrayidx.i.i.i.i.i, align 1, !tbaa !21
  call void @llvm.lifetime.end.p0i8(i64 8, i8* nonnull %4) #38
  call void @llvm.lifetime.start.p0i8(i64 32, i8* nonnull %5) #38
  store %union.anon* %6, %union.anon** %7, align 8, !tbaa !14
  store i32 1954051118, i32* %9, align 8
  store i64 4, i64* %_M_string_length.i.i.i.i.i.i60, align 8, !tbaa !19
  store i8 0, i8* %arrayidx.i.i.i.i.i61, align 4, !tbaa !21
  %49 = load i64, i64* %_M_string_length.i.i.i.i.i.i, align 8, !tbaa !19
  %cmp.i = icmp ult i64 %49, 4
  br i1 %cmp.i, label %_ZNSt7__cxx1112basic_stringIcSt11char_traitsIcESaIcEED2Ev.exit71, label %for.body.i.i.preheader.i.i

for.body.i.i.preheader.i.i:                       ; preds = %invoke.cont29
  %50 = load i8*, i8** %_M_p.i6.i.i.i.i, align 8, !tbaa !17, !noalias !25
  %add.ptr.i.i.i = getelementptr inbounds i8, i8* %50, i64 %49
  br label %for.body.i.i.i.i

for.body.i.i.i.i:                                 ; preds = %for.body.i.i.i.i, %for.body.i.i.preheader.i.i
  %agg.tmp2.sroa.0.0.i.i.i = phi i8* [ %add.ptr.i.i.i, %for.body.i.i.preheader.i.i ], [ %incdec.ptr.i4.i.i.i.i, %for.body.i.i.i.i ]
  %51 = phi i8* [ %arrayidx.i.i.i.i.i61, %for.body.i.i.preheader.i.i ], [ %incdec.ptr.i6.i.i.i.i, %for.body.i.i.i.i ]
  %incdec.ptr.i6.i.i.i.i = getelementptr inbounds i8, i8* %51, i64 -1
  %52 = load i8, i8* %incdec.ptr.i6.i.i.i.i, align 1, !tbaa !21
  %incdec.ptr.i4.i.i.i.i = getelementptr inbounds i8, i8* %agg.tmp2.sroa.0.0.i.i.i, i64 -1
  %53 = load i8, i8* %incdec.ptr.i4.i.i.i.i, align 1, !tbaa !21
  %cmp.i.i.i.i66 = icmp eq i8 %52, %53
  %cmp.i.i.not.i.i.i.i = icmp ne i8* %incdec.ptr.i6.i.i.i.i, %8
  %54 = and i1 %cmp.i.i.i.i66, %cmp.i.i.not.i.i.i.i
  br i1 %54, label %for.body.i.i.i.i, label %_ZNSt7__cxx1112basic_stringIcSt11char_traitsIcESaIcEED2Ev.exit71, !llvm.loop !28

_ZNSt7__cxx1112basic_stringIcSt11char_traitsIcESaIcEED2Ev.exit71: ; preds = %for.body.i.i.i.i, %invoke.cont29
  %retval.0.i = phi i1 [ false, %invoke.cont29 ], [ %cmp.i.i.i.i66, %for.body.i.i.i.i ]
  %.pre = load i8*, i8** %_M_p.i6.i.i.i.i, align 8, !tbaa !17
  call void @llvm.lifetime.end.p0i8(i64 32, i8* nonnull %5) #38
  %cmp.i.i.i74 = icmp eq i8* %.pre, %3
  br i1 %cmp.i.i.i74, label %_ZNSt7__cxx1112basic_stringIcSt11char_traitsIcESaIcEED2Ev.exit76, label %if.then.i.i75

if.then.i.i75:                                    ; preds = %_ZNSt7__cxx1112basic_stringIcSt11char_traitsIcESaIcEED2Ev.exit71
  call void @_ZdlPv(i8* %.pre) #38
  br label %_ZNSt7__cxx1112basic_stringIcSt11char_traitsIcESaIcEED2Ev.exit76

_ZNSt7__cxx1112basic_stringIcSt11char_traitsIcESaIcEED2Ev.exit76: ; preds = %_ZNSt7__cxx1112basic_stringIcSt11char_traitsIcESaIcEED2Ev.exit71, %if.then.i.i75
  call void @llvm.lifetime.end.p0i8(i64 32, i8* nonnull %0) #38
  br i1 %retval.0.i, label %if.then45, label %while.cond.backedge

if.then45:                                        ; preds = %_ZNSt7__cxx1112basic_stringIcSt11char_traitsIcESaIcEED2Ev.exit76
  call void @llvm.lifetime.start.p0i8(i64 32, i8* nonnull %10) #38
  call void @llvm.experimental.noalias.scope.decl(metadata !29)
  store %union.anon* %11, %union.anon** %12, align 8, !tbaa !14, !alias.scope !29
  %55 = load i8*, i8** %_M_p.i5.i.i78, align 8, !tbaa !17, !noalias !29
  %56 = load i64, i64* %_M_string_length.i.i.i79, align 8, !tbaa !19, !noalias !29
  call void @llvm.lifetime.start.p0i8(i64 8, i8* nonnull %13) #38, !noalias !29
  store i64 %56, i64* %__dnew.i.i.i.i.i77, align 8, !tbaa !20, !noalias !29
  %cmp3.i.i.i.i.i80 = icmp ugt i64 %56, 15
  br i1 %cmp3.i.i.i.i.i80, label %if.then4.i.i.i.i.i85, label %if.end6.i.i.i.i.i86

if.then4.i.i.i.i.i85:                             ; preds = %if.then45
  %call5.i.i.i4.i.i82 = call i8* @_ZNSt7__cxx1112basic_stringIcSt11char_traitsIcESaIcEE9_M_createERmm(%"class.std::__cxx11::basic_string"* nonnull dereferenceable(32) %ref.tmp46, i64* nonnull align 8 dereferenceable(8) %__dnew.i.i.i.i.i77, i64 0)
  store i8* %call5.i.i.i4.i.i82, i8** %_M_p.i6.i.i.i.i.i83, align 8, !tbaa !17, !alias.scope !29
  %57 = load i64, i64* %__dnew.i.i.i.i.i77, align 8, !tbaa !20, !noalias !29
  store i64 %57, i64* %_M_allocated_capacity.i.i.i.i.i.i84, align 8, !tbaa !21, !alias.scope !29
  br label %if.end6.i.i.i.i.i86

if.end6.i.i.i.i.i86:                              ; preds = %if.then45, %if.then4.i.i.i.i.i85
  %58 = phi i8* [ %call5.i.i.i4.i.i82, %if.then4.i.i.i.i.i85 ], [ %14, %if.then45 ]
  switch i64 %56, label %if.end.i.i.i.i.i.i.i.i88 [
    i64 1, label %if.then.i.i.i.i.i.i.i87
    i64 0, label %_ZNSt7__cxx1112basic_stringIcSt11char_traitsIcESaIcEEC2ERKS4_.exit.i95
  ]

if.then.i.i.i.i.i.i.i87:                          ; preds = %if.end6.i.i.i.i.i86
  %59 = load i8, i8* %55, align 1, !tbaa !21
  store i8 %59, i8* %58, align 1, !tbaa !21
  br label %_ZNSt7__cxx1112basic_stringIcSt11char_traitsIcESaIcEEC2ERKS4_.exit.i95

if.end.i.i.i.i.i.i.i.i88:                         ; preds = %if.end6.i.i.i.i.i86
  call void @llvm.memcpy.p0i8.p0i8.i64(i8* align 1 %58, i8* align 1 %55, i64 %56, i1 false) #38
  br label %_ZNSt7__cxx1112basic_stringIcSt11char_traitsIcESaIcEEC2ERKS4_.exit.i95

_ZNSt7__cxx1112basic_stringIcSt11char_traitsIcESaIcEEC2ERKS4_.exit.i95: ; preds = %if.end.i.i.i.i.i.i.i.i88, %if.then.i.i.i.i.i.i.i87, %if.end6.i.i.i.i.i86
  %60 = load i64, i64* %__dnew.i.i.i.i.i77, align 8, !tbaa !20, !noalias !29
  store i64 %60, i64* %_M_string_length.i.i.i.i.i.i.i90, align 8, !tbaa !19, !alias.scope !29
  %61 = load i8*, i8** %_M_p.i6.i.i.i.i.i83, align 8, !tbaa !17, !alias.scope !29
  %arrayidx.i.i.i.i.i.i91 = getelementptr inbounds i8, i8* %61, i64 %60
  store i8 0, i8* %arrayidx.i.i.i.i.i.i91, align 1, !tbaa !21
  call void @llvm.lifetime.end.p0i8(i64 8, i8* nonnull %13) #38, !noalias !29
  %call.i.i.i92 = call i64 @strlen(i8* nonnull dereferenceable(1) %arraydecay26) #38, !noalias !29
  %62 = load i64, i64* %_M_string_length.i.i.i.i.i.i.i90, align 8, !tbaa !19, !alias.scope !29
  %sub3.i.i.i93 = sub i64 4611686018427387903, %62
  %cmp.i.i.i94 = icmp ult i64 %sub3.i.i.i93, %call.i.i.i92
  br i1 %cmp.i.i.i94, label %if.then.i.i.i96, label %_ZNKSt7__cxx1112basic_stringIcSt11char_traitsIcESaIcEE15_M_check_lengthEmmPKc.exit.i.i99

if.then.i.i.i96:                                  ; preds = %_ZNSt7__cxx1112basic_stringIcSt11char_traitsIcESaIcEEC2ERKS4_.exit.i95
  invoke void @_ZSt20__throw_length_errorPKc(i8* getelementptr inbounds ([21 x i8], [21 x i8]* @.str.116, i64 0, i64 0)) #40
          to label %.noexc.i97 unwind label %lpad.i102.loopexit.split-lp

.noexc.i97:                                       ; preds = %if.then.i.i.i96
  unreachable

_ZNKSt7__cxx1112basic_stringIcSt11char_traitsIcESaIcEE15_M_check_lengthEmmPKc.exit.i.i99: ; preds = %_ZNSt7__cxx1112basic_stringIcSt11char_traitsIcESaIcEEC2ERKS4_.exit.i95
  %call2.i1.i98 = invoke nonnull align 8 dereferenceable(32) %"class.std::__cxx11::basic_string"* @_ZNSt7__cxx1112basic_stringIcSt11char_traitsIcESaIcEE9_M_appendEPKcm(%"class.std::__cxx11::basic_string"* nonnull dereferenceable(32) %ref.tmp46, i8* nonnull %arraydecay26, i64 %call.i.i.i92)
          to label %_ZStplIcSt11char_traitsIcESaIcEENSt7__cxx1112basic_stringIT_T0_T1_EERKS8_PKS5_.exit105 unwind label %lpad.i102.loopexit

lpad.i102.loopexit:                               ; preds = %_ZNKSt7__cxx1112basic_stringIcSt11char_traitsIcESaIcEE15_M_check_lengthEmmPKc.exit.i.i99
  %lpad.loopexit = landingpad { i8*, i32 }
          cleanup
  br label %lpad.i102

lpad.i102.loopexit.split-lp:                      ; preds = %if.then.i.i.i96
  %lpad.loopexit.split-lp = landingpad { i8*, i32 }
          cleanup
  br label %lpad.i102

lpad.i102:                                        ; preds = %lpad.i102.loopexit.split-lp, %lpad.i102.loopexit
  %lpad.phi = phi { i8*, i32 } [ %lpad.loopexit, %lpad.i102.loopexit ], [ %lpad.loopexit.split-lp, %lpad.i102.loopexit.split-lp ]
  %63 = load i8*, i8** %_M_p.i6.i.i.i.i.i83, align 8, !tbaa !17, !alias.scope !29
  %cmp.i.i.i.i101 = icmp eq i8* %63, %14
  br i1 %cmp.i.i.i.i101, label %_ZNSt7__cxx1112basic_stringIcSt11char_traitsIcESaIcEED2Ev.exit.i104, label %if.then.i.i2.i103

if.then.i.i2.i103:                                ; preds = %lpad.i102
  call void @_ZdlPv(i8* %63) #38
  br label %_ZNSt7__cxx1112basic_stringIcSt11char_traitsIcESaIcEED2Ev.exit.i104

_ZNSt7__cxx1112basic_stringIcSt11char_traitsIcESaIcEED2Ev.exit.i104: ; preds = %if.then.i.i2.i103, %lpad.i102
  resume { i8*, i32 } %lpad.phi

_ZStplIcSt11char_traitsIcESaIcEENSt7__cxx1112basic_stringIT_T0_T1_EERKS8_PKS5_.exit105: ; preds = %_ZNKSt7__cxx1112basic_stringIcSt11char_traitsIcESaIcEE15_M_check_lengthEmmPKc.exit.i.i99
  %64 = load %"class.std::__cxx11::basic_string"*, %"class.std::__cxx11::basic_string"** %_M_finish.i.i, align 8, !tbaa !32
  %65 = load %"class.std::__cxx11::basic_string"*, %"class.std::__cxx11::basic_string"** %_M_end_of_storage.i.i, align 8, !tbaa !34
  %cmp.not.i.i = icmp eq %"class.std::__cxx11::basic_string"* %64, %65
  br i1 %cmp.not.i.i, label %if.else.i.i110, label %if.then.i.i106

if.then.i.i106:                                   ; preds = %_ZStplIcSt11char_traitsIcESaIcEENSt7__cxx1112basic_stringIT_T0_T1_EERKS8_PKS5_.exit105
  %66 = getelementptr inbounds %"class.std::__cxx11::basic_string", %"class.std::__cxx11::basic_string"* %64, i64 0, i32 2
  %67 = bitcast %"class.std::__cxx11::basic_string"* %64 to %union.anon**
  store %union.anon* %66, %union.anon** %67, align 8, !tbaa !14
  %68 = load i8*, i8** %_M_p.i6.i.i.i.i.i83, align 8, !tbaa !17
  %cmp.i.i.i.i.i.i = icmp eq i8* %68, %14
  br i1 %cmp.i.i.i.i.i.i, label %if.then.i.i.i.i.i, label %if.else.i.i.i.i.i

if.then.i.i.i.i.i:                                ; preds = %if.then.i.i106
  %arraydecay.i.i.i.i.i.i = bitcast %union.anon* %66 to i8*
  call void @llvm.memcpy.p0i8.p0i8.i64(i8* nonnull align 1 dereferenceable(16) %arraydecay.i.i.i.i.i.i, i8* nonnull align 8 dereferenceable(16) %14, i64 16, i1 false) #38
  br label %invoke.cont50.thread

if.else.i.i.i.i.i:                                ; preds = %if.then.i.i106
  %_M_p.i11.i.i.i.i.i = getelementptr inbounds %"class.std::__cxx11::basic_string", %"class.std::__cxx11::basic_string"* %64, i64 0, i32 0, i32 0
  store i8* %68, i8** %_M_p.i11.i.i.i.i.i, align 8, !tbaa !17
  %69 = load i64, i64* %_M_allocated_capacity.i.i.i.i.i.i84, align 8, !tbaa !21
  %_M_allocated_capacity.i.i.i.i.i.i108 = getelementptr inbounds %"class.std::__cxx11::basic_string", %"class.std::__cxx11::basic_string"* %64, i64 0, i32 2, i32 0
  store i64 %69, i64* %_M_allocated_capacity.i.i.i.i.i.i108, align 8, !tbaa !21
  br label %invoke.cont50.thread

invoke.cont50.thread:                             ; preds = %if.then.i.i.i.i.i, %if.else.i.i.i.i.i
  %70 = load i64, i64* %_M_string_length.i.i.i.i.i.i.i90, align 8, !tbaa !19
  %_M_string_length.i.i.i.i.i.i109 = getelementptr inbounds %"class.std::__cxx11::basic_string", %"class.std::__cxx11::basic_string"* %64, i64 0, i32 1
  store i64 %70, i64* %_M_string_length.i.i.i.i.i.i109, align 8, !tbaa !19
  %71 = load %"class.std::__cxx11::basic_string"*, %"class.std::__cxx11::basic_string"** %_M_finish.i.i, align 8, !tbaa !32
  %incdec.ptr.i.i = getelementptr inbounds %"class.std::__cxx11::basic_string", %"class.std::__cxx11::basic_string"* %71, i64 1
  store %"class.std::__cxx11::basic_string"* %incdec.ptr.i.i, %"class.std::__cxx11::basic_string"** %_M_finish.i.i, align 8, !tbaa !32
  br label %_ZNSt7__cxx1112basic_stringIcSt11char_traitsIcESaIcEED2Ev.exit116

if.else.i.i110:                                   ; preds = %_ZStplIcSt11char_traitsIcESaIcEENSt7__cxx1112basic_stringIT_T0_T1_EERKS8_PKS5_.exit105
  invoke void @_ZNSt6vectorINSt7__cxx1112basic_stringIcSt11char_traitsIcESaIcEEESaIS5_EE17_M_realloc_insertIJS5_EEEvN9__gnu_cxx17__normal_iteratorIPS5_S7_EEDpOT_(%"class.std::vector"* nonnull dereferenceable(24) %tests, %"class.std::__cxx11::basic_string"* %64, %"class.std::__cxx11::basic_string"* nonnull align 8 dereferenceable(32) %ref.tmp46)
          to label %invoke.cont50 unwind label %lpad49

invoke.cont50:                                    ; preds = %if.else.i.i110
  %.pre169 = load i8*, i8** %_M_p.i6.i.i.i.i.i83, align 8, !tbaa !17
  %cmp.i.i.i114 = icmp eq i8* %.pre169, %14
  br i1 %cmp.i.i.i114, label %_ZNSt7__cxx1112basic_stringIcSt11char_traitsIcESaIcEED2Ev.exit116, label %if.then.i.i115

if.then.i.i115:                                   ; preds = %invoke.cont50
  call void @_ZdlPv(i8* %.pre169) #38
  br label %_ZNSt7__cxx1112basic_stringIcSt11char_traitsIcESaIcEED2Ev.exit116

_ZNSt7__cxx1112basic_stringIcSt11char_traitsIcESaIcEED2Ev.exit116: ; preds = %invoke.cont50.thread, %invoke.cont50, %if.then.i.i115
  call void @llvm.lifetime.end.p0i8(i64 32, i8* nonnull %10) #38
  br label %while.cond.backedge

lpad49:                                           ; preds = %if.else.i.i110
  %72 = landingpad { i8*, i32 }
          cleanup
  %73 = load i8*, i8** %_M_p.i6.i.i.i.i.i83, align 8, !tbaa !17
  %cmp.i.i.i27 = icmp eq i8* %73, %14
  br i1 %cmp.i.i.i27, label %_ZNSt7__cxx1112basic_stringIcSt11char_traitsIcESaIcEED2Ev.exit, label %if.then.i.i28

if.then.i.i28:                                    ; preds = %lpad49
  call void @_ZdlPv(i8* %73) #38
  br label %_ZNSt7__cxx1112basic_stringIcSt11char_traitsIcESaIcEED2Ev.exit

_ZNSt7__cxx1112basic_stringIcSt11char_traitsIcESaIcEED2Ev.exit: ; preds = %lpad49, %if.then.i.i28
  call void @llvm.lifetime.end.p0i8(i64 32, i8* nonnull %10) #38
  br label %ehcleanup57

while.cond.backedge:                              ; preds = %_ZNSt7__cxx1112basic_stringIcSt11char_traitsIcESaIcEED2Ev.exit116, %_ZNSt7__cxx1112basic_stringIcSt11char_traitsIcESaIcEED2Ev.exit76, %_ZNSt7__cxx1112basic_stringIcSt11char_traitsIcESaIcEED2Ev.exit38, %cleanup
  %call2 = call %struct.dirent* @readdir(%struct.__dirstream* nonnull %call)
  %cmp.not = icmp eq %struct.dirent* %call2, null
  br i1 %cmp.not, label %while.end, label %while.body, !llvm.loop !8

while.end:                                        ; preds = %while.cond.backedge, %while.cond.preheader
  %call55 = call i32 @closedir(%struct.__dirstream* nonnull %call)
  br label %cleanup56

cleanup56:                                        ; preds = %entry, %while.end
  ret void

ehcleanup57:                                      ; preds = %_ZNSt7__cxx1112basic_stringIcSt11char_traitsIcESaIcEED2Ev.exit, %_ZNSt7__cxx1112basic_stringIcSt11char_traitsIcESaIcEED2Ev.exit48
  %.pn17.pn = phi { i8*, i32 } [ %.pn17, %_ZNSt7__cxx1112basic_stringIcSt11char_traitsIcESaIcEED2Ev.exit48 ], [ %72, %_ZNSt7__cxx1112basic_stringIcSt11char_traitsIcESaIcEED2Ev.exit ]
  resume { i8*, i32 } %.pn17.pn
}

; Function Attrs: argmemonly nofree nosync nounwind willreturn
declare void @llvm.lifetime.start.p0i8(i64 immarg, i8* nocapture) #1

; Function Attrs: nofree nounwind
declare dso_local noalias noundef %struct.__dirstream* @opendir(i8* nocapture noundef readonly) local_unnamed_addr #2

declare dso_local %struct.dirent* @readdir(%struct.__dirstream*) local_unnamed_addr #3

; Function Attrs: argmemonly nofree nounwind readonly willreturn
declare dso_local i32 @strcmp(i8* nocapture, i8* nocapture) local_unnamed_addr #4

; Function Attrs: nofree nounwind
declare dso_local noundef i32 @snprintf(i8* noalias nocapture noundef writeonly, i64 noundef, i8* nocapture noundef readonly, ...) local_unnamed_addr #2

declare dso_local i32 @__gxx_personality_v0(...)

; Function Attrs: nounwind uwtable
declare dso_local void @_ZNSt7__cxx1112basic_stringIcSt11char_traitsIcESaIcEED2Ev(%"class.std::__cxx11::basic_string"* nonnull dereferenceable(32)) unnamed_addr #5 align 2

; Function Attrs: argmemonly nofree nosync nounwind willreturn
declare void @llvm.lifetime.end.p0i8(i64 immarg, i8* nocapture) #1

; Function Attrs: nofree nounwind
declare dso_local noundef i32 @closedir(%struct.__dirstream* nocapture noundef) local_unnamed_addr #2

; Function Attrs: nounwind uwtable mustprogress
define dso_local i64 @_Z15find_last_slashRKNSt7__cxx1112basic_stringIcSt11char_traitsIcESaIcEEE(%"class.std::__cxx11::basic_string"* nonnull align 8 dereferenceable(32) %filepath) local_unnamed_addr #6 {
entry:
  %call2.i = tail call i64 @_ZNKSt7__cxx1112basic_stringIcSt11char_traitsIcESaIcEE12find_last_ofEPKcmm(%"class.std::__cxx11::basic_string"* nonnull dereferenceable(32) %filepath, i8* getelementptr inbounds ([3 x i8], [3 x i8]* @.str.5, i64 0, i64 0), i64 -1, i64 2) #38
  ret i64 %call2.i
}

; Function Attrs: uwtable
define dso_local void @_Z20filepath_to_basenameRKNSt7__cxx1112basic_stringIcSt11char_traitsIcESaIcEEE(%"class.std::__cxx11::basic_string"* noalias sret(%"class.std::__cxx11::basic_string") align 8 %agg.result, %"class.std::__cxx11::basic_string"* nonnull align 8 dereferenceable(32) %filepath) local_unnamed_addr #0 personality i8* bitcast (i32 (...)* @__gxx_personality_v0 to i8*) {
entry:
  %__dnew.i.i.i.i.i26 = alloca i64, align 8
  %__dnew.i.i.i.i9 = alloca i64, align 8
  %__dnew.i.i.i.i.i = alloca i64, align 8
  %__dnew.i.i.i.i = alloca i64, align 8
  %filename = alloca %"class.std::__cxx11::basic_string", align 8
  %call2.i.i = tail call i64 @_ZNKSt7__cxx1112basic_stringIcSt11char_traitsIcESaIcEE12find_last_ofEPKcmm(%"class.std::__cxx11::basic_string"* nonnull dereferenceable(32) %filepath, i8* getelementptr inbounds ([3 x i8], [3 x i8]* @.str.5, i64 0, i64 0), i64 -1, i64 2) #38
  %0 = bitcast %"class.std::__cxx11::basic_string"* %filename to i8*
  call void @llvm.lifetime.start.p0i8(i64 32, i8* nonnull %0) #38
  %cmp = icmp eq i64 %call2.i.i, -1
  br i1 %cmp, label %cond.true, label %cond.false

cond.true:                                        ; preds = %entry
  %1 = getelementptr inbounds %"class.std::__cxx11::basic_string", %"class.std::__cxx11::basic_string"* %filename, i64 0, i32 2
  %2 = bitcast %"class.std::__cxx11::basic_string"* %filename to %union.anon**
  store %union.anon* %1, %union.anon** %2, align 8, !tbaa !14
  %_M_p.i5.i = getelementptr inbounds %"class.std::__cxx11::basic_string", %"class.std::__cxx11::basic_string"* %filepath, i64 0, i32 0, i32 0
  %3 = load i8*, i8** %_M_p.i5.i, align 8, !tbaa !17
  %_M_string_length.i.i = getelementptr inbounds %"class.std::__cxx11::basic_string", %"class.std::__cxx11::basic_string"* %filepath, i64 0, i32 1
  %4 = load i64, i64* %_M_string_length.i.i, align 8, !tbaa !19
  %5 = bitcast i64* %__dnew.i.i.i.i to i8*
  call void @llvm.lifetime.start.p0i8(i64 8, i8* nonnull %5) #38
  store i64 %4, i64* %__dnew.i.i.i.i, align 8, !tbaa !20
  %cmp3.i.i.i.i = icmp ugt i64 %4, 15
  br i1 %cmp3.i.i.i.i, label %if.then4.i.i.i.i, label %if.end.if.end6_crit_edge.i.i.i.i

if.end.if.end6_crit_edge.i.i.i.i:                 ; preds = %cond.true
  %6 = bitcast %union.anon* %1 to i8*
  br label %if.end6.i.i.i.i

if.then4.i.i.i.i:                                 ; preds = %cond.true
  %call5.i.i.i4.i = call i8* @_ZNSt7__cxx1112basic_stringIcSt11char_traitsIcESaIcEE9_M_createERmm(%"class.std::__cxx11::basic_string"* nonnull dereferenceable(32) %filename, i64* nonnull align 8 dereferenceable(8) %__dnew.i.i.i.i, i64 0)
  %_M_p.i6.i.i.i.i = getelementptr inbounds %"class.std::__cxx11::basic_string", %"class.std::__cxx11::basic_string"* %filename, i64 0, i32 0, i32 0
  store i8* %call5.i.i.i4.i, i8** %_M_p.i6.i.i.i.i, align 8, !tbaa !17
  %7 = load i64, i64* %__dnew.i.i.i.i, align 8, !tbaa !20
  %_M_allocated_capacity.i.i.i.i.i = getelementptr inbounds %"class.std::__cxx11::basic_string", %"class.std::__cxx11::basic_string"* %filename, i64 0, i32 2, i32 0
  store i64 %7, i64* %_M_allocated_capacity.i.i.i.i.i, align 8, !tbaa !21
  br label %if.end6.i.i.i.i

if.end6.i.i.i.i:                                  ; preds = %if.then4.i.i.i.i, %if.end.if.end6_crit_edge.i.i.i.i
  %8 = phi i8* [ %6, %if.end.if.end6_crit_edge.i.i.i.i ], [ %call5.i.i.i4.i, %if.then4.i.i.i.i ]
  switch i64 %4, label %if.end.i.i.i.i.i.i.i [
    i64 1, label %if.then.i.i.i.i.i.i
    i64 0, label %_ZNSt7__cxx1112basic_stringIcSt11char_traitsIcESaIcEEC2ERKS4_.exit
  ]

if.then.i.i.i.i.i.i:                              ; preds = %if.end6.i.i.i.i
  %9 = load i8, i8* %3, align 1, !tbaa !21
  store i8 %9, i8* %8, align 1, !tbaa !21
  br label %_ZNSt7__cxx1112basic_stringIcSt11char_traitsIcESaIcEEC2ERKS4_.exit

if.end.i.i.i.i.i.i.i:                             ; preds = %if.end6.i.i.i.i
  call void @llvm.memcpy.p0i8.p0i8.i64(i8* align 1 %8, i8* align 1 %3, i64 %4, i1 false) #38
  br label %_ZNSt7__cxx1112basic_stringIcSt11char_traitsIcESaIcEEC2ERKS4_.exit

_ZNSt7__cxx1112basic_stringIcSt11char_traitsIcESaIcEEC2ERKS4_.exit: ; preds = %if.end6.i.i.i.i, %if.then.i.i.i.i.i.i, %if.end.i.i.i.i.i.i.i
  %_M_p.i.i.i.i.i = getelementptr inbounds %"class.std::__cxx11::basic_string", %"class.std::__cxx11::basic_string"* %filename, i64 0, i32 0, i32 0
  %10 = load i64, i64* %__dnew.i.i.i.i, align 8, !tbaa !20
  %_M_string_length.i.i.i.i.i.i = getelementptr inbounds %"class.std::__cxx11::basic_string", %"class.std::__cxx11::basic_string"* %filename, i64 0, i32 1
  store i64 %10, i64* %_M_string_length.i.i.i.i.i.i, align 8, !tbaa !19
  %11 = load i8*, i8** %_M_p.i.i.i.i.i, align 8, !tbaa !17
  %arrayidx.i.i.i.i.i = getelementptr inbounds i8, i8* %11, i64 %10
  store i8 0, i8* %arrayidx.i.i.i.i.i, align 1, !tbaa !21
  call void @llvm.lifetime.end.p0i8(i64 8, i8* nonnull %5) #38
  br label %cond.end

cond.false:                                       ; preds = %entry
  %add = add nuw i64 %call2.i.i, 1
  tail call void @llvm.experimental.noalias.scope.decl(metadata !35)
  %_M_string_length.i.i.i = getelementptr inbounds %"class.std::__cxx11::basic_string", %"class.std::__cxx11::basic_string"* %filepath, i64 0, i32 1
  %12 = load i64, i64* %_M_string_length.i.i.i, align 8, !tbaa !19, !noalias !35
  %cmp.i.i.not = icmp ugt i64 %12, %call2.i.i
  br i1 %cmp.i.i.not, label %invoke.cont4.i.i, label %if.then.i.i

if.then.i.i:                                      ; preds = %cond.false
  tail call void (i8*, ...) @_ZSt24__throw_out_of_range_fmtPKcz(i8* getelementptr inbounds ([55 x i8], [55 x i8]* @.str.120, i64 0, i64 0), i8* getelementptr inbounds ([21 x i8], [21 x i8]* @.str.119, i64 0, i64 0), i64 %add, i64 %12) #40
  unreachable

invoke.cont4.i.i:                                 ; preds = %cond.false
  %13 = getelementptr inbounds %"class.std::__cxx11::basic_string", %"class.std::__cxx11::basic_string"* %filename, i64 0, i32 2
  %14 = bitcast %"class.std::__cxx11::basic_string"* %filename to %union.anon**
  store %union.anon* %13, %union.anon** %14, align 8, !tbaa !14, !alias.scope !35
  %15 = bitcast %union.anon* %13 to i8*
  %_M_p.i11.i.i = getelementptr inbounds %"class.std::__cxx11::basic_string", %"class.std::__cxx11::basic_string"* %filepath, i64 0, i32 0, i32 0
  %16 = load i8*, i8** %_M_p.i11.i.i, align 8, !tbaa !17, !noalias !35
  %add.ptr.i.i = getelementptr inbounds i8, i8* %16, i64 %add
  %sub.i.i.i = sub i64 %12, %add
  %17 = bitcast i64* %__dnew.i.i.i.i.i to i8*
  call void @llvm.lifetime.start.p0i8(i64 8, i8* nonnull %17) #38, !noalias !35
  store i64 %sub.i.i.i, i64* %__dnew.i.i.i.i.i, align 8, !tbaa !20, !noalias !35
  %cmp3.i.i.i.i.i = icmp ugt i64 %sub.i.i.i, 15
  br i1 %cmp3.i.i.i.i.i, label %if.then4.i.i.i.i.i, label %if.end6.i.i.i.i.i

if.then4.i.i.i.i.i:                               ; preds = %invoke.cont4.i.i
  %call5.i.i.i7.i.i = call i8* @_ZNSt7__cxx1112basic_stringIcSt11char_traitsIcESaIcEE9_M_createERmm(%"class.std::__cxx11::basic_string"* nonnull dereferenceable(32) %filename, i64* nonnull align 8 dereferenceable(8) %__dnew.i.i.i.i.i, i64 0)
  %_M_p.i6.i.i.i.i.i = getelementptr inbounds %"class.std::__cxx11::basic_string", %"class.std::__cxx11::basic_string"* %filename, i64 0, i32 0, i32 0
  store i8* %call5.i.i.i7.i.i, i8** %_M_p.i6.i.i.i.i.i, align 8, !tbaa !17, !alias.scope !35
  %18 = load i64, i64* %__dnew.i.i.i.i.i, align 8, !tbaa !20, !noalias !35
  %_M_allocated_capacity.i.i.i.i.i.i = getelementptr inbounds %"class.std::__cxx11::basic_string", %"class.std::__cxx11::basic_string"* %filename, i64 0, i32 2, i32 0
  store i64 %18, i64* %_M_allocated_capacity.i.i.i.i.i.i, align 8, !tbaa !21, !alias.scope !35
  br label %if.end6.i.i.i.i.i

if.end6.i.i.i.i.i:                                ; preds = %if.then4.i.i.i.i.i, %invoke.cont4.i.i
  %19 = phi i8* [ %call5.i.i.i7.i.i, %if.then4.i.i.i.i.i ], [ %15, %invoke.cont4.i.i ]
  switch i64 %sub.i.i.i, label %if.end.i.i.i.i.i.i.i.i [
    i64 1, label %if.then.i.i.i.i.i.i.i
    i64 0, label %_ZNKSt7__cxx1112basic_stringIcSt11char_traitsIcESaIcEE6substrEmm.exit
  ]

if.then.i.i.i.i.i.i.i:                            ; preds = %if.end6.i.i.i.i.i
  %20 = load i8, i8* %add.ptr.i.i, align 1, !tbaa !21
  store i8 %20, i8* %19, align 1, !tbaa !21
  br label %_ZNKSt7__cxx1112basic_stringIcSt11char_traitsIcESaIcEE6substrEmm.exit

if.end.i.i.i.i.i.i.i.i:                           ; preds = %if.end6.i.i.i.i.i
  call void @llvm.memcpy.p0i8.p0i8.i64(i8* align 1 %19, i8* align 1 %add.ptr.i.i, i64 %sub.i.i.i, i1 false) #38
  br label %_ZNKSt7__cxx1112basic_stringIcSt11char_traitsIcESaIcEE6substrEmm.exit

_ZNKSt7__cxx1112basic_stringIcSt11char_traitsIcESaIcEE6substrEmm.exit: ; preds = %if.end6.i.i.i.i.i, %if.then.i.i.i.i.i.i.i, %if.end.i.i.i.i.i.i.i.i
  %_M_p.i.i.i.i.i.i = getelementptr inbounds %"class.std::__cxx11::basic_string", %"class.std::__cxx11::basic_string"* %filename, i64 0, i32 0, i32 0
  %21 = load i64, i64* %__dnew.i.i.i.i.i, align 8, !tbaa !20, !noalias !35
  %_M_string_length.i.i.i.i.i.i.i = getelementptr inbounds %"class.std::__cxx11::basic_string", %"class.std::__cxx11::basic_string"* %filename, i64 0, i32 1
  store i64 %21, i64* %_M_string_length.i.i.i.i.i.i.i, align 8, !tbaa !19, !alias.scope !35
  %22 = load i8*, i8** %_M_p.i.i.i.i.i.i, align 8, !tbaa !17, !alias.scope !35
  %arrayidx.i.i.i.i.i.i = getelementptr inbounds i8, i8* %22, i64 %21
  store i8 0, i8* %arrayidx.i.i.i.i.i.i, align 1, !tbaa !21
  call void @llvm.lifetime.end.p0i8(i64 8, i8* nonnull %17) #38, !noalias !35
  br label %cond.end

cond.end:                                         ; preds = %_ZNKSt7__cxx1112basic_stringIcSt11char_traitsIcESaIcEE6substrEmm.exit, %_ZNSt7__cxx1112basic_stringIcSt11char_traitsIcESaIcEEC2ERKS4_.exit
  %call.i = call i64 @_ZNKSt7__cxx1112basic_stringIcSt11char_traitsIcESaIcEE5rfindEcm(%"class.std::__cxx11::basic_string"* nonnull dereferenceable(32) %filename, i8 signext 46, i64 -1) #38
  %cmp2 = icmp eq i64 %call.i, -1
  br i1 %cmp2, label %cond.true3, label %cond.false4

cond.true3:                                       ; preds = %cond.end
  %23 = getelementptr inbounds %"class.std::__cxx11::basic_string", %"class.std::__cxx11::basic_string"* %agg.result, i64 0, i32 2
  %24 = bitcast %"class.std::__cxx11::basic_string"* %agg.result to %union.anon**
  store %union.anon* %23, %union.anon** %24, align 8, !tbaa !14
  %_M_p.i5.i10 = getelementptr inbounds %"class.std::__cxx11::basic_string", %"class.std::__cxx11::basic_string"* %filename, i64 0, i32 0, i32 0
  %25 = load i8*, i8** %_M_p.i5.i10, align 8, !tbaa !17
  %_M_string_length.i.i11 = getelementptr inbounds %"class.std::__cxx11::basic_string", %"class.std::__cxx11::basic_string"* %filename, i64 0, i32 1
  %26 = load i64, i64* %_M_string_length.i.i11, align 8, !tbaa !19
  %27 = bitcast i64* %__dnew.i.i.i.i9 to i8*
  call void @llvm.lifetime.start.p0i8(i64 8, i8* nonnull %27) #38
  store i64 %26, i64* %__dnew.i.i.i.i9, align 8, !tbaa !20
  %cmp3.i.i.i.i12 = icmp ugt i64 %26, 15
  br i1 %cmp3.i.i.i.i12, label %if.then4.i.i.i.i17, label %if.end.if.end6_crit_edge.i.i.i.i13

if.end.if.end6_crit_edge.i.i.i.i13:               ; preds = %cond.true3
  %28 = bitcast %union.anon* %23 to i8*
  br label %if.end6.i.i.i.i18

if.then4.i.i.i.i17:                               ; preds = %cond.true3
  %call5.i.i.i4.i1424 = invoke i8* @_ZNSt7__cxx1112basic_stringIcSt11char_traitsIcESaIcEE9_M_createERmm(%"class.std::__cxx11::basic_string"* nonnull dereferenceable(32) %agg.result, i64* nonnull align 8 dereferenceable(8) %__dnew.i.i.i.i9, i64 0)
          to label %call5.i.i.i4.i14.noexc unwind label %lpad

call5.i.i.i4.i14.noexc:                           ; preds = %if.then4.i.i.i.i17
  %_M_p.i6.i.i.i.i15 = getelementptr inbounds %"class.std::__cxx11::basic_string", %"class.std::__cxx11::basic_string"* %agg.result, i64 0, i32 0, i32 0
  store i8* %call5.i.i.i4.i1424, i8** %_M_p.i6.i.i.i.i15, align 8, !tbaa !17
  %29 = load i64, i64* %__dnew.i.i.i.i9, align 8, !tbaa !20
  %_M_allocated_capacity.i.i.i.i.i16 = getelementptr inbounds %"class.std::__cxx11::basic_string", %"class.std::__cxx11::basic_string"* %agg.result, i64 0, i32 2, i32 0
  store i64 %29, i64* %_M_allocated_capacity.i.i.i.i.i16, align 8, !tbaa !21
  br label %if.end6.i.i.i.i18

if.end6.i.i.i.i18:                                ; preds = %call5.i.i.i4.i14.noexc, %if.end.if.end6_crit_edge.i.i.i.i13
  %30 = phi i8* [ %28, %if.end.if.end6_crit_edge.i.i.i.i13 ], [ %call5.i.i.i4.i1424, %call5.i.i.i4.i14.noexc ]
  switch i64 %26, label %if.end.i.i.i.i.i.i.i20 [
    i64 1, label %if.then.i.i.i.i.i.i19
    i64 0, label %_ZNSt7__cxx1112basic_stringIcSt11char_traitsIcESaIcEEC2ERKS4_.exit25
  ]

if.then.i.i.i.i.i.i19:                            ; preds = %if.end6.i.i.i.i18
  %31 = load i8, i8* %25, align 1, !tbaa !21
  store i8 %31, i8* %30, align 1, !tbaa !21
  br label %_ZNSt7__cxx1112basic_stringIcSt11char_traitsIcESaIcEEC2ERKS4_.exit25

if.end.i.i.i.i.i.i.i20:                           ; preds = %if.end6.i.i.i.i18
  call void @llvm.memcpy.p0i8.p0i8.i64(i8* align 1 %30, i8* align 1 %25, i64 %26, i1 false) #38
  br label %_ZNSt7__cxx1112basic_stringIcSt11char_traitsIcESaIcEEC2ERKS4_.exit25

_ZNSt7__cxx1112basic_stringIcSt11char_traitsIcESaIcEEC2ERKS4_.exit25: ; preds = %if.end6.i.i.i.i18, %if.then.i.i.i.i.i.i19, %if.end.i.i.i.i.i.i.i20
  %_M_p.i.i.i.i.i21 = getelementptr inbounds %"class.std::__cxx11::basic_string", %"class.std::__cxx11::basic_string"* %agg.result, i64 0, i32 0, i32 0
  %32 = load i64, i64* %__dnew.i.i.i.i9, align 8, !tbaa !20
  %_M_string_length.i.i.i.i.i.i22 = getelementptr inbounds %"class.std::__cxx11::basic_string", %"class.std::__cxx11::basic_string"* %agg.result, i64 0, i32 1
  store i64 %32, i64* %_M_string_length.i.i.i.i.i.i22, align 8, !tbaa !19
  %33 = load i8*, i8** %_M_p.i.i.i.i.i21, align 8, !tbaa !17
  %arrayidx.i.i.i.i.i23 = getelementptr inbounds i8, i8* %33, i64 %32
  store i8 0, i8* %arrayidx.i.i.i.i.i23, align 1, !tbaa !21
  call void @llvm.lifetime.end.p0i8(i64 8, i8* nonnull %27) #38
  br label %nrvo.skipdtor

cond.false4:                                      ; preds = %cond.end
  call void @llvm.experimental.noalias.scope.decl(metadata !38)
  %_M_string_length.i.i.i27 = getelementptr inbounds %"class.std::__cxx11::basic_string", %"class.std::__cxx11::basic_string"* %filename, i64 0, i32 1
  %34 = load i64, i64* %_M_string_length.i.i.i27, align 8, !tbaa !19, !noalias !38
  %35 = getelementptr inbounds %"class.std::__cxx11::basic_string", %"class.std::__cxx11::basic_string"* %agg.result, i64 0, i32 2
  %36 = bitcast %"class.std::__cxx11::basic_string"* %agg.result to %union.anon**
  store %union.anon* %35, %union.anon** %36, align 8, !tbaa !14, !alias.scope !38
  %37 = bitcast %union.anon* %35 to i8*
  %_M_p.i11.i.i28 = getelementptr inbounds %"class.std::__cxx11::basic_string", %"class.std::__cxx11::basic_string"* %filename, i64 0, i32 0, i32 0
  %38 = load i8*, i8** %_M_p.i11.i.i28, align 8, !tbaa !17, !noalias !38
  %cmp.i.i.i = icmp ugt i64 %34, %call.i
  %spec.select.i.i.i = select i1 %cmp.i.i.i, i64 %call.i, i64 %34
  %39 = bitcast i64* %__dnew.i.i.i.i.i26 to i8*
  call void @llvm.lifetime.start.p0i8(i64 8, i8* nonnull %39) #38, !noalias !38
  store i64 %spec.select.i.i.i, i64* %__dnew.i.i.i.i.i26, align 8, !tbaa !20, !noalias !38
  %cmp3.i.i.i.i.i29 = icmp ugt i64 %spec.select.i.i.i, 15
  br i1 %cmp3.i.i.i.i.i29, label %if.then4.i.i.i.i.i34, label %if.end6.i.i.i.i.i35

if.then4.i.i.i.i.i34:                             ; preds = %cond.false4
  %call5.i.i.i7.i.i3141 = invoke i8* @_ZNSt7__cxx1112basic_stringIcSt11char_traitsIcESaIcEE9_M_createERmm(%"class.std::__cxx11::basic_string"* nonnull dereferenceable(32) %agg.result, i64* nonnull align 8 dereferenceable(8) %__dnew.i.i.i.i.i26, i64 0)
          to label %call5.i.i.i7.i.i31.noexc unwind label %lpad

call5.i.i.i7.i.i31.noexc:                         ; preds = %if.then4.i.i.i.i.i34
  %_M_p.i6.i.i.i.i.i32 = getelementptr inbounds %"class.std::__cxx11::basic_string", %"class.std::__cxx11::basic_string"* %agg.result, i64 0, i32 0, i32 0
  store i8* %call5.i.i.i7.i.i3141, i8** %_M_p.i6.i.i.i.i.i32, align 8, !tbaa !17, !alias.scope !38
  %40 = load i64, i64* %__dnew.i.i.i.i.i26, align 8, !tbaa !20, !noalias !38
  %_M_allocated_capacity.i.i.i.i.i.i33 = getelementptr inbounds %"class.std::__cxx11::basic_string", %"class.std::__cxx11::basic_string"* %agg.result, i64 0, i32 2, i32 0
  store i64 %40, i64* %_M_allocated_capacity.i.i.i.i.i.i33, align 8, !tbaa !21, !alias.scope !38
  br label %if.end6.i.i.i.i.i35

if.end6.i.i.i.i.i35:                              ; preds = %call5.i.i.i7.i.i31.noexc, %cond.false4
  %41 = phi i8* [ %call5.i.i.i7.i.i3141, %call5.i.i.i7.i.i31.noexc ], [ %37, %cond.false4 ]
  switch i64 %spec.select.i.i.i, label %if.end.i.i.i.i.i.i.i.i37 [
    i64 1, label %if.then.i.i.i.i.i.i.i36
    i64 0, label %_ZNKSt7__cxx1112basic_stringIcSt11char_traitsIcESaIcEE6substrEmm.exit42
  ]

if.then.i.i.i.i.i.i.i36:                          ; preds = %if.end6.i.i.i.i.i35
  %42 = load i8, i8* %38, align 1, !tbaa !21
  store i8 %42, i8* %41, align 1, !tbaa !21
  br label %_ZNKSt7__cxx1112basic_stringIcSt11char_traitsIcESaIcEE6substrEmm.exit42

if.end.i.i.i.i.i.i.i.i37:                         ; preds = %if.end6.i.i.i.i.i35
  call void @llvm.memcpy.p0i8.p0i8.i64(i8* align 1 %41, i8* align 1 %38, i64 %spec.select.i.i.i, i1 false) #38
  br label %_ZNKSt7__cxx1112basic_stringIcSt11char_traitsIcESaIcEE6substrEmm.exit42

_ZNKSt7__cxx1112basic_stringIcSt11char_traitsIcESaIcEE6substrEmm.exit42: ; preds = %if.end6.i.i.i.i.i35, %if.then.i.i.i.i.i.i.i36, %if.end.i.i.i.i.i.i.i.i37
  %_M_p.i.i.i.i.i.i38 = getelementptr inbounds %"class.std::__cxx11::basic_string", %"class.std::__cxx11::basic_string"* %agg.result, i64 0, i32 0, i32 0
  %43 = load i64, i64* %__dnew.i.i.i.i.i26, align 8, !tbaa !20, !noalias !38
  %_M_string_length.i.i.i.i.i.i.i39 = getelementptr inbounds %"class.std::__cxx11::basic_string", %"class.std::__cxx11::basic_string"* %agg.result, i64 0, i32 1
  store i64 %43, i64* %_M_string_length.i.i.i.i.i.i.i39, align 8, !tbaa !19, !alias.scope !38
  %44 = load i8*, i8** %_M_p.i.i.i.i.i.i38, align 8, !tbaa !17, !alias.scope !38
  %arrayidx.i.i.i.i.i.i40 = getelementptr inbounds i8, i8* %44, i64 %43
  store i8 0, i8* %arrayidx.i.i.i.i.i.i40, align 1, !tbaa !21
  call void @llvm.lifetime.end.p0i8(i64 8, i8* nonnull %39) #38, !noalias !38
  br label %nrvo.skipdtor

lpad:                                             ; preds = %if.then4.i.i.i.i.i34, %if.then4.i.i.i.i17
  %45 = landingpad { i8*, i32 }
          cleanup
  %_M_p.i.i.i.i = getelementptr inbounds %"class.std::__cxx11::basic_string", %"class.std::__cxx11::basic_string"* %filename, i64 0, i32 0, i32 0
  %46 = load i8*, i8** %_M_p.i.i.i.i, align 8, !tbaa !17
  %47 = getelementptr inbounds %"class.std::__cxx11::basic_string", %"class.std::__cxx11::basic_string"* %filename, i64 0, i32 2
  %arraydecay.i.i.i.i = bitcast %union.anon* %47 to i8*
  %cmp.i.i.i43 = icmp eq i8* %46, %arraydecay.i.i.i.i
  br i1 %cmp.i.i.i43, label %_ZNSt7__cxx1112basic_stringIcSt11char_traitsIcESaIcEED2Ev.exit, label %if.then.i.i44

if.then.i.i44:                                    ; preds = %lpad
  call void @_ZdlPv(i8* %46) #38
  br label %_ZNSt7__cxx1112basic_stringIcSt11char_traitsIcESaIcEED2Ev.exit

_ZNSt7__cxx1112basic_stringIcSt11char_traitsIcESaIcEED2Ev.exit: ; preds = %lpad, %if.then.i.i44
  call void @llvm.lifetime.end.p0i8(i64 32, i8* nonnull %0) #38
  resume { i8*, i32 } %45

nrvo.skipdtor:                                    ; preds = %_ZNKSt7__cxx1112basic_stringIcSt11char_traitsIcESaIcEE6substrEmm.exit42, %_ZNSt7__cxx1112basic_stringIcSt11char_traitsIcESaIcEEC2ERKS4_.exit25
  %_M_p.i.i.i.i45 = getelementptr inbounds %"class.std::__cxx11::basic_string", %"class.std::__cxx11::basic_string"* %filename, i64 0, i32 0, i32 0
  %48 = load i8*, i8** %_M_p.i.i.i.i45, align 8, !tbaa !17
  %49 = getelementptr inbounds %"class.std::__cxx11::basic_string", %"class.std::__cxx11::basic_string"* %filename, i64 0, i32 2
  %arraydecay.i.i.i.i46 = bitcast %union.anon* %49 to i8*
  %cmp.i.i.i47 = icmp eq i8* %48, %arraydecay.i.i.i.i46
  br i1 %cmp.i.i.i47, label %_ZNSt7__cxx1112basic_stringIcSt11char_traitsIcESaIcEED2Ev.exit49, label %if.then.i.i48

if.then.i.i48:                                    ; preds = %nrvo.skipdtor
  call void @_ZdlPv(i8* %48) #38
  br label %_ZNSt7__cxx1112basic_stringIcSt11char_traitsIcESaIcEED2Ev.exit49

_ZNSt7__cxx1112basic_stringIcSt11char_traitsIcESaIcEED2Ev.exit49: ; preds = %nrvo.skipdtor, %if.then.i.i48
  call void @llvm.lifetime.end.p0i8(i64 32, i8* nonnull %0) #38
  ret void
}

; Function Attrs: uwtable
define dso_local void @_Z19filepath_to_dirnameRKNSt7__cxx1112basic_stringIcSt11char_traitsIcESaIcEEE(%"class.std::__cxx11::basic_string"* noalias sret(%"class.std::__cxx11::basic_string") align 8 %agg.result, %"class.std::__cxx11::basic_string"* nonnull align 8 dereferenceable(32) %filepath) local_unnamed_addr #0 personality i8* bitcast (i32 (...)* @__gxx_personality_v0 to i8*) {
entry:
  %__dnew.i.i.i.i.i = alloca i64, align 8
  %call2.i.i = tail call i64 @_ZNKSt7__cxx1112basic_stringIcSt11char_traitsIcESaIcEE12find_last_ofEPKcmm(%"class.std::__cxx11::basic_string"* nonnull dereferenceable(32) %filepath, i8* getelementptr inbounds ([3 x i8], [3 x i8]* @.str.5, i64 0, i64 0), i64 -1, i64 2) #38
  %cmp = icmp eq i64 %call2.i.i, -1
  br i1 %cmp, label %cond.true, label %cond.false

cond.true:                                        ; preds = %entry
  %0 = getelementptr inbounds %"class.std::__cxx11::basic_string", %"class.std::__cxx11::basic_string"* %agg.result, i64 0, i32 2
  %1 = bitcast %"class.std::__cxx11::basic_string"* %agg.result to %union.anon**
  store %union.anon* %0, %union.anon** %1, align 8, !tbaa !14
  %2 = bitcast %union.anon* %0 to i16*
  store i16 12078, i16* %2, align 8
  %_M_string_length.i.i.i.i.i.i = getelementptr inbounds %"class.std::__cxx11::basic_string", %"class.std::__cxx11::basic_string"* %agg.result, i64 0, i32 1
  store i64 2, i64* %_M_string_length.i.i.i.i.i.i, align 8, !tbaa !19
  %.cast = bitcast %union.anon* %0 to i8*
  %arrayidx.i.i.i.i.i = getelementptr inbounds i8, i8* %.cast, i64 2
  store i8 0, i8* %arrayidx.i.i.i.i.i, align 2, !tbaa !21
  br label %nrvo.skipdtor

cond.false:                                       ; preds = %entry
  %add = add nuw i64 %call2.i.i, 1
  tail call void @llvm.experimental.noalias.scope.decl(metadata !41)
  %_M_string_length.i.i.i = getelementptr inbounds %"class.std::__cxx11::basic_string", %"class.std::__cxx11::basic_string"* %filepath, i64 0, i32 1
  %3 = load i64, i64* %_M_string_length.i.i.i, align 8, !tbaa !19, !noalias !41
  %4 = getelementptr inbounds %"class.std::__cxx11::basic_string", %"class.std::__cxx11::basic_string"* %agg.result, i64 0, i32 2
  %5 = bitcast %"class.std::__cxx11::basic_string"* %agg.result to %union.anon**
  store %union.anon* %4, %union.anon** %5, align 8, !tbaa !14, !alias.scope !41
  %6 = bitcast %union.anon* %4 to i8*
  %_M_p.i11.i.i = getelementptr inbounds %"class.std::__cxx11::basic_string", %"class.std::__cxx11::basic_string"* %filepath, i64 0, i32 0, i32 0
  %7 = load i8*, i8** %_M_p.i11.i.i, align 8, !tbaa !17, !noalias !41
  %cmp.i.i.i = icmp ugt i64 %3, %add
  %spec.select.i.i.i = select i1 %cmp.i.i.i, i64 %add, i64 %3
  %8 = bitcast i64* %__dnew.i.i.i.i.i to i8*
  call void @llvm.lifetime.start.p0i8(i64 8, i8* nonnull %8) #38, !noalias !41
  store i64 %spec.select.i.i.i, i64* %__dnew.i.i.i.i.i, align 8, !tbaa !20, !noalias !41
  %cmp3.i.i.i.i.i = icmp ugt i64 %spec.select.i.i.i, 15
  br i1 %cmp3.i.i.i.i.i, label %if.then4.i.i.i.i.i, label %if.end6.i.i.i.i.i

if.then4.i.i.i.i.i:                               ; preds = %cond.false
  %call5.i.i.i7.i.i5 = call i8* @_ZNSt7__cxx1112basic_stringIcSt11char_traitsIcESaIcEE9_M_createERmm(%"class.std::__cxx11::basic_string"* nonnull dereferenceable(32) %agg.result, i64* nonnull align 8 dereferenceable(8) %__dnew.i.i.i.i.i, i64 0)
  %_M_p.i6.i.i.i.i.i = getelementptr inbounds %"class.std::__cxx11::basic_string", %"class.std::__cxx11::basic_string"* %agg.result, i64 0, i32 0, i32 0
  store i8* %call5.i.i.i7.i.i5, i8** %_M_p.i6.i.i.i.i.i, align 8, !tbaa !17, !alias.scope !41
  %9 = load i64, i64* %__dnew.i.i.i.i.i, align 8, !tbaa !20, !noalias !41
  %_M_allocated_capacity.i.i.i.i.i.i = getelementptr inbounds %"class.std::__cxx11::basic_string", %"class.std::__cxx11::basic_string"* %agg.result, i64 0, i32 2, i32 0
  store i64 %9, i64* %_M_allocated_capacity.i.i.i.i.i.i, align 8, !tbaa !21, !alias.scope !41
  br label %if.end6.i.i.i.i.i

if.end6.i.i.i.i.i:                                ; preds = %if.then4.i.i.i.i.i, %cond.false
  %10 = phi i8* [ %call5.i.i.i7.i.i5, %if.then4.i.i.i.i.i ], [ %6, %cond.false ]
  switch i64 %spec.select.i.i.i, label %if.end.i.i.i.i.i.i.i.i [
    i64 1, label %if.then.i.i.i.i.i.i.i
    i64 0, label %cond.end
  ]

if.then.i.i.i.i.i.i.i:                            ; preds = %if.end6.i.i.i.i.i
  %11 = load i8, i8* %7, align 1, !tbaa !21
  store i8 %11, i8* %10, align 1, !tbaa !21
  br label %cond.end

if.end.i.i.i.i.i.i.i.i:                           ; preds = %if.end6.i.i.i.i.i
  call void @llvm.memcpy.p0i8.p0i8.i64(i8* align 1 %10, i8* align 1 %7, i64 %spec.select.i.i.i, i1 false) #38
  br label %cond.end

cond.end:                                         ; preds = %if.end.i.i.i.i.i.i.i.i, %if.then.i.i.i.i.i.i.i, %if.end6.i.i.i.i.i
  %_M_p.i.i.i.i.i.i = getelementptr inbounds %"class.std::__cxx11::basic_string", %"class.std::__cxx11::basic_string"* %agg.result, i64 0, i32 0, i32 0
  %12 = load i64, i64* %__dnew.i.i.i.i.i, align 8, !tbaa !20, !noalias !41
  %_M_string_length.i.i.i.i.i.i.i = getelementptr inbounds %"class.std::__cxx11::basic_string", %"class.std::__cxx11::basic_string"* %agg.result, i64 0, i32 1
  store i64 %12, i64* %_M_string_length.i.i.i.i.i.i.i, align 8, !tbaa !19, !alias.scope !41
  %13 = load i8*, i8** %_M_p.i.i.i.i.i.i, align 8, !tbaa !17, !alias.scope !41
  %arrayidx.i.i.i.i.i.i = getelementptr inbounds i8, i8* %13, i64 %12
  store i8 0, i8* %arrayidx.i.i.i.i.i.i, align 1, !tbaa !21
  call void @llvm.lifetime.end.p0i8(i64 8, i8* nonnull %8) #38, !noalias !41
  br label %nrvo.skipdtor

nrvo.skipdtor:                                    ; preds = %cond.end, %cond.true
  ret void
}

declare dso_local void @_ZNSt8ios_base4InitC1Ev(%"class.std::ios_base::Init"* nonnull dereferenceable(1)) unnamed_addr #3

; Function Attrs: nounwind
declare dso_local void @_ZNSt8ios_base4InitD1Ev(%"class.std::ios_base::Init"* nonnull dereferenceable(1)) unnamed_addr #7

; Function Attrs: nofree nounwind
declare dso_local i32 @__cxa_atexit(void (i8*)*, i8*, i8*) local_unnamed_addr #8

; Function Attrs: norecurse nounwind readonly uwtable willreturn mustprogress
define dso_local float @_Z5tdiffP7timevalS0_(%struct.timeval* nocapture readonly %start, %struct.timeval* nocapture readonly %end) local_unnamed_addr #9 {
entry:
  %tv_sec = getelementptr inbounds %struct.timeval, %struct.timeval* %end, i64 0, i32 0
  %0 = load i64, i64* %tv_sec, align 8, !tbaa !44
  %tv_sec1 = getelementptr inbounds %struct.timeval, %struct.timeval* %start, i64 0, i32 0
  %1 = load i64, i64* %tv_sec1, align 8, !tbaa !44
  %sub = sub nsw i64 %0, %1
  %conv = sitofp i64 %sub to double
  %tv_usec = getelementptr inbounds %struct.timeval, %struct.timeval* %end, i64 0, i32 1
  %2 = load i64, i64* %tv_usec, align 8, !tbaa !46
  %tv_usec2 = getelementptr inbounds %struct.timeval, %struct.timeval* %start, i64 0, i32 1
  %3 = load i64, i64* %tv_usec2, align 8, !tbaa !46
  %sub3 = sub nsw i64 %2, %3
  %conv4 = sitofp i64 %sub3 to double
  %mul = fmul fast double %conv4, 0x3EB0C6F7A0B5ED8D
  %add = fadd fast double %mul, %conv
  %conv5 = fptrunc double %add to float
  ret float %conv5
}

; Function Attrs: uwtable mustprogress
define dso_local void @_Z17read_gmm_instanceRKNSt7__cxx1112basic_stringIcSt11char_traitsIcESaIcEEEPiS7_S7_RSt6vectorIdSaIdEESB_SB_SB_R7Wishartb(%"class.std::__cxx11::basic_string"* nocapture nonnull readonly align 8 dereferenceable(32) %fn, i32* %d, i32* %k, i32* %n, %"class.std::vector.3"* nonnull align 8 dereferenceable(24) %alphas, %"class.std::vector.3"* nonnull align 8 dereferenceable(24) %means, %"class.std::vector.3"* nonnull align 8 dereferenceable(24) %icf, %"class.std::vector.3"* nonnull align 8 dereferenceable(24) %x, %struct.Wishart* nonnull align 8 dereferenceable(16) %wishart, i1 zeroext %replicate_point) local_unnamed_addr #10 personality i32 (...)* @__gxx_personality_v0 {
entry:
  %_M_p.i.i = getelementptr inbounds %"class.std::__cxx11::basic_string", %"class.std::__cxx11::basic_string"* %fn, i64 0, i32 0, i32 0
  %0 = load i8*, i8** %_M_p.i.i, align 8, !tbaa !17
  %call1 = tail call %struct._IO_FILE* @fopen(i8* %0, i8* getelementptr inbounds ([2 x i8], [2 x i8]* @.str.7, i64 0, i64 0))
  %tobool.not = icmp eq %struct._IO_FILE* %call1, null
  br i1 %tobool.not, label %if.then, label %if.end

if.then:                                          ; preds = %entry
  %1 = load i8*, i8** %_M_p.i.i, align 8, !tbaa !17
  %call3 = tail call i32 (i8*, ...) @printf(i8* nonnull dereferenceable(1) getelementptr inbounds ([25 x i8], [25 x i8]* @.str.8, i64 0, i64 0), i8* %1)
  tail call void @exit(i32 1) #41
  unreachable

if.end:                                           ; preds = %entry
  %call4 = tail call i32 (%struct._IO_FILE*, i8*, ...) @__isoc99_fscanf(%struct._IO_FILE* nonnull %call1, i8* getelementptr inbounds ([9 x i8], [9 x i8]* @.str.9, i64 0, i64 0), i32* %d, i32* %k, i32* %n)
  %2 = load i32, i32* %d, align 4, !tbaa !47
  %3 = load i32, i32* %k, align 4, !tbaa !47
  %4 = load i32, i32* %n, align 4, !tbaa !47
  %add = add nsw i32 %2, 1
  %mul = mul nsw i32 %add, %2
  %div = sdiv i32 %mul, 2
  %conv = sext i32 %3 to i64
  %_M_finish.i.i102 = getelementptr inbounds %"class.std::vector.3", %"class.std::vector.3"* %alphas, i64 0, i32 0, i32 0, i32 0, i32 1
  %5 = load double*, double** %_M_finish.i.i102, align 8, !tbaa !49
  %_M_start.i.i103 = getelementptr inbounds %"class.std::vector.3", %"class.std::vector.3"* %alphas, i64 0, i32 0, i32 0, i32 0, i32 0
  %6 = load double*, double** %_M_start.i.i103, align 8, !tbaa !51
  %sub.ptr.lhs.cast.i.i104 = ptrtoint double* %5 to i64
  %sub.ptr.rhs.cast.i.i105 = ptrtoint double* %6 to i64
  %sub.ptr.sub.i.i106 = sub i64 %sub.ptr.lhs.cast.i.i104, %sub.ptr.rhs.cast.i.i105
  %sub.ptr.div.i.i107 = ashr exact i64 %sub.ptr.sub.i.i106, 3
  %cmp.i108 = icmp ult i64 %sub.ptr.div.i.i107, %conv
  br i1 %cmp.i108, label %if.then.i110, label %if.else.i115

if.then.i110:                                     ; preds = %if.end
  %sub.i109 = sub nsw i64 %conv, %sub.ptr.div.i.i107
  tail call void @_ZNSt6vectorIdSaIdEE17_M_default_appendEm(%"class.std::vector.3"* nonnull dereferenceable(24) %alphas, i64 %sub.i109)
  br label %_ZNSt6vectorIdSaIdEE6resizeEm.exit117

if.else.i115:                                     ; preds = %if.end
  %cmp4.i111 = icmp ule i64 %sub.ptr.div.i.i107, %conv
  %add.ptr.i112 = getelementptr inbounds double, double* %6, i64 %conv
  %tobool.not.i.i113 = icmp eq double* %5, %add.ptr.i112
  %or.cond.i114 = or i1 %tobool.not.i.i113, %cmp4.i111
  br i1 %or.cond.i114, label %_ZNSt6vectorIdSaIdEE6resizeEm.exit117, label %invoke.cont.i.i116

invoke.cont.i.i116:                               ; preds = %if.else.i115
  store double* %add.ptr.i112, double** %_M_finish.i.i102, align 8, !tbaa !49
  br label %_ZNSt6vectorIdSaIdEE6resizeEm.exit117

_ZNSt6vectorIdSaIdEE6resizeEm.exit117:            ; preds = %if.then.i110, %if.else.i115, %invoke.cont.i.i116
  %mul5 = mul nsw i32 %3, %2
  %conv6 = sext i32 %mul5 to i64
  %_M_finish.i.i118 = getelementptr inbounds %"class.std::vector.3", %"class.std::vector.3"* %means, i64 0, i32 0, i32 0, i32 0, i32 1
  %7 = load double*, double** %_M_finish.i.i118, align 8, !tbaa !49
  %_M_start.i.i119 = getelementptr inbounds %"class.std::vector.3", %"class.std::vector.3"* %means, i64 0, i32 0, i32 0, i32 0, i32 0
  %8 = load double*, double** %_M_start.i.i119, align 8, !tbaa !51
  %sub.ptr.lhs.cast.i.i120 = ptrtoint double* %7 to i64
  %sub.ptr.rhs.cast.i.i121 = ptrtoint double* %8 to i64
  %sub.ptr.sub.i.i122 = sub i64 %sub.ptr.lhs.cast.i.i120, %sub.ptr.rhs.cast.i.i121
  %sub.ptr.div.i.i123 = ashr exact i64 %sub.ptr.sub.i.i122, 3
  %cmp.i124 = icmp ult i64 %sub.ptr.div.i.i123, %conv6
  br i1 %cmp.i124, label %if.then.i126, label %if.else.i131

if.then.i126:                                     ; preds = %_ZNSt6vectorIdSaIdEE6resizeEm.exit117
  %sub.i125 = sub nsw i64 %conv6, %sub.ptr.div.i.i123
  tail call void @_ZNSt6vectorIdSaIdEE17_M_default_appendEm(%"class.std::vector.3"* nonnull dereferenceable(24) %means, i64 %sub.i125)
  br label %_ZNSt6vectorIdSaIdEE6resizeEm.exit133

if.else.i131:                                     ; preds = %_ZNSt6vectorIdSaIdEE6resizeEm.exit117
  %cmp4.i127 = icmp ule i64 %sub.ptr.div.i.i123, %conv6
  %add.ptr.i128 = getelementptr inbounds double, double* %8, i64 %conv6
  %tobool.not.i.i129 = icmp eq double* %7, %add.ptr.i128
  %or.cond.i130 = or i1 %tobool.not.i.i129, %cmp4.i127
  br i1 %or.cond.i130, label %_ZNSt6vectorIdSaIdEE6resizeEm.exit133, label %invoke.cont.i.i132

invoke.cont.i.i132:                               ; preds = %if.else.i131
  store double* %add.ptr.i128, double** %_M_finish.i.i118, align 8, !tbaa !49
  br label %_ZNSt6vectorIdSaIdEE6resizeEm.exit133

_ZNSt6vectorIdSaIdEE6resizeEm.exit133:            ; preds = %if.then.i126, %if.else.i131, %invoke.cont.i.i132
  %mul7 = mul nsw i32 %div, %3
  %conv8 = sext i32 %mul7 to i64
  %_M_finish.i.i86 = getelementptr inbounds %"class.std::vector.3", %"class.std::vector.3"* %icf, i64 0, i32 0, i32 0, i32 0, i32 1
  %9 = load double*, double** %_M_finish.i.i86, align 8, !tbaa !49
  %_M_start.i.i87 = getelementptr inbounds %"class.std::vector.3", %"class.std::vector.3"* %icf, i64 0, i32 0, i32 0, i32 0, i32 0
  %10 = load double*, double** %_M_start.i.i87, align 8, !tbaa !51
  %sub.ptr.lhs.cast.i.i88 = ptrtoint double* %9 to i64
  %sub.ptr.rhs.cast.i.i89 = ptrtoint double* %10 to i64
  %sub.ptr.sub.i.i90 = sub i64 %sub.ptr.lhs.cast.i.i88, %sub.ptr.rhs.cast.i.i89
  %sub.ptr.div.i.i91 = ashr exact i64 %sub.ptr.sub.i.i90, 3
  %cmp.i92 = icmp ult i64 %sub.ptr.div.i.i91, %conv8
  br i1 %cmp.i92, label %if.then.i94, label %if.else.i99

if.then.i94:                                      ; preds = %_ZNSt6vectorIdSaIdEE6resizeEm.exit133
  %sub.i93 = sub nsw i64 %conv8, %sub.ptr.div.i.i91
  tail call void @_ZNSt6vectorIdSaIdEE17_M_default_appendEm(%"class.std::vector.3"* nonnull dereferenceable(24) %icf, i64 %sub.i93)
  br label %_ZNSt6vectorIdSaIdEE6resizeEm.exit101

if.else.i99:                                      ; preds = %_ZNSt6vectorIdSaIdEE6resizeEm.exit133
  %cmp4.i95 = icmp ule i64 %sub.ptr.div.i.i91, %conv8
  %add.ptr.i96 = getelementptr inbounds double, double* %10, i64 %conv8
  %tobool.not.i.i97 = icmp eq double* %9, %add.ptr.i96
  %or.cond.i98 = or i1 %tobool.not.i.i97, %cmp4.i95
  br i1 %or.cond.i98, label %_ZNSt6vectorIdSaIdEE6resizeEm.exit101, label %invoke.cont.i.i100

invoke.cont.i.i100:                               ; preds = %if.else.i99
  store double* %add.ptr.i96, double** %_M_finish.i.i86, align 8, !tbaa !49
  br label %_ZNSt6vectorIdSaIdEE6resizeEm.exit101

_ZNSt6vectorIdSaIdEE6resizeEm.exit101:            ; preds = %if.then.i94, %if.else.i99, %invoke.cont.i.i100
  %mul9 = mul nsw i32 %4, %2
  %conv10 = sext i32 %mul9 to i64
  %_M_finish.i.i = getelementptr inbounds %"class.std::vector.3", %"class.std::vector.3"* %x, i64 0, i32 0, i32 0, i32 0, i32 1
  %11 = load double*, double** %_M_finish.i.i, align 8, !tbaa !49
  %_M_start.i.i = getelementptr inbounds %"class.std::vector.3", %"class.std::vector.3"* %x, i64 0, i32 0, i32 0, i32 0, i32 0
  %12 = load double*, double** %_M_start.i.i, align 8, !tbaa !51
  %sub.ptr.lhs.cast.i.i = ptrtoint double* %11 to i64
  %sub.ptr.rhs.cast.i.i = ptrtoint double* %12 to i64
  %sub.ptr.sub.i.i = sub i64 %sub.ptr.lhs.cast.i.i, %sub.ptr.rhs.cast.i.i
  %sub.ptr.div.i.i = ashr exact i64 %sub.ptr.sub.i.i, 3
  %cmp.i = icmp ult i64 %sub.ptr.div.i.i, %conv10
  br i1 %cmp.i, label %if.then.i, label %if.else.i

if.then.i:                                        ; preds = %_ZNSt6vectorIdSaIdEE6resizeEm.exit101
  %sub.i = sub nsw i64 %conv10, %sub.ptr.div.i.i
  tail call void @_ZNSt6vectorIdSaIdEE17_M_default_appendEm(%"class.std::vector.3"* nonnull dereferenceable(24) %x, i64 %sub.i)
  br label %_ZNSt6vectorIdSaIdEE6resizeEm.exit

if.else.i:                                        ; preds = %_ZNSt6vectorIdSaIdEE6resizeEm.exit101
  %cmp4.i = icmp ule i64 %sub.ptr.div.i.i, %conv10
  %add.ptr.i84 = getelementptr inbounds double, double* %12, i64 %conv10
  %tobool.not.i.i = icmp eq double* %11, %add.ptr.i84
  %or.cond.i = or i1 %tobool.not.i.i, %cmp4.i
  br i1 %or.cond.i, label %_ZNSt6vectorIdSaIdEE6resizeEm.exit, label %invoke.cont.i.i

invoke.cont.i.i:                                  ; preds = %if.else.i
  store double* %add.ptr.i84, double** %_M_finish.i.i, align 8, !tbaa !49
  br label %_ZNSt6vectorIdSaIdEE6resizeEm.exit

_ZNSt6vectorIdSaIdEE6resizeEm.exit:               ; preds = %if.then.i, %if.else.i, %invoke.cont.i.i
  %cmp154 = icmp sgt i32 %3, 0
  br i1 %cmp154, label %for.body.preheader, label %for.cond.cleanup37

for.body.preheader:                               ; preds = %_ZNSt6vectorIdSaIdEE6resizeEm.exit
  %wide.trip.count194 = zext i32 %3 to i64
  br label %for.body

for.cond15.preheader:                             ; preds = %for.body
  br i1 %cmp154, label %for.cond19.preheader.lr.ph, label %for.cond.cleanup37

for.cond19.preheader.lr.ph:                       ; preds = %for.cond15.preheader
  %cmp20149 = icmp sgt i32 %2, 0
  %13 = sext i32 %2 to i64
  %wide.trip.count190 = zext i32 %3 to i64
  %wide.trip.count185 = zext i32 %2 to i64
  br label %for.cond19.preheader

for.body:                                         ; preds = %for.body.preheader, %for.body
  %indvars.iv192 = phi i64 [ 0, %for.body.preheader ], [ %indvars.iv.next193, %for.body ]
  %14 = load double*, double** %_M_start.i.i103, align 8, !tbaa !51
  %add.ptr.i83 = getelementptr inbounds double, double* %14, i64 %indvars.iv192
  %call13 = tail call i32 (%struct._IO_FILE*, i8*, ...) @__isoc99_fscanf(%struct._IO_FILE* nonnull %call1, i8* getelementptr inbounds ([4 x i8], [4 x i8]* @.str.10, i64 0, i64 0), double* nonnull %add.ptr.i83)
  %indvars.iv.next193 = add nuw nsw i64 %indvars.iv192, 1
  %exitcond195.not = icmp eq i64 %indvars.iv.next193, %wide.trip.count194
  br i1 %exitcond195.not, label %for.cond15.preheader, label %for.body, !llvm.loop !52

for.cond19.preheader:                             ; preds = %for.cond19.preheader.lr.ph, %for.cond.cleanup21
  %indvars.iv187 = phi i64 [ 0, %for.cond19.preheader.lr.ph ], [ %indvars.iv.next188, %for.cond.cleanup21 ]
  br i1 %cmp20149, label %for.body22.lr.ph, label %for.cond.cleanup21

for.body22.lr.ph:                                 ; preds = %for.cond19.preheader
  %15 = mul nsw i64 %indvars.iv187, %13
  br label %for.body22

for.cond35.preheader:                             ; preds = %for.cond.cleanup21
  br i1 %cmp154, label %for.cond40.preheader.lr.ph, label %for.cond.cleanup37

for.cond40.preheader.lr.ph:                       ; preds = %for.cond35.preheader
  %cmp41144 = icmp sgt i32 %mul, 1
  %16 = sext i32 %div to i64
  %wide.trip.count180 = zext i32 %3 to i64
  %wide.trip.count175 = zext i32 %div to i64
  br label %for.cond40.preheader

for.cond.cleanup21:                               ; preds = %for.body22, %for.cond19.preheader
  %indvars.iv.next188 = add nuw nsw i64 %indvars.iv187, 1
  %exitcond191.not = icmp eq i64 %indvars.iv.next188, %wide.trip.count190
  br i1 %exitcond191.not, label %for.cond35.preheader, label %for.cond19.preheader, !llvm.loop !53

for.body22:                                       ; preds = %for.body22.lr.ph, %for.body22
  %indvars.iv182 = phi i64 [ 0, %for.body22.lr.ph ], [ %indvars.iv.next183, %for.body22 ]
  %17 = add nsw i64 %indvars.iv182, %15
  %18 = load double*, double** %_M_start.i.i119, align 8, !tbaa !51
  %add.ptr.i81 = getelementptr inbounds double, double* %18, i64 %17
  %call27 = tail call i32 (%struct._IO_FILE*, i8*, ...) @__isoc99_fscanf(%struct._IO_FILE* nonnull %call1, i8* getelementptr inbounds ([4 x i8], [4 x i8]* @.str.10, i64 0, i64 0), double* nonnull %add.ptr.i81)
  %indvars.iv.next183 = add nuw nsw i64 %indvars.iv182, 1
  %exitcond186.not = icmp eq i64 %indvars.iv.next183, %wide.trip.count185
  br i1 %exitcond186.not, label %for.cond.cleanup21, label %for.body22, !llvm.loop !54

for.cond40.preheader:                             ; preds = %for.cond40.preheader.lr.ph, %for.cond.cleanup42
  %indvars.iv177 = phi i64 [ 0, %for.cond40.preheader.lr.ph ], [ %indvars.iv.next178, %for.cond.cleanup42 ]
  br i1 %cmp41144, label %for.body43.lr.ph, label %for.cond.cleanup42

for.body43.lr.ph:                                 ; preds = %for.cond40.preheader
  %19 = mul nsw i64 %indvars.iv177, %16
  br label %for.body43

for.cond.cleanup37:                               ; preds = %for.cond.cleanup42, %_ZNSt6vectorIdSaIdEE6resizeEm.exit, %for.cond15.preheader, %for.cond35.preheader
  br i1 %replicate_point, label %for.cond58.preheader, label %for.cond83.preheader

for.cond83.preheader:                             ; preds = %for.cond.cleanup37
  %cmp84141 = icmp sgt i32 %4, 0
  br i1 %cmp84141, label %for.cond88.preheader.lr.ph, label %if.end103

for.cond88.preheader.lr.ph:                       ; preds = %for.cond83.preheader
  %cmp89139 = icmp sgt i32 %2, 0
  %20 = sext i32 %2 to i64
  %wide.trip.count170 = zext i32 %4 to i64
  %wide.trip.count165 = zext i32 %2 to i64
  br label %for.cond88.preheader

for.cond58.preheader:                             ; preds = %for.cond.cleanup37
  %cmp59137 = icmp sgt i32 %2, 0
  br i1 %cmp59137, label %for.body61.preheader, label %for.cond69.preheader

for.body61.preheader:                             ; preds = %for.cond58.preheader
  %wide.trip.count160 = zext i32 %2 to i64
  br label %for.body61

for.cond.cleanup42:                               ; preds = %for.body43, %for.cond40.preheader
  %indvars.iv.next178 = add nuw nsw i64 %indvars.iv177, 1
  %exitcond181.not = icmp eq i64 %indvars.iv.next178, %wide.trip.count180
  br i1 %exitcond181.not, label %for.cond.cleanup37, label %for.cond40.preheader, !llvm.loop !55

for.body43:                                       ; preds = %for.body43.lr.ph, %for.body43
  %indvars.iv172 = phi i64 [ 0, %for.body43.lr.ph ], [ %indvars.iv.next173, %for.body43 ]
  %21 = add nsw i64 %indvars.iv172, %19
  %22 = load double*, double** %_M_start.i.i87, align 8, !tbaa !51
  %add.ptr.i79 = getelementptr inbounds double, double* %22, i64 %21
  %call48 = tail call i32 (%struct._IO_FILE*, i8*, ...) @__isoc99_fscanf(%struct._IO_FILE* nonnull %call1, i8* getelementptr inbounds ([4 x i8], [4 x i8]* @.str.10, i64 0, i64 0), double* nonnull %add.ptr.i79)
  %indvars.iv.next173 = add nuw nsw i64 %indvars.iv172, 1
  %exitcond176.not = icmp eq i64 %indvars.iv.next173, %wide.trip.count175
  br i1 %exitcond176.not, label %for.cond.cleanup42, label %for.body43, !llvm.loop !56

for.cond69.preheader:                             ; preds = %for.body61, %for.cond58.preheader
  %cmp70135 = icmp sgt i32 %4, 0
  br i1 %cmp70135, label %for.body72.lr.ph, label %if.end103

for.body72.lr.ph:                                 ; preds = %for.cond69.preheader
  %conv77 = sext i32 %2 to i64
  %mul78 = shl nsw i64 %conv77, 3
  %wide.trip.count = zext i32 %4 to i64
  br label %for.body72

for.body61:                                       ; preds = %for.body61.preheader, %for.body61
  %indvars.iv158 = phi i64 [ 0, %for.body61.preheader ], [ %indvars.iv.next159, %for.body61 ]
  %23 = load double*, double** %_M_start.i.i, align 8, !tbaa !51
  %add.ptr.i77 = getelementptr inbounds double, double* %23, i64 %indvars.iv158
  %call64 = tail call i32 (%struct._IO_FILE*, i8*, ...) @__isoc99_fscanf(%struct._IO_FILE* nonnull %call1, i8* getelementptr inbounds ([4 x i8], [4 x i8]* @.str.10, i64 0, i64 0), double* nonnull %add.ptr.i77)
  %indvars.iv.next159 = add nuw nsw i64 %indvars.iv158, 1
  %exitcond161.not = icmp eq i64 %indvars.iv.next159, %wide.trip.count160
  br i1 %exitcond161.not, label %for.cond69.preheader, label %for.body61, !llvm.loop !57

for.body72:                                       ; preds = %for.body72.lr.ph, %for.body72
  %indvars.iv = phi i64 [ 0, %for.body72.lr.ph ], [ %indvars.iv.next, %for.body72 ]
  %24 = mul nsw i64 %indvars.iv, %conv77
  %25 = load double*, double** %_M_start.i.i, align 8, !tbaa !51
  %add.ptr.i75 = getelementptr inbounds double, double* %25, i64 %24
  %26 = bitcast double* %add.ptr.i75 to i8*
  %27 = bitcast double* %25 to i8*
  tail call void @llvm.memcpy.p0i8.p0i8.i64(i8* nonnull align 8 %26, i8* nonnull align 8 %27, i64 %mul78, i1 false)
  %indvars.iv.next = add nuw nsw i64 %indvars.iv, 1
  %exitcond.not = icmp eq i64 %indvars.iv.next, %wide.trip.count
  br i1 %exitcond.not, label %if.end103, label %for.body72, !llvm.loop !58

for.cond88.preheader:                             ; preds = %for.cond88.preheader.lr.ph, %for.cond.cleanup90
  %indvars.iv167 = phi i64 [ 0, %for.cond88.preheader.lr.ph ], [ %indvars.iv.next168, %for.cond.cleanup90 ]
  br i1 %cmp89139, label %for.body91.lr.ph, label %for.cond.cleanup90

for.body91.lr.ph:                                 ; preds = %for.cond88.preheader
  %28 = mul nsw i64 %indvars.iv167, %20
  br label %for.body91

for.cond.cleanup90:                               ; preds = %for.body91, %for.cond88.preheader
  %indvars.iv.next168 = add nuw nsw i64 %indvars.iv167, 1
  %exitcond171.not = icmp eq i64 %indvars.iv.next168, %wide.trip.count170
  br i1 %exitcond171.not, label %if.end103, label %for.cond88.preheader, !llvm.loop !59

for.body91:                                       ; preds = %for.body91.lr.ph, %for.body91
  %indvars.iv162 = phi i64 [ 0, %for.body91.lr.ph ], [ %indvars.iv.next163, %for.body91 ]
  %29 = add nsw i64 %indvars.iv162, %28
  %30 = load double*, double** %_M_start.i.i, align 8, !tbaa !51
  %add.ptr.i = getelementptr inbounds double, double* %30, i64 %29
  %call96 = tail call i32 (%struct._IO_FILE*, i8*, ...) @__isoc99_fscanf(%struct._IO_FILE* nonnull %call1, i8* getelementptr inbounds ([4 x i8], [4 x i8]* @.str.10, i64 0, i64 0), double* nonnull %add.ptr.i)
  %indvars.iv.next163 = add nuw nsw i64 %indvars.iv162, 1
  %exitcond166.not = icmp eq i64 %indvars.iv.next163, %wide.trip.count165
  br i1 %exitcond166.not, label %for.cond.cleanup90, label %for.body91, !llvm.loop !60

if.end103:                                        ; preds = %for.cond.cleanup90, %for.body72, %for.cond83.preheader, %for.cond69.preheader
  %gamma = getelementptr inbounds %struct.Wishart, %struct.Wishart* %wishart, i64 0, i32 0
  %m = getelementptr inbounds %struct.Wishart, %struct.Wishart* %wishart, i64 0, i32 1
  %call104 = tail call i32 (%struct._IO_FILE*, i8*, ...) @__isoc99_fscanf(%struct._IO_FILE* nonnull %call1, i8* getelementptr inbounds ([7 x i8], [7 x i8]* @.str.11, i64 0, i64 0), double* nonnull %gamma, i32* nonnull %m)
  %call105 = tail call i32 @fclose(%struct._IO_FILE* nonnull %call1)
  ret void
}

; Function Attrs: nofree nounwind
declare dso_local noalias noundef %struct._IO_FILE* @fopen(i8* nocapture noundef readonly, i8* nocapture noundef readonly) local_unnamed_addr #2

; Function Attrs: nofree nounwind
declare dso_local noundef i32 @printf(i8* nocapture noundef readonly, ...) local_unnamed_addr #2

; Function Attrs: noreturn nounwind
declare dso_local void @exit(i32) local_unnamed_addr #11

declare dso_local i32 @__isoc99_fscanf(%struct._IO_FILE*, i8*, ...) local_unnamed_addr #3

; Function Attrs: argmemonly nofree nosync nounwind willreturn
declare void @llvm.memcpy.p0i8.p0i8.i64(i8* noalias nocapture writeonly, i8* noalias nocapture readonly, i64, i1 immarg) #1

; Function Attrs: nofree nounwind
declare dso_local noundef i32 @fclose(%struct._IO_FILE* nocapture noundef) local_unnamed_addr #2

; Function Attrs: norecurse uwtable
define dso_local i32 @main(i32 %argc, i8** nocapture readonly %argv) local_unnamed_addr #12 personality i8* bitcast (i32 (...)* @__gxx_personality_v0 to i8*) {
entry:
  %errb.i418 = alloca double, align 8
  %errb.i = alloca double, align 8
  %__dnew.i.i.i.i196 = alloca i64, align 8
  %__dnew.i.i.i.i = alloca i64, align 8
  %ref.tmp = alloca %"class.std::__cxx11::basic_string", align 8
  %paths = alloca %"class.std::vector", align 8
  %agg.tmp = alloca %"class.std::__cxx11::basic_string", align 8
  %agg.tmp41 = alloca %"class.std::__cxx11::basic_string", align 8
  %agg.tmp50 = alloca %"class.std::__cxx11::basic_string", align 8
  %path = alloca %"class.std::__cxx11::basic_string", align 8
  %input = alloca %struct.GMMInput, align 8
  %ref.tmp83 = alloca %"class.std::__cxx11::basic_string", align 8
  %start = alloca %struct.timeval, align 8
  %end = alloca %struct.timeval, align 8
  %input130 = alloca %struct.GMMInput, align 8
  %ref.tmp131 = alloca %"class.std::__cxx11::basic_string", align 8
  %start166 = alloca %struct.timeval, align 8
  %end167 = alloca %struct.timeval, align 8
  %0 = alloca %"class.std::bad_alloc", align 8
  %input209 = alloca %struct.GMMInput, align 8
  %ref.tmp210 = alloca %"class.std::__cxx11::basic_string", align 8
  %start245 = alloca %struct.timeval, align 8
  %end246 = alloca %struct.timeval, align 8
  %puts = tail call i32 @puts(i8* nonnull dereferenceable(1) getelementptr inbounds ([14 x i8], [14 x i8]* @str, i64 0, i64 0))
  %cmp = icmp sgt i32 %argc, 9
  br i1 %cmp, label %land.rhs, label %cleanup.done26

land.rhs:                                         ; preds = %entry
  %1 = bitcast %"class.std::__cxx11::basic_string"* %ref.tmp to i8*
  call void @llvm.lifetime.start.p0i8(i64 32, i8* nonnull %1) #38
  %arrayidx = getelementptr inbounds i8*, i8** %argv, i64 9
  %2 = load i8*, i8** %arrayidx, align 8, !tbaa !61
  %3 = getelementptr inbounds %"class.std::__cxx11::basic_string", %"class.std::__cxx11::basic_string"* %ref.tmp, i64 0, i32 2
  %4 = bitcast %"class.std::__cxx11::basic_string"* %ref.tmp to %union.anon**
  store %union.anon* %3, %union.anon** %4, align 8, !tbaa !14
  %tobool.not.i = icmp eq i8* %2, null
  br i1 %tobool.not.i, label %if.then.i.i.i.i, label %if.end.i.i.i.i

if.then.i.i.i.i:                                  ; preds = %land.rhs
  call void @_ZSt19__throw_logic_errorPKc(i8* getelementptr inbounds ([42 x i8], [42 x i8]* @.str.117, i64 0, i64 0)) #40
  unreachable

if.end.i.i.i.i:                                   ; preds = %land.rhs
  %5 = bitcast %union.anon* %3 to i8*
  %call.i.i = call i64 @strlen(i8* nonnull dereferenceable(1) %2) #38
  %6 = bitcast i64* %__dnew.i.i.i.i to i8*
  call void @llvm.lifetime.start.p0i8(i64 8, i8* nonnull %6) #38
  store i64 %call.i.i, i64* %__dnew.i.i.i.i, align 8, !tbaa !20
  %cmp3.i.i.i.i = icmp ugt i64 %call.i.i, 15
  br i1 %cmp3.i.i.i.i, label %if.then4.i.i.i.i, label %if.end6.i.i.i.i

if.then4.i.i.i.i:                                 ; preds = %if.end.i.i.i.i
  %call5.i.i.i5.i49 = call i8* @_ZNSt7__cxx1112basic_stringIcSt11char_traitsIcESaIcEE9_M_createERmm(%"class.std::__cxx11::basic_string"* nonnull dereferenceable(32) %ref.tmp, i64* nonnull align 8 dereferenceable(8) %__dnew.i.i.i.i, i64 0)
  %_M_p.i6.i.i.i.i = getelementptr inbounds %"class.std::__cxx11::basic_string", %"class.std::__cxx11::basic_string"* %ref.tmp, i64 0, i32 0, i32 0
  store i8* %call5.i.i.i5.i49, i8** %_M_p.i6.i.i.i.i, align 8, !tbaa !17
  %7 = load i64, i64* %__dnew.i.i.i.i, align 8, !tbaa !20
  %_M_allocated_capacity.i.i.i.i.i = getelementptr inbounds %"class.std::__cxx11::basic_string", %"class.std::__cxx11::basic_string"* %ref.tmp, i64 0, i32 2, i32 0
  store i64 %7, i64* %_M_allocated_capacity.i.i.i.i.i, align 8, !tbaa !21
  br label %if.end6.i.i.i.i

if.end6.i.i.i.i:                                  ; preds = %if.then4.i.i.i.i, %if.end.i.i.i.i
  %8 = phi i8* [ %call5.i.i.i5.i49, %if.then4.i.i.i.i ], [ %5, %if.end.i.i.i.i ]
  switch i64 %call.i.i, label %if.end.i.i.i.i.i.i.i [
    i64 1, label %if.then.i.i.i.i.i.i
    i64 0, label %cleanup.action
  ]

if.then.i.i.i.i.i.i:                              ; preds = %if.end6.i.i.i.i
  %9 = load i8, i8* %2, align 1, !tbaa !21
  store i8 %9, i8* %8, align 1, !tbaa !21
  br label %cleanup.action

if.end.i.i.i.i.i.i.i:                             ; preds = %if.end6.i.i.i.i
  call void @llvm.memcpy.p0i8.p0i8.i64(i8* align 1 %8, i8* nonnull align 1 %2, i64 %call.i.i, i1 false) #38
  br label %cleanup.action

cleanup.action:                                   ; preds = %if.end6.i.i.i.i, %if.then.i.i.i.i.i.i, %if.end.i.i.i.i.i.i.i
  %_M_p.i.i.i.i.i = getelementptr inbounds %"class.std::__cxx11::basic_string", %"class.std::__cxx11::basic_string"* %ref.tmp, i64 0, i32 0, i32 0
  %10 = load i64, i64* %__dnew.i.i.i.i, align 8, !tbaa !20
  %_M_string_length.i.i.i.i.i.i = getelementptr inbounds %"class.std::__cxx11::basic_string", %"class.std::__cxx11::basic_string"* %ref.tmp, i64 0, i32 1
  store i64 %10, i64* %_M_string_length.i.i.i.i.i.i, align 8, !tbaa !19
  %11 = load i8*, i8** %_M_p.i.i.i.i.i, align 8, !tbaa !17
  %arrayidx.i.i.i.i.i = getelementptr inbounds i8, i8* %11, i64 %10
  store i8 0, i8* %arrayidx.i.i.i.i.i, align 1, !tbaa !21
  call void @llvm.lifetime.end.p0i8(i64 8, i8* nonnull %6) #38
  %call.i = call i32 @_ZNKSt7__cxx1112basic_stringIcSt11char_traitsIcESaIcEE7compareEPKc(%"class.std::__cxx11::basic_string"* nonnull dereferenceable(32) %ref.tmp, i8* getelementptr inbounds ([5 x i8], [5 x i8]* @.str.13, i64 0, i64 0)) #38
  %cmp.i = icmp eq i32 %call.i, 0
  %12 = load i8*, i8** %_M_p.i.i.i.i.i, align 8, !tbaa !17
  %cmp.i.i.i = icmp eq i8* %12, %5
  br i1 %cmp.i.i.i, label %_ZNSt7__cxx1112basic_stringIcSt11char_traitsIcESaIcEED2Ev.exit, label %if.then.i.i

if.then.i.i:                                      ; preds = %cleanup.action
  call void @_ZdlPv(i8* %12) #38
  br label %_ZNSt7__cxx1112basic_stringIcSt11char_traitsIcESaIcEED2Ev.exit

_ZNSt7__cxx1112basic_stringIcSt11char_traitsIcESaIcEED2Ev.exit: ; preds = %cleanup.action, %if.then.i.i
  call void @llvm.lifetime.end.p0i8(i64 32, i8* nonnull %1) #38
  br label %cleanup.done26

cleanup.done26:                                   ; preds = %entry, %_ZNSt7__cxx1112basic_stringIcSt11char_traitsIcESaIcEED2Ev.exit
  %13 = phi i1 [ %cmp.i, %_ZNSt7__cxx1112basic_stringIcSt11char_traitsIcESaIcEED2Ev.exit ], [ false, %entry ]
  %14 = bitcast %"class.std::vector"* %paths to i8*
  call void @llvm.lifetime.start.p0i8(i64 24, i8* nonnull %14) #38
  call void @llvm.memset.p0i8.i64(i8* nonnull align 8 dereferenceable(24) %14, i8 0, i64 24, i1 false) #38
  %15 = getelementptr inbounds %"class.std::__cxx11::basic_string", %"class.std::__cxx11::basic_string"* %agg.tmp, i64 0, i32 2
  %16 = bitcast %"class.std::__cxx11::basic_string"* %agg.tmp to %union.anon**
  store %union.anon* %15, %union.anon** %16, align 8, !tbaa !14
  %17 = bitcast %union.anon* %15 to i8*
  call void @llvm.memcpy.p0i8.p0i8.i64(i8* nonnull align 8 dereferenceable(3) %17, i8* nonnull align 1 dereferenceable(3) getelementptr inbounds ([4 x i8], [4 x i8]* @.str.15, i64 0, i64 0), i64 3, i1 false) #38
  %_M_p.i.i.i.i.i61 = getelementptr inbounds %"class.std::__cxx11::basic_string", %"class.std::__cxx11::basic_string"* %agg.tmp, i64 0, i32 0, i32 0
  %_M_string_length.i.i.i.i.i.i62 = getelementptr inbounds %"class.std::__cxx11::basic_string", %"class.std::__cxx11::basic_string"* %agg.tmp, i64 0, i32 1
  store i64 3, i64* %_M_string_length.i.i.i.i.i.i62, align 8, !tbaa !19
  %arrayidx.i.i.i.i.i63 = getelementptr inbounds i8, i8* %17, i64 3
  store i8 0, i8* %arrayidx.i.i.i.i.i63, align 1, !tbaa !21
  invoke void @_Z8getTestsRSt6vectorINSt7__cxx1112basic_stringIcSt11char_traitsIcESaIcEEESaIS5_EEPKcS5_(%"class.std::vector"* nonnull align 8 dereferenceable(24) %paths, i8* getelementptr inbounds ([8 x i8], [8 x i8]* @.str.14, i64 0, i64 0), %"class.std::__cxx11::basic_string"* nonnull %agg.tmp)
          to label %invoke.cont37 unwind label %lpad36

invoke.cont37:                                    ; preds = %cleanup.done26
  %18 = load i8*, i8** %_M_p.i.i.i.i.i61, align 8, !tbaa !17
  %cmp.i.i.i70 = icmp eq i8* %18, %17
  br i1 %cmp.i.i.i70, label %_ZNSt7__cxx1112basic_stringIcSt11char_traitsIcESaIcEED2Ev.exit73, label %if.then.i.i71

if.then.i.i71:                                    ; preds = %invoke.cont37
  call void @_ZdlPv(i8* %18) #38
  br label %_ZNSt7__cxx1112basic_stringIcSt11char_traitsIcESaIcEED2Ev.exit73

_ZNSt7__cxx1112basic_stringIcSt11char_traitsIcESaIcEED2Ev.exit73: ; preds = %invoke.cont37, %if.then.i.i71
  %19 = getelementptr inbounds %"class.std::__cxx11::basic_string", %"class.std::__cxx11::basic_string"* %agg.tmp41, i64 0, i32 2
  %20 = bitcast %"class.std::__cxx11::basic_string"* %agg.tmp41 to %union.anon**
  store %union.anon* %19, %union.anon** %20, align 8, !tbaa !14
  %21 = bitcast %union.anon* %19 to i8*
  call void @llvm.memcpy.p0i8.p0i8.i64(i8* nonnull align 8 dereferenceable(5) %21, i8* nonnull align 1 dereferenceable(5) getelementptr inbounds ([6 x i8], [6 x i8]* @.str.17, i64 0, i64 0), i64 5, i1 false) #38
  %_M_p.i.i.i.i.i90 = getelementptr inbounds %"class.std::__cxx11::basic_string", %"class.std::__cxx11::basic_string"* %agg.tmp41, i64 0, i32 0, i32 0
  %_M_string_length.i.i.i.i.i.i91 = getelementptr inbounds %"class.std::__cxx11::basic_string", %"class.std::__cxx11::basic_string"* %agg.tmp41, i64 0, i32 1
  store i64 5, i64* %_M_string_length.i.i.i.i.i.i91, align 8, !tbaa !19
  %arrayidx.i.i.i.i.i92 = getelementptr inbounds i8, i8* %21, i64 5
  store i8 0, i8* %arrayidx.i.i.i.i.i92, align 1, !tbaa !21
  invoke void @_Z8getTestsRSt6vectorINSt7__cxx1112basic_stringIcSt11char_traitsIcESaIcEEESaIS5_EEPKcS5_(%"class.std::vector"* nonnull align 8 dereferenceable(24) %paths, i8* getelementptr inbounds ([10 x i8], [10 x i8]* @.str.16, i64 0, i64 0), %"class.std::__cxx11::basic_string"* nonnull %agg.tmp41)
          to label %invoke.cont46 unwind label %lpad45

invoke.cont46:                                    ; preds = %_ZNSt7__cxx1112basic_stringIcSt11char_traitsIcESaIcEED2Ev.exit73
  %22 = load i8*, i8** %_M_p.i.i.i.i.i90, align 8, !tbaa !17
  %cmp.i.i.i99 = icmp eq i8* %22, %21
  br i1 %cmp.i.i.i99, label %_ZNSt7__cxx1112basic_stringIcSt11char_traitsIcESaIcEED2Ev.exit102, label %if.then.i.i100

if.then.i.i100:                                   ; preds = %invoke.cont46
  call void @_ZdlPv(i8* %22) #38
  br label %_ZNSt7__cxx1112basic_stringIcSt11char_traitsIcESaIcEED2Ev.exit102

_ZNSt7__cxx1112basic_stringIcSt11char_traitsIcESaIcEED2Ev.exit102: ; preds = %invoke.cont46, %if.then.i.i100
  %23 = getelementptr inbounds %"class.std::__cxx11::basic_string", %"class.std::__cxx11::basic_string"* %agg.tmp50, i64 0, i32 2
  %24 = bitcast %"class.std::__cxx11::basic_string"* %agg.tmp50 to %union.anon**
  store %union.anon* %23, %union.anon** %24, align 8, !tbaa !14
  %25 = bitcast %union.anon* %23 to i8*
  %26 = bitcast %union.anon* %23 to i32*
  store i32 795553841, i32* %26, align 8
  %_M_p.i.i.i.i.i114 = getelementptr inbounds %"class.std::__cxx11::basic_string", %"class.std::__cxx11::basic_string"* %agg.tmp50, i64 0, i32 0, i32 0
  %_M_string_length.i.i.i.i.i.i115 = getelementptr inbounds %"class.std::__cxx11::basic_string", %"class.std::__cxx11::basic_string"* %agg.tmp50, i64 0, i32 1
  store i64 4, i64* %_M_string_length.i.i.i.i.i.i115, align 8, !tbaa !19
  %arrayidx.i.i.i.i.i116 = getelementptr inbounds i8, i8* %25, i64 4
  store i8 0, i8* %arrayidx.i.i.i.i.i116, align 4, !tbaa !21
  invoke void @_Z8getTestsRSt6vectorINSt7__cxx1112basic_stringIcSt11char_traitsIcESaIcEEESaIS5_EEPKcS5_(%"class.std::vector"* nonnull align 8 dereferenceable(24) %paths, i8* getelementptr inbounds ([9 x i8], [9 x i8]* @.str.18, i64 0, i64 0), %"class.std::__cxx11::basic_string"* nonnull %agg.tmp50)
          to label %invoke.cont55 unwind label %lpad54

invoke.cont55:                                    ; preds = %_ZNSt7__cxx1112basic_stringIcSt11char_traitsIcESaIcEED2Ev.exit102
  %27 = load i8*, i8** %_M_p.i.i.i.i.i114, align 8, !tbaa !17
  %cmp.i.i.i123 = icmp eq i8* %27, %25
  br i1 %cmp.i.i.i123, label %_ZNSt7__cxx1112basic_stringIcSt11char_traitsIcESaIcEED2Ev.exit126, label %if.then.i.i124

if.then.i.i124:                                   ; preds = %invoke.cont55
  call void @_ZdlPv(i8* %27) #38
  br label %_ZNSt7__cxx1112basic_stringIcSt11char_traitsIcESaIcEED2Ev.exit126

_ZNSt7__cxx1112basic_stringIcSt11char_traitsIcESaIcEED2Ev.exit126: ; preds = %invoke.cont55, %if.then.i.i124
  %_M_start.i127 = getelementptr inbounds %"class.std::vector", %"class.std::vector"* %paths, i64 0, i32 0, i32 0, i32 0, i32 0
  %28 = load %"class.std::__cxx11::basic_string"*, %"class.std::__cxx11::basic_string"** %_M_start.i127, align 8, !tbaa !61
  %_M_finish.i128 = getelementptr inbounds %"class.std::vector", %"class.std::vector"* %paths, i64 0, i32 0, i32 0, i32 0, i32 1
  %29 = load %"class.std::__cxx11::basic_string"*, %"class.std::__cxx11::basic_string"** %_M_finish.i128, align 8, !tbaa !61
  %cmp.i129.not695 = icmp eq %"class.std::__cxx11::basic_string"* %28, %29
  br i1 %cmp.i129.not695, label %invoke.cont.i145, label %for.body.lr.ph

for.body.lr.ph:                                   ; preds = %_ZNSt7__cxx1112basic_stringIcSt11char_traitsIcESaIcEED2Ev.exit126
  %30 = bitcast %"class.std::__cxx11::basic_string"* %path to i8*
  %31 = getelementptr inbounds %"class.std::__cxx11::basic_string", %"class.std::__cxx11::basic_string"* %path, i64 0, i32 2
  %32 = bitcast %"class.std::__cxx11::basic_string"* %path to %union.anon**
  %33 = bitcast i64* %__dnew.i.i.i.i196 to i8*
  %34 = bitcast %union.anon* %31 to i8*
  %_M_p.i6.i.i.i.i198 = getelementptr inbounds %"class.std::__cxx11::basic_string", %"class.std::__cxx11::basic_string"* %path, i64 0, i32 0, i32 0
  %_M_allocated_capacity.i.i.i.i.i199 = getelementptr inbounds %"class.std::__cxx11::basic_string", %"class.std::__cxx11::basic_string"* %path, i64 0, i32 2, i32 0
  %_M_string_length.i.i.i.i.i.i205 = getelementptr inbounds %"class.std::__cxx11::basic_string", %"class.std::__cxx11::basic_string"* %path, i64 0, i32 1
  %35 = bitcast %struct.GMMInput* %input to i8*
  %alphas.i = getelementptr inbounds %struct.GMMInput, %struct.GMMInput* %input, i64 0, i32 3
  %36 = bitcast %"class.std::vector.3"* %alphas.i to i8*
  %37 = bitcast %"class.std::__cxx11::basic_string"* %ref.tmp83 to i8*
  %d = getelementptr inbounds %struct.GMMInput, %struct.GMMInput* %input, i64 0, i32 0
  %k = getelementptr inbounds %struct.GMMInput, %struct.GMMInput* %input, i64 0, i32 1
  %n = getelementptr inbounds %struct.GMMInput, %struct.GMMInput* %input, i64 0, i32 2
  %means = getelementptr inbounds %struct.GMMInput, %struct.GMMInput* %input, i64 0, i32 4
  %icf = getelementptr inbounds %struct.GMMInput, %struct.GMMInput* %input, i64 0, i32 5
  %x = getelementptr inbounds %struct.GMMInput, %struct.GMMInput* %input, i64 0, i32 6
  %wishart = getelementptr inbounds %struct.GMMInput, %struct.GMMInput* %input, i64 0, i32 7
  %_M_p.i.i.i.i218 = getelementptr inbounds %"class.std::__cxx11::basic_string", %"class.std::__cxx11::basic_string"* %ref.tmp83, i64 0, i32 0, i32 0
  %38 = getelementptr inbounds %"class.std::__cxx11::basic_string", %"class.std::__cxx11::basic_string"* %ref.tmp83, i64 0, i32 2
  %arraydecay.i.i.i.i219 = bitcast %union.anon* %38 to i8*
  %39 = bitcast %struct.timeval* %start to i8*
  %40 = bitcast %struct.timeval* %end to i8*
  %_M_finish.i29.i = getelementptr inbounds %struct.GMMInput, %struct.GMMInput* %input, i64 0, i32 3, i32 0, i32 0, i32 0, i32 1
  %_M_start.i30.i = getelementptr inbounds %struct.GMMInput, %struct.GMMInput* %input, i64 0, i32 3, i32 0, i32 0, i32 0, i32 0
  %_M_finish.i.i = getelementptr inbounds %struct.GMMInput, %struct.GMMInput* %input, i64 0, i32 4, i32 0, i32 0, i32 0, i32 1
  %_M_start.i21.i = getelementptr inbounds %struct.GMMInput, %struct.GMMInput* %input, i64 0, i32 4, i32 0, i32 0, i32 0, i32 0
  %41 = bitcast double* %errb.i to i8*
  %_M_start.i18.i = getelementptr inbounds %struct.GMMInput, %struct.GMMInput* %input, i64 0, i32 5, i32 0, i32 0, i32 0, i32 0
  %_M_start.i17.i = getelementptr inbounds %struct.GMMInput, %struct.GMMInput* %input, i64 0, i32 6, i32 0, i32 0, i32 0, i32 0
  %tv_sec.i = getelementptr inbounds %struct.timeval, %struct.timeval* %end, i64 0, i32 0
  %tv_sec1.i = getelementptr inbounds %struct.timeval, %struct.timeval* %start, i64 0, i32 0
  %tv_usec.i = getelementptr inbounds %struct.timeval, %struct.timeval* %end, i64 0, i32 1
  %tv_usec2.i = getelementptr inbounds %struct.timeval, %struct.timeval* %start, i64 0, i32 1
  %42 = bitcast %struct.GMMInput* %input130 to i8*
  %alphas.i273 = getelementptr inbounds %struct.GMMInput, %struct.GMMInput* %input130, i64 0, i32 3
  %43 = bitcast %"class.std::vector.3"* %alphas.i273 to i8*
  %44 = bitcast %"class.std::__cxx11::basic_string"* %ref.tmp131 to i8*
  %d134 = getelementptr inbounds %struct.GMMInput, %struct.GMMInput* %input130, i64 0, i32 0
  %k135 = getelementptr inbounds %struct.GMMInput, %struct.GMMInput* %input130, i64 0, i32 1
  %n136 = getelementptr inbounds %struct.GMMInput, %struct.GMMInput* %input130, i64 0, i32 2
  %means138 = getelementptr inbounds %struct.GMMInput, %struct.GMMInput* %input130, i64 0, i32 4
  %icf139 = getelementptr inbounds %struct.GMMInput, %struct.GMMInput* %input130, i64 0, i32 5
  %x140 = getelementptr inbounds %struct.GMMInput, %struct.GMMInput* %input130, i64 0, i32 6
  %wishart141 = getelementptr inbounds %struct.GMMInput, %struct.GMMInput* %input130, i64 0, i32 7
  %_M_p.i.i.i.i287 = getelementptr inbounds %"class.std::__cxx11::basic_string", %"class.std::__cxx11::basic_string"* %ref.tmp131, i64 0, i32 0, i32 0
  %45 = getelementptr inbounds %"class.std::__cxx11::basic_string", %"class.std::__cxx11::basic_string"* %ref.tmp131, i64 0, i32 2
  %arraydecay.i.i.i.i288 = bitcast %union.anon* %45 to i8*
  %46 = bitcast %struct.timeval* %start166 to i8*
  %47 = bitcast %struct.timeval* %end167 to i8*
  %_M_finish.i29.i314 = getelementptr inbounds %struct.GMMInput, %struct.GMMInput* %input130, i64 0, i32 3, i32 0, i32 0, i32 0, i32 1
  %_M_start.i30.i315 = getelementptr inbounds %struct.GMMInput, %struct.GMMInput* %input130, i64 0, i32 3, i32 0, i32 0, i32 0, i32 0
  %_M_finish.i.i321 = getelementptr inbounds %struct.GMMInput, %struct.GMMInput* %input130, i64 0, i32 4, i32 0, i32 0, i32 0, i32 1
  %_M_start.i21.i322 = getelementptr inbounds %struct.GMMInput, %struct.GMMInput* %input130, i64 0, i32 4, i32 0, i32 0, i32 0, i32 0
  %_M_start.i18.i331 = getelementptr inbounds %struct.GMMInput, %struct.GMMInput* %input130, i64 0, i32 5, i32 0, i32 0, i32 0, i32 0
  %_M_start.i17.i332 = getelementptr inbounds %struct.GMMInput, %struct.GMMInput* %input130, i64 0, i32 6, i32 0, i32 0, i32 0, i32 0
  %48 = bitcast %"class.std::bad_alloc"* %0 to i8*
  %49 = getelementptr inbounds %"class.std::bad_alloc", %"class.std::bad_alloc"* %0, i64 0, i32 0, i32 0
  %tv_sec.i335 = getelementptr inbounds %struct.timeval, %struct.timeval* %end167, i64 0, i32 0
  %tv_sec1.i336 = getelementptr inbounds %struct.timeval, %struct.timeval* %start166, i64 0, i32 0
  %tv_usec.i339 = getelementptr inbounds %struct.timeval, %struct.timeval* %end167, i64 0, i32 1
  %tv_usec2.i340 = getelementptr inbounds %struct.timeval, %struct.timeval* %start166, i64 0, i32 1
  %50 = bitcast %struct.GMMInput* %input209 to i8*
  %alphas.i391 = getelementptr inbounds %struct.GMMInput, %struct.GMMInput* %input209, i64 0, i32 3
  %51 = bitcast %"class.std::vector.3"* %alphas.i391 to i8*
  %52 = bitcast %"class.std::__cxx11::basic_string"* %ref.tmp210 to i8*
  %d213 = getelementptr inbounds %struct.GMMInput, %struct.GMMInput* %input209, i64 0, i32 0
  %k214 = getelementptr inbounds %struct.GMMInput, %struct.GMMInput* %input209, i64 0, i32 1
  %n215 = getelementptr inbounds %struct.GMMInput, %struct.GMMInput* %input209, i64 0, i32 2
  %means217 = getelementptr inbounds %struct.GMMInput, %struct.GMMInput* %input209, i64 0, i32 4
  %icf218 = getelementptr inbounds %struct.GMMInput, %struct.GMMInput* %input209, i64 0, i32 5
  %x219 = getelementptr inbounds %struct.GMMInput, %struct.GMMInput* %input209, i64 0, i32 6
  %wishart220 = getelementptr inbounds %struct.GMMInput, %struct.GMMInput* %input209, i64 0, i32 7
  %_M_p.i.i.i.i392 = getelementptr inbounds %"class.std::__cxx11::basic_string", %"class.std::__cxx11::basic_string"* %ref.tmp210, i64 0, i32 0, i32 0
  %53 = getelementptr inbounds %"class.std::__cxx11::basic_string", %"class.std::__cxx11::basic_string"* %ref.tmp210, i64 0, i32 2
  %arraydecay.i.i.i.i393 = bitcast %union.anon* %53 to i8*
  %54 = bitcast %struct.timeval* %start245 to i8*
  %55 = bitcast %struct.timeval* %end246 to i8*
  %_M_finish.i29.i420 = getelementptr inbounds %struct.GMMInput, %struct.GMMInput* %input209, i64 0, i32 3, i32 0, i32 0, i32 0, i32 1
  %_M_start.i30.i421 = getelementptr inbounds %struct.GMMInput, %struct.GMMInput* %input209, i64 0, i32 3, i32 0, i32 0, i32 0, i32 0
  %_M_finish.i.i427 = getelementptr inbounds %struct.GMMInput, %struct.GMMInput* %input209, i64 0, i32 4, i32 0, i32 0, i32 0, i32 1
  %_M_start.i21.i428 = getelementptr inbounds %struct.GMMInput, %struct.GMMInput* %input209, i64 0, i32 4, i32 0, i32 0, i32 0, i32 0
  %56 = bitcast double* %errb.i418 to i8*
  %_M_start.i18.i437 = getelementptr inbounds %struct.GMMInput, %struct.GMMInput* %input209, i64 0, i32 5, i32 0, i32 0, i32 0, i32 0
  %_M_start.i17.i438 = getelementptr inbounds %struct.GMMInput, %struct.GMMInput* %input209, i64 0, i32 6, i32 0, i32 0, i32 0, i32 0
  %tv_sec.i440 = getelementptr inbounds %struct.timeval, %struct.timeval* %end246, i64 0, i32 0
  %tv_sec1.i441 = getelementptr inbounds %struct.timeval, %struct.timeval* %start245, i64 0, i32 0
  %tv_usec.i444 = getelementptr inbounds %struct.timeval, %struct.timeval* %end246, i64 0, i32 1
  %tv_usec2.i445 = getelementptr inbounds %struct.timeval, %struct.timeval* %start245, i64 0, i32 1
  br label %for.body

for.cond.cleanup:                                 ; preds = %_ZNSt7__cxx1112basic_stringIcSt11char_traitsIcESaIcEED2Ev.exit159
  %.pre = load %"class.std::__cxx11::basic_string"*, %"class.std::__cxx11::basic_string"** %_M_start.i127, align 8, !tbaa !62
  %.pre738 = load %"class.std::__cxx11::basic_string"*, %"class.std::__cxx11::basic_string"** %_M_finish.i128, align 8, !tbaa !32
  %cmp.not3.i.i.i.i132 = icmp eq %"class.std::__cxx11::basic_string"* %.pre, %.pre738
  br i1 %cmp.not3.i.i.i.i132, label %invoke.cont.i145, label %for.body.i.i.i.i137

for.body.i.i.i.i137:                              ; preds = %for.cond.cleanup, %_ZSt8_DestroyINSt7__cxx1112basic_stringIcSt11char_traitsIcESaIcEEEEvPT_.exit.i.i.i.i141
  %__first.addr.04.i.i.i.i133 = phi %"class.std::__cxx11::basic_string"* [ %incdec.ptr.i.i.i.i139, %_ZSt8_DestroyINSt7__cxx1112basic_stringIcSt11char_traitsIcESaIcEEEEvPT_.exit.i.i.i.i141 ], [ %.pre, %for.cond.cleanup ]
  %_M_p.i.i.i.i.i.i.i.i.i134 = getelementptr inbounds %"class.std::__cxx11::basic_string", %"class.std::__cxx11::basic_string"* %__first.addr.04.i.i.i.i133, i64 0, i32 0, i32 0
  %57 = load i8*, i8** %_M_p.i.i.i.i.i.i.i.i.i134, align 8, !tbaa !17
  %58 = getelementptr inbounds %"class.std::__cxx11::basic_string", %"class.std::__cxx11::basic_string"* %__first.addr.04.i.i.i.i133, i64 0, i32 2
  %arraydecay.i.i.i.i.i.i.i.i.i135 = bitcast %union.anon* %58 to i8*
  %cmp.i.i.i.i.i.i.i.i136 = icmp eq i8* %57, %arraydecay.i.i.i.i.i.i.i.i.i135
  br i1 %cmp.i.i.i.i.i.i.i.i136, label %_ZSt8_DestroyINSt7__cxx1112basic_stringIcSt11char_traitsIcESaIcEEEEvPT_.exit.i.i.i.i141, label %if.then.i.i.i.i.i.i.i138

if.then.i.i.i.i.i.i.i138:                         ; preds = %for.body.i.i.i.i137
  call void @_ZdlPv(i8* %57) #38
  br label %_ZSt8_DestroyINSt7__cxx1112basic_stringIcSt11char_traitsIcESaIcEEEEvPT_.exit.i.i.i.i141

_ZSt8_DestroyINSt7__cxx1112basic_stringIcSt11char_traitsIcESaIcEEEEvPT_.exit.i.i.i.i141: ; preds = %if.then.i.i.i.i.i.i.i138, %for.body.i.i.i.i137
  %incdec.ptr.i.i.i.i139 = getelementptr inbounds %"class.std::__cxx11::basic_string", %"class.std::__cxx11::basic_string"* %__first.addr.04.i.i.i.i133, i64 1
  %cmp.not.i.i.i.i140 = icmp eq %"class.std::__cxx11::basic_string"* %incdec.ptr.i.i.i.i139, %.pre738
  br i1 %cmp.not.i.i.i.i140, label %invoke.cont.loopexit.i143, label %for.body.i.i.i.i137, !llvm.loop !63

invoke.cont.loopexit.i143:                        ; preds = %_ZSt8_DestroyINSt7__cxx1112basic_stringIcSt11char_traitsIcESaIcEEEEvPT_.exit.i.i.i.i141
  %.pre.i142 = load %"class.std::__cxx11::basic_string"*, %"class.std::__cxx11::basic_string"** %_M_start.i127, align 8, !tbaa !62
  br label %invoke.cont.i145

invoke.cont.i145:                                 ; preds = %_ZNSt7__cxx1112basic_stringIcSt11char_traitsIcESaIcEED2Ev.exit126, %invoke.cont.loopexit.i143, %for.cond.cleanup
  %59 = phi %"class.std::__cxx11::basic_string"* [ %.pre.i142, %invoke.cont.loopexit.i143 ], [ %.pre738, %for.cond.cleanup ], [ %28, %_ZNSt7__cxx1112basic_stringIcSt11char_traitsIcESaIcEED2Ev.exit126 ]
  %tobool.not.i.i.i144 = icmp eq %"class.std::__cxx11::basic_string"* %59, null
  br i1 %tobool.not.i.i.i144, label %_ZNSt6vectorINSt7__cxx1112basic_stringIcSt11char_traitsIcESaIcEEESaIS5_EED2Ev.exit147, label %if.then.i.i.i146

if.then.i.i.i146:                                 ; preds = %invoke.cont.i145
  %60 = bitcast %"class.std::__cxx11::basic_string"* %59 to i8*
  call void @_ZdlPv(i8* nonnull %60) #38
  br label %_ZNSt6vectorINSt7__cxx1112basic_stringIcSt11char_traitsIcESaIcEEESaIS5_EED2Ev.exit147

_ZNSt6vectorINSt7__cxx1112basic_stringIcSt11char_traitsIcESaIcEEESaIS5_EED2Ev.exit147: ; preds = %invoke.cont.i145, %if.then.i.i.i146
  call void @llvm.lifetime.end.p0i8(i64 24, i8* nonnull %14) #38
  ret i32 0

lpad36:                                           ; preds = %cleanup.done26
  %61 = landingpad { i8*, i32 }
          cleanup
  %62 = load i8*, i8** %_M_p.i.i.i.i.i61, align 8, !tbaa !17
  %cmp.i.i.i150 = icmp eq i8* %62, %17
  br i1 %cmp.i.i.i150, label %ehcleanup291, label %if.then.i.i151

if.then.i.i151:                                   ; preds = %lpad36
  call void @_ZdlPv(i8* %62) #38
  br label %ehcleanup291

lpad45:                                           ; preds = %_ZNSt7__cxx1112basic_stringIcSt11char_traitsIcESaIcEED2Ev.exit73
  %63 = landingpad { i8*, i32 }
          cleanup
  %64 = load i8*, i8** %_M_p.i.i.i.i.i90, align 8, !tbaa !17
  %cmp.i.i.i162 = icmp eq i8* %64, %21
  br i1 %cmp.i.i.i162, label %ehcleanup291, label %if.then.i.i163

if.then.i.i163:                                   ; preds = %lpad45
  call void @_ZdlPv(i8* %64) #38
  br label %ehcleanup291

lpad54:                                           ; preds = %_ZNSt7__cxx1112basic_stringIcSt11char_traitsIcESaIcEED2Ev.exit102
  %65 = landingpad { i8*, i32 }
          cleanup
  %66 = load i8*, i8** %_M_p.i.i.i.i.i114, align 8, !tbaa !17
  %cmp.i.i.i175 = icmp eq i8* %66, %25
  br i1 %cmp.i.i.i175, label %ehcleanup291, label %if.then.i.i176

if.then.i.i176:                                   ; preds = %lpad54
  call void @_ZdlPv(i8* %66) #38
  br label %ehcleanup291

for.body:                                         ; preds = %for.body.lr.ph, %_ZNSt7__cxx1112basic_stringIcSt11char_traitsIcESaIcEED2Ev.exit159
  %__begin1.sroa.0.0705 = phi %"class.std::__cxx11::basic_string"* [ %28, %for.body.lr.ph ], [ %incdec.ptr.i, %_ZNSt7__cxx1112basic_stringIcSt11char_traitsIcESaIcEED2Ev.exit159 ]
  call void @llvm.lifetime.start.p0i8(i64 32, i8* nonnull %30) #38
  store %union.anon* %31, %union.anon** %32, align 8, !tbaa !14
  %_M_p.i5.i = getelementptr inbounds %"class.std::__cxx11::basic_string", %"class.std::__cxx11::basic_string"* %__begin1.sroa.0.0705, i64 0, i32 0, i32 0
  %67 = load i8*, i8** %_M_p.i5.i, align 8, !tbaa !17
  %_M_string_length.i.i = getelementptr inbounds %"class.std::__cxx11::basic_string", %"class.std::__cxx11::basic_string"* %__begin1.sroa.0.0705, i64 0, i32 1
  %68 = load i64, i64* %_M_string_length.i.i, align 8, !tbaa !19
  call void @llvm.lifetime.start.p0i8(i64 8, i8* nonnull %33) #38
  store i64 %68, i64* %__dnew.i.i.i.i196, align 8, !tbaa !20
  %cmp3.i.i.i.i197 = icmp ugt i64 %68, 15
  br i1 %cmp3.i.i.i.i197, label %if.then4.i.i.i.i200, label %if.end6.i.i.i.i201

if.then4.i.i.i.i200:                              ; preds = %for.body
  %call5.i.i.i4.i207 = invoke i8* @_ZNSt7__cxx1112basic_stringIcSt11char_traitsIcESaIcEE9_M_createERmm(%"class.std::__cxx11::basic_string"* nonnull dereferenceable(32) %path, i64* nonnull align 8 dereferenceable(8) %__dnew.i.i.i.i196, i64 0)
          to label %call5.i.i.i4.i.noexc unwind label %lpad64

call5.i.i.i4.i.noexc:                             ; preds = %if.then4.i.i.i.i200
  store i8* %call5.i.i.i4.i207, i8** %_M_p.i6.i.i.i.i198, align 8, !tbaa !17
  %69 = load i64, i64* %__dnew.i.i.i.i196, align 8, !tbaa !20
  store i64 %69, i64* %_M_allocated_capacity.i.i.i.i.i199, align 8, !tbaa !21
  br label %if.end6.i.i.i.i201

if.end6.i.i.i.i201:                               ; preds = %for.body, %call5.i.i.i4.i.noexc
  %70 = phi i8* [ %call5.i.i.i4.i207, %call5.i.i.i4.i.noexc ], [ %34, %for.body ]
  switch i64 %68, label %if.end.i.i.i.i.i.i.i203 [
    i64 1, label %if.then.i.i.i.i.i.i202
    i64 0, label %invoke.cont65
  ]

if.then.i.i.i.i.i.i202:                           ; preds = %if.end6.i.i.i.i201
  %71 = load i8, i8* %67, align 1, !tbaa !21
  store i8 %71, i8* %70, align 1, !tbaa !21
  br label %invoke.cont65

if.end.i.i.i.i.i.i.i203:                          ; preds = %if.end6.i.i.i.i201
  call void @llvm.memcpy.p0i8.p0i8.i64(i8* align 1 %70, i8* align 1 %67, i64 %68, i1 false) #38
  br label %invoke.cont65

invoke.cont65:                                    ; preds = %if.end.i.i.i.i.i.i.i203, %if.then.i.i.i.i.i.i202, %if.end6.i.i.i.i201
  %72 = load i64, i64* %__dnew.i.i.i.i196, align 8, !tbaa !20
  store i64 %72, i64* %_M_string_length.i.i.i.i.i.i205, align 8, !tbaa !19
  %73 = load i8*, i8** %_M_p.i6.i.i.i.i198, align 8, !tbaa !17
  %arrayidx.i.i.i.i.i206 = getelementptr inbounds i8, i8* %73, i64 %72
  store i8 0, i8* %arrayidx.i.i.i.i.i206, align 1, !tbaa !21
  call void @llvm.lifetime.end.p0i8(i64 8, i8* nonnull %33) #38
  %call.i208 = call i32 @_ZNKSt7__cxx1112basic_stringIcSt11char_traitsIcESaIcEE7compareEPKc(%"class.std::__cxx11::basic_string"* nonnull dereferenceable(32) %path, i8* getelementptr inbounds ([22 x i8], [22 x i8]* @.str.20, i64 0, i64 0)) #38
  %cmp.i209 = icmp eq i32 %call.i208, 0
  br i1 %cmp.i209, label %cleanup, label %lor.lhs.false

lor.lhs.false:                                    ; preds = %invoke.cont65
  %call.i210 = call i32 @_ZNKSt7__cxx1112basic_stringIcSt11char_traitsIcESaIcEE7compareEPKc(%"class.std::__cxx11::basic_string"* nonnull dereferenceable(32) %path, i8* getelementptr inbounds ([22 x i8], [22 x i8]* @.str.21, i64 0, i64 0)) #38
  %cmp.i211 = icmp eq i32 %call.i210, 0
  br i1 %cmp.i211, label %cleanup, label %lor.lhs.false71

lor.lhs.false71:                                  ; preds = %lor.lhs.false
  %call.i212 = call i32 @_ZNKSt7__cxx1112basic_stringIcSt11char_traitsIcESaIcEE7compareEPKc(%"class.std::__cxx11::basic_string"* nonnull dereferenceable(32) %path, i8* getelementptr inbounds ([21 x i8], [21 x i8]* @.str.22, i64 0, i64 0)) #38
  %cmp.i213 = icmp eq i32 %call.i212, 0
  br i1 %cmp.i213, label %cleanup, label %lor.lhs.false74

lor.lhs.false74:                                  ; preds = %lor.lhs.false71
  %call.i214 = call i32 @_ZNKSt7__cxx1112basic_stringIcSt11char_traitsIcESaIcEE7compareEPKc(%"class.std::__cxx11::basic_string"* nonnull dereferenceable(32) %path, i8* getelementptr inbounds ([21 x i8], [21 x i8]* @.str.23, i64 0, i64 0)) #38
  %cmp.i215 = icmp eq i32 %call.i214, 0
  br i1 %cmp.i215, label %cleanup, label %lor.lhs.false77

lor.lhs.false77:                                  ; preds = %lor.lhs.false74
  %call.i216 = call i32 @_ZNKSt7__cxx1112basic_stringIcSt11char_traitsIcESaIcEE7compareEPKc(%"class.std::__cxx11::basic_string"* nonnull dereferenceable(32) %path, i8* getelementptr inbounds ([21 x i8], [21 x i8]* @.str.24, i64 0, i64 0)) #38
  %cmp.i217 = icmp eq i32 %call.i216, 0
  br i1 %cmp.i217, label %cleanup, label %if.end

lpad64:                                           ; preds = %if.then4.i.i.i.i200
  %74 = landingpad { i8*, i32 }
          cleanup
  br label %ehcleanup281

if.end:                                           ; preds = %lor.lhs.false77
  %75 = load i8*, i8** %_M_p.i6.i.i.i.i198, align 8, !tbaa !17
  %call82 = call i32 (i8*, ...) @printf(i8* nonnull dereferenceable(1) getelementptr inbounds ([18 x i8], [18 x i8]* @.str.25, i64 0, i64 0), i8* %75)
  call void @llvm.lifetime.start.p0i8(i64 128, i8* nonnull %35) #38
  call void @llvm.memset.p0i8.i64(i8* nonnull align 8 dereferenceable(96) %36, i8 0, i64 96, i1 false) #38
  call void @llvm.lifetime.start.p0i8(i64 32, i8* nonnull %37) #38
  invoke void @_ZStplIcSt11char_traitsIcESaIcEENSt7__cxx1112basic_stringIT_T0_T1_EEPKS5_RKS8_(%"class.std::__cxx11::basic_string"* nonnull sret(%"class.std::__cxx11::basic_string") align 8 %ref.tmp83, i8* getelementptr inbounds ([6 x i8], [6 x i8]* @.str.26, i64 0, i64 0), %"class.std::__cxx11::basic_string"* nonnull align 8 dereferenceable(32) %path)
          to label %invoke.cont85 unwind label %lpad84

invoke.cont85:                                    ; preds = %if.end
  invoke void @_Z17read_gmm_instanceRKNSt7__cxx1112basic_stringIcSt11char_traitsIcESaIcEEEPiS7_S7_RSt6vectorIdSaIdEESB_SB_SB_R7Wishartb(%"class.std::__cxx11::basic_string"* nonnull align 8 dereferenceable(32) %ref.tmp83, i32* nonnull %d, i32* nonnull %k, i32* nonnull %n, %"class.std::vector.3"* nonnull align 8 dereferenceable(24) %alphas.i, %"class.std::vector.3"* nonnull align 8 dereferenceable(24) %means, %"class.std::vector.3"* nonnull align 8 dereferenceable(24) %icf, %"class.std::vector.3"* nonnull align 8 dereferenceable(24) %x, %struct.Wishart* nonnull align 8 dereferenceable(16) %wishart, i1 zeroext %13)
          to label %invoke.cont89 unwind label %lpad88

invoke.cont89:                                    ; preds = %invoke.cont85
  %76 = load i8*, i8** %_M_p.i.i.i.i218, align 8, !tbaa !17
  %cmp.i.i.i220 = icmp eq i8* %76, %arraydecay.i.i.i.i219
  br i1 %cmp.i.i.i220, label %_ZNSt7__cxx1112basic_stringIcSt11char_traitsIcESaIcEED2Ev.exit223, label %if.then.i.i221

if.then.i.i221:                                   ; preds = %invoke.cont89
  call void @_ZdlPv(i8* %76) #38
  br label %_ZNSt7__cxx1112basic_stringIcSt11char_traitsIcESaIcEED2Ev.exit223

_ZNSt7__cxx1112basic_stringIcSt11char_traitsIcESaIcEED2Ev.exit223: ; preds = %invoke.cont89, %if.then.i.i221
  call void @llvm.lifetime.end.p0i8(i64 32, i8* nonnull %37) #38
  %77 = load i32, i32* %k, align 4, !tbaa !64
  %78 = load i32, i32* %d, align 8, !tbaa !69
  %add = add nsw i32 %78, 1
  %mul = mul nsw i32 %add, %77
  %add95 = add nsw i32 %78, 2
  %mul96 = mul nsw i32 %mul, %add95
  %div = sdiv i32 %mul96, 2
  %conv = sext i32 %div to i64
  %cmp.i.i = icmp slt i32 %mul96, -1
  br i1 %cmp.i.i, label %if.then.i.i228, label %_ZNSt6vectorIdSaIdEE17_S_check_init_lenEmRKS0_.exit.i

if.then.i.i228:                                   ; preds = %_ZNSt7__cxx1112basic_stringIcSt11char_traitsIcESaIcEED2Ev.exit223
  invoke void @_ZSt20__throw_length_errorPKc(i8* getelementptr inbounds ([49 x i8], [49 x i8]* @.str.123, i64 0, i64 0)) #40
          to label %.noexc232 unwind label %lpad98.loopexit.split-lp

.noexc232:                                        ; preds = %if.then.i.i228
  unreachable

_ZNSt6vectorIdSaIdEE17_S_check_init_lenEmRKS0_.exit.i: ; preds = %_ZNSt7__cxx1112basic_stringIcSt11char_traitsIcESaIcEED2Ev.exit223
  %mul96.off = add i32 %mul96, 1
  %79 = icmp ult i32 %mul96.off, 3
  br i1 %79, label %invoke.cont99, label %_ZNSt16allocator_traitsISaIdEE8allocateERS0_m.exit.i.i.i.i

_ZNSt16allocator_traitsISaIdEE8allocateERS0_m.exit.i.i.i.i: ; preds = %_ZNSt6vectorIdSaIdEE17_S_check_init_lenEmRKS0_.exit.i
  %mul.i.i.i.i.i.i = shl nuw nsw i64 %conv, 3
  %call2.i.i.i.i1.i.i233 = invoke noalias nonnull i8* @_Znwm(i64 %mul.i.i.i.i.i.i) #42
          to label %for.body.i.i.preheader.i.i.i.i.i unwind label %lpad98.loopexit

for.body.i.i.preheader.i.i.i.i.i:                 ; preds = %_ZNSt16allocator_traitsISaIdEE8allocateERS0_m.exit.i.i.i.i
  %80 = bitcast i8* %call2.i.i.i.i1.i.i233 to double*
  call void @llvm.memset.p0i8.i64(i8* nonnull align 8 %call2.i.i.i.i1.i.i233, i8 0, i64 %mul.i.i.i.i.i.i, i1 false)
  br label %invoke.cont99

invoke.cont99:                                    ; preds = %_ZNSt6vectorIdSaIdEE17_S_check_init_lenEmRKS0_.exit.i, %for.body.i.i.preheader.i.i.i.i.i
  %cond.i.i.i.i514 = phi double* [ %80, %for.body.i.i.preheader.i.i.i.i.i ], [ null, %_ZNSt6vectorIdSaIdEE17_S_check_init_lenEmRKS0_.exit.i ]
  call void @llvm.lifetime.start.p0i8(i64 16, i8* nonnull %39) #38
  call void @llvm.lifetime.start.p0i8(i64 16, i8* nonnull %40) #38
  %call102 = call i32 @gettimeofday(%struct.timeval* nonnull %start, i8* null) #38
  %81 = load double*, double** %_M_finish.i29.i, align 8, !tbaa !49
  %82 = load double*, double** %_M_start.i30.i, align 8, !tbaa !51
  %sub.ptr.lhs.cast.i31.i = ptrtoint double* %81 to i64
  %sub.ptr.rhs.cast.i32.i = ptrtoint double* %82 to i64
  %sub.ptr.sub.i33.i = sub i64 %sub.ptr.lhs.cast.i31.i, %sub.ptr.rhs.cast.i32.i
  %sub.ptr.div.i34.i = ashr exact i64 %sub.ptr.sub.i33.i, 3
  %add.ptr.i234 = getelementptr inbounds double, double* %cond.i.i.i.i514, i64 %sub.ptr.div.i34.i
  %83 = load double*, double** %_M_finish.i.i, align 8, !tbaa !49
  %84 = load double*, double** %_M_start.i21.i, align 8, !tbaa !51
  %sub.ptr.lhs.cast.i.i = ptrtoint double* %83 to i64
  %sub.ptr.rhs.cast.i.i = ptrtoint double* %84 to i64
  %sub.ptr.sub.i.i = sub i64 %sub.ptr.lhs.cast.i.i, %sub.ptr.rhs.cast.i.i
  %sub.ptr.div.i.i = ashr exact i64 %sub.ptr.sub.i.i, 3
  %add.ptr10.i = getelementptr inbounds double, double* %add.ptr.i234, i64 %sub.ptr.div.i.i
  call void @llvm.lifetime.start.p0i8(i64 8, i8* nonnull %41) #38
  store double 1.000000e+00, double* %errb.i, align 8, !tbaa !70
  %85 = load i32, i32* %d, align 8, !tbaa !69
  %86 = load i32, i32* %k, align 4, !tbaa !64
  %87 = load i32, i32* %n, align 8, !tbaa !71
  %88 = load double*, double** %_M_start.i18.i, align 8, !tbaa !51
  %89 = load double*, double** %_M_start.i17.i, align 8, !tbaa !51
  invoke void @gmm_objective_b(i32 %85, i32 %86, i32 %87, double* %82, double* %cond.i.i.i.i514, double* %84, double* %add.ptr.i234, double* %88, double* %add.ptr10.i, double* %89, %struct.Wishart* nonnull byval(%struct.Wishart) align 8 %wishart, double* undef, double* nonnull %errb.i)
          to label %invoke.cont104 unwind label %lpad103

invoke.cont104:                                   ; preds = %invoke.cont99
  call void @llvm.lifetime.end.p0i8(i64 8, i8* nonnull %41) #38
  %call105 = call i32 @gettimeofday(%struct.timeval* nonnull %end, i8* null) #38
  %90 = load i64, i64* %tv_sec.i, align 8, !tbaa !44
  %91 = load i64, i64* %tv_sec1.i, align 8, !tbaa !44
  %sub.i = sub nsw i64 %90, %91
  %conv.i = sitofp i64 %sub.i to double
  %92 = load i64, i64* %tv_usec.i, align 8, !tbaa !46
  %93 = load i64, i64* %tv_usec2.i, align 8, !tbaa !46
  %sub3.i = sub nsw i64 %92, %93
  %conv4.i = sitofp i64 %sub3.i to double
  %mul.i = fmul fast double %conv4.i, 0x3EB0C6F7A0B5ED8D
  %add.i = fadd fast double %mul.i, %conv.i
  %conv5.i = fptrunc double %add.i to float
  %conv107 = fpext float %conv5.i to double
  %call109 = call i32 (i8*, ...) @printf(i8* nonnull dereferenceable(1) getelementptr inbounds ([25 x i8], [25 x i8]* @.str.27, i64 0, i64 0), double %conv107)
  br label %for.body113

_ZN9GMMOutputD2Ev.exit256:                        ; preds = %for.body113
  %putchar = call i32 @putchar(i32 10)
  call void @llvm.lifetime.end.p0i8(i64 16, i8* nonnull %40) #38
  call void @llvm.lifetime.end.p0i8(i64 16, i8* nonnull %39) #38
  %94 = bitcast double* %cond.i.i.i.i514 to i8*
  call void @_ZdlPv(i8* nonnull %94) #38
  %95 = load double*, double** %_M_start.i17.i, align 8, !tbaa !51
  %tobool.not.i.i.i.i258 = icmp eq double* %95, null
  br i1 %tobool.not.i.i.i.i258, label %_ZNSt6vectorIdSaIdEED2Ev.exit.i262, label %if.then.i.i.i.i259

if.then.i.i.i.i259:                               ; preds = %_ZN9GMMOutputD2Ev.exit256
  %96 = bitcast double* %95 to i8*
  call void @_ZdlPv(i8* nonnull %96) #38
  br label %_ZNSt6vectorIdSaIdEED2Ev.exit.i262

_ZNSt6vectorIdSaIdEED2Ev.exit.i262:               ; preds = %if.then.i.i.i.i259, %_ZN9GMMOutputD2Ev.exit256
  %97 = load double*, double** %_M_start.i18.i, align 8, !tbaa !51
  %tobool.not.i.i.i2.i261 = icmp eq double* %97, null
  br i1 %tobool.not.i.i.i2.i261, label %_ZNSt6vectorIdSaIdEED2Ev.exit4.i266, label %if.then.i.i.i3.i263

if.then.i.i.i3.i263:                              ; preds = %_ZNSt6vectorIdSaIdEED2Ev.exit.i262
  %98 = bitcast double* %97 to i8*
  call void @_ZdlPv(i8* nonnull %98) #38
  br label %_ZNSt6vectorIdSaIdEED2Ev.exit4.i266

_ZNSt6vectorIdSaIdEED2Ev.exit4.i266:              ; preds = %if.then.i.i.i3.i263, %_ZNSt6vectorIdSaIdEED2Ev.exit.i262
  %99 = load double*, double** %_M_start.i21.i, align 8, !tbaa !51
  %tobool.not.i.i.i6.i265 = icmp eq double* %99, null
  br i1 %tobool.not.i.i.i6.i265, label %_ZNSt6vectorIdSaIdEED2Ev.exit8.i270, label %if.then.i.i.i7.i267

if.then.i.i.i7.i267:                              ; preds = %_ZNSt6vectorIdSaIdEED2Ev.exit4.i266
  %100 = bitcast double* %99 to i8*
  call void @_ZdlPv(i8* nonnull %100) #38
  br label %_ZNSt6vectorIdSaIdEED2Ev.exit8.i270

_ZNSt6vectorIdSaIdEED2Ev.exit8.i270:              ; preds = %if.then.i.i.i7.i267, %_ZNSt6vectorIdSaIdEED2Ev.exit4.i266
  %101 = load double*, double** %_M_start.i30.i, align 8, !tbaa !51
  %tobool.not.i.i.i10.i269 = icmp eq double* %101, null
  br i1 %tobool.not.i.i.i10.i269, label %_ZN8GMMInputD2Ev.exit272, label %if.then.i.i.i11.i271

if.then.i.i.i11.i271:                             ; preds = %_ZNSt6vectorIdSaIdEED2Ev.exit8.i270
  %102 = bitcast double* %101 to i8*
  call void @_ZdlPv(i8* nonnull %102) #38
  br label %_ZN8GMMInputD2Ev.exit272

_ZN8GMMInputD2Ev.exit272:                         ; preds = %_ZNSt6vectorIdSaIdEED2Ev.exit8.i270, %if.then.i.i.i11.i271
  call void @llvm.lifetime.end.p0i8(i64 128, i8* nonnull %35) #38
  call void @llvm.lifetime.start.p0i8(i64 128, i8* nonnull %42) #38
  call void @llvm.memset.p0i8.i64(i8* nonnull align 8 dereferenceable(96) %43, i8 0, i64 96, i1 false) #38
  call void @llvm.lifetime.start.p0i8(i64 32, i8* nonnull %44) #38
  invoke void @_ZStplIcSt11char_traitsIcESaIcEENSt7__cxx1112basic_stringIT_T0_T1_EEPKS5_RKS8_(%"class.std::__cxx11::basic_string"* nonnull sret(%"class.std::__cxx11::basic_string") align 8 %ref.tmp131, i8* getelementptr inbounds ([6 x i8], [6 x i8]* @.str.26, i64 0, i64 0), %"class.std::__cxx11::basic_string"* nonnull align 8 dereferenceable(32) %path)
          to label %invoke.cont133 unwind label %lpad132

lpad84:                                           ; preds = %if.end
  %103 = landingpad { i8*, i32 }
          cleanup
  br label %ehcleanup91

lpad88:                                           ; preds = %invoke.cont85
  %104 = landingpad { i8*, i32 }
          cleanup
  %105 = load i8*, i8** %_M_p.i.i.i.i218, align 8, !tbaa !17
  %cmp.i.i.i276 = icmp eq i8* %105, %arraydecay.i.i.i.i219
  br i1 %cmp.i.i.i276, label %ehcleanup91, label %if.then.i.i277

if.then.i.i277:                                   ; preds = %lpad88
  call void @_ZdlPv(i8* %105) #38
  br label %ehcleanup91

ehcleanup91:                                      ; preds = %if.then.i.i277, %lpad88, %lpad84
  %.pn31 = phi { i8*, i32 } [ %103, %lpad84 ], [ %104, %lpad88 ], [ %104, %if.then.i.i277 ]
  call void @llvm.lifetime.end.p0i8(i64 32, i8* nonnull %37) #38
  br label %ehcleanup128

lpad98.loopexit:                                  ; preds = %_ZNSt16allocator_traitsISaIdEE8allocateERS0_m.exit.i.i.i.i
  %lpad.loopexit = landingpad { i8*, i32 }
          cleanup
  br label %ehcleanup128

lpad98.loopexit.split-lp:                         ; preds = %if.then.i.i228
  %lpad.loopexit.split-lp = landingpad { i8*, i32 }
          cleanup
  br label %ehcleanup128

lpad103:                                          ; preds = %invoke.cont99
  %106 = landingpad { i8*, i32 }
          cleanup
  call void @llvm.lifetime.end.p0i8(i64 16, i8* nonnull %40) #38
  call void @llvm.lifetime.end.p0i8(i64 16, i8* nonnull %39) #38
  %tobool.not.i.i.i.i281 = icmp eq double* %cond.i.i.i.i514, null
  br i1 %tobool.not.i.i.i.i281, label %ehcleanup128, label %if.then.i.i.i.i282

if.then.i.i.i.i282:                               ; preds = %lpad103
  %107 = bitcast double* %cond.i.i.i.i514 to i8*
  call void @_ZdlPv(i8* nonnull %107) #38
  br label %ehcleanup128

for.body113:                                      ; preds = %invoke.cont104, %for.body113
  %indvars.iv = phi i64 [ 0, %invoke.cont104 ], [ %indvars.iv.next, %for.body113 ]
  %add.ptr.i286 = getelementptr inbounds double, double* %cond.i.i.i.i514, i64 %indvars.iv
  %108 = load double, double* %add.ptr.i286, align 8, !tbaa !70
  %call119 = call i32 (i8*, ...) @printf(i8* nonnull dereferenceable(1) getelementptr inbounds ([4 x i8], [4 x i8]* @.str.28, i64 0, i64 0), double %108)
  %indvars.iv.next = add nuw nsw i64 %indvars.iv, 1
  %exitcond.not = icmp eq i64 %indvars.iv.next, 5
  br i1 %exitcond.not, label %_ZN9GMMOutputD2Ev.exit256, label %for.body113, !llvm.loop !72

invoke.cont133:                                   ; preds = %_ZN8GMMInputD2Ev.exit272
  invoke void @_Z17read_gmm_instanceRKNSt7__cxx1112basic_stringIcSt11char_traitsIcESaIcEEEPiS7_S7_RSt6vectorIdSaIdEESB_SB_SB_R7Wishartb(%"class.std::__cxx11::basic_string"* nonnull align 8 dereferenceable(32) %ref.tmp131, i32* nonnull %d134, i32* nonnull %k135, i32* nonnull %n136, %"class.std::vector.3"* nonnull align 8 dereferenceable(24) %alphas.i273, %"class.std::vector.3"* nonnull align 8 dereferenceable(24) %means138, %"class.std::vector.3"* nonnull align 8 dereferenceable(24) %icf139, %"class.std::vector.3"* nonnull align 8 dereferenceable(24) %x140, %struct.Wishart* nonnull align 8 dereferenceable(16) %wishart141, i1 zeroext %13)
          to label %invoke.cont145 unwind label %lpad144

invoke.cont145:                                   ; preds = %invoke.cont133
  %109 = load i8*, i8** %_M_p.i.i.i.i287, align 8, !tbaa !17
  %cmp.i.i.i289 = icmp eq i8* %109, %arraydecay.i.i.i.i288
  br i1 %cmp.i.i.i289, label %_ZNSt7__cxx1112basic_stringIcSt11char_traitsIcESaIcEED2Ev.exit292, label %if.then.i.i290

if.then.i.i290:                                   ; preds = %invoke.cont145
  call void @_ZdlPv(i8* %109) #38
  br label %_ZNSt7__cxx1112basic_stringIcSt11char_traitsIcESaIcEED2Ev.exit292

_ZNSt7__cxx1112basic_stringIcSt11char_traitsIcESaIcEED2Ev.exit292: ; preds = %invoke.cont145, %if.then.i.i290
  call void @llvm.lifetime.end.p0i8(i64 32, i8* nonnull %44) #38
  %110 = load i32, i32* %k135, align 4, !tbaa !64
  %111 = load i32, i32* %d134, align 8, !tbaa !69
  %add151 = add nsw i32 %111, 1
  %mul152 = mul nsw i32 %add151, %110
  %add154 = add nsw i32 %111, 2
  %mul155 = mul nsw i32 %mul152, %add154
  %div156 = sdiv i32 %mul155, 2
  %conv160 = sext i32 %div156 to i64
  %cmp.i.i293 = icmp slt i32 %mul155, -1
  br i1 %cmp.i.i293, label %if.then.i.i294, label %_ZNSt6vectorIdSaIdEE17_S_check_init_lenEmRKS0_.exit.i296

if.then.i.i294:                                   ; preds = %_ZNSt7__cxx1112basic_stringIcSt11char_traitsIcESaIcEED2Ev.exit292
  invoke void @_ZSt20__throw_length_errorPKc(i8* getelementptr inbounds ([49 x i8], [49 x i8]* @.str.123, i64 0, i64 0)) #40
          to label %.noexc309 unwind label %lpad162.loopexit.split-lp

.noexc309:                                        ; preds = %if.then.i.i294
  unreachable

_ZNSt6vectorIdSaIdEE17_S_check_init_lenEmRKS0_.exit.i296: ; preds = %_ZNSt7__cxx1112basic_stringIcSt11char_traitsIcESaIcEED2Ev.exit292
  %mul155.off = add i32 %mul155, 1
  %112 = icmp ult i32 %mul155.off, 3
  br i1 %112, label %invoke.cont163, label %_ZNSt16allocator_traitsISaIdEE8allocateERS0_m.exit.i.i.i.i298

_ZNSt16allocator_traitsISaIdEE8allocateERS0_m.exit.i.i.i.i298: ; preds = %_ZNSt6vectorIdSaIdEE17_S_check_init_lenEmRKS0_.exit.i296
  %mul.i.i.i.i.i.i297 = shl nuw nsw i64 %conv160, 3
  %call2.i.i.i.i1.i.i311 = invoke noalias nonnull i8* @_Znwm(i64 %mul.i.i.i.i.i.i297) #42
          to label %for.body.i.i.preheader.i.i.i.i.i305 unwind label %lpad162.loopexit

for.body.i.i.preheader.i.i.i.i.i305:              ; preds = %_ZNSt16allocator_traitsISaIdEE8allocateERS0_m.exit.i.i.i.i298
  %113 = bitcast i8* %call2.i.i.i.i1.i.i311 to double*
  call void @llvm.memset.p0i8.i64(i8* nonnull align 8 %call2.i.i.i.i1.i.i311, i8 0, i64 %mul.i.i.i.i.i.i297, i1 false)
  br label %invoke.cont163

invoke.cont163:                                   ; preds = %_ZNSt6vectorIdSaIdEE17_S_check_init_lenEmRKS0_.exit.i296, %for.body.i.i.preheader.i.i.i.i.i305
  %cond.i.i.i.i299519 = phi double* [ %113, %for.body.i.i.preheader.i.i.i.i.i305 ], [ null, %_ZNSt6vectorIdSaIdEE17_S_check_init_lenEmRKS0_.exit.i296 ]
  call void @llvm.lifetime.start.p0i8(i64 16, i8* nonnull %46) #38
  call void @llvm.lifetime.start.p0i8(i64 16, i8* nonnull %47) #38
  %call168 = call i32 @gettimeofday(%struct.timeval* nonnull %start166, i8* null) #38
  %114 = load double*, double** %_M_finish.i29.i314, align 8, !tbaa !49
  %115 = load double*, double** %_M_start.i30.i315, align 8, !tbaa !51
  %sub.ptr.lhs.cast.i31.i316 = ptrtoint double* %114 to i64
  %sub.ptr.rhs.cast.i32.i317 = ptrtoint double* %115 to i64
  %sub.ptr.sub.i33.i318 = sub i64 %sub.ptr.lhs.cast.i31.i316, %sub.ptr.rhs.cast.i32.i317
  %sub.ptr.div.i34.i319 = ashr exact i64 %sub.ptr.sub.i33.i318, 3
  %add.ptr.i320 = getelementptr inbounds double, double* %cond.i.i.i.i299519, i64 %sub.ptr.div.i34.i319
  %116 = load double*, double** %_M_finish.i.i321, align 8, !tbaa !49
  %117 = load double*, double** %_M_start.i21.i322, align 8, !tbaa !51
  %sub.ptr.lhs.cast.i.i323 = ptrtoint double* %116 to i64
  %sub.ptr.rhs.cast.i.i324 = ptrtoint double* %117 to i64
  %sub.ptr.sub.i.i325 = sub i64 %sub.ptr.lhs.cast.i.i323, %sub.ptr.rhs.cast.i.i324
  %sub.ptr.div.i.i326 = ashr exact i64 %sub.ptr.sub.i.i325, 3
  %add.ptr10.i327 = getelementptr inbounds double, double* %add.ptr.i320, i64 %sub.ptr.div.i.i326
  %118 = load i32, i32* %d134, align 8, !tbaa !69
  %119 = load i32, i32* %k135, align 4, !tbaa !64
  %120 = load i32, i32* %n136, align 8, !tbaa !71
  %121 = load double*, double** %_M_start.i18.i331, align 8, !tbaa !51
  %122 = load double*, double** %_M_start.i17.i332, align 8, !tbaa !51
  invoke void @adept_dgmm_objective(i32 %118, i32 %119, i32 %120, double* %115, double* %cond.i.i.i.i299519, double* %117, double* %add.ptr.i320, double* %121, double* %add.ptr10.i327, double* %122, %struct.Wishart* nonnull byval(%struct.Wishart) align 8 %wishart141, double* undef, double* undef)
          to label %invoke.cont170 unwind label %lpad169

invoke.cont170:                                   ; preds = %invoke.cont163
  %call171 = call i32 @gettimeofday(%struct.timeval* nonnull %end167, i8* null) #38
  %123 = load i64, i64* %tv_sec.i335, align 8, !tbaa !44
  %124 = load i64, i64* %tv_sec1.i336, align 8, !tbaa !44
  %sub.i337 = sub nsw i64 %123, %124
  %conv.i338 = sitofp i64 %sub.i337 to double
  %125 = load i64, i64* %tv_usec.i339, align 8, !tbaa !46
  %126 = load i64, i64* %tv_usec2.i340, align 8, !tbaa !46
  %sub3.i341 = sub nsw i64 %125, %126
  %conv4.i342 = sitofp i64 %sub3.i341 to double
  %mul.i343 = fmul fast double %conv4.i342, 0x3EB0C6F7A0B5ED8D
  %add.i344 = fadd fast double %mul.i343, %conv.i338
  %conv5.i345 = fptrunc double %add.i344 to float
  %conv173 = fpext float %conv5.i345 to double
  %call175 = call i32 (i8*, ...) @printf(i8* nonnull dereferenceable(1) getelementptr inbounds ([22 x i8], [22 x i8]* @.str.30, i64 0, i64 0), double %conv173)
  br label %for.body180

try.cont.thread:                                  ; preds = %for.body180
  %putchar44 = call i32 @putchar(i32 10)
  call void @llvm.lifetime.end.p0i8(i64 16, i8* nonnull %47) #38
  call void @llvm.lifetime.end.p0i8(i64 16, i8* nonnull %46) #38
  br label %if.then.i.i.i.i372

ehcleanup128:                                     ; preds = %lpad98.loopexit, %lpad98.loopexit.split-lp, %lpad103, %if.then.i.i.i.i282, %ehcleanup91
  %.pn33.pn = phi { i8*, i32 } [ %.pn31, %ehcleanup91 ], [ %106, %lpad103 ], [ %106, %if.then.i.i.i.i282 ], [ %lpad.loopexit, %lpad98.loopexit ], [ %lpad.loopexit.split-lp, %lpad98.loopexit.split-lp ]
  %127 = load double*, double** %_M_start.i17.i, align 8, !tbaa !51
  %tobool.not.i.i.i.i347 = icmp eq double* %127, null
  br i1 %tobool.not.i.i.i.i347, label %_ZNSt6vectorIdSaIdEED2Ev.exit.i351, label %if.then.i.i.i.i348

if.then.i.i.i.i348:                               ; preds = %ehcleanup128
  %128 = bitcast double* %127 to i8*
  call void @_ZdlPv(i8* nonnull %128) #38
  br label %_ZNSt6vectorIdSaIdEED2Ev.exit.i351

_ZNSt6vectorIdSaIdEED2Ev.exit.i351:               ; preds = %if.then.i.i.i.i348, %ehcleanup128
  %129 = load double*, double** %_M_start.i18.i, align 8, !tbaa !51
  %tobool.not.i.i.i2.i350 = icmp eq double* %129, null
  br i1 %tobool.not.i.i.i2.i350, label %_ZNSt6vectorIdSaIdEED2Ev.exit4.i355, label %if.then.i.i.i3.i352

if.then.i.i.i3.i352:                              ; preds = %_ZNSt6vectorIdSaIdEED2Ev.exit.i351
  %130 = bitcast double* %129 to i8*
  call void @_ZdlPv(i8* nonnull %130) #38
  br label %_ZNSt6vectorIdSaIdEED2Ev.exit4.i355

_ZNSt6vectorIdSaIdEED2Ev.exit4.i355:              ; preds = %if.then.i.i.i3.i352, %_ZNSt6vectorIdSaIdEED2Ev.exit.i351
  %131 = load double*, double** %_M_start.i21.i, align 8, !tbaa !51
  %tobool.not.i.i.i6.i354 = icmp eq double* %131, null
  br i1 %tobool.not.i.i.i6.i354, label %_ZNSt6vectorIdSaIdEED2Ev.exit8.i359, label %if.then.i.i.i7.i356

if.then.i.i.i7.i356:                              ; preds = %_ZNSt6vectorIdSaIdEED2Ev.exit4.i355
  %132 = bitcast double* %131 to i8*
  call void @_ZdlPv(i8* nonnull %132) #38
  br label %_ZNSt6vectorIdSaIdEED2Ev.exit8.i359

_ZNSt6vectorIdSaIdEED2Ev.exit8.i359:              ; preds = %if.then.i.i.i7.i356, %_ZNSt6vectorIdSaIdEED2Ev.exit4.i355
  %133 = load double*, double** %_M_start.i30.i, align 8, !tbaa !51
  %tobool.not.i.i.i10.i358 = icmp eq double* %133, null
  br i1 %tobool.not.i.i.i10.i358, label %_ZN8GMMInputD2Ev.exit361, label %if.then.i.i.i11.i360

if.then.i.i.i11.i360:                             ; preds = %_ZNSt6vectorIdSaIdEED2Ev.exit8.i359
  %134 = bitcast double* %133 to i8*
  call void @_ZdlPv(i8* nonnull %134) #38
  br label %_ZN8GMMInputD2Ev.exit361

_ZN8GMMInputD2Ev.exit361:                         ; preds = %_ZNSt6vectorIdSaIdEED2Ev.exit8.i359, %if.then.i.i.i11.i360
  call void @llvm.lifetime.end.p0i8(i64 128, i8* nonnull %35) #38
  br label %ehcleanup279

lpad132:                                          ; preds = %_ZN8GMMInputD2Ev.exit272
  %135 = landingpad { i8*, i32 }
          cleanup
  br label %ehcleanup147

lpad144:                                          ; preds = %invoke.cont133
  %136 = landingpad { i8*, i32 }
          cleanup
  %137 = load i8*, i8** %_M_p.i.i.i.i287, align 8, !tbaa !17
  %cmp.i.i.i364 = icmp eq i8* %137, %arraydecay.i.i.i.i288
  br i1 %cmp.i.i.i364, label %ehcleanup147, label %if.then.i.i365

if.then.i.i365:                                   ; preds = %lpad144
  call void @_ZdlPv(i8* %137) #38
  br label %ehcleanup147

ehcleanup147:                                     ; preds = %if.then.i.i365, %lpad144, %lpad132
  %.pn36 = phi { i8*, i32 } [ %135, %lpad132 ], [ %136, %lpad144 ], [ %136, %if.then.i.i365 ]
  call void @llvm.lifetime.end.p0i8(i64 32, i8* nonnull %44) #38
  br label %ehcleanup207

lpad162.loopexit:                                 ; preds = %_ZNSt16allocator_traitsISaIdEE8allocateERS0_m.exit.i.i.i.i298
  %lpad.loopexit529 = landingpad { i8*, i32 }
          cleanup
  br label %ehcleanup207

lpad162.loopexit.split-lp:                        ; preds = %if.then.i.i294
  %lpad.loopexit.split-lp530 = landingpad { i8*, i32 }
          cleanup
  br label %ehcleanup207

lpad169:                                          ; preds = %invoke.cont163
  %138 = landingpad { i8*, i32 }
          cleanup
          catch i8* bitcast (i8** @_ZTISt9bad_alloc to i8*)
  %139 = extractvalue { i8*, i32 } %138, 0
  %140 = extractvalue { i8*, i32 } %138, 1
  call void @llvm.lifetime.end.p0i8(i64 16, i8* nonnull %47) #38
  call void @llvm.lifetime.end.p0i8(i64 16, i8* nonnull %46) #38
  %141 = call i32 @llvm.eh.typeid.for(i8* bitcast (i8** @_ZTISt9bad_alloc to i8*)) #38
  %matches = icmp eq i32 %140, %141
  br i1 %matches, label %catch, label %ehcleanup204

for.body180:                                      ; preds = %invoke.cont170, %for.body180
  %indvars.iv732 = phi i64 [ 0, %invoke.cont170 ], [ %indvars.iv.next733, %for.body180 ]
  %add.ptr.i369 = getelementptr inbounds double, double* %cond.i.i.i.i299519, i64 %indvars.iv732
  %142 = load double, double* %add.ptr.i369, align 8, !tbaa !70
  %call186 = call i32 (i8*, ...) @printf(i8* nonnull dereferenceable(1) getelementptr inbounds ([4 x i8], [4 x i8]* @.str.28, i64 0, i64 0), double %142)
  %indvars.iv.next733 = add nuw nsw i64 %indvars.iv732, 1
  %exitcond734.not = icmp eq i64 %indvars.iv.next733, 5
  br i1 %exitcond734.not, label %try.cont.thread, label %for.body180, !llvm.loop !73

catch:                                            ; preds = %lpad169
  call void @llvm.lifetime.start.p0i8(i64 8, i8* nonnull %48) #38
  %143 = call i8* @__cxa_get_exception_ptr(i8* %139) #38
  store i32 (...)** bitcast (i8** getelementptr inbounds ({ [5 x i8*] }, { [5 x i8*] }* @_ZTVSt9bad_alloc, i64 0, inrange i32 0, i64 2) to i32 (...)**), i32 (...)*** %49, align 8, !tbaa !74
  %144 = call i8* @__cxa_begin_catch(i8* %139) #38
  %puts38 = call i32 @puts(i8* nonnull dereferenceable(1) getelementptr inbounds ([29 x i8], [29 x i8]* @str.1, i64 0, i64 0))
  call void @_ZNSt9bad_allocD1Ev(%"class.std::bad_alloc"* nonnull dereferenceable(8) %0) #38
  invoke void @__cxa_end_catch()
          to label %try.cont unwind label %lpad199

try.cont:                                         ; preds = %catch
  call void @llvm.lifetime.end.p0i8(i64 8, i8* nonnull %48) #38
  %tobool.not.i.i.i.i371 = icmp eq double* %cond.i.i.i.i299519, null
  br i1 %tobool.not.i.i.i.i371, label %_ZN9GMMOutputD2Ev.exit374, label %if.then.i.i.i.i372

if.then.i.i.i.i372:                               ; preds = %try.cont.thread, %try.cont
  %145 = bitcast double* %cond.i.i.i.i299519 to i8*
  call void @_ZdlPv(i8* nonnull %145) #38
  br label %_ZN9GMMOutputD2Ev.exit374

_ZN9GMMOutputD2Ev.exit374:                        ; preds = %try.cont, %if.then.i.i.i.i372
  %146 = load double*, double** %_M_start.i17.i332, align 8, !tbaa !51
  %tobool.not.i.i.i.i376 = icmp eq double* %146, null
  br i1 %tobool.not.i.i.i.i376, label %_ZNSt6vectorIdSaIdEED2Ev.exit.i380, label %if.then.i.i.i.i377

if.then.i.i.i.i377:                               ; preds = %_ZN9GMMOutputD2Ev.exit374
  %147 = bitcast double* %146 to i8*
  call void @_ZdlPv(i8* nonnull %147) #38
  br label %_ZNSt6vectorIdSaIdEED2Ev.exit.i380

_ZNSt6vectorIdSaIdEED2Ev.exit.i380:               ; preds = %if.then.i.i.i.i377, %_ZN9GMMOutputD2Ev.exit374
  %148 = load double*, double** %_M_start.i18.i331, align 8, !tbaa !51
  %tobool.not.i.i.i2.i379 = icmp eq double* %148, null
  br i1 %tobool.not.i.i.i2.i379, label %_ZNSt6vectorIdSaIdEED2Ev.exit4.i384, label %if.then.i.i.i3.i381

if.then.i.i.i3.i381:                              ; preds = %_ZNSt6vectorIdSaIdEED2Ev.exit.i380
  %149 = bitcast double* %148 to i8*
  call void @_ZdlPv(i8* nonnull %149) #38
  br label %_ZNSt6vectorIdSaIdEED2Ev.exit4.i384

_ZNSt6vectorIdSaIdEED2Ev.exit4.i384:              ; preds = %if.then.i.i.i3.i381, %_ZNSt6vectorIdSaIdEED2Ev.exit.i380
  %150 = load double*, double** %_M_start.i21.i322, align 8, !tbaa !51
  %tobool.not.i.i.i6.i383 = icmp eq double* %150, null
  br i1 %tobool.not.i.i.i6.i383, label %_ZNSt6vectorIdSaIdEED2Ev.exit8.i388, label %if.then.i.i.i7.i385

if.then.i.i.i7.i385:                              ; preds = %_ZNSt6vectorIdSaIdEED2Ev.exit4.i384
  %151 = bitcast double* %150 to i8*
  call void @_ZdlPv(i8* nonnull %151) #38
  br label %_ZNSt6vectorIdSaIdEED2Ev.exit8.i388

_ZNSt6vectorIdSaIdEED2Ev.exit8.i388:              ; preds = %if.then.i.i.i7.i385, %_ZNSt6vectorIdSaIdEED2Ev.exit4.i384
  %152 = load double*, double** %_M_start.i30.i315, align 8, !tbaa !51
  %tobool.not.i.i.i10.i387 = icmp eq double* %152, null
  br i1 %tobool.not.i.i.i10.i387, label %_ZN8GMMInputD2Ev.exit390, label %if.then.i.i.i11.i389

if.then.i.i.i11.i389:                             ; preds = %_ZNSt6vectorIdSaIdEED2Ev.exit8.i388
  %153 = bitcast double* %152 to i8*
  call void @_ZdlPv(i8* nonnull %153) #38
  br label %_ZN8GMMInputD2Ev.exit390

_ZN8GMMInputD2Ev.exit390:                         ; preds = %_ZNSt6vectorIdSaIdEED2Ev.exit8.i388, %if.then.i.i.i11.i389
  call void @llvm.lifetime.end.p0i8(i64 128, i8* nonnull %42) #38
  call void @llvm.lifetime.start.p0i8(i64 128, i8* nonnull %50) #38
  call void @llvm.memset.p0i8.i64(i8* nonnull align 8 dereferenceable(96) %51, i8 0, i64 96, i1 false) #38
  call void @llvm.lifetime.start.p0i8(i64 32, i8* nonnull %52) #38
  invoke void @_ZStplIcSt11char_traitsIcESaIcEENSt7__cxx1112basic_stringIT_T0_T1_EEPKS5_RKS8_(%"class.std::__cxx11::basic_string"* nonnull sret(%"class.std::__cxx11::basic_string") align 8 %ref.tmp210, i8* getelementptr inbounds ([6 x i8], [6 x i8]* @.str.26, i64 0, i64 0), %"class.std::__cxx11::basic_string"* nonnull align 8 dereferenceable(32) %path)
          to label %invoke.cont212 unwind label %lpad211

invoke.cont212:                                   ; preds = %_ZN8GMMInputD2Ev.exit390
  invoke void @_Z17read_gmm_instanceRKNSt7__cxx1112basic_stringIcSt11char_traitsIcESaIcEEEPiS7_S7_RSt6vectorIdSaIdEESB_SB_SB_R7Wishartb(%"class.std::__cxx11::basic_string"* nonnull align 8 dereferenceable(32) %ref.tmp210, i32* nonnull %d213, i32* nonnull %k214, i32* nonnull %n215, %"class.std::vector.3"* nonnull align 8 dereferenceable(24) %alphas.i391, %"class.std::vector.3"* nonnull align 8 dereferenceable(24) %means217, %"class.std::vector.3"* nonnull align 8 dereferenceable(24) %icf218, %"class.std::vector.3"* nonnull align 8 dereferenceable(24) %x219, %struct.Wishart* nonnull align 8 dereferenceable(16) %wishart220, i1 zeroext %13)
          to label %invoke.cont224 unwind label %lpad223

invoke.cont224:                                   ; preds = %invoke.cont212
  %154 = load i8*, i8** %_M_p.i.i.i.i392, align 8, !tbaa !17
  %cmp.i.i.i394 = icmp eq i8* %154, %arraydecay.i.i.i.i393
  br i1 %cmp.i.i.i394, label %_ZNSt7__cxx1112basic_stringIcSt11char_traitsIcESaIcEED2Ev.exit397, label %if.then.i.i395

if.then.i.i395:                                   ; preds = %invoke.cont224
  call void @_ZdlPv(i8* %154) #38
  br label %_ZNSt7__cxx1112basic_stringIcSt11char_traitsIcESaIcEED2Ev.exit397

_ZNSt7__cxx1112basic_stringIcSt11char_traitsIcESaIcEED2Ev.exit397: ; preds = %invoke.cont224, %if.then.i.i395
  call void @llvm.lifetime.end.p0i8(i64 32, i8* nonnull %52) #38
  %155 = load i32, i32* %k214, align 4, !tbaa !64
  %156 = load i32, i32* %d213, align 8, !tbaa !69
  %add230 = add nsw i32 %156, 1
  %mul231 = mul nsw i32 %add230, %155
  %add233 = add nsw i32 %156, 2
  %mul234 = mul nsw i32 %mul231, %add233
  %div235 = sdiv i32 %mul234, 2
  %conv239 = sext i32 %div235 to i64
  %cmp.i.i398 = icmp slt i32 %mul234, -1
  br i1 %cmp.i.i398, label %if.then.i.i399, label %_ZNSt6vectorIdSaIdEE17_S_check_init_lenEmRKS0_.exit.i401

if.then.i.i399:                                   ; preds = %_ZNSt7__cxx1112basic_stringIcSt11char_traitsIcESaIcEED2Ev.exit397
  invoke void @_ZSt20__throw_length_errorPKc(i8* getelementptr inbounds ([49 x i8], [49 x i8]* @.str.123, i64 0, i64 0)) #40
          to label %.noexc414 unwind label %lpad241.loopexit.split-lp

.noexc414:                                        ; preds = %if.then.i.i399
  unreachable

_ZNSt6vectorIdSaIdEE17_S_check_init_lenEmRKS0_.exit.i401: ; preds = %_ZNSt7__cxx1112basic_stringIcSt11char_traitsIcESaIcEED2Ev.exit397
  %mul234.off = add i32 %mul234, 1
  %157 = icmp ult i32 %mul234.off, 3
  br i1 %157, label %invoke.cont242, label %_ZNSt16allocator_traitsISaIdEE8allocateERS0_m.exit.i.i.i.i403

_ZNSt16allocator_traitsISaIdEE8allocateERS0_m.exit.i.i.i.i403: ; preds = %_ZNSt6vectorIdSaIdEE17_S_check_init_lenEmRKS0_.exit.i401
  %mul.i.i.i.i.i.i402 = shl nuw nsw i64 %conv239, 3
  %call2.i.i.i.i1.i.i416 = invoke noalias nonnull i8* @_Znwm(i64 %mul.i.i.i.i.i.i402) #42
          to label %for.body.i.i.preheader.i.i.i.i.i410 unwind label %lpad241.loopexit

for.body.i.i.preheader.i.i.i.i.i410:              ; preds = %_ZNSt16allocator_traitsISaIdEE8allocateERS0_m.exit.i.i.i.i403
  %158 = bitcast i8* %call2.i.i.i.i1.i.i416 to double*
  call void @llvm.memset.p0i8.i64(i8* nonnull align 8 %call2.i.i.i.i1.i.i416, i8 0, i64 %mul.i.i.i.i.i.i402, i1 false)
  br label %invoke.cont242

invoke.cont242:                                   ; preds = %_ZNSt6vectorIdSaIdEE17_S_check_init_lenEmRKS0_.exit.i401, %for.body.i.i.preheader.i.i.i.i.i410
  %cond.i.i.i.i404526 = phi double* [ %158, %for.body.i.i.preheader.i.i.i.i.i410 ], [ null, %_ZNSt6vectorIdSaIdEE17_S_check_init_lenEmRKS0_.exit.i401 ]
  call void @llvm.lifetime.start.p0i8(i64 16, i8* nonnull %54) #38
  call void @llvm.lifetime.start.p0i8(i64 16, i8* nonnull %55) #38
  %call247 = call i32 @gettimeofday(%struct.timeval* nonnull %start245, i8* null) #38
  %159 = load double*, double** %_M_finish.i29.i420, align 8, !tbaa !49
  %160 = load double*, double** %_M_start.i30.i421, align 8, !tbaa !51
  %sub.ptr.lhs.cast.i31.i422 = ptrtoint double* %159 to i64
  %sub.ptr.rhs.cast.i32.i423 = ptrtoint double* %160 to i64
  %sub.ptr.sub.i33.i424 = sub i64 %sub.ptr.lhs.cast.i31.i422, %sub.ptr.rhs.cast.i32.i423
  %sub.ptr.div.i34.i425 = ashr exact i64 %sub.ptr.sub.i33.i424, 3
  %add.ptr.i426 = getelementptr inbounds double, double* %cond.i.i.i.i404526, i64 %sub.ptr.div.i34.i425
  %161 = load double*, double** %_M_finish.i.i427, align 8, !tbaa !49
  %162 = load double*, double** %_M_start.i21.i428, align 8, !tbaa !51
  %sub.ptr.lhs.cast.i.i429 = ptrtoint double* %161 to i64
  %sub.ptr.rhs.cast.i.i430 = ptrtoint double* %162 to i64
  %sub.ptr.sub.i.i431 = sub i64 %sub.ptr.lhs.cast.i.i429, %sub.ptr.rhs.cast.i.i430
  %sub.ptr.div.i.i432 = ashr exact i64 %sub.ptr.sub.i.i431, 3
  %add.ptr10.i433 = getelementptr inbounds double, double* %add.ptr.i426, i64 %sub.ptr.div.i.i432
  call void @llvm.lifetime.start.p0i8(i64 8, i8* nonnull %56) #38
  store double 1.000000e+00, double* %errb.i418, align 8, !tbaa !70
  %163 = load i32, i32* %d213, align 8, !tbaa !69
  %164 = load i32, i32* %k214, align 4, !tbaa !64
  %165 = load i32, i32* %n215, align 8, !tbaa !71
  %166 = load double*, double** %_M_start.i18.i437, align 8, !tbaa !51
  %167 = load double*, double** %_M_start.i17.i438, align 8, !tbaa !51
  call void @dgmm_objective(i32 %163, i32 %164, i32 %165, double* %160, double* %cond.i.i.i.i404526, double* %162, double* %add.ptr.i426, double* %166, double* %add.ptr10.i433, double* %167, %struct.Wishart* nonnull byval(%struct.Wishart) align 8 %wishart220, double* undef, double* nonnull %errb.i418) #38
  call void @llvm.lifetime.end.p0i8(i64 8, i8* nonnull %56) #38
  %call250 = call i32 @gettimeofday(%struct.timeval* nonnull %end246, i8* null) #38
  %168 = load i64, i64* %tv_sec.i440, align 8, !tbaa !44
  %169 = load i64, i64* %tv_sec1.i441, align 8, !tbaa !44
  %sub.i442 = sub nsw i64 %168, %169
  %conv.i443 = sitofp i64 %sub.i442 to double
  %170 = load i64, i64* %tv_usec.i444, align 8, !tbaa !46
  %171 = load i64, i64* %tv_usec2.i445, align 8, !tbaa !46
  %sub3.i446 = sub nsw i64 %170, %171
  %conv4.i447 = sitofp i64 %sub3.i446 to double
  %mul.i448 = fmul fast double %conv4.i447, 0x3EB0C6F7A0B5ED8D
  %add.i449 = fadd fast double %mul.i448, %conv.i443
  %conv5.i450 = fptrunc double %add.i449 to float
  %conv252 = fpext float %conv5.i450 to double
  %call254 = call i32 (i8*, ...) @printf(i8* nonnull dereferenceable(1) getelementptr inbounds ([23 x i8], [23 x i8]* @.str.32, i64 0, i64 0), double %conv252)
  br label %for.body259

_ZN9GMMOutputD2Ev.exit455:                        ; preds = %for.body259
  %putchar43 = call i32 @putchar(i32 10)
  call void @llvm.lifetime.end.p0i8(i64 16, i8* nonnull %55) #38
  call void @llvm.lifetime.end.p0i8(i64 16, i8* nonnull %54) #38
  %172 = bitcast double* %cond.i.i.i.i404526 to i8*
  call void @_ZdlPv(i8* nonnull %172) #38
  %173 = load double*, double** %_M_start.i17.i438, align 8, !tbaa !51
  %tobool.not.i.i.i.i237 = icmp eq double* %173, null
  br i1 %tobool.not.i.i.i.i237, label %_ZNSt6vectorIdSaIdEED2Ev.exit.i241, label %if.then.i.i.i.i238

if.then.i.i.i.i238:                               ; preds = %_ZN9GMMOutputD2Ev.exit455
  %174 = bitcast double* %173 to i8*
  call void @_ZdlPv(i8* nonnull %174) #38
  br label %_ZNSt6vectorIdSaIdEED2Ev.exit.i241

_ZNSt6vectorIdSaIdEED2Ev.exit.i241:               ; preds = %if.then.i.i.i.i238, %_ZN9GMMOutputD2Ev.exit455
  %175 = load double*, double** %_M_start.i18.i437, align 8, !tbaa !51
  %tobool.not.i.i.i2.i240 = icmp eq double* %175, null
  br i1 %tobool.not.i.i.i2.i240, label %_ZNSt6vectorIdSaIdEED2Ev.exit4.i245, label %if.then.i.i.i3.i242

if.then.i.i.i3.i242:                              ; preds = %_ZNSt6vectorIdSaIdEED2Ev.exit.i241
  %176 = bitcast double* %175 to i8*
  call void @_ZdlPv(i8* nonnull %176) #38
  br label %_ZNSt6vectorIdSaIdEED2Ev.exit4.i245

_ZNSt6vectorIdSaIdEED2Ev.exit4.i245:              ; preds = %if.then.i.i.i3.i242, %_ZNSt6vectorIdSaIdEED2Ev.exit.i241
  %177 = load double*, double** %_M_start.i21.i428, align 8, !tbaa !51
  %tobool.not.i.i.i6.i244 = icmp eq double* %177, null
  br i1 %tobool.not.i.i.i6.i244, label %_ZNSt6vectorIdSaIdEED2Ev.exit8.i249, label %if.then.i.i.i7.i246

if.then.i.i.i7.i246:                              ; preds = %_ZNSt6vectorIdSaIdEED2Ev.exit4.i245
  %178 = bitcast double* %177 to i8*
  call void @_ZdlPv(i8* nonnull %178) #38
  br label %_ZNSt6vectorIdSaIdEED2Ev.exit8.i249

_ZNSt6vectorIdSaIdEED2Ev.exit8.i249:              ; preds = %if.then.i.i.i7.i246, %_ZNSt6vectorIdSaIdEED2Ev.exit4.i245
  %179 = load double*, double** %_M_start.i30.i421, align 8, !tbaa !51
  %tobool.not.i.i.i10.i248 = icmp eq double* %179, null
  br i1 %tobool.not.i.i.i10.i248, label %_ZN8GMMInputD2Ev.exit251, label %if.then.i.i.i11.i250

if.then.i.i.i11.i250:                             ; preds = %_ZNSt6vectorIdSaIdEED2Ev.exit8.i249
  %180 = bitcast double* %179 to i8*
  call void @_ZdlPv(i8* nonnull %180) #38
  br label %_ZN8GMMInputD2Ev.exit251

_ZN8GMMInputD2Ev.exit251:                         ; preds = %_ZNSt6vectorIdSaIdEED2Ev.exit8.i249, %if.then.i.i.i11.i250
  call void @llvm.lifetime.end.p0i8(i64 128, i8* nonnull %50) #38
  br label %cleanup

lpad199:                                          ; preds = %catch
  %181 = landingpad { i8*, i32 }
          cleanup
  call void @llvm.lifetime.end.p0i8(i64 8, i8* nonnull %48) #38
  br label %ehcleanup204

ehcleanup204:                                     ; preds = %lpad169, %lpad199
  %.pn = phi { i8*, i32 } [ %181, %lpad199 ], [ %138, %lpad169 ]
  %tobool.not.i.i.i.i225 = icmp eq double* %cond.i.i.i.i299519, null
  br i1 %tobool.not.i.i.i.i225, label %ehcleanup207, label %if.then.i.i.i.i226

if.then.i.i.i.i226:                               ; preds = %ehcleanup204
  %182 = bitcast double* %cond.i.i.i.i299519 to i8*
  call void @_ZdlPv(i8* nonnull %182) #38
  br label %ehcleanup207

ehcleanup207:                                     ; preds = %lpad162.loopexit, %lpad162.loopexit.split-lp, %ehcleanup204, %if.then.i.i.i.i226, %ehcleanup147
  %.pn36.pn = phi { i8*, i32 } [ %.pn36, %ehcleanup147 ], [ %.pn, %ehcleanup204 ], [ %.pn, %if.then.i.i.i.i226 ], [ %lpad.loopexit529, %lpad162.loopexit ], [ %lpad.loopexit.split-lp530, %lpad162.loopexit.split-lp ]
  %183 = load double*, double** %_M_start.i17.i332, align 8, !tbaa !51
  %tobool.not.i.i.i.i180 = icmp eq double* %183, null
  br i1 %tobool.not.i.i.i.i180, label %_ZNSt6vectorIdSaIdEED2Ev.exit.i184, label %if.then.i.i.i.i181

if.then.i.i.i.i181:                               ; preds = %ehcleanup207
  %184 = bitcast double* %183 to i8*
  call void @_ZdlPv(i8* nonnull %184) #38
  br label %_ZNSt6vectorIdSaIdEED2Ev.exit.i184

_ZNSt6vectorIdSaIdEED2Ev.exit.i184:               ; preds = %if.then.i.i.i.i181, %ehcleanup207
  %185 = load double*, double** %_M_start.i18.i331, align 8, !tbaa !51
  %tobool.not.i.i.i2.i183 = icmp eq double* %185, null
  br i1 %tobool.not.i.i.i2.i183, label %_ZNSt6vectorIdSaIdEED2Ev.exit4.i188, label %if.then.i.i.i3.i185

if.then.i.i.i3.i185:                              ; preds = %_ZNSt6vectorIdSaIdEED2Ev.exit.i184
  %186 = bitcast double* %185 to i8*
  call void @_ZdlPv(i8* nonnull %186) #38
  br label %_ZNSt6vectorIdSaIdEED2Ev.exit4.i188

_ZNSt6vectorIdSaIdEED2Ev.exit4.i188:              ; preds = %if.then.i.i.i3.i185, %_ZNSt6vectorIdSaIdEED2Ev.exit.i184
  %187 = load double*, double** %_M_start.i21.i322, align 8, !tbaa !51
  %tobool.not.i.i.i6.i187 = icmp eq double* %187, null
  br i1 %tobool.not.i.i.i6.i187, label %_ZNSt6vectorIdSaIdEED2Ev.exit8.i192, label %if.then.i.i.i7.i189

if.then.i.i.i7.i189:                              ; preds = %_ZNSt6vectorIdSaIdEED2Ev.exit4.i188
  %188 = bitcast double* %187 to i8*
  call void @_ZdlPv(i8* nonnull %188) #38
  br label %_ZNSt6vectorIdSaIdEED2Ev.exit8.i192

_ZNSt6vectorIdSaIdEED2Ev.exit8.i192:              ; preds = %if.then.i.i.i7.i189, %_ZNSt6vectorIdSaIdEED2Ev.exit4.i188
  %189 = load double*, double** %_M_start.i30.i315, align 8, !tbaa !51
  %tobool.not.i.i.i10.i191 = icmp eq double* %189, null
  br i1 %tobool.not.i.i.i10.i191, label %_ZN8GMMInputD2Ev.exit194, label %if.then.i.i.i11.i193

if.then.i.i.i11.i193:                             ; preds = %_ZNSt6vectorIdSaIdEED2Ev.exit8.i192
  %190 = bitcast double* %189 to i8*
  call void @_ZdlPv(i8* nonnull %190) #38
  br label %_ZN8GMMInputD2Ev.exit194

_ZN8GMMInputD2Ev.exit194:                         ; preds = %_ZNSt6vectorIdSaIdEED2Ev.exit8.i192, %if.then.i.i.i11.i193
  call void @llvm.lifetime.end.p0i8(i64 128, i8* nonnull %42) #38
  br label %ehcleanup279

lpad211:                                          ; preds = %_ZN8GMMInputD2Ev.exit390
  %191 = landingpad { i8*, i32 }
          cleanup
  br label %ehcleanup226

lpad223:                                          ; preds = %invoke.cont212
  %192 = landingpad { i8*, i32 }
          cleanup
  %193 = load i8*, i8** %_M_p.i.i.i.i392, align 8, !tbaa !17
  %cmp.i.i.i169 = icmp eq i8* %193, %arraydecay.i.i.i.i393
  br i1 %cmp.i.i.i169, label %ehcleanup226, label %if.then.i.i170

if.then.i.i170:                                   ; preds = %lpad223
  call void @_ZdlPv(i8* %193) #38
  br label %ehcleanup226

ehcleanup226:                                     ; preds = %if.then.i.i170, %lpad223, %lpad211
  %.pn39 = phi { i8*, i32 } [ %191, %lpad211 ], [ %192, %lpad223 ], [ %192, %if.then.i.i170 ]
  call void @llvm.lifetime.end.p0i8(i64 32, i8* nonnull %52) #38
  br label %ehcleanup277

lpad241.loopexit:                                 ; preds = %_ZNSt16allocator_traitsISaIdEE8allocateERS0_m.exit.i.i.i.i403
  %lpad.loopexit532 = landingpad { i8*, i32 }
          cleanup
  br label %ehcleanup277

lpad241.loopexit.split-lp:                        ; preds = %if.then.i.i399
  %lpad.loopexit.split-lp533 = landingpad { i8*, i32 }
          cleanup
  br label %ehcleanup277

for.body259:                                      ; preds = %invoke.cont242, %for.body259
  %indvars.iv735 = phi i64 [ 0, %invoke.cont242 ], [ %indvars.iv.next736, %for.body259 ]
  %add.ptr.i = getelementptr inbounds double, double* %cond.i.i.i.i404526, i64 %indvars.iv735
  %194 = load double, double* %add.ptr.i, align 8, !tbaa !70
  %call265 = call i32 (i8*, ...) @printf(i8* nonnull dereferenceable(1) getelementptr inbounds ([4 x i8], [4 x i8]* @.str.28, i64 0, i64 0), double %194)
  %indvars.iv.next736 = add nuw nsw i64 %indvars.iv735, 1
  %exitcond737.not = icmp eq i64 %indvars.iv.next736, 5
  br i1 %exitcond737.not, label %_ZN9GMMOutputD2Ev.exit455, label %for.body259, !llvm.loop !76

cleanup:                                          ; preds = %invoke.cont65, %lor.lhs.false, %lor.lhs.false71, %lor.lhs.false74, %lor.lhs.false77, %_ZN8GMMInputD2Ev.exit251
  %195 = load i8*, i8** %_M_p.i6.i.i.i.i198, align 8, !tbaa !17
  %cmp.i.i.i156 = icmp eq i8* %195, %34
  br i1 %cmp.i.i.i156, label %_ZNSt7__cxx1112basic_stringIcSt11char_traitsIcESaIcEED2Ev.exit159, label %if.then.i.i157

if.then.i.i157:                                   ; preds = %cleanup
  call void @_ZdlPv(i8* %195) #38
  br label %_ZNSt7__cxx1112basic_stringIcSt11char_traitsIcESaIcEED2Ev.exit159

_ZNSt7__cxx1112basic_stringIcSt11char_traitsIcESaIcEED2Ev.exit159: ; preds = %cleanup, %if.then.i.i157
  call void @llvm.lifetime.end.p0i8(i64 32, i8* nonnull %30) #38
  %incdec.ptr.i = getelementptr inbounds %"class.std::__cxx11::basic_string", %"class.std::__cxx11::basic_string"* %__begin1.sroa.0.0705, i64 1
  %cmp.i129.not = icmp eq %"class.std::__cxx11::basic_string"* %incdec.ptr.i, %29
  br i1 %cmp.i129.not, label %for.cond.cleanup, label %for.body, !llvm.loop !77

ehcleanup277:                                     ; preds = %lpad241.loopexit, %lpad241.loopexit.split-lp, %ehcleanup226
  %.pn41 = phi { i8*, i32 } [ %.pn39, %ehcleanup226 ], [ %lpad.loopexit532, %lpad241.loopexit ], [ %lpad.loopexit.split-lp533, %lpad241.loopexit.split-lp ]
  %196 = load double*, double** %_M_start.i17.i438, align 8, !tbaa !51
  %tobool.not.i.i.i.i = icmp eq double* %196, null
  br i1 %tobool.not.i.i.i.i, label %_ZNSt6vectorIdSaIdEED2Ev.exit.i, label %if.then.i.i.i.i103

if.then.i.i.i.i103:                               ; preds = %ehcleanup277
  %197 = bitcast double* %196 to i8*
  call void @_ZdlPv(i8* nonnull %197) #38
  br label %_ZNSt6vectorIdSaIdEED2Ev.exit.i

_ZNSt6vectorIdSaIdEED2Ev.exit.i:                  ; preds = %if.then.i.i.i.i103, %ehcleanup277
  %198 = load double*, double** %_M_start.i18.i437, align 8, !tbaa !51
  %tobool.not.i.i.i2.i = icmp eq double* %198, null
  br i1 %tobool.not.i.i.i2.i, label %_ZNSt6vectorIdSaIdEED2Ev.exit4.i, label %if.then.i.i.i3.i

if.then.i.i.i3.i:                                 ; preds = %_ZNSt6vectorIdSaIdEED2Ev.exit.i
  %199 = bitcast double* %198 to i8*
  call void @_ZdlPv(i8* nonnull %199) #38
  br label %_ZNSt6vectorIdSaIdEED2Ev.exit4.i

_ZNSt6vectorIdSaIdEED2Ev.exit4.i:                 ; preds = %if.then.i.i.i3.i, %_ZNSt6vectorIdSaIdEED2Ev.exit.i
  %200 = load double*, double** %_M_start.i21.i428, align 8, !tbaa !51
  %tobool.not.i.i.i6.i = icmp eq double* %200, null
  br i1 %tobool.not.i.i.i6.i, label %_ZNSt6vectorIdSaIdEED2Ev.exit8.i, label %if.then.i.i.i7.i

if.then.i.i.i7.i:                                 ; preds = %_ZNSt6vectorIdSaIdEED2Ev.exit4.i
  %201 = bitcast double* %200 to i8*
  call void @_ZdlPv(i8* nonnull %201) #38
  br label %_ZNSt6vectorIdSaIdEED2Ev.exit8.i

_ZNSt6vectorIdSaIdEED2Ev.exit8.i:                 ; preds = %if.then.i.i.i7.i, %_ZNSt6vectorIdSaIdEED2Ev.exit4.i
  %202 = load double*, double** %_M_start.i30.i421, align 8, !tbaa !51
  %tobool.not.i.i.i10.i = icmp eq double* %202, null
  br i1 %tobool.not.i.i.i10.i, label %_ZN8GMMInputD2Ev.exit, label %if.then.i.i.i11.i

if.then.i.i.i11.i:                                ; preds = %_ZNSt6vectorIdSaIdEED2Ev.exit8.i
  %203 = bitcast double* %202 to i8*
  call void @_ZdlPv(i8* nonnull %203) #38
  br label %_ZN8GMMInputD2Ev.exit

_ZN8GMMInputD2Ev.exit:                            ; preds = %_ZNSt6vectorIdSaIdEED2Ev.exit8.i, %if.then.i.i.i11.i
  call void @llvm.lifetime.end.p0i8(i64 128, i8* nonnull %50) #38
  br label %ehcleanup279

ehcleanup279:                                     ; preds = %_ZN8GMMInputD2Ev.exit, %_ZN8GMMInputD2Ev.exit194, %_ZN8GMMInputD2Ev.exit361
  %.pn33.pn.pn = phi { i8*, i32 } [ %.pn33.pn, %_ZN8GMMInputD2Ev.exit361 ], [ %.pn41, %_ZN8GMMInputD2Ev.exit ], [ %.pn36.pn, %_ZN8GMMInputD2Ev.exit194 ]
  %204 = load i8*, i8** %_M_p.i6.i.i.i.i198, align 8, !tbaa !17
  %cmp.i.i.i76 = icmp eq i8* %204, %34
  br i1 %cmp.i.i.i76, label %ehcleanup281, label %if.then.i.i77

if.then.i.i77:                                    ; preds = %ehcleanup279
  call void @_ZdlPv(i8* %204) #38
  br label %ehcleanup281

ehcleanup281:                                     ; preds = %if.then.i.i77, %ehcleanup279, %lpad64
  %.pn708 = phi { i8*, i32 } [ %74, %lpad64 ], [ %.pn33.pn.pn, %ehcleanup279 ], [ %.pn33.pn.pn, %if.then.i.i77 ]
  call void @llvm.lifetime.end.p0i8(i64 32, i8* nonnull %30) #38
  br label %ehcleanup291

ehcleanup291:                                     ; preds = %lpad54, %if.then.i.i176, %lpad45, %if.then.i.i163, %lpad36, %if.then.i.i151, %ehcleanup281
  %.pn708.pn = phi { i8*, i32 } [ %.pn708, %ehcleanup281 ], [ %61, %if.then.i.i151 ], [ %61, %lpad36 ], [ %63, %if.then.i.i163 ], [ %63, %lpad45 ], [ %65, %if.then.i.i176 ], [ %65, %lpad54 ]
  %_M_start.i = getelementptr inbounds %"class.std::vector", %"class.std::vector"* %paths, i64 0, i32 0, i32 0, i32 0, i32 0
  %205 = load %"class.std::__cxx11::basic_string"*, %"class.std::__cxx11::basic_string"** %_M_start.i, align 8, !tbaa !62
  %_M_finish.i = getelementptr inbounds %"class.std::vector", %"class.std::vector"* %paths, i64 0, i32 0, i32 0, i32 0, i32 1
  %206 = load %"class.std::__cxx11::basic_string"*, %"class.std::__cxx11::basic_string"** %_M_finish.i, align 8, !tbaa !32
  %cmp.not3.i.i.i.i = icmp eq %"class.std::__cxx11::basic_string"* %205, %206
  br i1 %cmp.not3.i.i.i.i, label %invoke.cont.i, label %for.body.i.i.i.i

for.body.i.i.i.i:                                 ; preds = %ehcleanup291, %_ZSt8_DestroyINSt7__cxx1112basic_stringIcSt11char_traitsIcESaIcEEEEvPT_.exit.i.i.i.i
  %__first.addr.04.i.i.i.i = phi %"class.std::__cxx11::basic_string"* [ %incdec.ptr.i.i.i.i, %_ZSt8_DestroyINSt7__cxx1112basic_stringIcSt11char_traitsIcESaIcEEEEvPT_.exit.i.i.i.i ], [ %205, %ehcleanup291 ]
  %_M_p.i.i.i.i.i.i.i.i.i = getelementptr inbounds %"class.std::__cxx11::basic_string", %"class.std::__cxx11::basic_string"* %__first.addr.04.i.i.i.i, i64 0, i32 0, i32 0
  %207 = load i8*, i8** %_M_p.i.i.i.i.i.i.i.i.i, align 8, !tbaa !17
  %208 = getelementptr inbounds %"class.std::__cxx11::basic_string", %"class.std::__cxx11::basic_string"* %__first.addr.04.i.i.i.i, i64 0, i32 2
  %arraydecay.i.i.i.i.i.i.i.i.i = bitcast %union.anon* %208 to i8*
  %cmp.i.i.i.i.i.i.i.i = icmp eq i8* %207, %arraydecay.i.i.i.i.i.i.i.i.i
  br i1 %cmp.i.i.i.i.i.i.i.i, label %_ZSt8_DestroyINSt7__cxx1112basic_stringIcSt11char_traitsIcESaIcEEEEvPT_.exit.i.i.i.i, label %if.then.i.i.i.i.i.i.i

if.then.i.i.i.i.i.i.i:                            ; preds = %for.body.i.i.i.i
  call void @_ZdlPv(i8* %207) #38
  br label %_ZSt8_DestroyINSt7__cxx1112basic_stringIcSt11char_traitsIcESaIcEEEEvPT_.exit.i.i.i.i

_ZSt8_DestroyINSt7__cxx1112basic_stringIcSt11char_traitsIcESaIcEEEEvPT_.exit.i.i.i.i: ; preds = %if.then.i.i.i.i.i.i.i, %for.body.i.i.i.i
  %incdec.ptr.i.i.i.i = getelementptr inbounds %"class.std::__cxx11::basic_string", %"class.std::__cxx11::basic_string"* %__first.addr.04.i.i.i.i, i64 1
  %cmp.not.i.i.i.i = icmp eq %"class.std::__cxx11::basic_string"* %incdec.ptr.i.i.i.i, %206
  br i1 %cmp.not.i.i.i.i, label %invoke.cont.loopexit.i, label %for.body.i.i.i.i, !llvm.loop !63

invoke.cont.loopexit.i:                           ; preds = %_ZSt8_DestroyINSt7__cxx1112basic_stringIcSt11char_traitsIcESaIcEEEEvPT_.exit.i.i.i.i
  %.pre.i = load %"class.std::__cxx11::basic_string"*, %"class.std::__cxx11::basic_string"** %_M_start.i, align 8, !tbaa !62
  br label %invoke.cont.i

invoke.cont.i:                                    ; preds = %invoke.cont.loopexit.i, %ehcleanup291
  %209 = phi %"class.std::__cxx11::basic_string"* [ %.pre.i, %invoke.cont.loopexit.i ], [ %205, %ehcleanup291 ]
  %tobool.not.i.i.i = icmp eq %"class.std::__cxx11::basic_string"* %209, null
  br i1 %tobool.not.i.i.i, label %_ZNSt6vectorINSt7__cxx1112basic_stringIcSt11char_traitsIcESaIcEEESaIS5_EED2Ev.exit, label %if.then.i.i.i

if.then.i.i.i:                                    ; preds = %invoke.cont.i
  %210 = bitcast %"class.std::__cxx11::basic_string"* %209 to i8*
  call void @_ZdlPv(i8* nonnull %210) #38
  br label %_ZNSt6vectorINSt7__cxx1112basic_stringIcSt11char_traitsIcESaIcEEESaIS5_EED2Ev.exit

_ZNSt6vectorINSt7__cxx1112basic_stringIcSt11char_traitsIcESaIcEEESaIS5_EED2Ev.exit: ; preds = %invoke.cont.i, %if.then.i.i.i
  call void @llvm.lifetime.end.p0i8(i64 24, i8* nonnull %14) #38
  resume { i8*, i32 } %.pn708.pn
}

; Function Attrs: uwtable
define linkonce_odr dso_local void @_ZStplIcSt11char_traitsIcESaIcEENSt7__cxx1112basic_stringIT_T0_T1_EEPKS5_RKS8_(%"class.std::__cxx11::basic_string"* noalias sret(%"class.std::__cxx11::basic_string") align 8 %agg.result, i8* %__lhs, %"class.std::__cxx11::basic_string"* nonnull align 8 dereferenceable(32) %__rhs) local_unnamed_addr #0 comdat personality i8* bitcast (i32 (...)* @__gxx_personality_v0 to i8*) {
entry:
  %call.i = tail call i64 @strlen(i8* nonnull dereferenceable(1) %__lhs) #38
  %0 = getelementptr inbounds %"class.std::__cxx11::basic_string", %"class.std::__cxx11::basic_string"* %agg.result, i64 0, i32 2
  %1 = bitcast %"class.std::__cxx11::basic_string"* %agg.result to %union.anon**
  store %union.anon* %0, %union.anon** %1, align 8, !tbaa !14
  %_M_string_length.i.i.i = getelementptr inbounds %"class.std::__cxx11::basic_string", %"class.std::__cxx11::basic_string"* %agg.result, i64 0, i32 1
  store i64 0, i64* %_M_string_length.i.i.i, align 8, !tbaa !19
  %.cast.i = bitcast %union.anon* %0 to i8*
  store i8 0, i8* %.cast.i, align 8, !tbaa !21
  %_M_string_length.i = getelementptr inbounds %"class.std::__cxx11::basic_string", %"class.std::__cxx11::basic_string"* %__rhs, i64 0, i32 1
  %2 = load i64, i64* %_M_string_length.i, align 8, !tbaa !19
  %add = add i64 %2, %call.i
  invoke void @_ZNSt7__cxx1112basic_stringIcSt11char_traitsIcESaIcEE7reserveEm(%"class.std::__cxx11::basic_string"* nonnull dereferenceable(32) %agg.result, i64 %add)
          to label %invoke.cont unwind label %lpad

invoke.cont:                                      ; preds = %entry
  %3 = load i64, i64* %_M_string_length.i.i.i, align 8, !tbaa !19
  %sub3.i.i = sub i64 4611686018427387903, %3
  %cmp.i.i = icmp ult i64 %sub3.i.i, %call.i
  br i1 %cmp.i.i, label %if.then.i.i8, label %_ZNKSt7__cxx1112basic_stringIcSt11char_traitsIcESaIcEE15_M_check_lengthEmmPKc.exit.i

if.then.i.i8:                                     ; preds = %invoke.cont
  invoke void @_ZSt20__throw_length_errorPKc(i8* getelementptr inbounds ([21 x i8], [21 x i8]* @.str.116, i64 0, i64 0)) #40
          to label %.noexc unwind label %lpad

.noexc:                                           ; preds = %if.then.i.i8
  unreachable

_ZNKSt7__cxx1112basic_stringIcSt11char_traitsIcESaIcEE15_M_check_lengthEmmPKc.exit.i: ; preds = %invoke.cont
  %call.i910 = invoke nonnull align 8 dereferenceable(32) %"class.std::__cxx11::basic_string"* @_ZNSt7__cxx1112basic_stringIcSt11char_traitsIcESaIcEE9_M_appendEPKcm(%"class.std::__cxx11::basic_string"* nonnull dereferenceable(32) %agg.result, i8* %__lhs, i64 %call.i)
          to label %invoke.cont2 unwind label %lpad

invoke.cont2:                                     ; preds = %_ZNKSt7__cxx1112basic_stringIcSt11char_traitsIcESaIcEE15_M_check_lengthEmmPKc.exit.i
  %_M_p.i.i = getelementptr inbounds %"class.std::__cxx11::basic_string", %"class.std::__cxx11::basic_string"* %__rhs, i64 0, i32 0, i32 0
  %4 = load i8*, i8** %_M_p.i.i, align 8, !tbaa !17
  %5 = load i64, i64* %_M_string_length.i, align 8, !tbaa !19
  %call3.i6 = invoke nonnull align 8 dereferenceable(32) %"class.std::__cxx11::basic_string"* @_ZNSt7__cxx1112basic_stringIcSt11char_traitsIcESaIcEE9_M_appendEPKcm(%"class.std::__cxx11::basic_string"* nonnull dereferenceable(32) %agg.result, i8* %4, i64 %5)
          to label %nrvo.skipdtor unwind label %lpad

lpad:                                             ; preds = %_ZNKSt7__cxx1112basic_stringIcSt11char_traitsIcESaIcEE15_M_check_lengthEmmPKc.exit.i, %if.then.i.i8, %invoke.cont2, %entry
  %6 = landingpad { i8*, i32 }
          cleanup
  %_M_p.i.i.i.i = getelementptr inbounds %"class.std::__cxx11::basic_string", %"class.std::__cxx11::basic_string"* %agg.result, i64 0, i32 0, i32 0
  %7 = load i8*, i8** %_M_p.i.i.i.i, align 8, !tbaa !17
  %cmp.i.i.i = icmp eq i8* %7, %.cast.i
  br i1 %cmp.i.i.i, label %_ZNSt7__cxx1112basic_stringIcSt11char_traitsIcESaIcEED2Ev.exit, label %if.then.i.i

if.then.i.i:                                      ; preds = %lpad
  tail call void @_ZdlPv(i8* %7) #38
  br label %_ZNSt7__cxx1112basic_stringIcSt11char_traitsIcESaIcEED2Ev.exit

_ZNSt7__cxx1112basic_stringIcSt11char_traitsIcESaIcEED2Ev.exit: ; preds = %lpad, %if.then.i.i
  resume { i8*, i32 } %6

nrvo.skipdtor:                                    ; preds = %invoke.cont2
  ret void
}

; Function Attrs: nofree nounwind
declare dso_local noundef i32 @gettimeofday(%struct.timeval* nocapture noundef, i8* nocapture noundef) local_unnamed_addr #2

; Function Attrs: nounwind readnone
declare i32 @llvm.eh.typeid.for(i8*) #13

declare dso_local i8* @__cxa_get_exception_ptr(i8*) local_unnamed_addr

declare dso_local i8* @__cxa_begin_catch(i8*) local_unnamed_addr

; Function Attrs: nounwind
declare dso_local void @_ZNSt9bad_allocD1Ev(%"class.std::bad_alloc"* nonnull dereferenceable(8)) unnamed_addr #7

declare dso_local void @__cxa_end_catch() local_unnamed_addr

; Function Attrs: noinline noreturn nounwind
define linkonce_odr hidden void @__clang_call_terminate(i8* %0) local_unnamed_addr #14 comdat {
  %2 = tail call i8* @__cxa_begin_catch(i8* %0) #38
  tail call void @_ZSt9terminatev() #41
  unreachable
}

declare dso_local void @_ZSt9terminatev() local_unnamed_addr

; Function Attrs: norecurse nounwind readonly uwtable willreturn mustprogress
define dso_local double @arr_max(i32 %n, double* nocapture readonly %x) local_unnamed_addr #9 {
entry:
  %0 = load double, double* %x, align 8, !tbaa !70
  %cmp9 = icmp sgt i32 %n, 1
  br i1 %cmp9, label %for.body.preheader, label %for.end

for.body.preheader:                               ; preds = %entry
  %wide.trip.count = zext i32 %n to i64
  %1 = add nsw i64 %wide.trip.count, -1
  %min.iters.check = icmp ult i64 %1, 4
  br i1 %min.iters.check, label %for.body.preheader14, label %vector.ph

vector.ph:                                        ; preds = %for.body.preheader
  %n.vec = and i64 %1, -4
  %ind.end = or i64 %n.vec, 1
  %minmax.ident.splatinsert = insertelement <2 x double> poison, double %0, i32 0
  %minmax.ident.splat = shufflevector <2 x double> %minmax.ident.splatinsert, <2 x double> poison, <2 x i32> zeroinitializer
  br label %vector.body

vector.body:                                      ; preds = %vector.body, %vector.ph
  %index = phi i64 [ 0, %vector.ph ], [ %index.next, %vector.body ]
  %vec.phi = phi <2 x double> [ %minmax.ident.splat, %vector.ph ], [ %8, %vector.body ]
  %vec.phi12 = phi <2 x double> [ %minmax.ident.splat, %vector.ph ], [ %9, %vector.body ]
  %offset.idx = or i64 %index, 1
  %2 = getelementptr inbounds double, double* %x, i64 %offset.idx
  %3 = bitcast double* %2 to <2 x double>*
  %wide.load = load <2 x double>, <2 x double>* %3, align 8, !tbaa !70
  %4 = getelementptr inbounds double, double* %2, i64 2
  %5 = bitcast double* %4 to <2 x double>*
  %wide.load13 = load <2 x double>, <2 x double>* %5, align 8, !tbaa !70
  %6 = fcmp fast olt <2 x double> %vec.phi, %wide.load
  %7 = fcmp fast olt <2 x double> %vec.phi12, %wide.load13
  %8 = select <2 x i1> %6, <2 x double> %wide.load, <2 x double> %vec.phi
  %9 = select <2 x i1> %7, <2 x double> %wide.load13, <2 x double> %vec.phi12
  %index.next = add i64 %index, 4
  %10 = icmp eq i64 %index.next, %n.vec
  br i1 %10, label %middle.block, label %vector.body, !llvm.loop !78

middle.block:                                     ; preds = %vector.body
  %11 = call fast <2 x double> @llvm.maxnum.v2f64(<2 x double> %8, <2 x double> %9)
  %12 = call double @llvm.vector.reduce.fmax.v2f64(<2 x double> %11)
  %cmp.n = icmp eq i64 %1, %n.vec
  br i1 %cmp.n, label %for.end, label %for.body.preheader14

for.body.preheader14:                             ; preds = %for.body.preheader, %middle.block
  %indvars.iv.ph = phi i64 [ 1, %for.body.preheader ], [ %ind.end, %middle.block ]
  %m.011.ph = phi double [ %0, %for.body.preheader ], [ %12, %middle.block ]
  br label %for.body

for.body:                                         ; preds = %for.body.preheader14, %for.body
  %indvars.iv = phi i64 [ %indvars.iv.next, %for.body ], [ %indvars.iv.ph, %for.body.preheader14 ]
  %m.011 = phi double [ %m.1, %for.body ], [ %m.011.ph, %for.body.preheader14 ]
  %arrayidx1 = getelementptr inbounds double, double* %x, i64 %indvars.iv
  %13 = load double, double* %arrayidx1, align 8, !tbaa !70
  %cmp2 = fcmp fast olt double %m.011, %13
  %m.1 = select i1 %cmp2, double %13, double %m.011
  %indvars.iv.next = add nuw nsw i64 %indvars.iv, 1
  %exitcond.not = icmp eq i64 %indvars.iv.next, %wide.trip.count
  br i1 %exitcond.not, label %for.end, label %for.body, !llvm.loop !80

for.end:                                          ; preds = %for.body, %middle.block, %entry
  %m.0.lcssa = phi double [ %0, %entry ], [ %12, %middle.block ], [ %m.1, %for.body ]
  ret double %m.0.lcssa
}

; Function Attrs: norecurse nounwind readonly uwtable willreturn mustprogress
define dso_local double @sqnorm(i32 %n, double* nocapture readonly %x) local_unnamed_addr #9 {
entry:
  %0 = load double, double* %x, align 8, !tbaa !70
  %mul = fmul fast double %0, %0
  %cmp10 = icmp sgt i32 %n, 1
  br i1 %cmp10, label %for.body.preheader, label %for.end

for.body.preheader:                               ; preds = %entry
  %wide.trip.count = zext i32 %n to i64
  %1 = add nsw i64 %wide.trip.count, -1
  %min.iters.check = icmp ult i64 %1, 4
  br i1 %min.iters.check, label %for.body.preheader15, label %vector.ph

vector.ph:                                        ; preds = %for.body.preheader
  %n.vec = and i64 %1, -4
  %ind.end = or i64 %n.vec, 1
  %2 = insertelement <2 x double> <double poison, double 0.000000e+00>, double %mul, i32 0
  br label %vector.body

vector.body:                                      ; preds = %vector.body, %vector.ph
  %index = phi i64 [ 0, %vector.ph ], [ %index.next, %vector.body ]
  %vec.phi = phi <2 x double> [ %2, %vector.ph ], [ %9, %vector.body ]
  %vec.phi13 = phi <2 x double> [ zeroinitializer, %vector.ph ], [ %10, %vector.body ]
  %offset.idx = or i64 %index, 1
  %3 = getelementptr inbounds double, double* %x, i64 %offset.idx
  %4 = bitcast double* %3 to <2 x double>*
  %wide.load = load <2 x double>, <2 x double>* %4, align 8, !tbaa !70
  %5 = getelementptr inbounds double, double* %3, i64 2
  %6 = bitcast double* %5 to <2 x double>*
  %wide.load14 = load <2 x double>, <2 x double>* %6, align 8, !tbaa !70
  %7 = fmul fast <2 x double> %wide.load, %wide.load
  %8 = fmul fast <2 x double> %wide.load14, %wide.load14
  %9 = fadd fast <2 x double> %7, %vec.phi
  %10 = fadd fast <2 x double> %8, %vec.phi13
  %index.next = add i64 %index, 4
  %11 = icmp eq i64 %index.next, %n.vec
  br i1 %11, label %middle.block, label %vector.body, !llvm.loop !81

middle.block:                                     ; preds = %vector.body
  %bin.rdx = fadd fast <2 x double> %10, %9
  %12 = call fast double @llvm.vector.reduce.fadd.v2f64(double -0.000000e+00, <2 x double> %bin.rdx)
  %cmp.n = icmp eq i64 %1, %n.vec
  br i1 %cmp.n, label %for.end, label %for.body.preheader15

for.body.preheader15:                             ; preds = %for.body.preheader, %middle.block
  %indvars.iv.ph = phi i64 [ 1, %for.body.preheader ], [ %ind.end, %middle.block ]
  %res.012.ph = phi double [ %mul, %for.body.preheader ], [ %12, %middle.block ]
  br label %for.body

for.body:                                         ; preds = %for.body.preheader15, %for.body
  %indvars.iv = phi i64 [ %indvars.iv.next, %for.body ], [ %indvars.iv.ph, %for.body.preheader15 ]
  %res.012 = phi double [ %add, %for.body ], [ %res.012.ph, %for.body.preheader15 ]
  %arrayidx2 = getelementptr inbounds double, double* %x, i64 %indvars.iv
  %13 = load double, double* %arrayidx2, align 8, !tbaa !70
  %mul5 = fmul fast double %13, %13
  %add = fadd fast double %mul5, %res.012
  %indvars.iv.next = add nuw nsw i64 %indvars.iv, 1
  %exitcond.not = icmp eq i64 %indvars.iv.next, %wide.trip.count
  br i1 %exitcond.not, label %for.end, label %for.body, !llvm.loop !82

for.end:                                          ; preds = %for.body, %middle.block, %entry
  %res.0.lcssa = phi double [ %mul, %entry ], [ %12, %middle.block ], [ %add, %for.body ]
  ret double %res.0.lcssa
}

; Function Attrs: nofree norecurse nounwind uwtable mustprogress
define dso_local void @subtract(i32 %d, double* nocapture readonly %x, double* nocapture readonly %y, double* nocapture %out) local_unnamed_addr #15 {
entry:
  %cmp6 = icmp sgt i32 %d, 0
  br i1 %cmp6, label %for.body.preheader, label %for.end

for.body.preheader:                               ; preds = %entry
  %wide.trip.count = zext i32 %d to i64
  %min.iters.check = icmp ult i32 %d, 4
  br i1 %min.iters.check, label %for.body.preheader22, label %vector.memcheck

vector.memcheck:                                  ; preds = %for.body.preheader
  %scevgep = getelementptr double, double* %out, i64 %wide.trip.count
  %scevgep11 = getelementptr double, double* %x, i64 %wide.trip.count
  %scevgep14 = getelementptr double, double* %y, i64 %wide.trip.count
  %bound0 = icmp ugt double* %scevgep11, %out
  %bound1 = icmp ugt double* %scevgep, %x
  %found.conflict = and i1 %bound0, %bound1
  %bound016 = icmp ugt double* %scevgep14, %out
  %bound117 = icmp ugt double* %scevgep, %y
  %found.conflict18 = and i1 %bound016, %bound117
  %conflict.rdx = or i1 %found.conflict, %found.conflict18
  br i1 %conflict.rdx, label %for.body.preheader22, label %vector.ph

vector.ph:                                        ; preds = %vector.memcheck
  %n.vec = and i64 %wide.trip.count, 4294967292
  br label %vector.body

vector.body:                                      ; preds = %vector.body, %vector.ph
  %index = phi i64 [ 0, %vector.ph ], [ %index.next, %vector.body ]
  %0 = getelementptr inbounds double, double* %x, i64 %index
  %1 = bitcast double* %0 to <2 x double>*
  %wide.load = load <2 x double>, <2 x double>* %1, align 8, !tbaa !70, !alias.scope !83
  %2 = getelementptr inbounds double, double* %0, i64 2
  %3 = bitcast double* %2 to <2 x double>*
  %wide.load19 = load <2 x double>, <2 x double>* %3, align 8, !tbaa !70, !alias.scope !83
  %4 = getelementptr inbounds double, double* %y, i64 %index
  %5 = bitcast double* %4 to <2 x double>*
  %wide.load20 = load <2 x double>, <2 x double>* %5, align 8, !tbaa !70, !alias.scope !86
  %6 = getelementptr inbounds double, double* %4, i64 2
  %7 = bitcast double* %6 to <2 x double>*
  %wide.load21 = load <2 x double>, <2 x double>* %7, align 8, !tbaa !70, !alias.scope !86
  %8 = fsub fast <2 x double> %wide.load, %wide.load20
  %9 = fsub fast <2 x double> %wide.load19, %wide.load21
  %10 = getelementptr inbounds double, double* %out, i64 %index
  %11 = bitcast double* %10 to <2 x double>*
  store <2 x double> %8, <2 x double>* %11, align 8, !tbaa !70, !alias.scope !88, !noalias !90
  %12 = getelementptr inbounds double, double* %10, i64 2
  %13 = bitcast double* %12 to <2 x double>*
  store <2 x double> %9, <2 x double>* %13, align 8, !tbaa !70, !alias.scope !88, !noalias !90
  %index.next = add i64 %index, 4
  %14 = icmp eq i64 %index.next, %n.vec
  br i1 %14, label %middle.block, label %vector.body, !llvm.loop !91

middle.block:                                     ; preds = %vector.body
  %cmp.n = icmp eq i64 %n.vec, %wide.trip.count
  br i1 %cmp.n, label %for.end, label %for.body.preheader22

for.body.preheader22:                             ; preds = %vector.memcheck, %for.body.preheader, %middle.block
  %indvars.iv.ph = phi i64 [ 0, %vector.memcheck ], [ 0, %for.body.preheader ], [ %n.vec, %middle.block ]
  br label %for.body

for.body:                                         ; preds = %for.body.preheader22, %for.body
  %indvars.iv = phi i64 [ %indvars.iv.next, %for.body ], [ %indvars.iv.ph, %for.body.preheader22 ]
  %arrayidx = getelementptr inbounds double, double* %x, i64 %indvars.iv
  %15 = load double, double* %arrayidx, align 8, !tbaa !70
  %arrayidx2 = getelementptr inbounds double, double* %y, i64 %indvars.iv
  %16 = load double, double* %arrayidx2, align 8, !tbaa !70
  %sub = fsub fast double %15, %16
  %arrayidx4 = getelementptr inbounds double, double* %out, i64 %indvars.iv
  store double %sub, double* %arrayidx4, align 8, !tbaa !70
  %indvars.iv.next = add nuw nsw i64 %indvars.iv, 1
  %exitcond.not = icmp eq i64 %indvars.iv.next, %wide.trip.count
  br i1 %exitcond.not, label %for.end, label %for.body, !llvm.loop !92

for.end:                                          ; preds = %for.body, %middle.block, %entry
  ret void
}

; Function Attrs: nounwind readonly uwtable willreturn mustprogress
define dso_local double @log_sum_exp(i32 %n, double* nocapture readonly %x) local_unnamed_addr #16 {
entry:
  %0 = load double, double* %x, align 8, !tbaa !70
  %cmp9.i = icmp sgt i32 %n, 1
  br i1 %cmp9.i, label %for.body.preheader.i, label %arr_max.exit

for.body.preheader.i:                             ; preds = %entry
  %wide.trip.count.i = zext i32 %n to i64
  %1 = add nsw i64 %wide.trip.count.i, -1
  %min.iters.check = icmp ult i64 %1, 4
  br i1 %min.iters.check, label %for.body.i.preheader, label %vector.ph

vector.ph:                                        ; preds = %for.body.preheader.i
  %n.vec = and i64 %1, -4
  %ind.end = or i64 %n.vec, 1
  %minmax.ident.splatinsert = insertelement <2 x double> poison, double %0, i32 0
  %minmax.ident.splat = shufflevector <2 x double> %minmax.ident.splatinsert, <2 x double> poison, <2 x i32> zeroinitializer
  br label %vector.body

vector.body:                                      ; preds = %vector.body, %vector.ph
  %index = phi i64 [ 0, %vector.ph ], [ %index.next, %vector.body ]
  %vec.phi = phi <2 x double> [ %minmax.ident.splat, %vector.ph ], [ %8, %vector.body ]
  %vec.phi17 = phi <2 x double> [ %minmax.ident.splat, %vector.ph ], [ %9, %vector.body ]
  %offset.idx = or i64 %index, 1
  %2 = getelementptr inbounds double, double* %x, i64 %offset.idx
  %3 = bitcast double* %2 to <2 x double>*
  %wide.load = load <2 x double>, <2 x double>* %3, align 8, !tbaa !70
  %4 = getelementptr inbounds double, double* %2, i64 2
  %5 = bitcast double* %4 to <2 x double>*
  %wide.load18 = load <2 x double>, <2 x double>* %5, align 8, !tbaa !70
  %6 = fcmp fast olt <2 x double> %vec.phi, %wide.load
  %7 = fcmp fast olt <2 x double> %vec.phi17, %wide.load18
  %8 = select <2 x i1> %6, <2 x double> %wide.load, <2 x double> %vec.phi
  %9 = select <2 x i1> %7, <2 x double> %wide.load18, <2 x double> %vec.phi17
  %index.next = add i64 %index, 4
  %10 = icmp eq i64 %index.next, %n.vec
  br i1 %10, label %middle.block, label %vector.body, !llvm.loop !93

middle.block:                                     ; preds = %vector.body
  %11 = call fast <2 x double> @llvm.maxnum.v2f64(<2 x double> %8, <2 x double> %9)
  %12 = call double @llvm.vector.reduce.fmax.v2f64(<2 x double> %11)
  %cmp.n = icmp eq i64 %1, %n.vec
  br i1 %cmp.n, label %arr_max.exit, label %for.body.i.preheader

for.body.i.preheader:                             ; preds = %for.body.preheader.i, %middle.block
  %indvars.iv.i.ph = phi i64 [ 1, %for.body.preheader.i ], [ %ind.end, %middle.block ]
  %m.011.i.ph = phi double [ %0, %for.body.preheader.i ], [ %12, %middle.block ]
  br label %for.body.i

for.body.i:                                       ; preds = %for.body.i.preheader, %for.body.i
  %indvars.iv.i = phi i64 [ %indvars.iv.next.i, %for.body.i ], [ %indvars.iv.i.ph, %for.body.i.preheader ]
  %m.011.i = phi double [ %m.1.i, %for.body.i ], [ %m.011.i.ph, %for.body.i.preheader ]
  %arrayidx1.i = getelementptr inbounds double, double* %x, i64 %indvars.iv.i
  %13 = load double, double* %arrayidx1.i, align 8, !tbaa !70
  %cmp2.i = fcmp fast olt double %m.011.i, %13
  %m.1.i = select i1 %cmp2.i, double %13, double %m.011.i
  %indvars.iv.next.i = add nuw nsw i64 %indvars.iv.i, 1
  %exitcond.not.i = icmp eq i64 %indvars.iv.next.i, %wide.trip.count.i
  br i1 %exitcond.not.i, label %arr_max.exit, label %for.body.i, !llvm.loop !94

arr_max.exit:                                     ; preds = %for.body.i, %middle.block, %entry
  %m.0.lcssa.i = phi double [ %0, %entry ], [ %12, %middle.block ], [ %m.1.i, %for.body.i ]
  %cmp10 = icmp sgt i32 %n, 0
  br i1 %cmp10, label %for.body.preheader, label %for.end

for.body.preheader:                               ; preds = %arr_max.exit
  %wide.trip.count = zext i32 %n to i64
  %sub13 = fsub fast double %0, %m.0.lcssa.i
  %14 = tail call fast double @llvm.exp.f64(double %sub13)
  %exitcond.not14 = icmp eq i32 %n, 1
  br i1 %exitcond.not14, label %for.end, label %for.body.for.body_crit_edge.lr.ph, !llvm.loop !95

for.body.for.body_crit_edge.lr.ph:                ; preds = %for.body.preheader
  %15 = add nsw i64 %wide.trip.count, -1
  %min.iters.check22 = icmp ult i64 %15, 4
  br i1 %min.iters.check22, label %for.body.for.body_crit_edge.preheader, label %vector.ph23

vector.ph23:                                      ; preds = %for.body.for.body_crit_edge.lr.ph
  %n.vec25 = and i64 %15, -4
  %ind.end29 = or i64 %n.vec25, 1
  %16 = insertelement <2 x double> <double poison, double 0.000000e+00>, double %14, i32 0
  %broadcast.splatinsert = insertelement <2 x double> poison, double %m.0.lcssa.i, i32 0
  %broadcast.splat = shufflevector <2 x double> %broadcast.splatinsert, <2 x double> poison, <2 x i32> zeroinitializer
  %broadcast.splatinsert36 = insertelement <2 x double> poison, double %m.0.lcssa.i, i32 0
  %broadcast.splat37 = shufflevector <2 x double> %broadcast.splatinsert36, <2 x double> poison, <2 x i32> zeroinitializer
  br label %vector.body21

vector.body21:                                    ; preds = %vector.body21, %vector.ph23
  %index26 = phi i64 [ 0, %vector.ph23 ], [ %index.next27, %vector.body21 ]
  %vec.phi32 = phi <2 x double> [ %16, %vector.ph23 ], [ %25, %vector.body21 ]
  %vec.phi33 = phi <2 x double> [ zeroinitializer, %vector.ph23 ], [ %26, %vector.body21 ]
  %offset.idx31 = or i64 %index26, 1
  %17 = getelementptr inbounds double, double* %x, i64 %offset.idx31
  %18 = bitcast double* %17 to <2 x double>*
  %wide.load34 = load <2 x double>, <2 x double>* %18, align 8, !tbaa !70
  %19 = getelementptr inbounds double, double* %17, i64 2
  %20 = bitcast double* %19 to <2 x double>*
  %wide.load35 = load <2 x double>, <2 x double>* %20, align 8, !tbaa !70
  %21 = fsub fast <2 x double> %wide.load34, %broadcast.splat
  %22 = fsub fast <2 x double> %wide.load35, %broadcast.splat37
  %23 = call fast <2 x double> @llvm.exp.v2f64(<2 x double> %21)
  %24 = call fast <2 x double> @llvm.exp.v2f64(<2 x double> %22)
  %25 = fadd fast <2 x double> %23, %vec.phi32
  %26 = fadd fast <2 x double> %24, %vec.phi33
  %index.next27 = add i64 %index26, 4
  %27 = icmp eq i64 %index.next27, %n.vec25
  br i1 %27, label %middle.block19, label %vector.body21, !llvm.loop !96

middle.block19:                                   ; preds = %vector.body21
  %bin.rdx = fadd fast <2 x double> %26, %25
  %28 = call fast double @llvm.vector.reduce.fadd.v2f64(double -0.000000e+00, <2 x double> %bin.rdx)
  %cmp.n30 = icmp eq i64 %15, %n.vec25
  br i1 %cmp.n30, label %for.end, label %for.body.for.body_crit_edge.preheader

for.body.for.body_crit_edge.preheader:            ; preds = %for.body.for.body_crit_edge.lr.ph, %middle.block19
  %indvars.iv.next16.ph = phi i64 [ 1, %for.body.for.body_crit_edge.lr.ph ], [ %ind.end29, %middle.block19 ]
  %add15.ph = phi double [ %14, %for.body.for.body_crit_edge.lr.ph ], [ %28, %middle.block19 ]
  br label %for.body.for.body_crit_edge

for.body.for.body_crit_edge:                      ; preds = %for.body.for.body_crit_edge.preheader, %for.body.for.body_crit_edge
  %indvars.iv.next16 = phi i64 [ %indvars.iv.next, %for.body.for.body_crit_edge ], [ %indvars.iv.next16.ph, %for.body.for.body_crit_edge.preheader ]
  %add15 = phi double [ %add, %for.body.for.body_crit_edge ], [ %add15.ph, %for.body.for.body_crit_edge.preheader ]
  %arrayidx.phi.trans.insert = getelementptr inbounds double, double* %x, i64 %indvars.iv.next16
  %.pre = load double, double* %arrayidx.phi.trans.insert, align 8, !tbaa !70
  %sub = fsub fast double %.pre, %m.0.lcssa.i
  %29 = tail call fast double @llvm.exp.f64(double %sub)
  %add = fadd fast double %29, %add15
  %indvars.iv.next = add nuw nsw i64 %indvars.iv.next16, 1
  %exitcond.not = icmp eq i64 %indvars.iv.next, %wide.trip.count
  br i1 %exitcond.not, label %for.end, label %for.body.for.body_crit_edge, !llvm.loop !97

for.end:                                          ; preds = %for.body.for.body_crit_edge, %for.body.preheader, %middle.block19, %arr_max.exit
  %semx.0.lcssa = phi double [ 0.000000e+00, %arr_max.exit ], [ %14, %for.body.preheader ], [ %28, %middle.block19 ], [ %add, %for.body.for.body_crit_edge ]
  %30 = tail call fast double @llvm.log.f64(double %semx.0.lcssa)
  %add1 = fadd fast double %30, %m.0.lcssa.i
  ret double %add1
}

; Function Attrs: nofree nosync nounwind readnone speculatable willreturn
declare double @llvm.exp.f64(double) #17

; Function Attrs: nofree nosync nounwind readnone speculatable willreturn
declare double @llvm.log.f64(double) #17

; Function Attrs: nounwind readnone uwtable willreturn mustprogress
define dso_local double @log_gamma_distrib(double %a, double %p) local_unnamed_addr #18 {
entry:
  %sub = fadd fast double %p, -1.000000e+00
  %mul1 = fmul fast double %p, 0x3FD250D048E7A2E6
  %mul2 = fmul fast double %mul1, %sub
  %cmp8 = fcmp fast ult double %p, 1.000000e+00
  br i1 %cmp8, label %for.end, label %for.body

for.body:                                         ; preds = %entry, %for.body
  %out.010 = phi double [ %add6, %for.body ], [ %mul2, %entry ]
  %j.09 = phi i32 [ %inc, %for.body ], [ 1, %entry ]
  %sub3 = sub nsw i32 1, %j.09
  %conv4 = sitofp i32 %sub3 to double
  %mul5 = fmul fast double %conv4, 5.000000e-01
  %add = fadd fast double %mul5, %a
  %call = tail call fast double @lgamma(double %add) #38
  %add6 = fadd fast double %call, %out.010
  %inc = add nuw nsw i32 %j.09, 1
  %conv = sitofp i32 %inc to double
  %cmp = fcmp fast ugt double %conv, %p
  br i1 %cmp, label %for.end, label %for.body, !llvm.loop !98

for.end:                                          ; preds = %for.body, %entry
  %out.0.lcssa = phi double [ %mul2, %entry ], [ %add6, %for.body ]
  ret double %out.0.lcssa
}

; Function Attrs: nounwind
declare dso_local double @lgamma(double) local_unnamed_addr #7

; Function Attrs: nounwind uwtable mustprogress
define dso_local double @log_wishart_prior(i32 %p, i32 %k, double %wishart.coerce0, i32 %wishart.coerce1, double* nocapture readonly %sum_qs, double* nocapture readonly %Qdiags, double* nocapture readonly %icf) local_unnamed_addr #6 {
entry:
  %add = add i32 %p, 1
  %add1 = add i32 %add, %wishart.coerce1
  %mul = mul nsw i32 %add, %p
  %div = sdiv i32 %mul, 2
  %cmp43 = icmp sgt i32 %k, 0
  br i1 %cmp43, label %for.body.lr.ph, label %for.end

for.body.lr.ph:                                   ; preds = %entry
  %cmp10.i = icmp sgt i32 %p, 1
  %wide.trip.count.i = zext i32 %p to i64
  %sub13 = sub nsw i32 %div, %p
  %cmp10.i30 = icmp sgt i32 %sub13, 1
  %wide.trip.count.i31 = zext i32 %sub13 to i64
  %0 = fmul fast double %wishart.coerce0, %wishart.coerce0
  %mul23 = fmul fast double %0, 5.000000e-01
  %conv27 = sitofp i32 %wishart.coerce1 to double
  %1 = sext i32 %p to i64
  %wide.trip.count = zext i32 %k to i64
  %2 = add nsw i64 %wide.trip.count.i31, -1
  %3 = add nsw i64 %wide.trip.count.i, -1
  %min.iters.check52 = icmp ult i64 %3, 4
  %n.vec55 = and i64 %3, -4
  %ind.end59 = or i64 %n.vec55, 1
  %cmp.n60 = icmp eq i64 %3, %n.vec55
  %min.iters.check = icmp ult i64 %2, 4
  %n.vec = and i64 %2, -4
  %ind.end = or i64 %n.vec, 1
  %cmp.n = icmp eq i64 %2, %n.vec
  br label %for.body

for.body:                                         ; preds = %for.body.lr.ph, %sqnorm.exit42
  %indvars.iv = phi i64 [ 0, %for.body.lr.ph ], [ %indvars.iv.next, %sqnorm.exit42 ]
  %out.044 = phi double [ 0.000000e+00, %for.body.lr.ph ], [ %sub31, %sqnorm.exit42 ]
  %4 = mul nsw i64 %indvars.iv, %1
  %arrayidx = getelementptr inbounds double, double* %Qdiags, i64 %4
  %5 = load double, double* %arrayidx, align 8, !tbaa !70
  %mul.i = fmul fast double %5, %5
  br i1 %cmp10.i, label %for.body.i28.preheader, label %sqnorm.exit

for.body.i28.preheader:                           ; preds = %for.body
  br i1 %min.iters.check52, label %for.body.i28.preheader69, label %vector.ph53

vector.ph53:                                      ; preds = %for.body.i28.preheader
  %6 = insertelement <2 x double> <double poison, double 0.000000e+00>, double %mul.i, i32 0
  br label %vector.body51

vector.body51:                                    ; preds = %vector.body51, %vector.ph53
  %index56 = phi i64 [ 0, %vector.ph53 ], [ %index.next57, %vector.body51 ]
  %vec.phi62 = phi <2 x double> [ %6, %vector.ph53 ], [ %13, %vector.body51 ]
  %vec.phi63 = phi <2 x double> [ zeroinitializer, %vector.ph53 ], [ %14, %vector.body51 ]
  %offset.idx61 = or i64 %index56, 1
  %7 = getelementptr inbounds double, double* %arrayidx, i64 %offset.idx61
  %8 = bitcast double* %7 to <2 x double>*
  %wide.load64 = load <2 x double>, <2 x double>* %8, align 8, !tbaa !70
  %9 = getelementptr inbounds double, double* %7, i64 2
  %10 = bitcast double* %9 to <2 x double>*
  %wide.load65 = load <2 x double>, <2 x double>* %10, align 8, !tbaa !70
  %11 = fmul fast <2 x double> %wide.load64, %wide.load64
  %12 = fmul fast <2 x double> %wide.load65, %wide.load65
  %13 = fadd fast <2 x double> %11, %vec.phi62
  %14 = fadd fast <2 x double> %12, %vec.phi63
  %index.next57 = add i64 %index56, 4
  %15 = icmp eq i64 %index.next57, %n.vec55
  br i1 %15, label %middle.block49, label %vector.body51, !llvm.loop !99

middle.block49:                                   ; preds = %vector.body51
  %bin.rdx66 = fadd fast <2 x double> %14, %13
  %16 = call fast double @llvm.vector.reduce.fadd.v2f64(double -0.000000e+00, <2 x double> %bin.rdx66)
  br i1 %cmp.n60, label %sqnorm.exit, label %for.body.i28.preheader69

for.body.i28.preheader69:                         ; preds = %for.body.i28.preheader, %middle.block49
  %indvars.iv.i.ph = phi i64 [ 1, %for.body.i28.preheader ], [ %ind.end59, %middle.block49 ]
  %res.012.i.ph = phi double [ %mul.i, %for.body.i28.preheader ], [ %16, %middle.block49 ]
  br label %for.body.i28

for.body.i28:                                     ; preds = %for.body.i28.preheader69, %for.body.i28
  %indvars.iv.i = phi i64 [ %indvars.iv.next.i, %for.body.i28 ], [ %indvars.iv.i.ph, %for.body.i28.preheader69 ]
  %res.012.i = phi double [ %add.i27, %for.body.i28 ], [ %res.012.i.ph, %for.body.i28.preheader69 ]
  %arrayidx2.i = getelementptr inbounds double, double* %arrayidx, i64 %indvars.iv.i
  %17 = load double, double* %arrayidx2.i, align 8, !tbaa !70
  %mul5.i26 = fmul fast double %17, %17
  %add.i27 = fadd fast double %mul5.i26, %res.012.i
  %indvars.iv.next.i = add nuw nsw i64 %indvars.iv.i, 1
  %exitcond.not.i = icmp eq i64 %indvars.iv.next.i, %wide.trip.count.i
  br i1 %exitcond.not.i, label %sqnorm.exit, label %for.body.i28, !llvm.loop !100

sqnorm.exit:                                      ; preds = %for.body.i28, %middle.block49, %for.body
  %res.0.lcssa.i = phi double [ %mul.i, %for.body ], [ %16, %middle.block49 ], [ %add.i27, %for.body.i28 ]
  %18 = trunc i64 %indvars.iv to i32
  %mul14 = mul nsw i32 %div, %18
  %add15 = add nsw i32 %mul14, %p
  %idxprom16 = sext i32 %add15 to i64
  %arrayidx17 = getelementptr inbounds double, double* %icf, i64 %idxprom16
  %19 = load double, double* %arrayidx17, align 8, !tbaa !70
  %mul.i29 = fmul fast double %19, %19
  br i1 %cmp10.i30, label %for.body.i40.preheader, label %sqnorm.exit42

for.body.i40.preheader:                           ; preds = %sqnorm.exit
  br i1 %min.iters.check, label %for.body.i40.preheader68, label %vector.ph

vector.ph:                                        ; preds = %for.body.i40.preheader
  %20 = insertelement <2 x double> <double poison, double 0.000000e+00>, double %mul.i29, i32 0
  br label %vector.body

vector.body:                                      ; preds = %vector.body, %vector.ph
  %index = phi i64 [ 0, %vector.ph ], [ %index.next, %vector.body ]
  %vec.phi = phi <2 x double> [ %20, %vector.ph ], [ %27, %vector.body ]
  %vec.phi47 = phi <2 x double> [ zeroinitializer, %vector.ph ], [ %28, %vector.body ]
  %offset.idx = or i64 %index, 1
  %21 = getelementptr inbounds double, double* %arrayidx17, i64 %offset.idx
  %22 = bitcast double* %21 to <2 x double>*
  %wide.load = load <2 x double>, <2 x double>* %22, align 8, !tbaa !70
  %23 = getelementptr inbounds double, double* %21, i64 2
  %24 = bitcast double* %23 to <2 x double>*
  %wide.load48 = load <2 x double>, <2 x double>* %24, align 8, !tbaa !70
  %25 = fmul fast <2 x double> %wide.load, %wide.load
  %26 = fmul fast <2 x double> %wide.load48, %wide.load48
  %27 = fadd fast <2 x double> %25, %vec.phi
  %28 = fadd fast <2 x double> %26, %vec.phi47
  %index.next = add i64 %index, 4
  %29 = icmp eq i64 %index.next, %n.vec
  br i1 %29, label %middle.block, label %vector.body, !llvm.loop !101

middle.block:                                     ; preds = %vector.body
  %bin.rdx = fadd fast <2 x double> %28, %27
  %30 = call fast double @llvm.vector.reduce.fadd.v2f64(double -0.000000e+00, <2 x double> %bin.rdx)
  br i1 %cmp.n, label %sqnorm.exit42, label %for.body.i40.preheader68

for.body.i40.preheader68:                         ; preds = %for.body.i40.preheader, %middle.block
  %indvars.iv.i33.ph = phi i64 [ 1, %for.body.i40.preheader ], [ %ind.end, %middle.block ]
  %res.012.i34.ph = phi double [ %mul.i29, %for.body.i40.preheader ], [ %30, %middle.block ]
  br label %for.body.i40

for.body.i40:                                     ; preds = %for.body.i40.preheader68, %for.body.i40
  %indvars.iv.i33 = phi i64 [ %indvars.iv.next.i38, %for.body.i40 ], [ %indvars.iv.i33.ph, %for.body.i40.preheader68 ]
  %res.012.i34 = phi double [ %add.i37, %for.body.i40 ], [ %res.012.i34.ph, %for.body.i40.preheader68 ]
  %arrayidx2.i35 = getelementptr inbounds double, double* %arrayidx17, i64 %indvars.iv.i33
  %31 = load double, double* %arrayidx2.i35, align 8, !tbaa !70
  %mul5.i36 = fmul fast double %31, %31
  %add.i37 = fadd fast double %mul5.i36, %res.012.i34
  %indvars.iv.next.i38 = add nuw nsw i64 %indvars.iv.i33, 1
  %exitcond.not.i39 = icmp eq i64 %indvars.iv.next.i38, %wide.trip.count.i31
  br i1 %exitcond.not.i39, label %sqnorm.exit42, label %for.body.i40, !llvm.loop !102

sqnorm.exit42:                                    ; preds = %for.body.i40, %middle.block, %sqnorm.exit
  %res.0.lcssa.i41 = phi double [ %mul.i29, %sqnorm.exit ], [ %30, %middle.block ], [ %add.i37, %for.body.i40 ]
  %add19 = fadd fast double %res.0.lcssa.i41, %res.0.lcssa.i
  %mul24 = fmul fast double %mul23, %add19
  %add25 = fadd fast double %mul24, %out.044
  %arrayidx29 = getelementptr inbounds double, double* %sum_qs, i64 %indvars.iv
  %32 = load double, double* %arrayidx29, align 8, !tbaa !70
  %33 = fmul fast double %32, %conv27
  %sub31 = fsub fast double %add25, %33
  %indvars.iv.next = add nuw nsw i64 %indvars.iv, 1
  %exitcond.not = icmp eq i64 %indvars.iv.next, %wide.trip.count
  br i1 %exitcond.not, label %for.end, label %for.body, !llvm.loop !103

for.end:                                          ; preds = %sqnorm.exit42, %entry
  %out.0.lcssa = phi double [ 0.000000e+00, %entry ], [ %sub31, %sqnorm.exit42 ]
  %conv6 = sitofp i32 %add1 to double
  %conv8 = sitofp i32 %p to double
  %sub.i = fadd fast double %conv8, -1.000000e+00
  %mul1.i = fmul fast double %conv8, 0x3FD250D048E7A2E6
  %mul2.i = fmul fast double %mul1.i, %sub.i
  %cmp8.i = icmp slt i32 %p, 1
