; ModuleID = 'logsumexp-raw.ll'
source_filename = "logsumexp.cpp"
target datalayout = "e-m:e-p270:32:32-p271:32:32-p272:64:64-i64:64-f80:128-n8:16:32:64-S128"
target triple = "x86_64-unknown-linux-gnu"

%"class.std::ios_base::Init" = type { i8 }
%"class.std::__cxx11::basic_string" = type { %"struct.std::__cxx11::basic_string<char>::_Alloc_hider", i64, %union.anon }
%"struct.std::__cxx11::basic_string<char>::_Alloc_hider" = type { i8* }
%union.anon = type { i64, [8 x i8] }
%"class.adept::Stack" = type <{ %"class.adept::internal::StackStorageOrig", double*, %"class.std::vector", %"class.std::vector", %"class.std::__cxx11::list", %"struct.std::_List_iterator", i32, i32, i32, i32, i8, i8, i8, i8, i8, [3 x i8] }>
%"class.adept::internal::StackStorageOrig" = type { %"struct.adept::internal::Statement"*, double*, i32*, i32, i32, i32, i32 }
%"struct.adept::internal::Statement" = type { i32, i32 }
%"class.std::vector" = type { %"struct.std::_Vector_base" }
%"struct.std::_Vector_base" = type { %"struct.std::_Vector_base<int, std::allocator<int>>::_Vector_impl" }
%"struct.std::_Vector_base<int, std::allocator<int>>::_Vector_impl" = type { %"struct.std::_Vector_base<int, std::allocator<int>>::_Vector_impl_data" }
%"struct.std::_Vector_base<int, std::allocator<int>>::_Vector_impl_data" = type { i32*, i32*, i32* }
%"class.std::__cxx11::list" = type { %"class.std::__cxx11::_List_base" }
%"class.std::__cxx11::_List_base" = type { %"struct.std::__cxx11::_List_base<adept::Gap, std::allocator<adept::Gap>>::_List_impl" }
%"struct.std::__cxx11::_List_base<adept::Gap, std::allocator<adept::Gap>>::_List_impl" = type { %"struct.std::__detail::_List_node_header" }
%"struct.std::__detail::_List_node_header" = type { %"struct.std::__detail::_List_node_base", i64 }
%"struct.std::__detail::_List_node_base" = type { %"struct.std::__detail::_List_node_base"*, %"struct.std::__detail::_List_node_base"* }
%"struct.std::_List_iterator" = type { %"struct.std::__detail::_List_node_base"* }
%"struct.adept::internal::EndIndex" = type { i8 }
%"class.adept::internal::AllIndex" = type { i8 }
%"class.std::allocator" = type { i8 }
%"class.__gnu_cxx::new_allocator" = type { i8 }
%"class.adept::invalid_operation" = type { %"class.adept::array_exception" }
%"class.adept::array_exception" = type { %"class.adept::exception" }
%"class.adept::exception" = type { %"class.std::exception", %"class.std::__cxx11::basic_string" }
%"class.std::exception" = type { i32 (...)** }
%"class.__gnu_cxx::new_allocator.4" = type { i8 }
%"class.std::allocator.0" = type { i8 }
%"class.adept::stack_already_active" = type { %"class.adept::autodiff_exception" }
%"class.adept::autodiff_exception" = type { %"class.adept::exception" }
%"class.adept::gradients_not_initialized" = type { %"class.adept::autodiff_exception" }
%"struct.std::_List_const_iterator" = type { %"struct.std::__detail::_List_node_base"* }
%"struct.adept::Gap" = type { i32, i32 }
%"struct.std::_List_node" = type { %"struct.std::__detail::_List_node_base", %"struct.__gnu_cxx::__aligned_membuf" }
%"struct.__gnu_cxx::__aligned_membuf" = type { [8 x i8] }
%"class.std::basic_ostream" = type { i32 (...)**, %"class.std::basic_ios" }
%"class.std::basic_ios" = type { %"class.std::ios_base", %"class.std::basic_ostream"*, i8, i8, %"class.std::basic_streambuf"*, %"class.std::ctype"*, %"class.std::num_put"*, %"class.std::num_get"* }
%"class.std::ios_base" = type { i32 (...)**, i64, i64, i32, i32, i32, %"struct.std::ios_base::_Callback_list"*, %"struct.std::ios_base::_Words", [8 x %"struct.std::ios_base::_Words"], i32, %"struct.std::ios_base::_Words"*, %"class.std::locale" }
%"struct.std::ios_base::_Callback_list" = type { %"struct.std::ios_base::_Callback_list"*, void (i32, %"class.std::ios_base"*, i32)*, i32, i32 }
%"struct.std::ios_base::_Words" = type { i8*, i64 }
%"class.std::locale" = type { %"class.std::locale::_Impl"* }
%"class.std::locale::_Impl" = type { i32, %"class.std::locale::facet"**, i64, %"class.std::locale::facet"**, i8** }
%"class.std::locale::facet" = type <{ i32 (...)**, i32, [4 x i8] }>
%"class.std::basic_streambuf" = type { i32 (...)**, i8*, i8*, i8*, i8*, i8*, i8*, %"class.std::locale" }
%"class.std::ctype" = type <{ %"class.std::locale::facet.base", [4 x i8], %struct.__locale_struct*, i8, [7 x i8], i32*, i32*, i16*, i8, [256 x i8], [256 x i8], i8, [6 x i8] }>
%"class.std::locale::facet.base" = type <{ i32 (...)**, i32 }>
%struct.__locale_struct = type { [13 x %struct.__locale_data*], i16*, i32*, i32*, [13 x i8*] }
%struct.__locale_data = type opaque
%"class.std::num_put" = type { %"class.std::locale::facet.base", [4 x i8] }
%"class.std::num_get" = type { %"class.std::locale::facet.base", [4 x i8] }
%"class.adept::feature_not_available" = type { %"class.adept::exception" }
%"class.adept::Array" = type { float*, %"class.adept::Storage"*, %"class.adept::ExpressionSize", %"class.adept::ExpressionSize" }
%"class.adept::Storage" = type opaque
%"class.adept::ExpressionSize" = type { [2 x i32] }
%"class.adept::SpecialMatrix" = type { float*, %"class.adept::Storage"*, i32, i32 }
%"class.adept::SpecialMatrix.9" = type { float*, %"class.adept::Storage"*, i32, i32 }
%"class.adept::Array.12" = type { double*, %"class.adept::Storage.14"*, %"class.adept::ExpressionSize", %"class.adept::ExpressionSize" }
%"class.adept::Storage.14" = type <{ double*, i32, i32, i32, [4 x i8] }>
%"class.adept::SpecialMatrix.15" = type { double*, %"class.adept::Storage.14"*, i32, i32 }
%"class.adept::SpecialMatrix.17" = type { double*, %"class.adept::Storage.14"*, i32, i32 }
%"struct.adept::internal::Packet" = type { %union.anon.19 }
%union.anon.19 = type { <2 x double> }
%"struct.adept::Block" = type { [2 x double] }
%"class.std::bad_alloc" = type { %"class.std::exception" }
%"class.adept::dependents_or_independents_not_identified" = type { %"class.adept::autodiff_exception" }
%"class.__gnu_cxx::__normal_iterator.44" = type { i32* }
%"class.std::vector.20" = type { %"struct.std::_Vector_base.21" }
%"struct.std::_Vector_base.21" = type { %"struct.std::_Vector_base<adept::Block<2, double>, std::allocator<adept::Block<2, double>>>::_Vector_impl" }
%"struct.std::_Vector_base<adept::Block<2, double>, std::allocator<adept::Block<2, double>>>::_Vector_impl" = type { %"struct.std::_Vector_base<adept::Block<2, double>, std::allocator<adept::Block<2, double>>>::_Vector_impl_data" }
%"struct.std::_Vector_base<adept::Block<2, double>, std::allocator<adept::Block<2, double>>>::_Vector_impl_data" = type { %"struct.adept::Block"*, %"struct.adept::Block"*, %"struct.adept::Block"* }
%"class.std::allocator.22" = type { i8 }
%"class.__gnu_cxx::new_allocator.23" = type { i8 }
%"class.std::__cxx11::basic_stringstream" = type { %"class.std::basic_iostream.base", %"class.std::__cxx11::basic_stringbuf", %"class.std::basic_ios" }
%"class.std::basic_iostream.base" = type { %"class.std::basic_istream.base", %"class.std::basic_ostream.base" }
%"class.std::basic_istream.base" = type { i32 (...)**, i64 }
%"class.std::basic_ostream.base" = type { i32 (...)** }
%"class.std::__cxx11::basic_stringbuf" = type { %"class.std::basic_streambuf", i32, %"class.std::__cxx11::basic_string" }
%"class.std::basic_iostream" = type { %"class.std::basic_istream.base", %"class.std::basic_ostream.base", %"class.std::basic_ios" }
%"class.adept::Array.25" = type { float*, %"class.adept::Storage"*, %"class.adept::ExpressionSize.27", %"class.adept::ExpressionSize.27" }
%"class.adept::ExpressionSize.27" = type { [1 x i32] }
%"class.adept::Array.28" = type { double*, %"class.adept::Storage.14"*, %"class.adept::ExpressionSize.27", %"class.adept::ExpressionSize.27" }
%"struct.adept::internal::GradientIndex" = type { i8 }
%struct.timeval = type { i64, i64 }
%"class.adept::Active" = type <{ double, i32, [4 x i8] }>
%"class.adept::Array.30" = type { %"struct.adept::internal::GradientIndex.32", double*, %"class.adept::Storage.14"*, %"class.adept::ExpressionSize.27", %"class.adept::ExpressionSize.27" }
%"struct.adept::internal::GradientIndex.32" = type { i32 }
%"class.adept::ActiveConstReference" = type <{ double*, i32, [4 x i8] }>
%"struct.adept::internal::BinaryOperation" = type { %"struct.adept::internal::UnaryOperation", %"class.adept::Active"* }
%"struct.adept::internal::UnaryOperation" = type { %"class.adept::Active"* }
%"struct.adept::internal::UnaryOperation.38" = type { %"struct.adept::internal::BinaryOperation.39" }
%"struct.adept::internal::BinaryOperation.39" = type { %"struct.adept::internal::ArrayWrapper", %"class.adept::Active"* }
%"struct.adept::internal::ArrayWrapper" = type { double*, %"class.adept::Array.30"* }
%"struct.adept::Expression.34" = type { i8 }
%"struct.adept::Expression.31" = type { i8 }
%"struct.adept::Expression.33" = type { i8 }
%"struct.adept::Expression.40" = type { i8 }
%"struct.adept::Expression.37" = type { i8 }
%"struct.adept::Expression.36" = type { i8 }
%"struct.adept::Expression.35" = type { i8 }
%"class.std::allocator.3" = type { i8 }
%"class.adept::ExpressionSize.42" = type { i8 }
%"class.std::basic_istream" = type { i32 (...)**, i64, %"class.std::basic_ios" }
%"class.__gnu_cxx::__normal_iterator" = type { i8* }
%"class.__gnu_cxx::__normal_iterator.43" = type { i8* }
%"class.__gnu_cxx::new_allocator.1" = type { i8 }
%"struct.std::__allocated_ptr" = type { %"class.std::allocator.3"*, %"struct.std::_List_node"* }
%"class.adept::invalid_dimension" = type { %"class.adept::array_exception" }
%"class.adept::internal::ScratchVector" = type { i8 }
%"class.adept::internal::ScratchVector.45" = type { [1 x double] }
%"struct.adept::internal::Add" = type { i8 }
%"struct.adept::internal::Log" = type { i8 }
%"struct.adept::internal::Sum" = type { i8 }
%"class.adept::size_mismatch" = type { %"class.adept::array_exception" }
%"struct.adept::Expression.41" = type { i8 }
%"struct.adept::internal::Exp" = type { i8 }
%"struct.adept::internal::Subtract" = type { i8 }
%"struct.adept::internal::array_helper" = type { i8 }
%"class.adept::internal::ScratchVector.46" = type { [2 x double] }

$_ZN5adept17invalid_operationC2ERKNSt7__cxx1112basic_stringIcSt11char_traitsIcESaIcEEE = comdat any

$_ZNSt7__cxx1110_List_baseIN5adept3GapESaIS2_EED2Ev = comdat any

$_ZNSt6vectorIiSaIiEED2Ev = comdat any

$_ZN5adept20stack_already_activeC2ERKNSt7__cxx1112basic_stringIcSt11char_traitsIcESaIcEEE = comdat any

$_ZNK5adept5Stack25gradients_are_initializedEv = comdat any

$_ZN5adept25gradients_not_initializedC2ERKNSt7__cxx1112basic_stringIcSt11char_traitsIcESaIcEEE = comdat any

$_ZNKSt7__cxx114listIN5adept3GapESaIS2_EE5emptyEv = comdat any

$_ZNSt7__cxx114listIN5adept3GapESaIS2_EE5beginEv = comdat any

$_ZStneRKSt14_List_iteratorIN5adept3GapEES4_ = comdat any

$_ZNSt7__cxx114listIN5adept3GapESaIS2_EE3endEv = comdat any

$_ZNKSt14_List_iteratorIN5adept3GapEEptEv = comdat any

$_ZSteqRKSt14_List_iteratorIN5adept3GapEES4_ = comdat any

$_ZNSt7__cxx114listIN5adept3GapESaIS2_EE5eraseESt20_List_const_iteratorIS2_E = comdat any

$_ZNSt20_List_const_iteratorIN5adept3GapEEC2ERKSt14_List_iteratorIS1_E = comdat any

$_ZNSt14_List_iteratorIN5adept3GapEEppEi = comdat any

$_ZNKSt14_List_iteratorIN5adept3GapEEdeEv = comdat any

$_ZNSt7__cxx114listIN5adept3GapESaIS2_EE6insertESt20_List_const_iteratorIS2_EOS2_ = comdat any

$_ZN5adept3GapC2Ei = comdat any

$_ZNSt7__cxx114listIN5adept3GapESaIS2_EE9push_backEOS2_ = comdat any

$_ZNSt14_List_iteratorIN5adept3GapEEmmEi = comdat any

$_ZNSt7__cxx114listIN5adept3GapESaIS2_EE4backEv = comdat any

$_ZNSt7__cxx114listIN5adept3GapESaIS2_EE8pop_backEv = comdat any

$_ZN5adept3GapC2Eii = comdat any

$_ZNKSt7__cxx114listIN5adept3GapESaIS2_EE5beginEv = comdat any

$_ZStneRKSt20_List_const_iteratorIN5adept3GapEES4_ = comdat any

$_ZNKSt7__cxx114listIN5adept3GapESaIS2_EE3endEv = comdat any

$_ZNKSt20_List_const_iteratorIN5adept3GapEEptEv = comdat any

$_ZNSt20_List_const_iteratorIN5adept3GapEEppEi = comdat any

$_ZNK5adept5Stack12n_statementsEv = comdat any

$_ZNK5adept5Stack22n_allocated_statementsEv = comdat any

$_ZNK5adept5Stack12n_operationsEv = comdat any

$_ZNK5adept5Stack22n_allocated_operationsEv = comdat any

$_ZNK5adept5Stack22n_gradients_registeredEv = comdat any

$_ZNK5adept5Stack13max_gradientsEv = comdat any

$_ZNK5adept5Stack10i_gradientEv = comdat any

$_ZNKSt7__cxx114listIN5adept3GapESaIS2_EE4sizeEv = comdat any

$_ZNK5adept5Stack21n_allocated_gradientsEv = comdat any

$_ZNK5adept5Stack12n_dependentsEv = comdat any

$_ZNK5adept5Stack14n_independentsEv = comdat any

$_ZNKSt6vectorIiSaIiEE4sizeEv = comdat any

$_ZNKSt6vectorIiSaIiEEixEm = comdat any

$_ZN5adept8internal9StatementC2Ev = comdat any

$_ZN5adept21feature_not_availableC2ERKNSt7__cxx1112basic_stringIcSt11char_traitsIcESaIcEEE = comdat any

$_ZN5adept3invIfEENS_5ArrayILi2ET_Lb0EEERKS3_ = comdat any

$_ZN5adept3invIfLNS_8internal21SymmMatrixOrientationE0EEENS_13SpecialMatrixIT_NS1_10SymmEngineIXT0_EEELb0EEERKS7_ = comdat any

$_ZN5adept3invIfLNS_8internal21SymmMatrixOrientationE1EEENS_13SpecialMatrixIT_NS1_10SymmEngineIXT0_EEELb0EEERKS7_ = comdat any

$_ZN5adept3invIdEENS_5ArrayILi2ET_Lb0EEERKS3_ = comdat any

$_ZN5adept3invIdLNS_8internal21SymmMatrixOrientationE0EEENS_13SpecialMatrixIT_NS1_10SymmEngineIXT0_EEELb0EEERKS7_ = comdat any

$_ZN5adept3invIdLNS_8internal21SymmMatrixOrientationE1EEENS_13SpecialMatrixIT_NS1_10SymmEngineIXT0_EEELb0EEERKS7_ = comdat any

$_ZN5adept8internal6PacketIdEC2Ev = comdat any

$_ZN5adept8internal6PacketIdEC2EPKd = comdat any

$_ZN5adept8internal6PacketIdEC2Ed = comdat any

$_ZN5adept8internalmlERKNS0_6PacketIdEES4_ = comdat any

$_ZN5adept8internal6PacketIdEpLERKS2_ = comdat any

$_ZNK5adept8internal6PacketIdE3putEPd = comdat any

$_ZN5adept5BlockILi2EdEC2Ev = comdat any

$_ZN5adept5BlockILi2EdEixEi = comdat any

$_ZNK5adept5Stack13n_independentEv = comdat any

$_ZN5adept8internal13alloc_alignedIdEEPT_i = comdat any

$_ZNK5adept5Stack11n_dependentEv = comdat any

$_ZN5adept8internal12free_alignedIdEEvPT_ = comdat any

$_ZNKSt6vectorIiSaIiEE5emptyEv = comdat any

$_ZN5adept41dependents_or_independents_not_identifiedC2ERKNSt7__cxx1112basic_stringIcSt11char_traitsIcESaIcEEE = comdat any

$_ZNSt6vectorIiSaIiEEixEm = comdat any

$_ZNSaIN5adept5BlockILi2EdEEEC2Ev = comdat any

$_ZNSt6vectorIN5adept5BlockILi2EdEESaIS2_EEC2EmRKS3_ = comdat any

$_ZNKSt6vectorIN5adept5BlockILi2EdEESaIS2_EE4sizeEv = comdat any

$_ZNSt6vectorIN5adept5BlockILi2EdEESaIS2_EEixEm = comdat any

$_ZN5adept5BlockILi2EdE4zeroEv = comdat any

$_ZNSt6vectorIN5adept5BlockILi2EdEESaIS2_EED2Ev = comdat any

$_ZN5adept5solveIfEENS_5ArrayILi1ET_Lb0EEERKNS1_ILi2ES2_Lb0EEERKS3_ = comdat any

$_ZN5adept5solveIfLNS_8internal21SymmMatrixOrientationE0EEENS_5ArrayILi1ET_Lb0EEERKNS_13SpecialMatrixIS4_NS1_10SymmEngineIXT0_EEELb0EEERKS5_ = comdat any

$_ZN5adept5solveIfLNS_8internal21SymmMatrixOrientationE1EEENS_5ArrayILi1ET_Lb0EEERKNS_13SpecialMatrixIS4_NS1_10SymmEngineIXT0_EEELb0EEERKS5_ = comdat any

$_ZN5adept5solveIfEENS_5ArrayILi2ET_Lb0EEERKS3_S5_ = comdat any

$_ZN5adept5solveIfLNS_8internal21SymmMatrixOrientationE0EEENS_5ArrayILi2ET_Lb0EEERKNS_13SpecialMatrixIS4_NS1_10SymmEngineIXT0_EEELb0EEERKS5_ = comdat any

$_ZN5adept5solveIfLNS_8internal21SymmMatrixOrientationE1EEENS_5ArrayILi2ET_Lb0EEERKNS_13SpecialMatrixIS4_NS1_10SymmEngineIXT0_EEELb0EEERKS5_ = comdat any

$_ZN5adept5solveIdEENS_5ArrayILi1ET_Lb0EEERKNS1_ILi2ES2_Lb0EEERKS3_ = comdat any

$_ZN5adept5solveIdLNS_8internal21SymmMatrixOrientationE0EEENS_5ArrayILi1ET_Lb0EEERKNS_13SpecialMatrixIS4_NS1_10SymmEngineIXT0_EEELb0EEERKS5_ = comdat any

$_ZN5adept5solveIdLNS_8internal21SymmMatrixOrientationE1EEENS_5ArrayILi1ET_Lb0EEERKNS_13SpecialMatrixIS4_NS1_10SymmEngineIXT0_EEELb0EEERKS5_ = comdat any

$_ZN5adept5solveIdEENS_5ArrayILi2ET_Lb0EEERKS3_S5_ = comdat any

$_ZN5adept5solveIdLNS_8internal21SymmMatrixOrientationE0EEENS_5ArrayILi2ET_Lb0EEERKNS_13SpecialMatrixIS4_NS1_10SymmEngineIXT0_EEELb0EEERKS5_ = comdat any

$_ZN5adept5solveIdLNS_8internal21SymmMatrixOrientationE1EEENS_5ArrayILi2ET_Lb0EEERKNS_13SpecialMatrixIS4_NS1_10SymmEngineIXT0_EEELb0EEERKS5_ = comdat any

$_ZN5adept5ArrayILi1EdLb0EEC2Ei = comdat any

$_ZN5adept5ArrayILi1EdLb0EEclIiEENS_8internal9enable_ifIXaaaaeqLi1ELi1Esr15all_scalar_intsILi1ET_EE5valuentLb0EERdE4typeES5_ = comdat any

$_ZN5adept5ArrayILi1EdLb0EED2Ev = comdat any

$_ZNK5adept5ArrayILi1EdLb1EEixIiEENS_8internal9enable_ifIXaaaaeqLi1ELi1Esr15all_scalar_intsILi1ET_EE5valueLb1EENS_20ActiveConstReferenceIdEEE4typeES5_ = comdat any

$_ZN5adept6ActiveIdEC2IdNS_20ActiveConstReferenceIdEEEERKNS_10ExpressionIT_T0_EEPNS_8internal9enable_ifIXaaeqsrS7_4rankLi0EsrS7_9is_activeEvE4typeE = comdat any

$_ZN5adept20ActiveConstReferenceIdED2Ev = comdat any

$_ZN5adept6ActiveIdEC2ERKS1_ = comdat any

$_ZN5adept6ActiveIdEaSERKS1_ = comdat any

$_ZN5adept6ActiveIdED2Ev = comdat any

$_ZN5adeptplINS_8internal14UnaryOperationIdNS1_3LogENS_6ActiveIdEEEES5_EENS1_9enable_ifIXsr8internal15rank_compatibleIXsrT_4rankEXsrT0_4rankEEE5valueENS1_15BinaryOperationINS1_7promoteINS8_4typeENS9_4typeEE4typeES8_NS1_3AddES9_EEE4typeERKNS_10ExpressionISC_S8_EERKNSK_ISD_S9_EE = comdat any

$_ZN5adept3logIdNS_6ActiveIdEEEENS_8internal14UnaryOperationIT_NS3_3LogET0_EERKNS_10ExpressionIS5_S7_EE = comdat any

$_ZN5adept3sumIdNS_8internal14UnaryOperationIdNS1_3ExpENS1_15BinaryOperationIdNS_5ArrayILi1EdLb1EEENS1_8SubtractENS_6ActiveIdEEEEEEEENS1_9enable_ifIXaasrT0_9is_activenesrSD_4rankLi0EENS8_IT_EEE4typeERKNS_10ExpressionISE_SD_EE = comdat any

$_ZN5adept3expIdNS_8internal15BinaryOperationIdNS_5ArrayILi1EdLb1EEENS1_8SubtractENS_6ActiveIdEEEEEENS1_14UnaryOperationIT_NS1_3ExpET0_EERKNS_10ExpressionISA_SC_EE = comdat any

$_ZN5adeptmiINS_5ArrayILi1EdLb1EEENS_6ActiveIdEEEENS_8internal9enable_ifIXsr8internal15rank_compatibleIXsrT_4rankEXsrT0_4rankEEE5valueENS5_15BinaryOperationINS5_7promoteINS7_4typeENS8_4typeEE4typeES7_NS5_8SubtractES8_EEE4typeERKNS_10ExpressionISB_S7_EERKNSJ_ISC_S8_EE = comdat any

$_ZN5adept6ActiveIdEC2IdNS_8internal15BinaryOperationIdNS3_14UnaryOperationIdNS3_3LogES1_EENS3_3AddES1_EEEERKNS_10ExpressionIT_T0_EEPNS3_9enable_ifIXaaeqsrSC_4rankLi0EsrSC_9is_activeEvE4typeE = comdat any

$_ZN5adept15array_exceptionC2ERKNSt7__cxx1112basic_stringIcSt11char_traitsIcESaIcEEE = comdat any

$_ZN5adept17invalid_operationD0Ev = comdat any

$_ZNK5adept9exception4whatEv = comdat any

$_ZN5adept9exceptionC2Ev = comdat any

$_ZN5adept15array_exceptionD0Ev = comdat any

$_ZNSt9exceptionC2Ev = comdat any

$_ZN5adept9exceptionD0Ev = comdat any

$__clang_call_terminate = comdat any

$_ZNSt14pointer_traitsIPcE10pointer_toERc = comdat any

$_ZSt9addressofIcEPT_RS0_ = comdat any

$_ZSt11__addressofIcEPT_RS0_ = comdat any

$_ZSt4moveIRSaIcEEONSt16remove_referenceIT_E4typeEOS3_ = comdat any

$_ZN9__gnu_cxx13new_allocatorIcEC2ERKS1_ = comdat any

$_ZNSt11char_traitsIcE6assignERcRKc = comdat any

$_ZN9__gnu_cxx13new_allocatorIcED2Ev = comdat any

$_ZNSt7__cxx1110_List_baseIN5adept3GapESaIS2_EE8_M_clearEv = comdat any

$_ZN9__gnu_cxx13new_allocatorISt10_List_nodeIN5adept3GapEEED2Ev = comdat any

$_ZNSt10_List_nodeIN5adept3GapEE9_M_valptrEv = comdat any

$_ZNSt16allocator_traitsISaISt10_List_nodeIN5adept3GapEEEE7destroyIS2_EEvRS4_PT_ = comdat any

$_ZNSt7__cxx1110_List_baseIN5adept3GapESaIS2_EE21_M_get_Node_allocatorEv = comdat any

$_ZNSt7__cxx1110_List_baseIN5adept3GapESaIS2_EE11_M_put_nodeEPSt10_List_nodeIS2_E = comdat any

$_ZN9__gnu_cxx16__aligned_membufIN5adept3GapEE6_M_ptrEv = comdat any

$_ZN9__gnu_cxx16__aligned_membufIN5adept3GapEE7_M_addrEv = comdat any

$_ZN9__gnu_cxx13new_allocatorISt10_List_nodeIN5adept3GapEEE7destroyIS3_EEvPT_ = comdat any

$_ZNSt16allocator_traitsISaISt10_List_nodeIN5adept3GapEEEE10deallocateERS4_PS3_m = comdat any

$_ZN9__gnu_cxx13new_allocatorISt10_List_nodeIN5adept3GapEEE10deallocateEPS4_m = comdat any

$_ZN5adept18autodiff_exceptionC2Ev = comdat any

$_ZN5adept20stack_already_activeD0Ev = comdat any

$_ZN5adept18autodiff_exceptionD0Ev = comdat any

$_ZN5adept25gradients_not_initializedD0Ev = comdat any

$_ZN5adept21feature_not_availableD0Ev = comdat any

$_ZN5adept8internal6PacketIdEC2EDv2_d = comdat any

$_ZN5adept41dependents_or_independents_not_identifiedD0Ev = comdat any

$_ZN5adeptgtINS_6ActiveIdEES2_EENS_8internal9enable_ifIXaaeqsrT_4rankLi0EeqsrT0_4rankLi0EEbE4typeERKNS_10ExpressionINS5_4typeES5_EERKNS9_INS6_4typeES6_EE = comdat any

$_ZNK5adept10ExpressionIdNS_6ActiveIdEEE12scalar_valueEv = comdat any

$_ZN5adept14ExpressionSizeILi0EEC2Ev = comdat any

$_ZNK5adept10ExpressionIdNS_6ActiveIdEEE4castEv = comdat any

$_ZNK5adept6ActiveIdE18value_at_location_ILi0ELi0EEEdRKNS_14ExpressionSizeIXT0_EEE = comdat any

$_ZN9__gnu_cxx13new_allocatorIcEC2Ev = comdat any

$_ZNSt14pointer_traitsIPKcE10pointer_toERS0_ = comdat any

$_ZSt9addressofIKcEPT_RS1_ = comdat any

$_ZSt11__addressofIKcEPT_RS1_ = comdat any

$_ZNSt16allocator_traitsISaIcEE10deallocateERS0_Pcm = comdat any

$_ZN9__gnu_cxx13new_allocatorIcE10deallocateEPcm = comdat any

$_ZNSt7__cxx1112basic_stringIcSt11char_traitsIcESaIcEE12_M_constructIPKcEEvT_S8_ = comdat any

$_ZNSt11char_traitsIcE6lengthEPKc = comdat any

$_ZNSt7__cxx1112basic_stringIcSt11char_traitsIcESaIcEE16_M_construct_auxIPKcEEvT_S8_St12__false_type = comdat any

$_ZNSt7__cxx1112basic_stringIcSt11char_traitsIcESaIcEE12_M_constructIPKcEEvT_S8_St20forward_iterator_tag = comdat any

$_ZN9__gnu_cxx17__is_null_pointerIKcEEbPT_ = comdat any

$_ZSt8distanceIPKcENSt15iterator_traitsIT_E15difference_typeES3_S3_ = comdat any

$_ZSt10__distanceIPKcENSt15iterator_traitsIT_E15difference_typeES3_S3_St26random_access_iterator_tag = comdat any

$_ZSt19__iterator_categoryIPKcENSt15iterator_traitsIT_E17iterator_categoryERKS3_ = comdat any

$_ZNSt11char_traitsIcE4copyEPcPKcm = comdat any

$_ZStorSt13_Ios_OpenmodeS_ = comdat any

$_ZNSt7__cxx1115basic_stringbufIcSt11char_traitsIcESaIcEED2Ev = comdat any

$_ZStorSt12_Ios_IostateS_ = comdat any

$_ZNSt7__cxx1112basic_stringIcSt11char_traitsIcESaIcEE6assignIPcvEERS4_T_S8_ = comdat any

$_ZN9__gnu_cxx17__normal_iteratorIPKcNSt7__cxx1112basic_stringIcSt11char_traitsIcESaIcEEEEC2IPcEERKNS0_IT_NS_11__enable_ifIXsr3std10__are_sameISC_SB_EE7__valueES8_E6__typeEEE = comdat any

$_ZN9__gnu_cxxmiIPKcPcNSt7__cxx1112basic_stringIcSt11char_traitsIcESaIcEEEEEDTmicldtfp_4baseEcldtfp0_4baseEERKNS_17__normal_iteratorIT_T1_EERKNSB_IT0_SD_EE = comdat any

$_ZN9__gnu_cxxmiIPKcNSt7__cxx1112basic_stringIcSt11char_traitsIcESaIcEEEEENS_17__normal_iteratorIT_T0_E15difference_typeERKSC_SF_ = comdat any

$_ZNK9__gnu_cxx17__normal_iteratorIPKcNSt7__cxx1112basic_stringIcSt11char_traitsIcESaIcEEEE4baseEv = comdat any

$_ZNK9__gnu_cxx17__normal_iteratorIPcNSt7__cxx1112basic_stringIcSt11char_traitsIcESaIcEEEE4baseEv = comdat any

$_ZN9__gnu_cxx17__normal_iteratorIPcNSt7__cxx1112basic_stringIcSt11char_traitsIcESaIcEEEEC2ERKS1_ = comdat any

$_ZSt8_DestroyIPiiEvT_S1_RSaIT0_E = comdat any

$_ZNSt12_Vector_baseIiSaIiEE19_M_get_Tp_allocatorEv = comdat any

$_ZNSt12_Vector_baseIiSaIiEED2Ev = comdat any

$_ZSt8_DestroyIPiEvT_S1_ = comdat any

$_ZNSt12_Destroy_auxILb1EE9__destroyIPiEEvT_S3_ = comdat any

$_ZNSt12_Vector_baseIiSaIiEE13_M_deallocateEPim = comdat any

$_ZN9__gnu_cxx13new_allocatorIiED2Ev = comdat any

$_ZNSt16allocator_traitsISaIiEE10deallocateERS0_Pim = comdat any

$_ZN9__gnu_cxx13new_allocatorIiE10deallocateEPim = comdat any

$_ZNSt14_List_iteratorIN5adept3GapEEC2EPNSt8__detail15_List_node_baseE = comdat any

$_ZNSt14_List_iteratorIN5adept3GapEEmmEv = comdat any

$_ZNSt7__cxx114listIN5adept3GapESaIS2_EE8_M_eraseESt14_List_iteratorIS2_E = comdat any

$_ZNSt7__cxx1110_List_baseIN5adept3GapESaIS2_EE11_M_dec_sizeEm = comdat any

$_ZNKSt20_List_const_iteratorIN5adept3GapEE13_M_const_castEv = comdat any

$_ZNSt7__cxx114listIN5adept3GapESaIS2_EE7emplaceIJS2_EEESt14_List_iteratorIS2_ESt20_List_const_iteratorIS2_EDpOT_ = comdat any

$_ZSt4moveIRN5adept3GapEEONSt16remove_referenceIT_E4typeEOS4_ = comdat any

$_ZNSt7__cxx114listIN5adept3GapESaIS2_EE14_M_create_nodeIJS2_EEEPSt10_List_nodeIS2_EDpOT_ = comdat any

$_ZSt7forwardIN5adept3GapEEOT_RNSt16remove_referenceIS2_E4typeE = comdat any

$_ZNSt7__cxx1110_List_baseIN5adept3GapESaIS2_EE11_M_inc_sizeEm = comdat any

$_ZNSt7__cxx1110_List_baseIN5adept3GapESaIS2_EE11_M_get_nodeEv = comdat any

$_ZNSt15__allocated_ptrISaISt10_List_nodeIN5adept3GapEEEEC2ERS4_PS3_ = comdat any

$_ZNSt16allocator_traitsISaISt10_List_nodeIN5adept3GapEEEE9constructIS2_JS2_EEEvRS4_PT_DpOT0_ = comdat any

$_ZNSt15__allocated_ptrISaISt10_List_nodeIN5adept3GapEEEEaSEDn = comdat any

$_ZNSt15__allocated_ptrISaISt10_List_nodeIN5adept3GapEEEED2Ev = comdat any

$_ZNSt16allocator_traitsISaISt10_List_nodeIN5adept3GapEEEE8allocateERS4_m = comdat any

$_ZN9__gnu_cxx13new_allocatorISt10_List_nodeIN5adept3GapEEE8allocateEmPKv = comdat any

$_ZNK9__gnu_cxx13new_allocatorISt10_List_nodeIN5adept3GapEEE8max_sizeEv = comdat any

$_ZSt11__addressofISaISt10_List_nodeIN5adept3GapEEEEPT_RS5_ = comdat any

$_ZN9__gnu_cxx13new_allocatorISt10_List_nodeIN5adept3GapEEE9constructIS3_JS3_EEEvPT_DpOT0_ = comdat any

$_ZNSt7__cxx114listIN5adept3GapESaIS2_EE9_M_insertIJS2_EEEvSt14_List_iteratorIS2_EDpOT_ = comdat any

$_ZNSt20_List_const_iteratorIN5adept3GapEEC2EPKNSt8__detail15_List_node_baseE = comdat any

$_ZNKSt10_List_nodeIN5adept3GapEE9_M_valptrEv = comdat any

$_ZNK9__gnu_cxx16__aligned_membufIN5adept3GapEE6_M_ptrEv = comdat any

$_ZNK9__gnu_cxx16__aligned_membufIN5adept3GapEE7_M_addrEv = comdat any

$_ZNKSt7__cxx114listIN5adept3GapESaIS2_EE13_M_node_countEv = comdat any

$_ZNKSt7__cxx1110_List_baseIN5adept3GapESaIS2_EE11_M_get_sizeEv = comdat any

$_ZNSt9bad_allocC2Ev = comdat any

$_ZN9__gnu_cxxeqIPKiSt6vectorIiSaIiEEEEbRKNS_17__normal_iteratorIT_T0_EESB_ = comdat any

$_ZNKSt6vectorIiSaIiEE5beginEv = comdat any

$_ZNKSt6vectorIiSaIiEE3endEv = comdat any

$_ZNK9__gnu_cxx17__normal_iteratorIPKiSt6vectorIiSaIiEEE4baseEv = comdat any

$_ZN9__gnu_cxx17__normal_iteratorIPKiSt6vectorIiSaIiEEEC2ERKS2_ = comdat any

$_ZN9__gnu_cxx13new_allocatorIN5adept5BlockILi2EdEEEC2Ev = comdat any

$_ZNSt6vectorIN5adept5BlockILi2EdEESaIS2_EE17_S_check_init_lenEmRKS3_ = comdat any

$_ZNSt12_Vector_baseIN5adept5BlockILi2EdEESaIS2_EEC2EmRKS3_ = comdat any

$_ZNSt6vectorIN5adept5BlockILi2EdEESaIS2_EE21_M_default_initializeEm = comdat any

$_ZNSt12_Vector_baseIN5adept5BlockILi2EdEESaIS2_EED2Ev = comdat any

$_ZNSt6vectorIN5adept5BlockILi2EdEESaIS2_EE11_S_max_sizeERKS3_ = comdat any

$_ZNSaIN5adept5BlockILi2EdEEEC2ERKS2_ = comdat any

$_ZNSt16allocator_traitsISaIN5adept5BlockILi2EdEEEE8max_sizeERKS3_ = comdat any

$_ZSt3minImERKT_S2_S2_ = comdat any

$_ZNK9__gnu_cxx13new_allocatorIN5adept5BlockILi2EdEEE8max_sizeEv = comdat any

$_ZN9__gnu_cxx13new_allocatorIN5adept5BlockILi2EdEEEC2ERKS4_ = comdat any

$_ZNSt12_Vector_baseIN5adept5BlockILi2EdEESaIS2_EE12_Vector_implC2ERKS3_ = comdat any

$_ZNSt12_Vector_baseIN5adept5BlockILi2EdEESaIS2_EE17_M_create_storageEm = comdat any

$_ZN9__gnu_cxx13new_allocatorIN5adept5BlockILi2EdEEED2Ev = comdat any

$_ZNSt12_Vector_baseIN5adept5BlockILi2EdEESaIS2_EE17_Vector_impl_dataC2Ev = comdat any

$_ZNSt12_Vector_baseIN5adept5BlockILi2EdEESaIS2_EE11_M_allocateEm = comdat any

$_ZNSt16allocator_traitsISaIN5adept5BlockILi2EdEEEE8allocateERS3_m = comdat any

$_ZN9__gnu_cxx13new_allocatorIN5adept5BlockILi2EdEEE8allocateEmPKv = comdat any

$_ZSt27__uninitialized_default_n_aIPN5adept5BlockILi2EdEEmS2_ET_S4_T0_RSaIT1_E = comdat any

$_ZNSt12_Vector_baseIN5adept5BlockILi2EdEESaIS2_EE19_M_get_Tp_allocatorEv = comdat any

$_ZSt25__uninitialized_default_nIPN5adept5BlockILi2EdEEmET_S4_T0_ = comdat any

$_ZNSt27__uninitialized_default_n_1ILb0EE18__uninit_default_nIPN5adept5BlockILi2EdEEmEET_S6_T0_ = comdat any

$_ZSt10_ConstructIN5adept5BlockILi2EdEEJEEvPT_DpOT0_ = comdat any

$_ZSt11__addressofIN5adept5BlockILi2EdEEEPT_RS3_ = comdat any

$_ZSt8_DestroyIPN5adept5BlockILi2EdEEEvT_S4_ = comdat any

$_ZNSt12_Destroy_auxILb1EE9__destroyIPN5adept5BlockILi2EdEEEEvT_S6_ = comdat any

$_ZNSt12_Vector_baseIN5adept5BlockILi2EdEESaIS2_EE13_M_deallocateEPS2_m = comdat any

$_ZNSt16allocator_traitsISaIN5adept5BlockILi2EdEEEE10deallocateERS3_PS2_m = comdat any

$_ZN9__gnu_cxx13new_allocatorIN5adept5BlockILi2EdEEE10deallocateEPS3_m = comdat any

$_ZSt8_DestroyIPN5adept5BlockILi2EdEES2_EvT_S4_RSaIT0_E = comdat any

$_ZNSt16allocator_traitsISaIcEE8max_sizeERKS0_ = comdat any

$_ZNK9__gnu_cxx13new_allocatorIcE8max_sizeEv = comdat any

$_ZN5adept8internal13GradientIndexILb0EEC2Ei = comdat any

$_ZN5adept14ExpressionSizeILi1EEC2Ev = comdat any

$_ZN5adept5ArrayILi1EdLb0EE7resize_ILi1EEENS_8internal9enable_ifIXeqLi1ET_EvE4typeEiiiiiii = comdat any

$_ZN5adept5ArrayILi1EdLb0EE6resizeEPKib = comdat any

$_ZN5adept7StorageIdE11remove_linkEv = comdat any

$_ZStplIcSt11char_traitsIcESaIcEENSt7__cxx1112basic_stringIT_T0_T1_EEPKS5_OS8_ = comdat any

$_ZN5adept8internal18exception_locationB5cxx11EPKci = comdat any

$_ZN5adept17invalid_dimensionC2ERKNSt7__cxx1112basic_stringIcSt11char_traitsIcESaIcEEE = comdat any

$_ZN5adept5ArrayILi1EdLb0EE5clearEv = comdat any

$_ZN5adept14ExpressionSizeILi1EE4copyEPKi = comdat any

$_ZN5adept5ArrayILi1EdLb0EE16pack_contiguous_Ev = comdat any

$_ZN5adept5ArrayILi1EdLb0EE5pack_Ev = comdat any

$_ZN5adept14ExpressionSizeILi1EEixEi = comdat any

$_ZNK5adept5ArrayILi1EdLb0EE4sizeEv = comdat any

$_ZN5adept7StorageIdEC2Eib = comdat any

$_ZN5adept7StorageIdE4dataEv = comdat any

$_ZN5adept8internal13GradientIndexILb0EE3setIdEEvPKT_PKNS_7StorageIS4_EE = comdat any

$_ZN5adept7StorageIdED2Ev = comdat any

$_ZSt4moveIRNSt7__cxx1112basic_stringIcSt11char_traitsIcESaIcEEEEONSt16remove_referenceIT_E4typeEOS8_ = comdat any

$_ZN5adept17invalid_dimensionD0Ev = comdat any

$_ZN5adept14ExpressionSizeILi1EE7set_allEi = comdat any

$_ZN5adept8internal13GradientIndexILb0EE5clearEv = comdat any

$_ZN5adept5ArrayILi1EdLb0EE26pack_row_major_contiguous_Ev = comdat any

$_ZN5adept5ArrayILi1EdLb0EE18pack_column_major_Ev = comdat any

$_ZN5adept5ArrayILi1EdLb0EE15pack_row_major_Ev = comdat any

$_ZNK5adept14ExpressionSizeILi1EEixEi = comdat any

$_ZN5adept5Stack18register_gradientsERKi = comdat any

$_ZN5adept8internal18get_index_with_lenEii = comdat any

$_ZN5adept5Stack17register_gradientEv = comdat any

$_ZNSt7__cxx114listIN5adept3GapESaIS2_EE5frontEv = comdat any

$_ZNSt7__cxx114listIN5adept3GapESaIS2_EE9pop_frontEv = comdat any

$_ZNK5adept5ArrayILi1EdLb1EE14gradient_indexEv = comdat any

$_ZN5adept20ActiveConstReferenceIdEC2ERKdi = comdat any

$_ZNK5adept8internal13GradientIndexILb1EE3getEv = comdat any

$_ZN5adept8internal16StackStorageOrig18check_space_staticILi1EEEvv = comdat any

$_ZNK5adept10ExpressionIdNS_20ActiveConstReferenceIdEEE25scalar_value_and_gradientERNS_5StackE = comdat any

$_ZN5adept8internal16StackStorageOrig8push_lhsERKi = comdat any

$_ZN5adept8internal16StackStorageOrig11check_spaceEi = comdat any

$_ZN5adept8internal13ScratchVectorILi0EdEC2Ev = comdat any

$_ZNK5adept10ExpressionIdNS_20ActiveConstReferenceIdEEE4castEv = comdat any

$_ZNK5adept20ActiveConstReferenceIdE24value_at_location_store_ILi0ELi0ELi0ELi0EEEdRKNS_14ExpressionSizeIXT1_EEERNS_8internal13ScratchVectorIXT2_EdEE = comdat any

$_ZNK5adept20ActiveConstReferenceIdE14calc_gradient_ILi0ELi0ELi0ELi0EEEvRNS_5StackERKNS_14ExpressionSizeIXT1_EEERKNS_8internal13ScratchVectorIXT2_EdEE = comdat any

$_ZN5adept8internal16StackStorageOrig8push_rhsERKdRKi = comdat any

$_ZN5adept5Stack19unregister_gradientERKi = comdat any

$_ZNK5adept10ExpressionIdNS_6ActiveIdEEE25scalar_value_and_gradientERNS_5StackE = comdat any

$_ZNK5adept6ActiveIdE24value_at_location_store_ILi0ELi0ELi0ELi0EEEdRKNS_14ExpressionSizeIXT1_EEERNS_8internal13ScratchVectorIXT2_EdEE = comdat any

$_ZNK5adept6ActiveIdE14calc_gradient_ILi0ELi0ELi0ELi0EEEvRNS_5StackERKNS_14ExpressionSizeIXT1_EEERKNS_8internal13ScratchVectorIXT2_EdEE = comdat any

$_ZN5adept8internal14UnaryOperationIdNS0_3LogENS_6ActiveIdEEEC2ERKNS_10ExpressionIdS4_EE = comdat any

$_ZNK5adept10ExpressionIdNS_8internal14UnaryOperationIdNS1_3LogENS_6ActiveIdEEEEE4castEv = comdat any

$_ZN5adept8internal15BinaryOperationIdNS0_14UnaryOperationIdNS0_3LogENS_6ActiveIdEEEENS0_3AddES5_EC2ERKNS_10ExpressionIdS6_EERKNS9_IdS5_EE = comdat any

$_ZN5adept8internal16StackStorageOrig18check_space_staticILi2EEEvv = comdat any

$_ZNK5adept10ExpressionIdNS_8internal15BinaryOperationIdNS1_14UnaryOperationIdNS1_3LogENS_6ActiveIdEEEENS1_3AddES6_EEE25scalar_value_and_gradientERNS_5StackE = comdat any

$_ZN5adept8internal13ScratchVectorILi1EdEC2Ev = comdat any

$_ZNK5adept10ExpressionIdNS_8internal15BinaryOperationIdNS1_14UnaryOperationIdNS1_3LogENS_6ActiveIdEEEENS1_3AddES6_EEE4castEv = comdat any

$_ZNK5adept8internal15BinaryOperationIdNS0_14UnaryOperationIdNS0_3LogENS_6ActiveIdEEEENS0_3AddES5_E24value_at_location_store_ILi0ELi0ELi0ELi1EEEdRKNS_14ExpressionSizeIXT1_EEERNS0_13ScratchVectorIXT2_EdEE = comdat any

$_ZNK5adept8internal15BinaryOperationIdNS0_14UnaryOperationIdNS0_3LogENS_6ActiveIdEEEENS0_3AddES5_E14calc_gradient_ILi0ELi0ELi0ELi1EEEvRNS_5StackERKNS_14ExpressionSizeIXT1_EEERKNS0_13ScratchVectorIXT2_EdEE = comdat any

$_ZNK5adept8internal15BinaryOperationIdNS0_14UnaryOperationIdNS0_3LogENS_6ActiveIdEEEENS0_3AddES5_E27my_value_at_location_store_ILi0ELi0ELi0ELi0ELi1EEENS0_9enable_ifIXeqT_Li0EEdE4typeERKNS_14ExpressionSizeIXT2_EEERNS0_13ScratchVectorIXT3_EdEE = comdat any

$_ZNK5adept8internal3Add9operationIddEENS0_7promoteIT_T0_E4typeERKS4_RKS5_ = comdat any

$_ZNK5adept8internal14UnaryOperationIdNS0_3LogENS_6ActiveIdEEE24value_at_location_store_ILi0ELi0ELi0ELi1EEEdRKNS_14ExpressionSizeIXT1_EEERNS0_13ScratchVectorIXT2_EdEE = comdat any

$_ZNK5adept6ActiveIdE24value_at_location_store_ILi0ELi1ELi0ELi1EEEdRKNS_14ExpressionSizeIXT1_EEERNS_8internal13ScratchVectorIXT2_EdEE = comdat any

$_ZNK5adept8internal3LogIdE9operationIdEET_RKS4_ = comdat any

$_ZN5adept8internal13ScratchVectorILi1EdEixEi = comdat any

$_ZNK5adept8internal15BinaryOperationIdNS0_14UnaryOperationIdNS0_3LogENS_6ActiveIdEEEENS0_3AddES5_E10calc_left_ILi0ELi0ELi0ELi1ES6_EENS0_9enable_ifIXsrT3_9is_activeEvE4typeERNS_5StackERKSB_RKNS_14ExpressionSizeIXT1_EEERKNS0_13ScratchVectorIXT2_EdEE = comdat any

$_ZNK5adept8internal15BinaryOperationIdNS0_14UnaryOperationIdNS0_3LogENS_6ActiveIdEEEENS0_3AddES5_E11calc_right_ILi0ELi0ELi0ELi1ES5_EENS0_9enable_ifIXsrT3_9is_activeEvE4typeERNS_5StackERKSB_RKNS_14ExpressionSizeIXT1_EEERKNS0_13ScratchVectorIXT2_EdEE = comdat any

$_ZNK5adept8internal3Add9calc_leftILi0ELi0ELi0ELi1ENS0_14UnaryOperationIdNS0_3LogENS_6ActiveIdEEEES6_EEvRNS_5StackERKT3_RKT4_RKNS_14ExpressionSizeIXT1_EEERKNS0_13ScratchVectorIXT2_EdEE = comdat any

$_ZNK5adept8internal14UnaryOperationIdNS0_3LogENS_6ActiveIdEEE14calc_gradient_ILi0ELi0ELi0ELi1EEEvRNS_5StackERKNS_14ExpressionSizeIXT1_EEERKNS0_13ScratchVectorIXT2_EdEE = comdat any

$_ZNK5adept6ActiveIdE14calc_gradient_ILi0ELi1ELi0ELi1EdEEvRNS_5StackERKNS_14ExpressionSizeIXT1_EEERKNS_8internal13ScratchVectorIXT2_EdEERKT3_ = comdat any

$_ZNK5adept8internal3LogIdE10derivativeERKdS4_ = comdat any

$_ZNK5adept6ActiveIdE13value_stored_ILi0ELi1ELi0ELi1EEEdRKNS_14ExpressionSizeIXT1_EEERKNS_8internal13ScratchVectorIXT2_EdEE = comdat any

$_ZNK5adept8internal13ScratchVectorILi1EdEixEi = comdat any

$_ZNK5adept8internal3Add10calc_rightILi0ELi0ELi0ELi1ENS0_14UnaryOperationIdNS0_3LogENS_6ActiveIdEEEES6_EEvRNS_5StackERKT3_RKT4_RKNS_14ExpressionSizeIXT1_EEERKNS0_13ScratchVectorIXT2_EdEE = comdat any

$_ZNK5adept6ActiveIdE14calc_gradient_ILi0ELi1ELi0ELi1EEEvRNS_5StackERKNS_14ExpressionSizeIXT1_EEERKNS_8internal13ScratchVectorIXT2_EdEE = comdat any

$_ZNK5adept10ExpressionIdNS_5ArrayILi1EdLb1EEEE4castEv = comdat any

$_ZN5adept8internal15BinaryOperationIdNS_5ArrayILi1EdLb1EEENS0_8SubtractENS_6ActiveIdEEEC2ERKNS_10ExpressionIdS3_EERKNS8_IdS6_EE = comdat any

$_ZN5adept8internal12ArrayWrapperILi1EdLb1EEC2ERKNS_5ArrayILi1EdLb1EEE = comdat any

$_ZNK5adept5ArrayILi1EdLb1EE10const_dataEv = comdat any

$_ZNK5adept10ExpressionIdNS_8internal15BinaryOperationIdNS_5ArrayILi1EdLb1EEENS1_8SubtractENS_6ActiveIdEEEEE4castEv = comdat any

$_ZN5adept8internal14UnaryOperationIdNS0_3ExpENS0_15BinaryOperationIdNS_5ArrayILi1EdLb1EEENS0_8SubtractENS_6ActiveIdEEEEEC2ERKNS_10ExpressionIdS9_EE = comdat any

$_ZN5adept6ActiveIdEC2Ev = comdat any

$_ZN5adept8internal13reduce_activeINS0_3SumIdEEdNS0_14UnaryOperationIdNS0_3ExpENS0_15BinaryOperationIdNS_5ArrayILi1EdLb1EEENS0_8SubtractENS_6ActiveIdEEEEEEEEvRKNS_10ExpressionIT0_T1_EERNSA_ISF_EE = comdat any

$_ZNK5adept10ExpressionIdNS_8internal14UnaryOperationIdNS1_3ExpENS1_15BinaryOperationIdNS_5ArrayILi1EdLb1EEENS1_8SubtractENS_6ActiveIdEEEEEEE14get_dimensionsILi1EEEbRNS_14ExpressionSizeIXT_EEE = comdat any

$_ZStplIcSt11char_traitsIcESaIcEENSt7__cxx1112basic_stringIT_T0_T1_EEOS8_PKS5_ = comdat any

$_ZNK5adept10ExpressionIdNS_8internal14UnaryOperationIdNS1_3ExpENS1_15BinaryOperationIdNS_5ArrayILi1EdLb1EEENS1_8SubtractENS_6ActiveIdEEEEEEE17expression_stringB5cxx11Ev = comdat any

$_ZStplIcSt11char_traitsIcESaIcEENSt7__cxx1112basic_stringIT_T0_T1_EERKS8_OS8_ = comdat any

$_ZN5adept13size_mismatchC2ERKNSt7__cxx1112basic_stringIcSt11char_traitsIcESaIcEEE = comdat any

$_ZN5adept9exceptionD2Ev = comdat any

$_ZN5adept6ActiveIdEaSIiEENS_8internal9enable_ifIXsr17is_not_expressionIT_EE5valueERS1_E4typeERKS5_ = comdat any

$_ZN5adept6ActiveIdE9set_valueIdEEvRKT_ = comdat any

$_ZN5adept8internal3SumIdE11first_valueEv = comdat any

$_ZNK5adept14ExpressionSizeILi1EE4sizeEv = comdat any

$_ZN5adept14ExpressionSizeILi1EEC2Ei = comdat any

$_ZNK5adept10ExpressionIdNS_8internal14UnaryOperationIdNS1_3ExpENS1_15BinaryOperationIdNS_5ArrayILi1EdLb1EEENS1_8SubtractENS_6ActiveIdEEEEEEE12set_locationILi1ELi1EEEvRKNS_14ExpressionSizeIXT_EEERNSE_IXT0_EEE = comdat any

$_ZN5adept8internal3SumIdE17accumulate_activeINS_10ExpressionIdNS0_14UnaryOperationIdNS0_3ExpENS0_15BinaryOperationIdNS_5ArrayILi1EdLb1EEENS0_8SubtractENS_6ActiveIdEEEEEEEELi1EEEvRSC_RKT_RNS_14ExpressionSizeIXT0_EEE = comdat any

$_ZN5adept8internal3SumIdE13finish_activeERNS_6ActiveIdEERKi = comdat any

$_ZNK5adept10ExpressionIdNS_8internal14UnaryOperationIdNS1_3ExpENS1_15BinaryOperationIdNS_5ArrayILi1EdLb1EEENS1_8SubtractENS_6ActiveIdEEEEEEE4castEv = comdat any

$_ZNK5adept8internal14UnaryOperationIdNS0_3ExpENS0_15BinaryOperationIdNS_5ArrayILi1EdLb1EEENS0_8SubtractENS_6ActiveIdEEEEE15get_dimensions_ILi1EEEbRNS_14ExpressionSizeIXT_EEE = comdat any

$_ZNK5adept10ExpressionIdNS_8internal15BinaryOperationIdNS_5ArrayILi1EdLb1EEENS1_8SubtractENS_6ActiveIdEEEEE14get_dimensionsILi1EEEbRNS_14ExpressionSizeIXT_EEE = comdat any

$_ZNK5adept8internal15BinaryOperationIdNS_5ArrayILi1EdLb1EEENS0_8SubtractENS_6ActiveIdEEE15get_dimensions_ILi1EEEbRNS_14ExpressionSizeIXT_EEE = comdat any

$_ZNK5adept8internal15BinaryOperationIdNS_5ArrayILi1EdLb1EEENS0_8SubtractENS_6ActiveIdEEE17my_get_dimensionsILb1ELb0ELi1EEENS0_9enable_ifIXaaT_ntT0_EbE4typeERNS_14ExpressionSizeIXT1_EEE = comdat any

$_ZNK5adept10ExpressionIdNS_8internal12ArrayWrapperILi1EdLb1EEEE14get_dimensionsILi1EEEbRNS_14ExpressionSizeIXT_EEE = comdat any

$_ZNK5adept10ExpressionIdNS_8internal12ArrayWrapperILi1EdLb1EEEE4castEv = comdat any

$_ZNK5adept8internal12ArrayWrapperILi1EdLb1EE15get_dimensions_ERNS_14ExpressionSizeILi1EEE = comdat any

$_ZNK5adept5ArrayILi1EdLb1EE15get_dimensions_ERNS_14ExpressionSizeILi1EEE = comdat any

$_ZNK5adept8internal14UnaryOperationIdNS0_3ExpENS0_15BinaryOperationIdNS_5ArrayILi1EdLb1EEENS0_8SubtractENS_6ActiveIdEEEEE18expression_string_B5cxx11Ev = comdat any

$_ZNK5adept8internal3ExpIdE16operation_stringEv = comdat any

$_ZNK5adept10ExpressionIdNS_8internal15BinaryOperationIdNS_5ArrayILi1EdLb1EEENS1_8SubtractENS_6ActiveIdEEEEE17expression_stringB5cxx11Ev = comdat any

$_ZNK5adept8internal15BinaryOperationIdNS_5ArrayILi1EdLb1EEENS0_8SubtractENS_6ActiveIdEEE18expression_string_B5cxx11Ev = comdat any

$_ZStplIcSt11char_traitsIcESaIcEENSt7__cxx1112basic_stringIT_T0_T1_EEOS8_S9_ = comdat any

$_ZNK5adept10ExpressionIdNS_8internal12ArrayWrapperILi1EdLb1EEEE17expression_stringB5cxx11Ev = comdat any

$_ZNK5adept8internal8Subtract16operation_stringEv = comdat any

$_ZNK5adept10ExpressionIdNS_6ActiveIdEEE17expression_stringB5cxx11Ev = comdat any

$_ZNK5adept8internal12ArrayWrapperILi1EdLb1EE18expression_string_B5cxx11Ev = comdat any

$_ZNK5adept5ArrayILi1EdLb1EE18expression_string_B5cxx11Ev = comdat any

$_ZN5adept8internal12array_helperILi1ELb1EE4nameEv = comdat any

$_ZNK5adept14ExpressionSizeILi1EE3strB5cxx11Ev = comdat any

$_ZNK5adept6ActiveIdE18expression_string_B5cxx11Ev = comdat any

$_ZN9__gnu_cxx14__alloc_traitsISaIcEcE15_S_always_equalEv = comdat any

$_ZStneRKSaIcES1_ = comdat any

$_ZSt15__alloc_on_moveISaIcEEvRT_S2_ = comdat any

$_ZSt18__do_alloc_on_moveISaIcEEvRT_S2_St17integral_constantIbLb1EE = comdat any

$_ZN5adept13size_mismatchD0Ev = comdat any

$_ZNK5adept8internal14UnaryOperationIdNS0_3ExpENS0_15BinaryOperationIdNS_5ArrayILi1EdLb1EEENS0_8SubtractENS_6ActiveIdEEEEE13set_location_ILi0ELi1ELi1EEEvRKNS_14ExpressionSizeIXT0_EEERNSC_IXT1_EEE = comdat any

$_ZNK5adept8internal15BinaryOperationIdNS_5ArrayILi1EdLb1EEENS0_8SubtractENS_6ActiveIdEEE13set_location_ILi0ELi1ELi1EEEvRKNS_14ExpressionSizeIXT0_EEERNS9_IXT1_EEE = comdat any

$_ZNK5adept8internal12ArrayWrapperILi1EdLb1EE13set_location_ILi0ELi1EEEvRKNS_14ExpressionSizeILi1EEERNS4_IXT0_EEE = comdat any

$_ZNK5adept6ActiveIdE13set_location_ILi1ELi1ELi1EEEvRKNS_14ExpressionSizeIXT0_EEERNS3_IXT1_EEE = comdat any

$_ZNK5adept5ArrayILi1EdLb1EE13set_location_ILi0ELi1EEEvRKNS_14ExpressionSizeILi1EEERNS3_IXT0_EEE = comdat any

$_ZNK5adept5ArrayILi1EdLb1EE6index_ERKNS_14ExpressionSizeILi1EEE = comdat any

$_ZNK5adept10ExpressionIdNS_8internal14UnaryOperationIdNS1_3ExpENS1_15BinaryOperationIdNS_5ArrayILi1EdLb1EEENS1_8SubtractENS_6ActiveIdEEEEEEE23next_value_and_gradientILi1EEEdRNS_5StackERNS_14ExpressionSizeIXT_EEE = comdat any

$_ZN5adept6ActiveIdE6lvalueEv = comdat any

$_ZN5adept8internal13ScratchVectorILi2EdEC2Ev = comdat any

$_ZNK5adept8internal14UnaryOperationIdNS0_3ExpENS0_15BinaryOperationIdNS_5ArrayILi1EdLb1EEENS0_8SubtractENS_6ActiveIdEEEEE24value_at_location_store_ILi0ELi0ELi1ELi2EEEdRKNS_14ExpressionSizeIXT1_EEERNS0_13ScratchVectorIXT2_EdEE = comdat any

$_ZNK5adept8internal14UnaryOperationIdNS0_3ExpENS0_15BinaryOperationIdNS_5ArrayILi1EdLb1EEENS0_8SubtractENS_6ActiveIdEEEEE14calc_gradient_ILi0ELi0ELi1ELi2EEEvRNS_5StackERKNS_14ExpressionSizeIXT1_EEERKNS0_13ScratchVectorIXT2_EdEE = comdat any

$_ZNK5adept8internal14UnaryOperationIdNS0_3ExpENS0_15BinaryOperationIdNS_5ArrayILi1EdLb1EEENS0_8SubtractENS_6ActiveIdEEEEE17advance_location_ILi0ELi1EEEvRNS_14ExpressionSizeIXT0_EEE = comdat any

$_ZNK5adept8internal3ExpIdE9operationIdEET_RKS4_ = comdat any

$_ZNK5adept8internal15BinaryOperationIdNS_5ArrayILi1EdLb1EEENS0_8SubtractENS_6ActiveIdEEE24value_at_location_store_ILi0ELi1ELi1ELi2EEEdRKNS_14ExpressionSizeIXT1_EEERNS0_13ScratchVectorIXT2_EdEE = comdat any

$_ZN5adept8internal13ScratchVectorILi2EdEixEi = comdat any

$_ZNK5adept8internal15BinaryOperationIdNS_5ArrayILi1EdLb1EEENS0_8SubtractENS_6ActiveIdEEE27my_value_at_location_store_ILi1ELi0ELi1ELi1ELi2EEENS0_9enable_ifIXeqT_Li1EEdE4typeERKNS_14ExpressionSizeIXT2_EEERNS0_13ScratchVectorIXT3_EdEE = comdat any

$_ZNK5adept8internal8Subtract9operationIddEENS0_7promoteIT_T0_E4typeERKS4_RKS5_ = comdat any

$_ZNK5adept8internal12ArrayWrapperILi1EdLb1EE24value_at_location_store_ILi0ELi2ELi1ELi2EEEdRKNS_14ExpressionSizeIXT1_EEERNS0_13ScratchVectorIXT2_EdEE = comdat any

$_ZNK5adept6ActiveIdE24value_at_location_store_ILi1ELi2ELi1ELi2EEEdRKNS_14ExpressionSizeIXT1_EEERNS_8internal13ScratchVectorIXT2_EdEE = comdat any

$_ZNK5adept8internal15BinaryOperationIdNS_5ArrayILi1EdLb1EEENS0_8SubtractENS_6ActiveIdEEE14calc_gradient_ILi0ELi1ELi1ELi2EdEEvRNS_5StackERKNS_14ExpressionSizeIXT1_EEERKNS0_13ScratchVectorIXT2_EdEET3_ = comdat any

$_ZNK5adept8internal3ExpIdE10derivativeERKdS4_ = comdat any

$_ZNK5adept8internal15BinaryOperationIdNS_5ArrayILi1EdLb1EEENS0_8SubtractENS_6ActiveIdEEE13value_stored_ILi0ELi1ELi1ELi2EEEdRKNS_14ExpressionSizeIXT1_EEERKNS0_13ScratchVectorIXT2_EdEE = comdat any

$_ZNK5adept8internal13ScratchVectorILi2EdEixEi = comdat any

$_ZNK5adept8internal15BinaryOperationIdNS_5ArrayILi1EdLb1EEENS0_8SubtractENS_6ActiveIdEEE10calc_left_ILi0ELi1ELi1ELi2ENS0_12ArrayWrapperILi1EdLb1EEEdEENS0_9enable_ifIXsrT3_9is_activeEvE4typeERNS_5StackERKSC_RKNS_14ExpressionSizeIXT1_EEERKNS0_13ScratchVectorIXT2_EdEET4_ = comdat any

$_ZNK5adept8internal15BinaryOperationIdNS_5ArrayILi1EdLb1EEENS0_8SubtractENS_6ActiveIdEEE11calc_right_ILi0ELi1ELi1ELi2ES6_dEENS0_9enable_ifIXsrT3_9is_activeEvE4typeERNS_5StackERKSA_RKNS_14ExpressionSizeIXT1_EEERKNS0_13ScratchVectorIXT2_EdEET4_ = comdat any

$_ZNK5adept8internal8Subtract9calc_leftILi0ELi1ELi1ELi2ENS0_12ArrayWrapperILi1EdLb1EEENS_6ActiveIdEEdEEvRNS_5StackERKT3_RKT4_RKNS_14ExpressionSizeIXT1_EEERKNS0_13ScratchVectorIXT2_EdEET5_ = comdat any

$_ZNK5adept8internal12ArrayWrapperILi1EdLb1EE14calc_gradient_ILi0ELi2ELi1ELi2EdEEvRNS_5StackERKNS_14ExpressionSizeIXT1_EEERKNS0_13ScratchVectorIXT2_EdEET3_ = comdat any

$_ZNK5adept5ArrayILi1EdLb1EE14calc_gradient_ILi0ELi2ELi1ELi2EdEEvRNS_5StackERKNS_14ExpressionSizeIXT1_EEERKNS_8internal13ScratchVectorIXT2_EdEERKT3_ = comdat any

$_ZNK5adept8internal8Subtract10calc_rightILi0ELi1ELi1ELi2ENS0_12ArrayWrapperILi1EdLb1EEENS_6ActiveIdEEdEEvRNS_5StackERKT3_RKT4_RKNS_14ExpressionSizeIXT1_EEERKNS0_13ScratchVectorIXT2_EdEET5_ = comdat any

$_ZNK5adept6ActiveIdE14calc_gradient_ILi1ELi2ELi1ELi2EdEEvRNS_5StackERKNS_14ExpressionSizeIXT1_EEERKNS_8internal13ScratchVectorIXT2_EdEERKT3_ = comdat any

$_ZNK5adept8internal15BinaryOperationIdNS_5ArrayILi1EdLb1EEENS0_8SubtractENS_6ActiveIdEEE16my_value_stored_ILi1ELi0ELi1ELi1ELi2EEENS0_9enable_ifIXgtT_Li0EEdE4typeERKNS_14ExpressionSizeIXT2_EEERKNS0_13ScratchVectorIXT3_EdEE = comdat any

$_ZNK5adept8internal15BinaryOperationIdNS_5ArrayILi1EdLb1EEENS0_8SubtractENS_6ActiveIdEEE17advance_location_ILi0ELi1EEEvRNS_14ExpressionSizeIXT0_EEE = comdat any

$_ZNK5adept8internal12ArrayWrapperILi1EdLb1EE17advance_location_ILi0ELi1EEEvRNS_14ExpressionSizeIXT0_EEE = comdat any

$_ZNK5adept6ActiveIdE17advance_location_ILi1ELi1EEEvRNS_14ExpressionSizeIXT0_EEE = comdat any

$_ZNK5adept5ArrayILi1EdLb1EE17advance_location_ILi0ELi1EEEvRNS_14ExpressionSizeIXT0_EEE = comdat any

$_ZNK5adept6ActiveIdE14gradient_indexEv = comdat any

$_ZTWN5adept21_stack_current_threadE = comdat any

$_ZTSN5adept17invalid_operationE = comdat any

$_ZTSN5adept15array_exceptionE = comdat any

$_ZTSN5adept9exceptionE = comdat any

$_ZTIN5adept9exceptionE = comdat any

$_ZTIN5adept15array_exceptionE = comdat any

$_ZTIN5adept17invalid_operationE = comdat any

$_ZTSN5adept20stack_already_activeE = comdat any

$_ZTSN5adept18autodiff_exceptionE = comdat any

$_ZTIN5adept18autodiff_exceptionE = comdat any

$_ZTIN5adept20stack_already_activeE = comdat any

$_ZTSN5adept25gradients_not_initializedE = comdat any

$_ZTIN5adept25gradients_not_initializedE = comdat any

$_ZTSN5adept21feature_not_availableE = comdat any

$_ZTIN5adept21feature_not_availableE = comdat any

$_ZTSN5adept41dependents_or_independents_not_identifiedE = comdat any

$_ZTIN5adept41dependents_or_independents_not_identifiedE = comdat any

$_ZTVN5adept17invalid_operationE = comdat any

$_ZTVN5adept15array_exceptionE = comdat any

$_ZTVN5adept9exceptionE = comdat any

$_ZTVN5adept20stack_already_activeE = comdat any

$_ZTVN5adept18autodiff_exceptionE = comdat any

$_ZTVN5adept25gradients_not_initializedE = comdat any

$_ZTVN5adept21feature_not_availableE = comdat any

$_ZTVN5adept41dependents_or_independents_not_identifiedE = comdat any

$_ZTSN5adept17invalid_dimensionE = comdat any

$_ZTIN5adept17invalid_dimensionE = comdat any

$_ZTVN5adept17invalid_dimensionE = comdat any

$_ZTSN5adept13size_mismatchE = comdat any

$_ZTIN5adept13size_mismatchE = comdat any

$_ZTVN5adept13size_mismatchE = comdat any

@_ZStL8__ioinit = internal global %"class.std::ios_base::Init" zeroinitializer, align 1
@__dso_handle = external hidden global i8
@_ZN5adept8internal21array_row_major_orderE = dso_local local_unnamed_addr global i8 1, align 1
@_ZN5adept8internal17array_print_styleE = dso_local local_unnamed_addr global i32 2, align 4
@_ZN5adept8internal16vector_separatorB5cxx11E = dso_local global %"class.std::__cxx11::basic_string" zeroinitializer, align 8
@.str = private unnamed_addr constant [3 x i8] c", \00", align 1
@_ZN5adept8internal19vector_print_beforeB5cxx11E = dso_local global %"class.std::__cxx11::basic_string" zeroinitializer, align 8
@.str.3 = private unnamed_addr constant [2 x i8] c"{\00", align 1
@_ZN5adept8internal18vector_print_afterB5cxx11E = dso_local global %"class.std::__cxx11::basic_string" zeroinitializer, align 8
@.str.5 = private unnamed_addr constant [2 x i8] c"}\00", align 1
@_ZN5adept8internal21array_opening_bracketB5cxx11E = dso_local global %"class.std::__cxx11::basic_string" zeroinitializer, align 8
@_ZN5adept8internal21array_closing_bracketB5cxx11E = dso_local global %"class.std::__cxx11::basic_string" zeroinitializer, align 8
@_ZN5adept8internal26array_contiguous_separatorB5cxx11E = dso_local global %"class.std::__cxx11::basic_string" zeroinitializer, align 8
@_ZN5adept8internal30array_non_contiguous_separatorB5cxx11E = dso_local global %"class.std::__cxx11::basic_string" zeroinitializer, align 8
@.str.10 = private unnamed_addr constant [3 x i8] c",\0A\00", align 1
@_ZN5adept8internal18array_print_beforeB5cxx11E = dso_local global %"class.std::__cxx11::basic_string" zeroinitializer, align 8
@.str.12 = private unnamed_addr constant [3 x i8] c"\0A{\00", align 1
@_ZN5adept8internal17array_print_afterB5cxx11E = dso_local global %"class.std::__cxx11::basic_string" zeroinitializer, align 8
@_ZN5adept8internal24array_print_empty_beforeB5cxx11E = dso_local global %"class.std::__cxx11::basic_string" zeroinitializer, align 8
@.str.15 = private unnamed_addr constant [13 x i8] c"(empty rank-\00", align 1
@_ZN5adept8internal23array_print_empty_afterB5cxx11E = dso_local global %"class.std::__cxx11::basic_string" zeroinitializer, align 8
@.str.17 = private unnamed_addr constant [8 x i8] c" array)\00", align 1
@_ZN5adept8internal18array_print_indentE = dso_local local_unnamed_addr global i8 1, align 1
@_ZN5adept8internal22array_print_empty_rankE = dso_local local_unnamed_addr global i8 1, align 1
@.str.18 = private unnamed_addr constant [2 x i8] c" \00", align 1
@.str.19 = private unnamed_addr constant [1 x i8] zeroinitializer, align 1
@.str.20 = private unnamed_addr constant [2 x i8] c"\0A\00", align 1
@.str.21 = private unnamed_addr constant [6 x i8] c"empty\00", align 1
@.str.22 = private unnamed_addr constant [2 x i8] c"[\00", align 1
@.str.23 = private unnamed_addr constant [2 x i8] c"]\00", align 1
@.str.24 = private unnamed_addr constant [3 x i8] c";\0A\00", align 1
@.str.25 = private unnamed_addr constant [33 x i8] c"Array print style not understood\00", align 1
@_ZTVN10__cxxabiv120__si_class_type_infoE = external dso_local global i8*
@_ZTSN5adept17invalid_operationE = linkonce_odr dso_local constant [28 x i8] c"N5adept17invalid_operationE\00", comdat, align 1
@_ZTSN5adept15array_exceptionE = linkonce_odr dso_local constant [26 x i8] c"N5adept15array_exceptionE\00", comdat, align 1
@_ZTSN5adept9exceptionE = linkonce_odr dso_local constant [19 x i8] c"N5adept9exceptionE\00", comdat, align 1
@_ZTISt9exception = external dso_local constant i8*
@_ZTIN5adept9exceptionE = linkonce_odr dso_local constant { i8*, i8*, i8* } { i8* bitcast (i8** getelementptr inbounds (i8*, i8** @_ZTVN10__cxxabiv120__si_class_type_infoE, i64 2) to i8*), i8* getelementptr inbounds ([19 x i8], [19 x i8]* @_ZTSN5adept9exceptionE, i32 0, i32 0), i8* bitcast (i8** @_ZTISt9exception to i8*) }, comdat, align 8
@_ZTIN5adept15array_exceptionE = linkonce_odr dso_local constant { i8*, i8*, i8* } { i8* bitcast (i8** getelementptr inbounds (i8*, i8** @_ZTVN10__cxxabiv120__si_class_type_infoE, i64 2) to i8*), i8* getelementptr inbounds ([26 x i8], [26 x i8]* @_ZTSN5adept15array_exceptionE, i32 0, i32 0), i8* bitcast ({ i8*, i8*, i8* }* @_ZTIN5adept9exceptionE to i8*) }, comdat, align 8
@_ZTIN5adept17invalid_operationE = linkonce_odr dso_local constant { i8*, i8*, i8* } { i8* bitcast (i8** getelementptr inbounds (i8*, i8** @_ZTVN10__cxxabiv120__si_class_type_infoE, i64 2) to i8*), i8* getelementptr inbounds ([28 x i8], [28 x i8]* @_ZTSN5adept17invalid_operationE, i32 0, i32 0), i8* bitcast ({ i8*, i8*, i8* }* @_ZTIN5adept15array_exceptionE to i8*) }, comdat, align 8
@_ZN5adept21_stack_current_threadE = dso_local thread_local global %"class.adept::Stack"* null, align 8
@_ZN5adept28_stack_current_thread_unsafeE = dso_local local_unnamed_addr global %"class.adept::Stack"* null, align 8
@.str.26 = private unnamed_addr constant [78 x i8] c"Attempt to activate an adept::Stack when one is already active in this thread\00", align 1
@_ZTSN5adept20stack_already_activeE = linkonce_odr dso_local constant [31 x i8] c"N5adept20stack_already_activeE\00", comdat, align 1
@_ZTSN5adept18autodiff_exceptionE = linkonce_odr dso_local constant [29 x i8] c"N5adept18autodiff_exceptionE\00", comdat, align 1
@_ZTIN5adept18autodiff_exceptionE = linkonce_odr dso_local constant { i8*, i8*, i8* } { i8* bitcast (i8** getelementptr inbounds (i8*, i8** @_ZTVN10__cxxabiv120__si_class_type_infoE, i64 2) to i8*), i8* getelementptr inbounds ([29 x i8], [29 x i8]* @_ZTSN5adept18autodiff_exceptionE, i32 0, i32 0), i8* bitcast ({ i8*, i8*, i8* }* @_ZTIN5adept9exceptionE to i8*) }, comdat, align 8
@_ZTIN5adept20stack_already_activeE = linkonce_odr dso_local constant { i8*, i8*, i8* } { i8* bitcast (i8** getelementptr inbounds (i8*, i8** @_ZTVN10__cxxabiv120__si_class_type_infoE, i64 2) to i8*), i8* getelementptr inbounds ([31 x i8], [31 x i8]* @_ZTSN5adept20stack_already_activeE, i32 0, i32 0), i8* bitcast ({ i8*, i8*, i8* }* @_ZTIN5adept18autodiff_exceptionE to i8*) }, comdat, align 8
@.str.27 = private unnamed_addr constant [107 x i8] c"Gradients not initialized: at least one call to set_gradient(s) is needed before a forward or reverse pass\00", align 1
@_ZTSN5adept25gradients_not_initializedE = linkonce_odr dso_local constant [36 x i8] c"N5adept25gradients_not_initializedE\00", comdat, align 1
@_ZTIN5adept25gradients_not_initializedE = linkonce_odr dso_local constant { i8*, i8*, i8* } { i8* bitcast (i8** getelementptr inbounds (i8*, i8** @_ZTVN10__cxxabiv120__si_class_type_infoE, i64 2) to i8*), i8* getelementptr inbounds ([36 x i8], [36 x i8]* @_ZTSN5adept25gradients_not_initializedE, i32 0, i32 0), i8* bitcast ({ i8*, i8*, i8* }* @_ZTIN5adept18autodiff_exceptionE to i8*) }, comdat, align 8
@.str.28 = private unnamed_addr constant [5 x i8] c": d[\00", align 1
@.str.29 = private unnamed_addr constant [5 x i8] c"] = \00", align 1
@.str.30 = private unnamed_addr constant [3 x i8] c"0\0A\00", align 1
@.str.31 = private unnamed_addr constant [4 x i8] c" + \00", align 1
@.str.32 = private unnamed_addr constant [4 x i8] c"*d[\00", align 1
@.str.33 = private unnamed_addr constant [2 x i8] c":\00", align 1
@.str.34 = private unnamed_addr constant [26 x i8] c"No gradients initialized\0A\00", align 1
@.str.35 = private unnamed_addr constant [2 x i8] c"-\00", align 1
@.str.36 = private unnamed_addr constant [42 x i8] c"Automatic Differentiation Stack (address \00", align 1
@.str.37 = private unnamed_addr constant [4 x i8] c"):\0A\00", align 1
@.str.38 = private unnamed_addr constant [37 x i8] c"   Currently attached - thread safe\0A\00", align 1
@.str.39 = private unnamed_addr constant [39 x i8] c"   Currently attached - thread unsafe\0A\00", align 1
@.str.40 = private unnamed_addr constant [23 x i8] c"   Currently detached\0A\00", align 1
@.str.41 = private unnamed_addr constant [22 x i8] c"   Recording status:\0A\00", align 1
@.str.42 = private unnamed_addr constant [23 x i8] c"      Recording is ON\0A\00", align 1
@.str.43 = private unnamed_addr constant [27 x i8] c"      Recording is PAUSED\0A\00", align 1
@.str.44 = private unnamed_addr constant [7 x i8] c"      \00", align 1
@.str.45 = private unnamed_addr constant [14 x i8] c" statements (\00", align 1
@.str.46 = private unnamed_addr constant [12 x i8] c" allocated)\00", align 1
@.str.47 = private unnamed_addr constant [6 x i8] c" and \00", align 1
@.str.48 = private unnamed_addr constant [14 x i8] c" operations (\00", align 1
@.str.49 = private unnamed_addr constant [13 x i8] c" allocated)\0A\00", align 1
@.str.50 = private unnamed_addr constant [33 x i8] c" gradients currently registered \00", align 1
@.str.51 = private unnamed_addr constant [16 x i8] c"and a total of \00", align 1
@.str.52 = private unnamed_addr constant [24 x i8] c" needed (current index \00", align 1
@.str.53 = private unnamed_addr constant [3 x i8] c")\0A\00", align 1
@.str.54 = private unnamed_addr constant [33 x i8] c"      Gradient list has no gaps\0A\00", align 1
@.str.55 = private unnamed_addr constant [25 x i8] c"      Gradient list has \00", align 1
@.str.56 = private unnamed_addr constant [8 x i8] c" gaps (\00", align 1
@.str.57 = private unnamed_addr constant [24 x i8] c"   Computation status:\0A\00", align 1
@.str.58 = private unnamed_addr constant [22 x i8] c" gradients assigned (\00", align 1
@.str.59 = private unnamed_addr constant [29 x i8] c"      0 gradients assigned (\00", align 1
@.str.60 = private unnamed_addr constant [22 x i8] c"      Jacobian size: \00", align 1
@.str.61 = private unnamed_addr constant [2 x i8] c"x\00", align 1
@.str.62 = private unnamed_addr constant [27 x i8] c"      Independent indices:\00", align 1
@.str.63 = private unnamed_addr constant [28 x i8] c"\0A      Dependent indices:  \00", align 1
@.str.64 = private unnamed_addr constant [51 x i8] c"      Parallel Jacobian calculation not available\0A\00", align 1
@_ZN5adept8internal26n_storage_objects_created_E = dso_local local_unnamed_addr global i32 0, align 4
@_ZN5adept8internal26n_storage_objects_deleted_E = dso_local local_unnamed_addr global i32 0, align 4
@.str.65 = private unnamed_addr constant [74 x i8] c"Cannot perform matrix-matrix multiplication because compiled without BLAS\00", align 1
@_ZTSN5adept21feature_not_availableE = linkonce_odr dso_local constant [32 x i8] c"N5adept21feature_not_availableE\00", comdat, align 1
@_ZTIN5adept21feature_not_availableE = linkonce_odr dso_local constant { i8*, i8*, i8* } { i8* bitcast (i8** getelementptr inbounds (i8*, i8** @_ZTVN10__cxxabiv120__si_class_type_infoE, i64 2) to i8*), i8* getelementptr inbounds ([32 x i8], [32 x i8]* @_ZTSN5adept21feature_not_availableE, i32 0, i32 0), i8* bitcast ({ i8*, i8*, i8* }* @_ZTIN5adept9exceptionE to i8*) }, comdat, align 8
@.str.66 = private unnamed_addr constant [74 x i8] c"Cannot perform matrix-vector multiplication because compiled without BLAS\00", align 1
@.str.67 = private unnamed_addr constant [84 x i8] c"Cannot perform symmetric matrix-matrix multiplication because compiled without BLAS\00", align 1
@.str.68 = private unnamed_addr constant [84 x i8] c"Cannot perform symmetric matrix-vector multiplication because compiled without BLAS\00", align 1
@.str.69 = private unnamed_addr constant [79 x i8] c"Cannot perform band matrix-vector multiplication because compiled without BLAS\00", align 1
@_ZN5adept3endE = dso_local local_unnamed_addr global %"struct.adept::internal::EndIndex" zeroinitializer, align 1
@_ZN5adept2__E = dso_local local_unnamed_addr global %"class.adept::internal::AllIndex" zeroinitializer, align 1
@.str.70 = private unnamed_addr constant [53 x i8] c"Cannot invert matrix because compiled without LAPACK\00", align 1
@.str.71 = private unnamed_addr constant [80 x i8] c"Dependent or independent variables not identified before a Jacobian computation\00", align 1
@_ZTSN5adept41dependents_or_independents_not_identifiedE = linkonce_odr dso_local constant [52 x i8] c"N5adept41dependents_or_independents_not_identifiedE\00", comdat, align 1
@_ZTIN5adept41dependents_or_independents_not_identifiedE = linkonce_odr dso_local constant { i8*, i8*, i8* } { i8* bitcast (i8** getelementptr inbounds (i8*, i8** @_ZTVN10__cxxabiv120__si_class_type_infoE, i64 2) to i8*), i8* getelementptr inbounds ([52 x i8], [52 x i8]* @_ZTSN5adept41dependents_or_independents_not_identifiedE, i32 0, i32 0), i8* bitcast ({ i8*, i8*, i8* }* @_ZTIN5adept18autodiff_exceptionE to i8*) }, comdat, align 8
@.str.72 = private unnamed_addr constant [6 x i8] c"2.0.6\00", align 1
@.str.73 = private unnamed_addr constant [8 x i8] c"unknown\00", align 1
@.str.74 = private unnamed_addr constant [9 x i8] c" [4.2.1]\00", align 1
@.str.75 = private unnamed_addr constant [15 x i8] c"Adept version \00", align 1
@.str.76 = private unnamed_addr constant [3 x i8] c":\0A\00", align 1
@.str.77 = private unnamed_addr constant [17 x i8] c"  Compiled with \00", align 1
@.str.78 = private unnamed_addr constant [19 x i8] c"  Compiler flags \22\00", align 1
@.str.79 = private unnamed_addr constant [3 x i8] c"\22\0A\00", align 1
@.str.80 = private unnamed_addr constant [41 x i8] c"  Jacobians processed in blocks of size \00", align 1
@.str.81 = private unnamed_addr constant [62 x i8] c"Cannot solve linear equations because compiled without LAPACK\00", align 1
@.str.82 = private unnamed_addr constant [47 x i8] c"linspace(x1,x2,n) with n=1 only valid if x1=x2\00", align 1
@.str.83 = private unnamed_addr constant [19 x i8] c"usage %s n repeat\0A\00", align 1
@.str.84 = private unnamed_addr constant [28 x i8] c"A misuse of arrays occurred\00", align 1
@_ZTVN5adept17invalid_operationE = linkonce_odr dso_local unnamed_addr constant { [5 x i8*] } { [5 x i8*] [i8* null, i8* bitcast ({ i8*, i8*, i8* }* @_ZTIN5adept17invalid_operationE to i8*), i8* bitcast (void (%"class.adept::exception"*)* @_ZN5adept9exceptionD2Ev to i8*), i8* bitcast (void (%"class.adept::invalid_operation"*)* @_ZN5adept17invalid_operationD0Ev to i8*), i8* bitcast (i8* (%"class.adept::exception"*)* @_ZNK5adept9exception4whatEv to i8*)] }, comdat, align 8
@_ZTVN5adept15array_exceptionE = linkonce_odr dso_local unnamed_addr constant { [5 x i8*] } { [5 x i8*] [i8* null, i8* bitcast ({ i8*, i8*, i8* }* @_ZTIN5adept15array_exceptionE to i8*), i8* bitcast (void (%"class.adept::exception"*)* @_ZN5adept9exceptionD2Ev to i8*), i8* bitcast (void (%"class.adept::array_exception"*)* @_ZN5adept15array_exceptionD0Ev to i8*), i8* bitcast (i8* (%"class.adept::exception"*)* @_ZNK5adept9exception4whatEv to i8*)] }, comdat, align 8
@_ZTVN5adept9exceptionE = linkonce_odr dso_local unnamed_addr constant { [5 x i8*] } { [5 x i8*] [i8* null, i8* bitcast ({ i8*, i8*, i8* }* @_ZTIN5adept9exceptionE to i8*), i8* bitcast (void (%"class.adept::exception"*)* @_ZN5adept9exceptionD2Ev to i8*), i8* bitcast (void (%"class.adept::exception"*)* @_ZN5adept9exceptionD0Ev to i8*), i8* bitcast (i8* (%"class.adept::exception"*)* @_ZNK5adept9exception4whatEv to i8*)] }, comdat, align 8
@_ZTVSt9exception = available_externally dso_local unnamed_addr constant { [5 x i8*] } { [5 x i8*] [i8* null, i8* bitcast (i8** @_ZTISt9exception to i8*), i8* bitcast (void (%"class.std::exception"*)* @_ZNSt9exceptionD1Ev to i8*), i8* bitcast (void (%"class.std::exception"*)* @_ZNSt9exceptionD0Ev to i8*), i8* bitcast (i8* (%"class.std::exception"*)* @_ZNKSt9exception4whatEv to i8*)] }, align 8
@_ZTVN5adept20stack_already_activeE = linkonce_odr dso_local unnamed_addr constant { [5 x i8*] } { [5 x i8*] [i8* null, i8* bitcast ({ i8*, i8*, i8* }* @_ZTIN5adept20stack_already_activeE to i8*), i8* bitcast (void (%"class.adept::exception"*)* @_ZN5adept9exceptionD2Ev to i8*), i8* bitcast (void (%"class.adept::stack_already_active"*)* @_ZN5adept20stack_already_activeD0Ev to i8*), i8* bitcast (i8* (%"class.adept::exception"*)* @_ZNK5adept9exception4whatEv to i8*)] }, comdat, align 8
@_ZTVN5adept18autodiff_exceptionE = linkonce_odr dso_local unnamed_addr constant { [5 x i8*] } { [5 x i8*] [i8* null, i8* bitcast ({ i8*, i8*, i8* }* @_ZTIN5adept18autodiff_exceptionE to i8*), i8* bitcast (void (%"class.adept::exception"*)* @_ZN5adept9exceptionD2Ev to i8*), i8* bitcast (void (%"class.adept::autodiff_exception"*)* @_ZN5adept18autodiff_exceptionD0Ev to i8*), i8* bitcast (i8* (%"class.adept::exception"*)* @_ZNK5adept9exception4whatEv to i8*)] }, comdat, align 8
@_ZTVN5adept25gradients_not_initializedE = linkonce_odr dso_local unnamed_addr constant { [5 x i8*] } { [5 x i8*] [i8* null, i8* bitcast ({ i8*, i8*, i8* }* @_ZTIN5adept25gradients_not_initializedE to i8*), i8* bitcast (void (%"class.adept::exception"*)* @_ZN5adept9exceptionD2Ev to i8*), i8* bitcast (void (%"class.adept::gradients_not_initialized"*)* @_ZN5adept25gradients_not_initializedD0Ev to i8*), i8* bitcast (i8* (%"class.adept::exception"*)* @_ZNK5adept9exception4whatEv to i8*)] }, comdat, align 8
@_ZTVN5adept21feature_not_availableE = linkonce_odr dso_local unnamed_addr constant { [5 x i8*] } { [5 x i8*] [i8* null, i8* bitcast ({ i8*, i8*, i8* }* @_ZTIN5adept21feature_not_availableE to i8*), i8* bitcast (void (%"class.adept::exception"*)* @_ZN5adept9exceptionD2Ev to i8*), i8* bitcast (void (%"class.adept::feature_not_available"*)* @_ZN5adept21feature_not_availableD0Ev to i8*), i8* bitcast (i8* (%"class.adept::exception"*)* @_ZNK5adept9exception4whatEv to i8*)] }, comdat, align 8
@_ZTVN5adept41dependents_or_independents_not_identifiedE = linkonce_odr dso_local unnamed_addr constant { [5 x i8*] } { [5 x i8*] [i8* null, i8* bitcast ({ i8*, i8*, i8* }* @_ZTIN5adept41dependents_or_independents_not_identifiedE to i8*), i8* bitcast (void (%"class.adept::exception"*)* @_ZN5adept9exceptionD2Ev to i8*), i8* bitcast (void (%"class.adept::dependents_or_independents_not_identified"*)* @_ZN5adept41dependents_or_independents_not_identifiedD0Ev to i8*), i8* bitcast (i8* (%"class.adept::exception"*)* @_ZNK5adept9exception4whatEv to i8*)] }, comdat, align 8
@.str.85 = private unnamed_addr constant [30 x i8] c"enzyme forward %0.6f res'=%f\0A\00", align 1
@.str.86 = private unnamed_addr constant [42 x i8] c"enzyme forward and reverse %0.6f res'=%f\0A\00", align 1
@.str.87 = private unnamed_addr constant [42 x i8] c"basic_string::_M_construct null not valid\00", align 1
@_ZTVNSt7__cxx1118basic_stringstreamIcSt11char_traitsIcESaIcEEE = external dso_local unnamed_addr constant { [5 x i8*], [5 x i8*], [5 x i8*] }, align 8
@_ZTTNSt7__cxx1118basic_stringstreamIcSt11char_traitsIcESaIcEEE = external unnamed_addr constant [10 x i8*], align 8
@_ZTVSt9basic_iosIcSt11char_traitsIcEE = external dso_local unnamed_addr constant { [4 x i8*] }, align 8
@_ZTVNSt7__cxx1115basic_stringbufIcSt11char_traitsIcESaIcEEE = external dso_local unnamed_addr constant { [16 x i8*] }, align 8
@_ZTVSt15basic_streambufIcSt11char_traitsIcEE = external dso_local unnamed_addr constant { [16 x i8*] }, align 8
@.str.88 = private unnamed_addr constant [22 x i8] c"basic_string::replace\00", align 1
@.str.89 = private unnamed_addr constant [55 x i8] c"%s: __pos (which is %zu) > this->size() (which is %zu)\00", align 1
@_ZTISt9bad_alloc = external dso_local constant i8*
@_ZTVSt9bad_alloc = available_externally dso_local unnamed_addr constant { [5 x i8*] } { [5 x i8*] [i8* null, i8* bitcast (i8** @_ZTISt9bad_alloc to i8*), i8* bitcast (void (%"class.std::bad_alloc"*)* @_ZNSt9bad_allocD1Ev to i8*), i8* bitcast (void (%"class.std::bad_alloc"*)* @_ZNSt9bad_allocD0Ev to i8*), i8* bitcast (i8* (%"class.std::bad_alloc"*)* @_ZNKSt9bad_alloc4whatEv to i8*)] }, align 8
@.str.90 = private unnamed_addr constant [49 x i8] c"cannot create std::vector larger than max_size()\00", align 1
@.str.91 = private unnamed_addr constant [21 x i8] c"basic_string::append\00", align 1
@.str.92 = private unnamed_addr constant [35 x i8] c"Negative array dimension requested\00", align 1
@.str.93 = private unnamed_addr constant [89 x i8] c"/localhome/mha157/Enzyme/enzyme/build/benchmarks/adept2/src/adept2/include/adept/Array.h\00", align 1
@_ZTSN5adept17invalid_dimensionE = linkonce_odr dso_local constant [28 x i8] c"N5adept17invalid_dimensionE\00", comdat, align 1
@_ZTIN5adept17invalid_dimensionE = linkonce_odr dso_local constant { i8*, i8*, i8* } { i8* bitcast (i8** getelementptr inbounds (i8*, i8** @_ZTVN10__cxxabiv120__si_class_type_infoE, i64 2) to i8*), i8* getelementptr inbounds ([28 x i8], [28 x i8]* @_ZTSN5adept17invalid_dimensionE, i32 0, i32 0), i8* bitcast ({ i8*, i8*, i8* }* @_ZTIN5adept15array_exceptionE to i8*) }, comdat, align 8
@.str.94 = private unnamed_addr constant [58 x i8] c"Attempt to remove more links to a storage object than set\00", align 1
@.str.95 = private unnamed_addr constant [91 x i8] c"/localhome/mha157/Enzyme/enzyme/build/benchmarks/adept2/src/adept2/include/adept/Storage.h\00", align 1
@.str.96 = private unnamed_addr constant [6 x i8] c" (in \00", align 1
@.str.97 = private unnamed_addr constant [2 x i8] c")\00", align 1
@_ZTVN5adept17invalid_dimensionE = linkonce_odr dso_local unnamed_addr constant { [5 x i8*] } { [5 x i8*] [i8* null, i8* bitcast ({ i8*, i8*, i8* }* @_ZTIN5adept17invalid_dimensionE to i8*), i8* bitcast (void (%"class.adept::exception"*)* @_ZN5adept9exceptionD2Ev to i8*), i8* bitcast (void (%"class.adept::invalid_dimension"*)* @_ZN5adept17invalid_dimensionD0Ev to i8*), i8* bitcast (i8* (%"class.adept::exception"*)* @_ZNK5adept9exception4whatEv to i8*)] }, comdat, align 8
@.str.98 = private unnamed_addr constant [24 x i8] c"Array size mismatch in \00", align 1
@.str.99 = private unnamed_addr constant [2 x i8] c".\00", align 1
@.str.100 = private unnamed_addr constant [90 x i8] c"/localhome/mha157/Enzyme/enzyme/build/benchmarks/adept2/src/adept2/include/adept/reduce.h\00", align 1
@_ZTSN5adept13size_mismatchE = linkonce_odr dso_local constant [24 x i8] c"N5adept13size_mismatchE\00", comdat, align 1
@_ZTIN5adept13size_mismatchE = linkonce_odr dso_local constant { i8*, i8*, i8* } { i8* bitcast (i8** getelementptr inbounds (i8*, i8** @_ZTVN10__cxxabiv120__si_class_type_infoE, i64 2) to i8*), i8* getelementptr inbounds ([24 x i8], [24 x i8]* @_ZTSN5adept13size_mismatchE, i32 0, i32 0), i8* bitcast ({ i8*, i8*, i8* }* @_ZTIN5adept15array_exceptionE to i8*) }, comdat, align 8
@.str.101 = private unnamed_addr constant [2 x i8] c"(\00", align 1
@.str.102 = private unnamed_addr constant [4 x i8] c"exp\00", align 1
@.str.103 = private unnamed_addr constant [8 x i8] c"wrapped\00", align 1
@.str.104 = private unnamed_addr constant [8 x i8] c"aVector\00", align 1
@.str.106 = private unnamed_addr constant [8 x i8] c"Active(\00", align 1
@_ZTVN5adept13size_mismatchE = linkonce_odr dso_local unnamed_addr constant { [5 x i8*] } { [5 x i8*] [i8* null, i8* bitcast ({ i8*, i8*, i8* }* @_ZTIN5adept13size_mismatchE to i8*), i8* bitcast (void (%"class.adept::exception"*)* @_ZN5adept9exceptionD2Ev to i8*), i8* bitcast (void (%"class.adept::size_mismatch"*)* @_ZN5adept13size_mismatchD0Ev to i8*), i8* bitcast (i8* (%"class.adept::exception"*)* @_ZNK5adept9exception4whatEv to i8*)] }, comdat, align 8
@llvm.global_ctors = appending global [1 x { i32, void ()*, i8* }] [{ i32, void ()*, i8* } { i32 65535, void ()* @_GLOBAL__sub_I_logsumexp.cpp, i8* null }]
@switch.table._ZN5adept21set_array_print_styleENS_15ArrayPrintStyleE = private unnamed_addr constant [4 x i8*] [i8* getelementptr inbounds ([2 x i8], [2 x i8]* @.str.18, i64 0, i64 0), i8* getelementptr inbounds ([3 x i8], [3 x i8]* @.str, i64 0, i64 0), i8* getelementptr inbounds ([3 x i8], [3 x i8]* @.str, i64 0, i64 0), i8* getelementptr inbounds ([2 x i8], [2 x i8]* @.str.18, i64 0, i64 0)], align 8
@switch.table._ZN5adept21set_array_print_styleENS_15ArrayPrintStyleE.107 = private unnamed_addr constant [4 x i8*] [i8* getelementptr inbounds ([1 x i8], [1 x i8]* @.str.19, i64 0, i64 0), i8* getelementptr inbounds ([1 x i8], [1 x i8]* @.str.19, i64 0, i64 0), i8* getelementptr inbounds ([2 x i8], [2 x i8]* @.str.3, i64 0, i64 0), i8* getelementptr inbounds ([2 x i8], [2 x i8]* @.str.22, i64 0, i64 0)], align 8
@switch.table._ZN5adept21set_array_print_styleENS_15ArrayPrintStyleE.108 = private unnamed_addr constant [4 x i8*] [i8* getelementptr inbounds ([1 x i8], [1 x i8]* @.str.19, i64 0, i64 0), i8* getelementptr inbounds ([1 x i8], [1 x i8]* @.str.19, i64 0, i64 0), i8* getelementptr inbounds ([2 x i8], [2 x i8]* @.str.5, i64 0, i64 0), i8* getelementptr inbounds ([2 x i8], [2 x i8]* @.str.23, i64 0, i64 0)], align 8
@switch.table._ZN5adept21set_array_print_styleENS_15ArrayPrintStyleE.109 = private unnamed_addr constant [4 x i8*] [i8* getelementptr inbounds ([1 x i8], [1 x i8]* @.str.19, i64 0, i64 0), i8* getelementptr inbounds ([1 x i8], [1 x i8]* @.str.19, i64 0, i64 0), i8* getelementptr inbounds ([2 x i8], [2 x i8]* @.str.3, i64 0, i64 0), i8* getelementptr inbounds ([1 x i8], [1 x i8]* @.str.19, i64 0, i64 0)], align 8
@switch.table._ZN5adept21set_array_print_styleENS_15ArrayPrintStyleE.110 = private unnamed_addr constant [4 x i8*] [i8* getelementptr inbounds ([1 x i8], [1 x i8]* @.str.19, i64 0, i64 0), i8* getelementptr inbounds ([1 x i8], [1 x i8]* @.str.19, i64 0, i64 0), i8* getelementptr inbounds ([2 x i8], [2 x i8]* @.str.5, i64 0, i64 0), i8* getelementptr inbounds ([1 x i8], [1 x i8]* @.str.19, i64 0, i64 0)], align 8
@switch.table._ZN5adept21set_array_print_styleENS_15ArrayPrintStyleE.111 = private unnamed_addr constant [4 x i8*] [i8* getelementptr inbounds ([2 x i8], [2 x i8]* @.str.18, i64 0, i64 0), i8* getelementptr inbounds ([3 x i8], [3 x i8]* @.str, i64 0, i64 0), i8* getelementptr inbounds ([3 x i8], [3 x i8]* @.str, i64 0, i64 0), i8* getelementptr inbounds ([2 x i8], [2 x i8]* @.str.18, i64 0, i64 0)], align 8
@switch.table._ZN5adept21set_array_print_styleENS_15ArrayPrintStyleE.112 = private unnamed_addr constant [4 x i8*] [i8* getelementptr inbounds ([2 x i8], [2 x i8]* @.str.20, i64 0, i64 0), i8* getelementptr inbounds ([2 x i8], [2 x i8]* @.str.20, i64 0, i64 0), i8* getelementptr inbounds ([3 x i8], [3 x i8]* @.str.10, i64 0, i64 0), i8* getelementptr inbounds ([3 x i8], [3 x i8]* @.str.24, i64 0, i64 0)], align 8
@switch.table._ZN5adept21set_array_print_styleENS_15ArrayPrintStyleE.113 = private unnamed_addr constant [4 x i8*] [i8* getelementptr inbounds ([1 x i8], [1 x i8]* @.str.19, i64 0, i64 0), i8* getelementptr inbounds ([1 x i8], [1 x i8]* @.str.19, i64 0, i64 0), i8* getelementptr inbounds ([3 x i8], [3 x i8]* @.str.12, i64 0, i64 0), i8* getelementptr inbounds ([2 x i8], [2 x i8]* @.str.22, i64 0, i64 0)], align 8
@switch.table._ZN5adept21set_array_print_styleENS_15ArrayPrintStyleE.114 = private unnamed_addr constant [4 x i8*] [i8* getelementptr inbounds ([1 x i8], [1 x i8]* @.str.19, i64 0, i64 0), i8* getelementptr inbounds ([1 x i8], [1 x i8]* @.str.19, i64 0, i64 0), i8* getelementptr inbounds ([2 x i8], [2 x i8]* @.str.5, i64 0, i64 0), i8* getelementptr inbounds ([2 x i8], [2 x i8]* @.str.23, i64 0, i64 0)], align 8
@switch.table._ZN5adept21set_array_print_styleENS_15ArrayPrintStyleE.115 = private unnamed_addr constant [4 x i8*] [i8* getelementptr inbounds ([13 x i8], [13 x i8]* @.str.15, i64 0, i64 0), i8* getelementptr inbounds ([6 x i8], [6 x i8]* @.str.21, i64 0, i64 0), i8* getelementptr inbounds ([13 x i8], [13 x i8]* @.str.15, i64 0, i64 0), i8* getelementptr inbounds ([2 x i8], [2 x i8]* @.str.22, i64 0, i64 0)], align 8
@switch.table._ZN5adept21set_array_print_styleENS_15ArrayPrintStyleE.116 = private unnamed_addr constant [4 x i8*] [i8* getelementptr inbounds ([8 x i8], [8 x i8]* @.str.17, i64 0, i64 0), i8* getelementptr inbounds ([1 x i8], [1 x i8]* @.str.19, i64 0, i64 0), i8* getelementptr inbounds ([8 x i8], [8 x i8]* @.str.17, i64 0, i64 0), i8* getelementptr inbounds ([2 x i8], [2 x i8]* @.str.23, i64 0, i64 0)], align 8

@_ZN5adept5StackD1Ev = dso_local unnamed_addr alias void (%"class.adept::Stack"*), void (%"class.adept::Stack"*)* @_ZN5adept5StackD2Ev
@_ZN5adept8internal16StackStorageOrigD1Ev = dso_local unnamed_addr alias void (%"class.adept::internal::StackStorageOrig"*), void (%"class.adept::internal::StackStorageOrig"*)* @_ZN5adept8internal16StackStorageOrigD2Ev

; Function Attrs: uwtable
define internal fastcc void @__cxx_global_var_init() unnamed_addr #0 section ".text.startup" {
entry:
  call void @_ZNSt8ios_base4InitC1Ev(%"class.std::ios_base::Init"* nonnull dereferenceable(1) @_ZStL8__ioinit)
  %0 = call i32 @__cxa_atexit(void (i8*)* bitcast (void (%"class.std::ios_base::Init"*)* @_ZNSt8ios_base4InitD1Ev to void (i8*)*), i8* getelementptr inbounds (%"class.std::ios_base::Init", %"class.std::ios_base::Init"* @_ZStL8__ioinit, i64 0, i32 0), i8* nonnull @__dso_handle) #40
  ret void
}

declare dso_local void @_ZNSt8ios_base4InitC1Ev(%"class.std::ios_base::Init"* nonnull dereferenceable(1)) unnamed_addr #1

; Function Attrs: nounwind
declare dso_local void @_ZNSt8ios_base4InitD1Ev(%"class.std::ios_base::Init"* nonnull dereferenceable(1)) unnamed_addr #2

; Function Attrs: nofree nounwind
declare dso_local i32 @__cxa_atexit(void (i8*)*, i8*, i8*) local_unnamed_addr #3

; Function Attrs: uwtable
define internal fastcc void @__cxx_global_var_init.1() unnamed_addr #0 section ".text.startup" personality i8* bitcast (i32 (...)* @__gxx_personality_v0 to i8*) {
entry:
  %ref.tmp = alloca %"class.std::allocator", align 1
  %0 = getelementptr inbounds %"class.std::allocator", %"class.std::allocator"* %ref.tmp, i64 0, i32 0
  call void @llvm.lifetime.start.p0i8(i64 1, i8* nonnull %0) #40
  call void @_ZNSaIcEC2Ev(%"class.std::allocator"* nonnull dereferenceable(1) %ref.tmp) #40
  invoke void @_ZNSt7__cxx1112basic_stringIcSt11char_traitsIcESaIcEEC2EPKcRKS3_(%"class.std::__cxx11::basic_string"* nonnull dereferenceable(32) @_ZN5adept8internal16vector_separatorB5cxx11E, i8* getelementptr inbounds ([3 x i8], [3 x i8]* @.str, i64 0, i64 0), %"class.std::allocator"* nonnull align 1 dereferenceable(1) %ref.tmp)
          to label %invoke.cont unwind label %lpad

invoke.cont:                                      ; preds = %entry
  call void @_ZNSaIcED2Ev(%"class.std::allocator"* nonnull dereferenceable(1) %ref.tmp) #40
  call void @llvm.lifetime.end.p0i8(i64 1, i8* nonnull %0) #40
  %1 = call i32 @__cxa_atexit(void (i8*)* bitcast (void (%"class.std::__cxx11::basic_string"*)* @_ZNSt7__cxx1112basic_stringIcSt11char_traitsIcESaIcEED2Ev to void (i8*)*), i8* bitcast (%"class.std::__cxx11::basic_string"* @_ZN5adept8internal16vector_separatorB5cxx11E to i8*), i8* nonnull @__dso_handle) #40
  ret void

lpad:                                             ; preds = %entry
  %2 = landingpad { i8*, i32 }
          cleanup
  call void @_ZNSaIcED2Ev(%"class.std::allocator"* nonnull dereferenceable(1) %ref.tmp) #40
  call void @llvm.lifetime.end.p0i8(i64 1, i8* nonnull %0) #40
  resume { i8*, i32 } %2
}

; Function Attrs: argmemonly nofree nosync nounwind willreturn
declare void @llvm.lifetime.start.p0i8(i64 immarg, i8* nocapture) #4

; Function Attrs: nounwind uwtable willreturn
define available_externally dso_local void @_ZNSaIcEC2Ev(%"class.std::allocator"* nonnull dereferenceable(1) %this) unnamed_addr #5 align 2 {
entry:
  %0 = bitcast %"class.std::allocator"* %this to %"class.__gnu_cxx::new_allocator"*
  call void @_ZN9__gnu_cxx13new_allocatorIcEC2Ev(%"class.__gnu_cxx::new_allocator"* nonnull dereferenceable(1) %0) #40
  ret void
}

; Function Attrs: uwtable
define available_externally dso_local void @_ZNSt7__cxx1112basic_stringIcSt11char_traitsIcESaIcEEC2EPKcRKS3_(%"class.std::__cxx11::basic_string"* nonnull dereferenceable(32) %this, i8* %__s, %"class.std::allocator"* nonnull align 1 dereferenceable(1) %__a) unnamed_addr #0 align 2 personality i8* bitcast (i32 (...)* @__gxx_personality_v0 to i8*) {
entry:
  %_M_dataplus = getelementptr inbounds %"class.std::__cxx11::basic_string", %"class.std::__cxx11::basic_string"* %this, i64 0, i32 0
  %call = call i8* @_ZNSt7__cxx1112basic_stringIcSt11char_traitsIcESaIcEE13_M_local_dataEv(%"class.std::__cxx11::basic_string"* nonnull dereferenceable(32) %this)
  call void @_ZNSt7__cxx1112basic_stringIcSt11char_traitsIcESaIcEE12_Alloc_hiderC2EPcRKS3_(%"struct.std::__cxx11::basic_string<char>::_Alloc_hider"* nonnull dereferenceable(8) %_M_dataplus, i8* %call, %"class.std::allocator"* nonnull align 1 dereferenceable(1) %__a)
  %tobool.not = icmp eq i8* %__s, null
  br i1 %tobool.not, label %cond.end, label %cond.true

cond.true:                                        ; preds = %entry
  %call2 = call i64 @_ZNSt11char_traitsIcE6lengthEPKc(i8* nonnull %__s)
  %add.ptr = getelementptr inbounds i8, i8* %__s, i64 %call2
  br label %cond.end

cond.end:                                         ; preds = %cond.true, %entry
  %cond = phi i8* [ %add.ptr, %cond.true ], [ inttoptr (i64 -1 to i8*), %entry ]
  invoke void @_ZNSt7__cxx1112basic_stringIcSt11char_traitsIcESaIcEE12_M_constructIPKcEEvT_S8_(%"class.std::__cxx11::basic_string"* nonnull dereferenceable(32) %this, i8* %__s, i8* %cond)
          to label %invoke.cont4 unwind label %lpad

invoke.cont4:                                     ; preds = %cond.end
  ret void

lpad:                                             ; preds = %cond.end
  %0 = landingpad { i8*, i32 }
          cleanup
  %1 = bitcast %"class.std::__cxx11::basic_string"* %this to %"class.std::allocator"*
  call void @_ZNSaIcED2Ev(%"class.std::allocator"* nonnull dereferenceable(8) %1) #40
  resume { i8*, i32 } %0
}

declare dso_local i32 @__gxx_personality_v0(...)

; Function Attrs: argmemonly nofree nosync nounwind willreturn
declare void @llvm.lifetime.end.p0i8(i64 immarg, i8* nocapture) #4

; Function Attrs: nounwind uwtable
define available_externally dso_local void @_ZNSt7__cxx1112basic_stringIcSt11char_traitsIcESaIcEED2Ev(%"class.std::__cxx11::basic_string"* nonnull dereferenceable(32) %this) unnamed_addr #6 align 2 personality i8* bitcast (i32 (...)* @__gxx_personality_v0 to i8*) {
entry:
  invoke void @_ZNSt7__cxx1112basic_stringIcSt11char_traitsIcESaIcEE10_M_disposeEv(%"class.std::__cxx11::basic_string"* nonnull dereferenceable(32) %this)
          to label %invoke.cont unwind label %lpad

invoke.cont:                                      ; preds = %entry
  %0 = bitcast %"class.std::__cxx11::basic_string"* %this to %"class.std::allocator"*
  call void @_ZNSaIcED2Ev(%"class.std::allocator"* nonnull dereferenceable(8) %0) #40
  ret void

lpad:                                             ; preds = %entry
  %1 = landingpad { i8*, i32 }
          catch i8* null
  %2 = extractvalue { i8*, i32 } %1, 0
  %3 = bitcast %"class.std::__cxx11::basic_string"* %this to %"class.std::allocator"*
  call void @_ZNSaIcED2Ev(%"class.std::allocator"* nonnull dereferenceable(8) %3) #40
  call void @__clang_call_terminate(i8* %2) #41
  unreachable
}

; Function Attrs: uwtable
define internal fastcc void @__cxx_global_var_init.2() unnamed_addr #0 section ".text.startup" personality i8* bitcast (i32 (...)* @__gxx_personality_v0 to i8*) {
entry:
  %ref.tmp = alloca %"class.std::allocator", align 1
  %0 = getelementptr inbounds %"class.std::allocator", %"class.std::allocator"* %ref.tmp, i64 0, i32 0
  call void @llvm.lifetime.start.p0i8(i64 1, i8* nonnull %0) #40
  call void @_ZNSaIcEC2Ev(%"class.std::allocator"* nonnull dereferenceable(1) %ref.tmp) #40
  invoke void @_ZNSt7__cxx1112basic_stringIcSt11char_traitsIcESaIcEEC2EPKcRKS3_(%"class.std::__cxx11::basic_string"* nonnull dereferenceable(32) @_ZN5adept8internal19vector_print_beforeB5cxx11E, i8* getelementptr inbounds ([2 x i8], [2 x i8]* @.str.3, i64 0, i64 0), %"class.std::allocator"* nonnull align 1 dereferenceable(1) %ref.tmp)
          to label %invoke.cont unwind label %lpad

invoke.cont:                                      ; preds = %entry
  call void @_ZNSaIcED2Ev(%"class.std::allocator"* nonnull dereferenceable(1) %ref.tmp) #40
  call void @llvm.lifetime.end.p0i8(i64 1, i8* nonnull %0) #40
  %1 = call i32 @__cxa_atexit(void (i8*)* bitcast (void (%"class.std::__cxx11::basic_string"*)* @_ZNSt7__cxx1112basic_stringIcSt11char_traitsIcESaIcEED2Ev to void (i8*)*), i8* bitcast (%"class.std::__cxx11::basic_string"* @_ZN5adept8internal19vector_print_beforeB5cxx11E to i8*), i8* nonnull @__dso_handle) #40
  ret void

lpad:                                             ; preds = %entry
  %2 = landingpad { i8*, i32 }
          cleanup
  call void @_ZNSaIcED2Ev(%"class.std::allocator"* nonnull dereferenceable(1) %ref.tmp) #40
  call void @llvm.lifetime.end.p0i8(i64 1, i8* nonnull %0) #40
  resume { i8*, i32 } %2
}

; Function Attrs: uwtable
define internal fastcc void @__cxx_global_var_init.4() unnamed_addr #0 section ".text.startup" personality i8* bitcast (i32 (...)* @__gxx_personality_v0 to i8*) {
entry:
  %ref.tmp = alloca %"class.std::allocator", align 1
  %0 = getelementptr inbounds %"class.std::allocator", %"class.std::allocator"* %ref.tmp, i64 0, i32 0
  call void @llvm.lifetime.start.p0i8(i64 1, i8* nonnull %0) #40
  call void @_ZNSaIcEC2Ev(%"class.std::allocator"* nonnull dereferenceable(1) %ref.tmp) #40
  invoke void @_ZNSt7__cxx1112basic_stringIcSt11char_traitsIcESaIcEEC2EPKcRKS3_(%"class.std::__cxx11::basic_string"* nonnull dereferenceable(32) @_ZN5adept8internal18vector_print_afterB5cxx11E, i8* getelementptr inbounds ([2 x i8], [2 x i8]* @.str.5, i64 0, i64 0), %"class.std::allocator"* nonnull align 1 dereferenceable(1) %ref.tmp)
          to label %invoke.cont unwind label %lpad

invoke.cont:                                      ; preds = %entry
  call void @_ZNSaIcED2Ev(%"class.std::allocator"* nonnull dereferenceable(1) %ref.tmp) #40
  call void @llvm.lifetime.end.p0i8(i64 1, i8* nonnull %0) #40
  %1 = call i32 @__cxa_atexit(void (i8*)* bitcast (void (%"class.std::__cxx11::basic_string"*)* @_ZNSt7__cxx1112basic_stringIcSt11char_traitsIcESaIcEED2Ev to void (i8*)*), i8* bitcast (%"class.std::__cxx11::basic_string"* @_ZN5adept8internal18vector_print_afterB5cxx11E to i8*), i8* nonnull @__dso_handle) #40
  ret void

lpad:                                             ; preds = %entry
  %2 = landingpad { i8*, i32 }
          cleanup
  call void @_ZNSaIcED2Ev(%"class.std::allocator"* nonnull dereferenceable(1) %ref.tmp) #40
  call void @llvm.lifetime.end.p0i8(i64 1, i8* nonnull %0) #40
  resume { i8*, i32 } %2
}

; Function Attrs: uwtable
define internal fastcc void @__cxx_global_var_init.6() unnamed_addr #0 section ".text.startup" personality i8* bitcast (i32 (...)* @__gxx_personality_v0 to i8*) {
entry:
  %ref.tmp = alloca %"class.std::allocator", align 1
  %0 = getelementptr inbounds %"class.std::allocator", %"class.std::allocator"* %ref.tmp, i64 0, i32 0
  call void @llvm.lifetime.start.p0i8(i64 1, i8* nonnull %0) #40
  call void @_ZNSaIcEC2Ev(%"class.std::allocator"* nonnull dereferenceable(1) %ref.tmp) #40
  invoke void @_ZNSt7__cxx1112basic_stringIcSt11char_traitsIcESaIcEEC2EPKcRKS3_(%"class.std::__cxx11::basic_string"* nonnull dereferenceable(32) @_ZN5adept8internal21array_opening_bracketB5cxx11E, i8* getelementptr inbounds ([2 x i8], [2 x i8]* @.str.3, i64 0, i64 0), %"class.std::allocator"* nonnull align 1 dereferenceable(1) %ref.tmp)
          to label %invoke.cont unwind label %lpad

invoke.cont:                                      ; preds = %entry
  call void @_ZNSaIcED2Ev(%"class.std::allocator"* nonnull dereferenceable(1) %ref.tmp) #40
  call void @llvm.lifetime.end.p0i8(i64 1, i8* nonnull %0) #40
  %1 = call i32 @__cxa_atexit(void (i8*)* bitcast (void (%"class.std::__cxx11::basic_string"*)* @_ZNSt7__cxx1112basic_stringIcSt11char_traitsIcESaIcEED2Ev to void (i8*)*), i8* bitcast (%"class.std::__cxx11::basic_string"* @_ZN5adept8internal21array_opening_bracketB5cxx11E to i8*), i8* nonnull @__dso_handle) #40
  ret void

lpad:                                             ; preds = %entry
  %2 = landingpad { i8*, i32 }
          cleanup
  call void @_ZNSaIcED2Ev(%"class.std::allocator"* nonnull dereferenceable(1) %ref.tmp) #40
  call void @llvm.lifetime.end.p0i8(i64 1, i8* nonnull %0) #40
  resume { i8*, i32 } %2
}

; Function Attrs: uwtable
define internal fastcc void @__cxx_global_var_init.7() unnamed_addr #0 section ".text.startup" personality i8* bitcast (i32 (...)* @__gxx_personality_v0 to i8*) {
entry:
  %ref.tmp = alloca %"class.std::allocator", align 1
  %0 = getelementptr inbounds %"class.std::allocator", %"class.std::allocator"* %ref.tmp, i64 0, i32 0
  call void @llvm.lifetime.start.p0i8(i64 1, i8* nonnull %0) #40
  call void @_ZNSaIcEC2Ev(%"class.std::allocator"* nonnull dereferenceable(1) %ref.tmp) #40
  invoke void @_ZNSt7__cxx1112basic_stringIcSt11char_traitsIcESaIcEEC2EPKcRKS3_(%"class.std::__cxx11::basic_string"* nonnull dereferenceable(32) @_ZN5adept8internal21array_closing_bracketB5cxx11E, i8* getelementptr inbounds ([2 x i8], [2 x i8]* @.str.5, i64 0, i64 0), %"class.std::allocator"* nonnull align 1 dereferenceable(1) %ref.tmp)
          to label %invoke.cont unwind label %lpad

invoke.cont:                                      ; preds = %entry
  call void @_ZNSaIcED2Ev(%"class.std::allocator"* nonnull dereferenceable(1) %ref.tmp) #40
  call void @llvm.lifetime.end.p0i8(i64 1, i8* nonnull %0) #40
  %1 = call i32 @__cxa_atexit(void (i8*)* bitcast (void (%"class.std::__cxx11::basic_string"*)* @_ZNSt7__cxx1112basic_stringIcSt11char_traitsIcESaIcEED2Ev to void (i8*)*), i8* bitcast (%"class.std::__cxx11::basic_string"* @_ZN5adept8internal21array_closing_bracketB5cxx11E to i8*), i8* nonnull @__dso_handle) #40
  ret void

lpad:                                             ; preds = %entry
  %2 = landingpad { i8*, i32 }
          cleanup
  call void @_ZNSaIcED2Ev(%"class.std::allocator"* nonnull dereferenceable(1) %ref.tmp) #40
  call void @llvm.lifetime.end.p0i8(i64 1, i8* nonnull %0) #40
  resume { i8*, i32 } %2
}

; Function Attrs: uwtable
define internal fastcc void @__cxx_global_var_init.8() unnamed_addr #0 section ".text.startup" personality i8* bitcast (i32 (...)* @__gxx_personality_v0 to i8*) {
entry:
  %ref.tmp = alloca %"class.std::allocator", align 1
  %0 = getelementptr inbounds %"class.std::allocator", %"class.std::allocator"* %ref.tmp, i64 0, i32 0
  call void @llvm.lifetime.start.p0i8(i64 1, i8* nonnull %0) #40
  call void @_ZNSaIcEC2Ev(%"class.std::allocator"* nonnull dereferenceable(1) %ref.tmp) #40
  invoke void @_ZNSt7__cxx1112basic_stringIcSt11char_traitsIcESaIcEEC2EPKcRKS3_(%"class.std::__cxx11::basic_string"* nonnull dereferenceable(32) @_ZN5adept8internal26array_contiguous_separatorB5cxx11E, i8* getelementptr inbounds ([3 x i8], [3 x i8]* @.str, i64 0, i64 0), %"class.std::allocator"* nonnull align 1 dereferenceable(1) %ref.tmp)
          to label %invoke.cont unwind label %lpad

invoke.cont:                                      ; preds = %entry
  call void @_ZNSaIcED2Ev(%"class.std::allocator"* nonnull dereferenceable(1) %ref.tmp) #40
  call void @llvm.lifetime.end.p0i8(i64 1, i8* nonnull %0) #40
  %1 = call i32 @__cxa_atexit(void (i8*)* bitcast (void (%"class.std::__cxx11::basic_string"*)* @_ZNSt7__cxx1112basic_stringIcSt11char_traitsIcESaIcEED2Ev to void (i8*)*), i8* bitcast (%"class.std::__cxx11::basic_string"* @_ZN5adept8internal26array_contiguous_separatorB5cxx11E to i8*), i8* nonnull @__dso_handle) #40
  ret void

lpad:                                             ; preds = %entry
  %2 = landingpad { i8*, i32 }
          cleanup
  call void @_ZNSaIcED2Ev(%"class.std::allocator"* nonnull dereferenceable(1) %ref.tmp) #40
  call void @llvm.lifetime.end.p0i8(i64 1, i8* nonnull %0) #40
  resume { i8*, i32 } %2
}

; Function Attrs: uwtable
define internal fastcc void @__cxx_global_var_init.9() unnamed_addr #0 section ".text.startup" personality i8* bitcast (i32 (...)* @__gxx_personality_v0 to i8*) {
entry:
  %ref.tmp = alloca %"class.std::allocator", align 1
  %0 = getelementptr inbounds %"class.std::allocator", %"class.std::allocator"* %ref.tmp, i64 0, i32 0
  call void @llvm.lifetime.start.p0i8(i64 1, i8* nonnull %0) #40
  call void @_ZNSaIcEC2Ev(%"class.std::allocator"* nonnull dereferenceable(1) %ref.tmp) #40
  invoke void @_ZNSt7__cxx1112basic_stringIcSt11char_traitsIcESaIcEEC2EPKcRKS3_(%"class.std::__cxx11::basic_string"* nonnull dereferenceable(32) @_ZN5adept8internal30array_non_contiguous_separatorB5cxx11E, i8* getelementptr inbounds ([3 x i8], [3 x i8]* @.str.10, i64 0, i64 0), %"class.std::allocator"* nonnull align 1 dereferenceable(1) %ref.tmp)
          to label %invoke.cont unwind label %lpad

invoke.cont:                                      ; preds = %entry
  call void @_ZNSaIcED2Ev(%"class.std::allocator"* nonnull dereferenceable(1) %ref.tmp) #40
  call void @llvm.lifetime.end.p0i8(i64 1, i8* nonnull %0) #40
  %1 = call i32 @__cxa_atexit(void (i8*)* bitcast (void (%"class.std::__cxx11::basic_string"*)* @_ZNSt7__cxx1112basic_stringIcSt11char_traitsIcESaIcEED2Ev to void (i8*)*), i8* bitcast (%"class.std::__cxx11::basic_string"* @_ZN5adept8internal30array_non_contiguous_separatorB5cxx11E to i8*), i8* nonnull @__dso_handle) #40
  ret void

lpad:                                             ; preds = %entry
  %2 = landingpad { i8*, i32 }
          cleanup
  call void @_ZNSaIcED2Ev(%"class.std::allocator"* nonnull dereferenceable(1) %ref.tmp) #40
  call void @llvm.lifetime.end.p0i8(i64 1, i8* nonnull %0) #40
  resume { i8*, i32 } %2
}

; Function Attrs: uwtable
define internal fastcc void @__cxx_global_var_init.11() unnamed_addr #0 section ".text.startup" personality i8* bitcast (i32 (...)* @__gxx_personality_v0 to i8*) {
entry:
  %ref.tmp = alloca %"class.std::allocator", align 1
  %0 = getelementptr inbounds %"class.std::allocator", %"class.std::allocator"* %ref.tmp, i64 0, i32 0
  call void @llvm.lifetime.start.p0i8(i64 1, i8* nonnull %0) #40
  call void @_ZNSaIcEC2Ev(%"class.std::allocator"* nonnull dereferenceable(1) %ref.tmp) #40
  invoke void @_ZNSt7__cxx1112basic_stringIcSt11char_traitsIcESaIcEEC2EPKcRKS3_(%"class.std::__cxx11::basic_string"* nonnull dereferenceable(32) @_ZN5adept8internal18array_print_beforeB5cxx11E, i8* getelementptr inbounds ([3 x i8], [3 x i8]* @.str.12, i64 0, i64 0), %"class.std::allocator"* nonnull align 1 dereferenceable(1) %ref.tmp)
          to label %invoke.cont unwind label %lpad

invoke.cont:                                      ; preds = %entry
  call void @_ZNSaIcED2Ev(%"class.std::allocator"* nonnull dereferenceable(1) %ref.tmp) #40
  call void @llvm.lifetime.end.p0i8(i64 1, i8* nonnull %0) #40
  %1 = call i32 @__cxa_atexit(void (i8*)* bitcast (void (%"class.std::__cxx11::basic_string"*)* @_ZNSt7__cxx1112basic_stringIcSt11char_traitsIcESaIcEED2Ev to void (i8*)*), i8* bitcast (%"class.std::__cxx11::basic_string"* @_ZN5adept8internal18array_print_beforeB5cxx11E to i8*), i8* nonnull @__dso_handle) #40
  ret void

lpad:                                             ; preds = %entry
  %2 = landingpad { i8*, i32 }
          cleanup
  call void @_ZNSaIcED2Ev(%"class.std::allocator"* nonnull dereferenceable(1) %ref.tmp) #40
  call void @llvm.lifetime.end.p0i8(i64 1, i8* nonnull %0) #40
  resume { i8*, i32 } %2
}

; Function Attrs: uwtable
define internal fastcc void @__cxx_global_var_init.13() unnamed_addr #0 section ".text.startup" personality i8* bitcast (i32 (...)* @__gxx_personality_v0 to i8*) {
entry:
  %ref.tmp = alloca %"class.std::allocator", align 1
  %0 = getelementptr inbounds %"class.std::allocator", %"class.std::allocator"* %ref.tmp, i64 0, i32 0
  call void @llvm.lifetime.start.p0i8(i64 1, i8* nonnull %0) #40
  call void @_ZNSaIcEC2Ev(%"class.std::allocator"* nonnull dereferenceable(1) %ref.tmp) #40
  invoke void @_ZNSt7__cxx1112basic_stringIcSt11char_traitsIcESaIcEEC2EPKcRKS3_(%"class.std::__cxx11::basic_string"* nonnull dereferenceable(32) @_ZN5adept8internal17array_print_afterB5cxx11E, i8* getelementptr inbounds ([2 x i8], [2 x i8]* @.str.5, i64 0, i64 0), %"class.std::allocator"* nonnull align 1 dereferenceable(1) %ref.tmp)
          to label %invoke.cont unwind label %lpad

invoke.cont:                                      ; preds = %entry
  call void @_ZNSaIcED2Ev(%"class.std::allocator"* nonnull dereferenceable(1) %ref.tmp) #40
  call void @llvm.lifetime.end.p0i8(i64 1, i8* nonnull %0) #40
  %1 = call i32 @__cxa_atexit(void (i8*)* bitcast (void (%"class.std::__cxx11::basic_string"*)* @_ZNSt7__cxx1112basic_stringIcSt11char_traitsIcESaIcEED2Ev to void (i8*)*), i8* bitcast (%"class.std::__cxx11::basic_string"* @_ZN5adept8internal17array_print_afterB5cxx11E to i8*), i8* nonnull @__dso_handle) #40
  ret void

lpad:                                             ; preds = %entry
  %2 = landingpad { i8*, i32 }
          cleanup
  call void @_ZNSaIcED2Ev(%"class.std::allocator"* nonnull dereferenceable(1) %ref.tmp) #40
  call void @llvm.lifetime.end.p0i8(i64 1, i8* nonnull %0) #40
  resume { i8*, i32 } %2
}

; Function Attrs: uwtable
define internal fastcc void @__cxx_global_var_init.14() unnamed_addr #0 section ".text.startup" personality i8* bitcast (i32 (...)* @__gxx_personality_v0 to i8*) {
entry:
  %ref.tmp = alloca %"class.std::allocator", align 1
  %0 = getelementptr inbounds %"class.std::allocator", %"class.std::allocator"* %ref.tmp, i64 0, i32 0
  call void @llvm.lifetime.start.p0i8(i64 1, i8* nonnull %0) #40
  call void @_ZNSaIcEC2Ev(%"class.std::allocator"* nonnull dereferenceable(1) %ref.tmp) #40
  invoke void @_ZNSt7__cxx1112basic_stringIcSt11char_traitsIcESaIcEEC2EPKcRKS3_(%"class.std::__cxx11::basic_string"* nonnull dereferenceable(32) @_ZN5adept8internal24array_print_empty_beforeB5cxx11E, i8* getelementptr inbounds ([13 x i8], [13 x i8]* @.str.15, i64 0, i64 0), %"class.std::allocator"* nonnull align 1 dereferenceable(1) %ref.tmp)
          to label %invoke.cont unwind label %lpad

invoke.cont:                                      ; preds = %entry
  call void @_ZNSaIcED2Ev(%"class.std::allocator"* nonnull dereferenceable(1) %ref.tmp) #40
  call void @llvm.lifetime.end.p0i8(i64 1, i8* nonnull %0) #40
  %1 = call i32 @__cxa_atexit(void (i8*)* bitcast (void (%"class.std::__cxx11::basic_string"*)* @_ZNSt7__cxx1112basic_stringIcSt11char_traitsIcESaIcEED2Ev to void (i8*)*), i8* bitcast (%"class.std::__cxx11::basic_string"* @_ZN5adept8internal24array_print_empty_beforeB5cxx11E to i8*), i8* nonnull @__dso_handle) #40
  ret void

lpad:                                             ; preds = %entry
  %2 = landingpad { i8*, i32 }
          cleanup
  call void @_ZNSaIcED2Ev(%"class.std::allocator"* nonnull dereferenceable(1) %ref.tmp) #40
  call void @llvm.lifetime.end.p0i8(i64 1, i8* nonnull %0) #40
  resume { i8*, i32 } %2
}

; Function Attrs: uwtable
define internal fastcc void @__cxx_global_var_init.16() unnamed_addr #0 section ".text.startup" personality i8* bitcast (i32 (...)* @__gxx_personality_v0 to i8*) {
entry:
  %ref.tmp = alloca %"class.std::allocator", align 1
  %0 = getelementptr inbounds %"class.std::allocator", %"class.std::allocator"* %ref.tmp, i64 0, i32 0
  call void @llvm.lifetime.start.p0i8(i64 1, i8* nonnull %0) #40
  call void @_ZNSaIcEC2Ev(%"class.std::allocator"* nonnull dereferenceable(1) %ref.tmp) #40
  invoke void @_ZNSt7__cxx1112basic_stringIcSt11char_traitsIcESaIcEEC2EPKcRKS3_(%"class.std::__cxx11::basic_string"* nonnull dereferenceable(32) @_ZN5adept8internal23array_print_empty_afterB5cxx11E, i8* getelementptr inbounds ([8 x i8], [8 x i8]* @.str.17, i64 0, i64 0), %"class.std::allocator"* nonnull align 1 dereferenceable(1) %ref.tmp)
          to label %invoke.cont unwind label %lpad

invoke.cont:                                      ; preds = %entry
  call void @_ZNSaIcED2Ev(%"class.std::allocator"* nonnull dereferenceable(1) %ref.tmp) #40
  call void @llvm.lifetime.end.p0i8(i64 1, i8* nonnull %0) #40
  %1 = call i32 @__cxa_atexit(void (i8*)* bitcast (void (%"class.std::__cxx11::basic_string"*)* @_ZNSt7__cxx1112basic_stringIcSt11char_traitsIcESaIcEED2Ev to void (i8*)*), i8* bitcast (%"class.std::__cxx11::basic_string"* @_ZN5adept8internal23array_print_empty_afterB5cxx11E to i8*), i8* nonnull @__dso_handle) #40
  ret void

lpad:                                             ; preds = %entry
  %2 = landingpad { i8*, i32 }
          cleanup
  call void @_ZNSaIcED2Ev(%"class.std::allocator"* nonnull dereferenceable(1) %ref.tmp) #40
  call void @llvm.lifetime.end.p0i8(i64 1, i8* nonnull %0) #40
  resume { i8*, i32 } %2
}

; Function Attrs: uwtable mustprogress
define dso_local void @_ZN5adept21set_array_print_styleENS_15ArrayPrintStyleE(i32 %ps) local_unnamed_addr #7 personality i8* bitcast (i32 (...)* @__gxx_personality_v0 to i8*) {
entry:
  %ref.tmp = alloca %"class.std::__cxx11::basic_string", align 8
  %ref.tmp47 = alloca %"class.std::allocator", align 1
  %0 = icmp ult i32 %ps, 4
  br i1 %0, label %switch.lookup, label %sw.default

sw.default:                                       ; preds = %entry
  %exception = call i8* @__cxa_allocate_exception(i64 40) #40
  %1 = bitcast %"class.std::__cxx11::basic_string"* %ref.tmp to i8*
  call void @llvm.lifetime.start.p0i8(i64 32, i8* nonnull %1) #40
  %2 = getelementptr inbounds %"class.std::allocator", %"class.std::allocator"* %ref.tmp47, i64 0, i32 0
  call void @llvm.lifetime.start.p0i8(i64 1, i8* nonnull %2) #40
  call void @_ZNSaIcEC2Ev(%"class.std::allocator"* nonnull dereferenceable(1) %ref.tmp47) #40
  invoke void @_ZNSt7__cxx1112basic_stringIcSt11char_traitsIcESaIcEEC2EPKcRKS3_(%"class.std::__cxx11::basic_string"* nonnull dereferenceable(32) %ref.tmp, i8* getelementptr inbounds ([33 x i8], [33 x i8]* @.str.25, i64 0, i64 0), %"class.std::allocator"* nonnull align 1 dereferenceable(1) %ref.tmp47)
          to label %invoke.cont unwind label %lpad

invoke.cont:                                      ; preds = %sw.default
  %3 = bitcast i8* %exception to %"class.adept::invalid_operation"*
  invoke void @_ZN5adept17invalid_operationC2ERKNSt7__cxx1112basic_stringIcSt11char_traitsIcESaIcEEE(%"class.adept::invalid_operation"* nonnull dereferenceable(40) %3, %"class.std::__cxx11::basic_string"* nonnull align 8 dereferenceable(32) %ref.tmp)
          to label %invoke.cont49 unwind label %lpad48

invoke.cont49:                                    ; preds = %invoke.cont
  invoke void @__cxa_throw(i8* %exception, i8* bitcast ({ i8*, i8*, i8* }* @_ZTIN5adept17invalid_operationE to i8*), i8* bitcast (void (%"class.adept::exception"*)* @_ZN5adept9exceptionD2Ev to i8*)) #42
          to label %unreachable unwind label %lpad48

lpad:                                             ; preds = %sw.default
  %4 = landingpad { i8*, i32 }
          cleanup
  br label %ehcleanup

lpad48:                                           ; preds = %invoke.cont49, %invoke.cont
  %cleanup.isactive.0 = phi i1 [ false, %invoke.cont49 ], [ true, %invoke.cont ]
  %5 = landingpad { i8*, i32 }
          cleanup
  call void @_ZNSt7__cxx1112basic_stringIcSt11char_traitsIcESaIcEED2Ev(%"class.std::__cxx11::basic_string"* nonnull dereferenceable(32) %ref.tmp) #40
  br label %ehcleanup

ehcleanup:                                        ; preds = %lpad48, %lpad
  %.pn = phi { i8*, i32 } [ %5, %lpad48 ], [ %4, %lpad ]
  %cleanup.isactive.1 = phi i1 [ %cleanup.isactive.0, %lpad48 ], [ true, %lpad ]
  call void @_ZNSaIcED2Ev(%"class.std::allocator"* nonnull dereferenceable(1) %ref.tmp47) #40
  call void @llvm.lifetime.end.p0i8(i64 1, i8* nonnull %2) #40
  call void @llvm.lifetime.end.p0i8(i64 32, i8* nonnull %1) #40
  br i1 %cleanup.isactive.1, label %cleanup.action, label %eh.resume

cleanup.action:                                   ; preds = %ehcleanup
  call void @__cxa_free_exception(i8* %exception) #40
  br label %eh.resume

switch.lookup:                                    ; preds = %entry
  %6 = sext i32 %ps to i64
  %switch.gep = getelementptr inbounds [4 x i8*], [4 x i8*]* @switch.table._ZN5adept21set_array_print_styleENS_15ArrayPrintStyleE, i64 0, i64 %6
  %switch.load = load i8*, i8** %switch.gep, align 8
  %switch.gep68 = getelementptr inbounds [4 x i8*], [4 x i8*]* @switch.table._ZN5adept21set_array_print_styleENS_15ArrayPrintStyleE.107, i64 0, i64 %6
  %switch.load69 = load i8*, i8** %switch.gep68, align 8
  %switch.gep70 = getelementptr inbounds [4 x i8*], [4 x i8*]* @switch.table._ZN5adept21set_array_print_styleENS_15ArrayPrintStyleE.108, i64 0, i64 %6
  %switch.load71 = load i8*, i8** %switch.gep70, align 8
  %switch.gep72 = getelementptr inbounds [4 x i8*], [4 x i8*]* @switch.table._ZN5adept21set_array_print_styleENS_15ArrayPrintStyleE.109, i64 0, i64 %6
  %switch.load73 = load i8*, i8** %switch.gep72, align 8
  %switch.gep74 = getelementptr inbounds [4 x i8*], [4 x i8*]* @switch.table._ZN5adept21set_array_print_styleENS_15ArrayPrintStyleE.110, i64 0, i64 %6
  %switch.load75 = load i8*, i8** %switch.gep74, align 8
  %switch.gep76 = getelementptr inbounds [4 x i8*], [4 x i8*]* @switch.table._ZN5adept21set_array_print_styleENS_15ArrayPrintStyleE.111, i64 0, i64 %6
  %switch.load77 = load i8*, i8** %switch.gep76, align 8
  %switch.gep78 = getelementptr inbounds [4 x i8*], [4 x i8*]* @switch.table._ZN5adept21set_array_print_styleENS_15ArrayPrintStyleE.112, i64 0, i64 %6
  %switch.load79 = load i8*, i8** %switch.gep78, align 8
  %switch.gep80 = getelementptr inbounds [4 x i8*], [4 x i8*]* @switch.table._ZN5adept21set_array_print_styleENS_15ArrayPrintStyleE.113, i64 0, i64 %6
  %switch.load81 = load i8*, i8** %switch.gep80, align 8
  %switch.gep82 = getelementptr inbounds [4 x i8*], [4 x i8*]* @switch.table._ZN5adept21set_array_print_styleENS_15ArrayPrintStyleE.114, i64 0, i64 %6
  %switch.load83 = load i8*, i8** %switch.gep82, align 8
  %switch.gep84 = getelementptr inbounds [4 x i8*], [4 x i8*]* @switch.table._ZN5adept21set_array_print_styleENS_15ArrayPrintStyleE.115, i64 0, i64 %6
  %switch.load85 = load i8*, i8** %switch.gep84, align 8
  %switch.gep86 = getelementptr inbounds [4 x i8*], [4 x i8*]* @switch.table._ZN5adept21set_array_print_styleENS_15ArrayPrintStyleE.116, i64 0, i64 %6
  %switch.load87 = load i8*, i8** %switch.gep86, align 8
  %switch.shiftamt = shl i32 %ps, 3
  %switch.downshift = lshr i32 16842752, %switch.shiftamt
  %switch.masked = trunc i32 %switch.downshift to i8
  %switch.downshift89 = lshr i32 65537, %switch.shiftamt
  %switch.masked90 = trunc i32 %switch.downshift89 to i8
  %call36 = call nonnull align 8 dereferenceable(32) %"class.std::__cxx11::basic_string"* @_ZNSt7__cxx1112basic_stringIcSt11char_traitsIcESaIcEEaSEPKc(%"class.std::__cxx11::basic_string"* nonnull dereferenceable(32) @_ZN5adept8internal16vector_separatorB5cxx11E, i8* %switch.load)
  %call37 = call nonnull align 8 dereferenceable(32) %"class.std::__cxx11::basic_string"* @_ZNSt7__cxx1112basic_stringIcSt11char_traitsIcESaIcEEaSEPKc(%"class.std::__cxx11::basic_string"* nonnull dereferenceable(32) @_ZN5adept8internal19vector_print_beforeB5cxx11E, i8* %switch.load69)
  %call38 = call nonnull align 8 dereferenceable(32) %"class.std::__cxx11::basic_string"* @_ZNSt7__cxx1112basic_stringIcSt11char_traitsIcESaIcEEaSEPKc(%"class.std::__cxx11::basic_string"* nonnull dereferenceable(32) @_ZN5adept8internal18vector_print_afterB5cxx11E, i8* %switch.load71)
  %call39 = call nonnull align 8 dereferenceable(32) %"class.std::__cxx11::basic_string"* @_ZNSt7__cxx1112basic_stringIcSt11char_traitsIcESaIcEEaSEPKc(%"class.std::__cxx11::basic_string"* nonnull dereferenceable(32) @_ZN5adept8internal21array_opening_bracketB5cxx11E, i8* %switch.load73)
  %call40 = call nonnull align 8 dereferenceable(32) %"class.std::__cxx11::basic_string"* @_ZNSt7__cxx1112basic_stringIcSt11char_traitsIcESaIcEEaSEPKc(%"class.std::__cxx11::basic_string"* nonnull dereferenceable(32) @_ZN5adept8internal21array_closing_bracketB5cxx11E, i8* %switch.load75)
  %call41 = call nonnull align 8 dereferenceable(32) %"class.std::__cxx11::basic_string"* @_ZNSt7__cxx1112basic_stringIcSt11char_traitsIcESaIcEEaSEPKc(%"class.std::__cxx11::basic_string"* nonnull dereferenceable(32) @_ZN5adept8internal26array_contiguous_separatorB5cxx11E, i8* %switch.load77)
  %call42 = call nonnull align 8 dereferenceable(32) %"class.std::__cxx11::basic_string"* @_ZNSt7__cxx1112basic_stringIcSt11char_traitsIcESaIcEEaSEPKc(%"class.std::__cxx11::basic_string"* nonnull dereferenceable(32) @_ZN5adept8internal30array_non_contiguous_separatorB5cxx11E, i8* %switch.load79)
  %call43 = call nonnull align 8 dereferenceable(32) %"class.std::__cxx11::basic_string"* @_ZNSt7__cxx1112basic_stringIcSt11char_traitsIcESaIcEEaSEPKc(%"class.std::__cxx11::basic_string"* nonnull dereferenceable(32) @_ZN5adept8internal18array_print_beforeB5cxx11E, i8* %switch.load81)
  %call44 = call nonnull align 8 dereferenceable(32) %"class.std::__cxx11::basic_string"* @_ZNSt7__cxx1112basic_stringIcSt11char_traitsIcESaIcEEaSEPKc(%"class.std::__cxx11::basic_string"* nonnull dereferenceable(32) @_ZN5adept8internal17array_print_afterB5cxx11E, i8* %switch.load83)
  %call45 = call nonnull align 8 dereferenceable(32) %"class.std::__cxx11::basic_string"* @_ZNSt7__cxx1112basic_stringIcSt11char_traitsIcESaIcEEaSEPKc(%"class.std::__cxx11::basic_string"* nonnull dereferenceable(32) @_ZN5adept8internal24array_print_empty_beforeB5cxx11E, i8* %switch.load85)
  %call46 = call nonnull align 8 dereferenceable(32) %"class.std::__cxx11::basic_string"* @_ZNSt7__cxx1112basic_stringIcSt11char_traitsIcESaIcEEaSEPKc(%"class.std::__cxx11::basic_string"* nonnull dereferenceable(32) @_ZN5adept8internal23array_print_empty_afterB5cxx11E, i8* %switch.load87)
  store i8 %switch.masked, i8* @_ZN5adept8internal18array_print_indentE, align 1, !tbaa !2
  store i8 %switch.masked90, i8* @_ZN5adept8internal22array_print_empty_rankE, align 1, !tbaa !2
  store i32 %ps, i32* @_ZN5adept8internal17array_print_styleE, align 4, !tbaa !6
  ret void

eh.resume:                                        ; preds = %cleanup.action, %ehcleanup
  resume { i8*, i32 } %.pn

unreachable:                                      ; preds = %invoke.cont49
  unreachable
}

; Function Attrs: uwtable mustprogress
define available_externally dso_local nonnull align 8 dereferenceable(32) %"class.std::__cxx11::basic_string"* @_ZNSt7__cxx1112basic_stringIcSt11char_traitsIcESaIcEEaSEPKc(%"class.std::__cxx11::basic_string"* nonnull dereferenceable(32) %this, i8* %__s) local_unnamed_addr #7 align 2 {
entry:
  %call = call nonnull align 8 dereferenceable(32) %"class.std::__cxx11::basic_string"* @_ZNSt7__cxx1112basic_stringIcSt11char_traitsIcESaIcEE6assignEPKc(%"class.std::__cxx11::basic_string"* nonnull dereferenceable(32) %this, i8* %__s)
  ret %"class.std::__cxx11::basic_string"* %call
}

declare dso_local i8* @__cxa_allocate_exception(i64) local_unnamed_addr

; Function Attrs: uwtable
define linkonce_odr dso_local void @_ZN5adept17invalid_operationC2ERKNSt7__cxx1112basic_stringIcSt11char_traitsIcESaIcEEE(%"class.adept::invalid_operation"* nonnull dereferenceable(40) %this, %"class.std::__cxx11::basic_string"* nonnull align 8 dereferenceable(32) %message) unnamed_addr #0 comdat align 2 personality i8* bitcast (i32 (...)* @__gxx_personality_v0 to i8*) {
entry:
  %ref.tmp = alloca %"class.std::__cxx11::basic_string", align 8
  %ref.tmp2 = alloca %"class.std::allocator", align 1
  %0 = bitcast %"class.std::__cxx11::basic_string"* %ref.tmp to i8*
  call void @llvm.lifetime.start.p0i8(i64 32, i8* nonnull %0) #40
  %1 = getelementptr inbounds %"class.std::allocator", %"class.std::allocator"* %ref.tmp2, i64 0, i32 0
  call void @llvm.lifetime.start.p0i8(i64 1, i8* nonnull %1) #40
  call void @_ZNSaIcEC2Ev(%"class.std::allocator"* nonnull dereferenceable(1) %ref.tmp2) #40
  invoke void @_ZNSt7__cxx1112basic_stringIcSt11char_traitsIcESaIcEEC2EPKcRKS3_(%"class.std::__cxx11::basic_string"* nonnull dereferenceable(32) %ref.tmp, i8* getelementptr inbounds ([28 x i8], [28 x i8]* @.str.84, i64 0, i64 0), %"class.std::allocator"* nonnull align 1 dereferenceable(1) %ref.tmp2)
          to label %invoke.cont unwind label %lpad

invoke.cont:                                      ; preds = %entry
  %2 = getelementptr inbounds %"class.adept::invalid_operation", %"class.adept::invalid_operation"* %this, i64 0, i32 0
  invoke void @_ZN5adept15array_exceptionC2ERKNSt7__cxx1112basic_stringIcSt11char_traitsIcESaIcEEE(%"class.adept::array_exception"* nonnull dereferenceable(40) %2, %"class.std::__cxx11::basic_string"* nonnull align 8 dereferenceable(32) %ref.tmp)
          to label %invoke.cont4 unwind label %lpad3

invoke.cont4:                                     ; preds = %invoke.cont
  call void @_ZNSt7__cxx1112basic_stringIcSt11char_traitsIcESaIcEED2Ev(%"class.std::__cxx11::basic_string"* nonnull dereferenceable(32) %ref.tmp) #40
  call void @_ZNSaIcED2Ev(%"class.std::allocator"* nonnull dereferenceable(1) %ref.tmp2) #40
  call void @llvm.lifetime.end.p0i8(i64 1, i8* nonnull %1) #40
  call void @llvm.lifetime.end.p0i8(i64 32, i8* nonnull %0) #40
  %3 = getelementptr inbounds %"class.adept::invalid_operation", %"class.adept::invalid_operation"* %this, i64 0, i32 0, i32 0, i32 0, i32 0
  store i32 (...)** bitcast (i8** getelementptr inbounds ({ [5 x i8*] }, { [5 x i8*] }* @_ZTVN5adept17invalid_operationE, i64 0, inrange i32 0, i64 2) to i32 (...)**), i32 (...)*** %3, align 8, !tbaa !8
  %message_ = getelementptr inbounds %"class.adept::invalid_operation", %"class.adept::invalid_operation"* %this, i64 0, i32 0, i32 0, i32 1
  %call = invoke nonnull align 8 dereferenceable(32) %"class.std::__cxx11::basic_string"* @_ZNSt7__cxx1112basic_stringIcSt11char_traitsIcESaIcEEaSERKS4_(%"class.std::__cxx11::basic_string"* nonnull dereferenceable(32) %message_, %"class.std::__cxx11::basic_string"* nonnull align 8 dereferenceable(32) %message)
          to label %invoke.cont8 unwind label %lpad7

invoke.cont8:                                     ; preds = %invoke.cont4
  ret void

lpad:                                             ; preds = %entry
  %4 = landingpad { i8*, i32 }
          cleanup
  br label %ehcleanup

lpad3:                                            ; preds = %invoke.cont
  %5 = landingpad { i8*, i32 }
          cleanup
  call void @_ZNSt7__cxx1112basic_stringIcSt11char_traitsIcESaIcEED2Ev(%"class.std::__cxx11::basic_string"* nonnull dereferenceable(32) %ref.tmp) #40
  br label %ehcleanup

ehcleanup:                                        ; preds = %lpad3, %lpad
  %.pn = phi { i8*, i32 } [ %5, %lpad3 ], [ %4, %lpad ]
  call void @_ZNSaIcED2Ev(%"class.std::allocator"* nonnull dereferenceable(1) %ref.tmp2) #40
  call void @llvm.lifetime.end.p0i8(i64 1, i8* nonnull %1) #40
  call void @llvm.lifetime.end.p0i8(i64 32, i8* nonnull %0) #40
  br label %eh.resume

lpad7:                                            ; preds = %invoke.cont4
  %6 = landingpad { i8*, i32 }
          cleanup
  %7 = getelementptr inbounds %"class.adept::invalid_operation", %"class.adept::invalid_operation"* %this, i64 0, i32 0, i32 0
  call void @_ZN5adept9exceptionD2Ev(%"class.adept::exception"* nonnull dereferenceable(40) %7) #40
  br label %eh.resume

eh.resume:                                        ; preds = %lpad7, %ehcleanup
  %.pn12 = phi { i8*, i32 } [ %6, %lpad7 ], [ %.pn, %ehcleanup ]
  resume { i8*, i32 } %.pn12
}

declare dso_local void @__cxa_throw(i8*, i8*, i8*) local_unnamed_addr

declare dso_local void @__cxa_free_exception(i8*) local_unnamed_addr

; Function Attrs: nounwind uwtable
define dso_local void @_ZN5adept5StackD2Ev(%"class.adept::Stack"* nonnull dereferenceable(149) %this) unnamed_addr #6 align 2 {
entry:
  %is_thread_unsafe_ = getelementptr inbounds %"class.adept::Stack", %"class.adept::Stack"* %this, i64 0, i32 11
  %0 = load i8, i8* %is_thread_unsafe_, align 1, !tbaa !10, !range !17
  %tobool.not = icmp eq i8 %0, 0
  br i1 %tobool.not, label %if.else, label %if.then

if.then:                                          ; preds = %entry
  %1 = load %"class.adept::Stack"*, %"class.adept::Stack"** @_ZN5adept28_stack_current_thread_unsafeE, align 8, !tbaa !18
  %cmp = icmp eq %"class.adept::Stack"* %1, %this
  br i1 %cmp, label %if.then2, label %if.end6

if.then2:                                         ; preds = %if.then
  store %"class.adept::Stack"* null, %"class.adept::Stack"** @_ZN5adept28_stack_current_thread_unsafeE, align 8, !tbaa !18
  br label %if.end6

if.else:                                          ; preds = %entry
  %2 = load %"class.adept::Stack"*, %"class.adept::Stack"** @_ZN5adept21_stack_current_threadE, align 8, !tbaa !18
  %cmp3 = icmp eq %"class.adept::Stack"* %2, %this
  br i1 %cmp3, label %if.then4, label %if.end6

if.then4:                                         ; preds = %if.else
  store %"class.adept::Stack"* null, %"class.adept::Stack"** @_ZN5adept21_stack_current_threadE, align 8, !tbaa !18
  br label %if.end6

if.end6:                                          ; preds = %if.then4, %if.else, %if.then2, %if.then
  %gradient_ = getelementptr inbounds %"class.adept::Stack", %"class.adept::Stack"* %this, i64 0, i32 1
  %3 = load double*, double** %gradient_, align 8, !tbaa !19
  %tobool7.not = icmp eq double* %3, null
  br i1 %tobool7.not, label %if.end10, label %delete.notnull

delete.notnull:                                   ; preds = %if.end6
  %4 = bitcast double* %3 to i8*
  call void @_ZdaPv(i8* %4) #43
  br label %if.end10

if.end10:                                         ; preds = %delete.notnull, %if.end6
  %5 = getelementptr inbounds %"class.adept::Stack", %"class.adept::Stack"* %this, i64 0, i32 4, i32 0
  call void @_ZNSt7__cxx1110_List_baseIN5adept3GapESaIS2_EED2Ev(%"class.std::__cxx11::_List_base"* nonnull dereferenceable(24) %5) #40
  %dependent_index_ = getelementptr inbounds %"class.adept::Stack", %"class.adept::Stack"* %this, i64 0, i32 3
  call void @_ZNSt6vectorIiSaIiEED2Ev(%"class.std::vector"* nonnull dereferenceable(24) %dependent_index_) #40
  %independent_index_ = getelementptr inbounds %"class.adept::Stack", %"class.adept::Stack"* %this, i64 0, i32 2
  call void @_ZNSt6vectorIiSaIiEED2Ev(%"class.std::vector"* nonnull dereferenceable(24) %independent_index_) #40
  %6 = getelementptr inbounds %"class.adept::Stack", %"class.adept::Stack"* %this, i64 0, i32 0
  call void @_ZN5adept8internal16StackStorageOrigD2Ev(%"class.adept::internal::StackStorageOrig"* nonnull dereferenceable(40) %6) #40
  ret void
}

; Function Attrs: nobuiltin nounwind
declare dso_local void @_ZdaPv(i8*) local_unnamed_addr #8

; Function Attrs: nounwind uwtable
define linkonce_odr dso_local void @_ZNSt7__cxx1110_List_baseIN5adept3GapESaIS2_EED2Ev(%"class.std::__cxx11::_List_base"* nonnull dereferenceable(24) %this) unnamed_addr #6 comdat align 2 {
entry:
  call void @_ZNSt7__cxx1110_List_baseIN5adept3GapESaIS2_EE8_M_clearEv(%"class.std::__cxx11::_List_base"* nonnull dereferenceable(24) %this) #40
  %0 = bitcast %"class.std::__cxx11::_List_base"* %this to %"class.__gnu_cxx::new_allocator.4"*
  call void @_ZN9__gnu_cxx13new_allocatorISt10_List_nodeIN5adept3GapEEED2Ev(%"class.__gnu_cxx::new_allocator.4"* nonnull dereferenceable(24) %0) #40
  ret void
}

; Function Attrs: nounwind uwtable
define linkonce_odr dso_local void @_ZNSt6vectorIiSaIiEED2Ev(%"class.std::vector"* nonnull dereferenceable(24) %this) unnamed_addr #6 comdat align 2 personality i8* bitcast (i32 (...)* @__gxx_personality_v0 to i8*) {
entry:
  %0 = getelementptr inbounds %"class.std::vector", %"class.std::vector"* %this, i64 0, i32 0
  %_M_start = getelementptr inbounds %"class.std::vector", %"class.std::vector"* %this, i64 0, i32 0, i32 0, i32 0, i32 0
  %1 = load i32*, i32** %_M_start, align 8, !tbaa !20
  %_M_finish = getelementptr inbounds %"class.std::vector", %"class.std::vector"* %this, i64 0, i32 0, i32 0, i32 0, i32 1
  %2 = load i32*, i32** %_M_finish, align 8, !tbaa !22
  %call = call nonnull align 1 dereferenceable(1) %"class.std::allocator.0"* @_ZNSt12_Vector_baseIiSaIiEE19_M_get_Tp_allocatorEv(%"struct.std::_Vector_base"* nonnull dereferenceable(24) %0) #40
  invoke void @_ZSt8_DestroyIPiiEvT_S1_RSaIT0_E(i32* %1, i32* %2, %"class.std::allocator.0"* nonnull align 1 dereferenceable(1) %call)
          to label %invoke.cont unwind label %lpad

invoke.cont:                                      ; preds = %entry
  call void @_ZNSt12_Vector_baseIiSaIiEED2Ev(%"struct.std::_Vector_base"* nonnull dereferenceable(24) %0) #40
  ret void

lpad:                                             ; preds = %entry
  %3 = landingpad { i8*, i32 }
          catch i8* null
  %4 = extractvalue { i8*, i32 } %3, 0
  call void @_ZNSt12_Vector_baseIiSaIiEED2Ev(%"struct.std::_Vector_base"* nonnull dereferenceable(24) %0) #40
  call void @__clang_call_terminate(i8* %4) #41
  unreachable
}

; Function Attrs: nounwind uwtable
define dso_local void @_ZN5adept8internal16StackStorageOrigD2Ev(%"class.adept::internal::StackStorageOrig"* nocapture nonnull readonly dereferenceable(40) %this) unnamed_addr #6 align 2 {
entry:
  %statement_ = getelementptr inbounds %"class.adept::internal::StackStorageOrig", %"class.adept::internal::StackStorageOrig"* %this, i64 0, i32 0
  %0 = load %"struct.adept::internal::Statement"*, %"struct.adept::internal::Statement"** %statement_, align 8, !tbaa !23
  %tobool.not = icmp eq %"struct.adept::internal::Statement"* %0, null
  br i1 %tobool.not, label %if.end, label %delete.notnull

delete.notnull:                                   ; preds = %entry
  %1 = bitcast %"struct.adept::internal::Statement"* %0 to i8*
  call void @_ZdaPv(i8* %1) #43
  br label %if.end

if.end:                                           ; preds = %delete.notnull, %entry
  %multiplier_ = getelementptr inbounds %"class.adept::internal::StackStorageOrig", %"class.adept::internal::StackStorageOrig"* %this, i64 0, i32 1
  %2 = load double*, double** %multiplier_, align 8, !tbaa !25
  %tobool3.not = icmp eq double* %2, null
  br i1 %tobool3.not, label %if.end9, label %delete.notnull7

delete.notnull7:                                  ; preds = %if.end
  %3 = bitcast double* %2 to i8*
  call void @_ZdaPv(i8* %3) #43
  br label %if.end9

if.end9:                                          ; preds = %delete.notnull7, %if.end
  %index_ = getelementptr inbounds %"class.adept::internal::StackStorageOrig", %"class.adept::internal::StackStorageOrig"* %this, i64 0, i32 2
  %4 = load i32*, i32** %index_, align 8, !tbaa !26
  %tobool10.not = icmp eq i32* %4, null
  br i1 %tobool10.not, label %if.end16, label %delete.notnull14

delete.notnull14:                                 ; preds = %if.end9
  %5 = bitcast i32* %4 to i8*
  call void @_ZdaPv(i8* %5) #43
  br label %if.end16

if.end16:                                         ; preds = %delete.notnull14, %if.end9
  ret void
}

; Function Attrs: uwtable mustprogress
define dso_local void @_ZN5adept5Stack8activateEv(%"class.adept::Stack"* nonnull dereferenceable(149) %this) local_unnamed_addr #7 align 2 personality i8* bitcast (i32 (...)* @__gxx_personality_v0 to i8*) {
entry:
  %ref.tmp = alloca %"class.std::__cxx11::basic_string", align 8
  %ref.tmp10 = alloca %"class.std::allocator", align 1
  %is_thread_unsafe_ = getelementptr inbounds %"class.adept::Stack", %"class.adept::Stack"* %this, i64 0, i32 11
  %0 = load i8, i8* %is_thread_unsafe_, align 1, !tbaa !10, !range !17
  %tobool = icmp ne i8 %0, 0
  %1 = load %"class.adept::Stack"*, %"class.adept::Stack"** @_ZN5adept28_stack_current_thread_unsafeE, align 8
  %tobool2 = icmp ne %"class.adept::Stack"* %1, null
  %or.cond = and i1 %tobool, %tobool2
  %cmp = icmp ne %"class.adept::Stack"* %1, %this
  %or.cond22 = and i1 %cmp, %or.cond
  br i1 %or.cond22, label %if.then, label %lor.lhs.false

lor.lhs.false:                                    ; preds = %entry
  %tobool5.not = xor i1 %tobool, true
  %2 = load %"class.adept::Stack"*, %"class.adept::Stack"** @_ZN5adept21_stack_current_threadE, align 8
  %tobool7 = icmp ne %"class.adept::Stack"* %2, null
  %or.cond23 = and i1 %tobool7, %tobool5.not
  %cmp9 = icmp ne %"class.adept::Stack"* %2, %this
  %or.cond24 = and i1 %cmp9, %or.cond23
  br i1 %or.cond24, label %if.then, label %if.else

if.then:                                          ; preds = %lor.lhs.false, %entry
  %exception = call i8* @__cxa_allocate_exception(i64 40) #40
  %3 = bitcast %"class.std::__cxx11::basic_string"* %ref.tmp to i8*
  call void @llvm.lifetime.start.p0i8(i64 32, i8* nonnull %3) #40
  %4 = getelementptr inbounds %"class.std::allocator", %"class.std::allocator"* %ref.tmp10, i64 0, i32 0
  call void @llvm.lifetime.start.p0i8(i64 1, i8* nonnull %4) #40
  call void @_ZNSaIcEC2Ev(%"class.std::allocator"* nonnull dereferenceable(1) %ref.tmp10) #40
  invoke void @_ZNSt7__cxx1112basic_stringIcSt11char_traitsIcESaIcEEC2EPKcRKS3_(%"class.std::__cxx11::basic_string"* nonnull dereferenceable(32) %ref.tmp, i8* getelementptr inbounds ([78 x i8], [78 x i8]* @.str.26, i64 0, i64 0), %"class.std::allocator"* nonnull align 1 dereferenceable(1) %ref.tmp10)
          to label %invoke.cont unwind label %lpad

invoke.cont:                                      ; preds = %if.then
  %5 = bitcast i8* %exception to %"class.adept::stack_already_active"*
  invoke void @_ZN5adept20stack_already_activeC2ERKNSt7__cxx1112basic_stringIcSt11char_traitsIcESaIcEEE(%"class.adept::stack_already_active"* nonnull dereferenceable(40) %5, %"class.std::__cxx11::basic_string"* nonnull align 8 dereferenceable(32) %ref.tmp)
          to label %invoke.cont12 unwind label %lpad11

invoke.cont12:                                    ; preds = %invoke.cont
  invoke void @__cxa_throw(i8* %exception, i8* bitcast ({ i8*, i8*, i8* }* @_ZTIN5adept20stack_already_activeE to i8*), i8* bitcast (void (%"class.adept::exception"*)* @_ZN5adept9exceptionD2Ev to i8*)) #42
          to label %unreachable unwind label %lpad11

lpad:                                             ; preds = %if.then
  %6 = landingpad { i8*, i32 }
          cleanup
  br label %ehcleanup

lpad11:                                           ; preds = %invoke.cont12, %invoke.cont
  %cleanup.isactive.0 = phi i1 [ false, %invoke.cont12 ], [ true, %invoke.cont ]
  %7 = landingpad { i8*, i32 }
          cleanup
  call void @_ZNSt7__cxx1112basic_stringIcSt11char_traitsIcESaIcEED2Ev(%"class.std::__cxx11::basic_string"* nonnull dereferenceable(32) %ref.tmp) #40
  br label %ehcleanup

ehcleanup:                                        ; preds = %lpad11, %lpad
  %.pn = phi { i8*, i32 } [ %7, %lpad11 ], [ %6, %lpad ]
  %cleanup.isactive.1 = phi i1 [ %cleanup.isactive.0, %lpad11 ], [ true, %lpad ]
  call void @_ZNSaIcED2Ev(%"class.std::allocator"* nonnull dereferenceable(1) %ref.tmp10) #40
  call void @llvm.lifetime.end.p0i8(i64 1, i8* nonnull %4) #40
  call void @llvm.lifetime.end.p0i8(i64 32, i8* nonnull %3) #40
  br i1 %cleanup.isactive.1, label %cleanup.action, label %eh.resume

cleanup.action:                                   ; preds = %ehcleanup
  call void @__cxa_free_exception(i8* %exception) #40
  br label %eh.resume

if.else:                                          ; preds = %lor.lhs.false
  %_ZN5adept21_stack_current_threadE.sink = select i1 %tobool, %"class.adept::Stack"** @_ZN5adept28_stack_current_thread_unsafeE, %"class.adept::Stack"** @_ZN5adept21_stack_current_threadE
  store %"class.adept::Stack"* %this, %"class.adept::Stack"** %_ZN5adept21_stack_current_threadE.sink, align 8, !tbaa !18
  ret void

eh.resume:                                        ; preds = %cleanup.action, %ehcleanup
  resume { i8*, i32 } %.pn

unreachable:                                      ; preds = %invoke.cont12
  unreachable
}

; Function Attrs: uwtable
define linkonce_odr dso_local void @_ZN5adept20stack_already_activeC2ERKNSt7__cxx1112basic_stringIcSt11char_traitsIcESaIcEEE(%"class.adept::stack_already_active"* nonnull dereferenceable(40) %this, %"class.std::__cxx11::basic_string"* nonnull align 8 dereferenceable(32) %message) unnamed_addr #0 comdat align 2 personality i8* bitcast (i32 (...)* @__gxx_personality_v0 to i8*) {
entry:
  %0 = getelementptr inbounds %"class.adept::stack_already_active", %"class.adept::stack_already_active"* %this, i64 0, i32 0
  call void @_ZN5adept18autodiff_exceptionC2Ev(%"class.adept::autodiff_exception"* nonnull dereferenceable(40) %0) #40
  %1 = getelementptr inbounds %"class.adept::stack_already_active", %"class.adept::stack_already_active"* %this, i64 0, i32 0, i32 0, i32 0, i32 0
  store i32 (...)** bitcast (i8** getelementptr inbounds ({ [5 x i8*] }, { [5 x i8*] }* @_ZTVN5adept20stack_already_activeE, i64 0, inrange i32 0, i64 2) to i32 (...)**), i32 (...)*** %1, align 8, !tbaa !8
  %message_ = getelementptr inbounds %"class.adept::stack_already_active", %"class.adept::stack_already_active"* %this, i64 0, i32 0, i32 0, i32 1
  %call = invoke nonnull align 8 dereferenceable(32) %"class.std::__cxx11::basic_string"* @_ZNSt7__cxx1112basic_stringIcSt11char_traitsIcESaIcEEaSERKS4_(%"class.std::__cxx11::basic_string"* nonnull dereferenceable(32) %message_, %"class.std::__cxx11::basic_string"* nonnull align 8 dereferenceable(32) %message)
          to label %invoke.cont unwind label %lpad

invoke.cont:                                      ; preds = %entry
  ret void

lpad:                                             ; preds = %entry
  %2 = landingpad { i8*, i32 }
          cleanup
  %3 = getelementptr inbounds %"class.adept::stack_already_active", %"class.adept::stack_already_active"* %this, i64 0, i32 0, i32 0
  call void @_ZN5adept9exceptionD2Ev(%"class.adept::exception"* nonnull dereferenceable(40) %3) #40
  resume { i8*, i32 } %2
}

; Function Attrs: norecurse nounwind readnone uwtable willreturn mustprogress
define dso_local i32 @_ZN5adept5Stack24set_max_jacobian_threadsEi(%"class.adept::Stack"* nocapture nonnull readnone dereferenceable(149) %this, i32 %n) local_unnamed_addr #9 align 2 {
entry:
  ret i32 1
}

; Function Attrs: norecurse nounwind readnone uwtable willreturn mustprogress
define dso_local i32 @_ZNK5adept5Stack20max_jacobian_threadsEv(%"class.adept::Stack"* nocapture nonnull readnone dereferenceable(149) %this) local_unnamed_addr #9 align 2 {
entry:
  ret i32 1
}

; Function Attrs: uwtable mustprogress
define dso_local void @_ZN5adept5Stack15compute_adjointEv(%"class.adept::Stack"* nonnull dereferenceable(149) %this) local_unnamed_addr #7 align 2 personality i8* bitcast (i32 (...)* @__gxx_personality_v0 to i8*) {
entry:
  %ref.tmp = alloca %"class.std::__cxx11::basic_string", align 8
  %ref.tmp28 = alloca %"class.std::allocator", align 1
  %call = call zeroext i1 @_ZNK5adept5Stack25gradients_are_initializedEv(%"class.adept::Stack"* nonnull dereferenceable(149) %this)
  br i1 %call, label %if.then, label %if.else

if.then:                                          ; preds = %entry
  %n_statements_ = getelementptr inbounds %"class.adept::Stack", %"class.adept::Stack"* %this, i64 0, i32 0, i32 3
  %0 = load i32, i32* %n_statements_, align 8, !tbaa !27
  %cmp53 = icmp sgt i32 %0, 1
  br i1 %cmp53, label %for.body.lr.ph, label %for.cond.cleanup

for.body.lr.ph:                                   ; preds = %if.then
  %statement_ = getelementptr inbounds %"class.adept::Stack", %"class.adept::Stack"* %this, i64 0, i32 0, i32 0
  %1 = load %"struct.adept::internal::Statement"*, %"struct.adept::internal::Statement"** %statement_, align 8, !tbaa !23
  %gradient_ = getelementptr inbounds %"class.adept::Stack", %"class.adept::Stack"* %this, i64 0, i32 1
  %2 = load double*, double** %gradient_, align 8, !tbaa !19
  %multiplier_ = getelementptr inbounds %"class.adept::Stack", %"class.adept::Stack"* %this, i64 0, i32 0, i32 1
  %index_ = getelementptr inbounds %"class.adept::Stack", %"class.adept::Stack"* %this, i64 0, i32 0, i32 2
  %3 = zext i32 %0 to i64
  %4 = sext i32 %0 to i64
  br label %for.body

for.cond.cleanup:                                 ; preds = %if.end, %if.then
  ret void

for.body:                                         ; preds = %if.end, %for.body.lr.ph
  %indvars.iv4 = phi i64 [ %indvars.iv.next5, %if.end ], [ %4, %for.body.lr.ph ]
  %indvars.iv56 = phi i64 [ %indvars.iv.next57, %if.end ], [ %3, %for.body.lr.ph ]
  %indvars.iv.next5 = add nsw i64 %indvars.iv4, -1
  %index = getelementptr inbounds %"struct.adept::internal::Statement", %"struct.adept::internal::Statement"* %1, i64 %indvars.iv.next5, i32 0
  %5 = load i32, i32* %index, align 4, !tbaa !28
  %idxprom2 = sext i32 %5 to i64
  %arrayidx3 = getelementptr inbounds double, double* %2, i64 %idxprom2
  %6 = load double, double* %arrayidx3, align 8, !tbaa !30
  store double 0.000000e+00, double* %arrayidx3, align 8, !tbaa !30
  %cmp8 = fcmp fast une double %6, 0.000000e+00
  br i1 %cmp8, label %if.then9, label %if.end

if.then9:                                         ; preds = %for.body
  %7 = add i64 %indvars.iv4, 4294967294
  %8 = and i64 %7, 4294967295
  %end_plus_one = getelementptr inbounds %"struct.adept::internal::Statement", %"struct.adept::internal::Statement"* %1, i64 %8, i32 1
  %9 = load i32, i32* %end_plus_one, align 4, !tbaa !32
  %end_plus_one15 = getelementptr inbounds %"struct.adept::internal::Statement", %"struct.adept::internal::Statement"* %1, i64 %indvars.iv.next5, i32 1
  %10 = load i32, i32* %end_plus_one15, align 4, !tbaa !32
  %cmp1650 = icmp slt i32 %9, %10
  br i1 %cmp1650, label %for.body18.lr.ph, label %if.end

for.body18.lr.ph:                                 ; preds = %if.then9
  %11 = load double*, double** %multiplier_, align 8, !tbaa !25
  %12 = load i32*, i32** %index_, align 8, !tbaa !26
  %13 = sext i32 %9 to i64
  %14 = sext i32 %10 to i64
  br label %for.body18

for.body18:                                       ; preds = %for.body18, %for.body18.lr.ph
  %indvars.iv = phi i64 [ %13, %for.body18.lr.ph ], [ %indvars.iv.next, %for.body18 ]
  %arrayidx20 = getelementptr inbounds double, double* %11, i64 %indvars.iv
  %15 = load double, double* %arrayidx20, align 8, !tbaa !30
  %mul = fmul fast double %15, %6
  %arrayidx23 = getelementptr inbounds i32, i32* %12, i64 %indvars.iv
  %16 = load i32, i32* %arrayidx23, align 4, !tbaa !33
  %idxprom24 = sext i32 %16 to i64
  %arrayidx25 = getelementptr inbounds double, double* %2, i64 %idxprom24
  %17 = load double, double* %arrayidx25, align 8, !tbaa !30
  %add = fadd fast double %17, %mul
  store double %add, double* %arrayidx25, align 8, !tbaa !30
  %indvars.iv.next = add nsw i64 %indvars.iv, 1
  %exitcond.not = icmp eq i64 %indvars.iv.next, %14
  br i1 %exitcond.not, label %if.end, label %for.body18, !llvm.loop !34

if.end:                                           ; preds = %for.body18, %if.then9, %for.body
  %cmp = icmp sgt i64 %indvars.iv56, 2
  %indvars.iv.next57 = add nsw i64 %indvars.iv56, -1
  br i1 %cmp, label %for.body, label %for.cond.cleanup, !llvm.loop !37

if.else:                                          ; preds = %entry
  %exception = call i8* @__cxa_allocate_exception(i64 40) #40
  %18 = bitcast %"class.std::__cxx11::basic_string"* %ref.tmp to i8*
  call void @llvm.lifetime.start.p0i8(i64 32, i8* nonnull %18) #40
  %19 = getelementptr inbounds %"class.std::allocator", %"class.std::allocator"* %ref.tmp28, i64 0, i32 0
  call void @llvm.lifetime.start.p0i8(i64 1, i8* nonnull %19) #40
  call void @_ZNSaIcEC2Ev(%"class.std::allocator"* nonnull dereferenceable(1) %ref.tmp28) #40
  invoke void @_ZNSt7__cxx1112basic_stringIcSt11char_traitsIcESaIcEEC2EPKcRKS3_(%"class.std::__cxx11::basic_string"* nonnull dereferenceable(32) %ref.tmp, i8* getelementptr inbounds ([107 x i8], [107 x i8]* @.str.27, i64 0, i64 0), %"class.std::allocator"* nonnull align 1 dereferenceable(1) %ref.tmp28)
          to label %invoke.cont unwind label %lpad

invoke.cont:                                      ; preds = %if.else
  %20 = bitcast i8* %exception to %"class.adept::gradients_not_initialized"*
  invoke void @_ZN5adept25gradients_not_initializedC2ERKNSt7__cxx1112basic_stringIcSt11char_traitsIcESaIcEEE(%"class.adept::gradients_not_initialized"* nonnull dereferenceable(40) %20, %"class.std::__cxx11::basic_string"* nonnull align 8 dereferenceable(32) %ref.tmp)
          to label %invoke.cont30 unwind label %lpad29

invoke.cont30:                                    ; preds = %invoke.cont
  invoke void @__cxa_throw(i8* %exception, i8* bitcast ({ i8*, i8*, i8* }* @_ZTIN5adept25gradients_not_initializedE to i8*), i8* bitcast (void (%"class.adept::exception"*)* @_ZN5adept9exceptionD2Ev to i8*)) #42
          to label %unreachable unwind label %lpad29

lpad:                                             ; preds = %if.else
  %21 = landingpad { i8*, i32 }
          cleanup
  br label %ehcleanup

lpad29:                                           ; preds = %invoke.cont30, %invoke.cont
  %cleanup.isactive.0 = phi i1 [ false, %invoke.cont30 ], [ true, %invoke.cont ]
  %22 = landingpad { i8*, i32 }
          cleanup
  call void @_ZNSt7__cxx1112basic_stringIcSt11char_traitsIcESaIcEED2Ev(%"class.std::__cxx11::basic_string"* nonnull dereferenceable(32) %ref.tmp) #40
  br label %ehcleanup

ehcleanup:                                        ; preds = %lpad29, %lpad
  %.pn = phi { i8*, i32 } [ %22, %lpad29 ], [ %21, %lpad ]
  %cleanup.isactive.1 = phi i1 [ %cleanup.isactive.0, %lpad29 ], [ true, %lpad ]
  call void @_ZNSaIcED2Ev(%"class.std::allocator"* nonnull dereferenceable(1) %ref.tmp28) #40
  call void @llvm.lifetime.end.p0i8(i64 1, i8* nonnull %19) #40
  call void @llvm.lifetime.end.p0i8(i64 32, i8* nonnull %18) #40
  br i1 %cleanup.isactive.1, label %cleanup.action, label %eh.resume

cleanup.action:                                   ; preds = %ehcleanup
  call void @__cxa_free_exception(i8* %exception) #40
  br label %eh.resume

eh.resume:                                        ; preds = %cleanup.action, %ehcleanup
  resume { i8*, i32 } %.pn

unreachable:                                      ; preds = %invoke.cont30
  unreachable
}

; Function Attrs: nounwind uwtable willreturn mustprogress
define linkonce_odr dso_local zeroext i1 @_ZNK5adept5Stack25gradients_are_initializedEv(%"class.adept::Stack"* nonnull dereferenceable(149) %this) local_unnamed_addr #10 comdat align 2 {
entry:
  %gradients_initialized_ = getelementptr inbounds %"class.adept::Stack", %"class.adept::Stack"* %this, i64 0, i32 10
  %0 = load i8, i8* %gradients_initialized_, align 8, !tbaa !38, !range !17
  %tobool = icmp ne i8 %0, 0
  ret i1 %tobool
}

; Function Attrs: uwtable
define linkonce_odr dso_local void @_ZN5adept25gradients_not_initializedC2ERKNSt7__cxx1112basic_stringIcSt11char_traitsIcESaIcEEE(%"class.adept::gradients_not_initialized"* nonnull dereferenceable(40) %this, %"class.std::__cxx11::basic_string"* nonnull align 8 dereferenceable(32) %message) unnamed_addr #0 comdat align 2 personality i8* bitcast (i32 (...)* @__gxx_personality_v0 to i8*) {
entry:
  %0 = getelementptr inbounds %"class.adept::gradients_not_initialized", %"class.adept::gradients_not_initialized"* %this, i64 0, i32 0
  call void @_ZN5adept18autodiff_exceptionC2Ev(%"class.adept::autodiff_exception"* nonnull dereferenceable(40) %0) #40
  %1 = getelementptr inbounds %"class.adept::gradients_not_initialized", %"class.adept::gradients_not_initialized"* %this, i64 0, i32 0, i32 0, i32 0, i32 0
  store i32 (...)** bitcast (i8** getelementptr inbounds ({ [5 x i8*] }, { [5 x i8*] }* @_ZTVN5adept25gradients_not_initializedE, i64 0, inrange i32 0, i64 2) to i32 (...)**), i32 (...)*** %1, align 8, !tbaa !8
  %message_ = getelementptr inbounds %"class.adept::gradients_not_initialized", %"class.adept::gradients_not_initialized"* %this, i64 0, i32 0, i32 0, i32 1
  %call = invoke nonnull align 8 dereferenceable(32) %"class.std::__cxx11::basic_string"* @_ZNSt7__cxx1112basic_stringIcSt11char_traitsIcESaIcEEaSERKS4_(%"class.std::__cxx11::basic_string"* nonnull dereferenceable(32) %message_, %"class.std::__cxx11::basic_string"* nonnull align 8 dereferenceable(32) %message)
          to label %invoke.cont unwind label %lpad

invoke.cont:                                      ; preds = %entry
  ret void

lpad:                                             ; preds = %entry
  %2 = landingpad { i8*, i32 }
          cleanup
  %3 = getelementptr inbounds %"class.adept::gradients_not_initialized", %"class.adept::gradients_not_initialized"* %this, i64 0, i32 0, i32 0
  call void @_ZN5adept9exceptionD2Ev(%"class.adept::exception"* nonnull dereferenceable(40) %3) #40
  resume { i8*, i32 } %2
}

; Function Attrs: uwtable mustprogress
define dso_local void @_ZN5adept5Stack22compute_tangent_linearEv(%"class.adept::Stack"* nonnull dereferenceable(149) %this) local_unnamed_addr #7 align 2 personality i8* bitcast (i32 (...)* @__gxx_personality_v0 to i8*) {
entry:
  %ref.tmp = alloca %"class.std::__cxx11::basic_string", align 8
  %ref.tmp22 = alloca %"class.std::allocator", align 1
  %call = call zeroext i1 @_ZNK5adept5Stack25gradients_are_initializedEv(%"class.adept::Stack"* nonnull dereferenceable(149) %this)
  br i1 %call, label %for.cond.preheader, label %if.else

for.cond.preheader:                               ; preds = %entry
  %n_statements_ = getelementptr inbounds %"class.adept::Stack", %"class.adept::Stack"* %this, i64 0, i32 0, i32 3
  %0 = load i32, i32* %n_statements_, align 8, !tbaa !27
  %cmp45 = icmp sgt i32 %0, 1
  br i1 %cmp45, label %for.body.lr.ph, label %for.cond.cleanup

for.body.lr.ph:                                   ; preds = %for.cond.preheader
  %statement_ = getelementptr inbounds %"class.adept::Stack", %"class.adept::Stack"* %this, i64 0, i32 0, i32 0
  %1 = load %"struct.adept::internal::Statement"*, %"struct.adept::internal::Statement"** %statement_, align 8, !tbaa !23
  %multiplier_ = getelementptr inbounds %"class.adept::Stack", %"class.adept::Stack"* %this, i64 0, i32 0, i32 1
  %gradient_ = getelementptr inbounds %"class.adept::Stack", %"class.adept::Stack"* %this, i64 0, i32 1
  %index_ = getelementptr inbounds %"class.adept::Stack", %"class.adept::Stack"* %this, i64 0, i32 0, i32 2
  %2 = load double*, double** %gradient_, align 8, !tbaa !19
  %wide.trip.count = zext i32 %0 to i64
  br label %for.body

for.cond.cleanup:                                 ; preds = %for.cond.cleanup8, %for.cond.preheader
  ret void

for.body:                                         ; preds = %for.cond.cleanup8, %for.body.lr.ph
  %indvars.iv47 = phi i64 [ 1, %for.body.lr.ph ], [ %indvars.iv.next48, %for.cond.cleanup8 ]
  %3 = add nsw i64 %indvars.iv47, -1
  %end_plus_one = getelementptr inbounds %"struct.adept::internal::Statement", %"struct.adept::internal::Statement"* %1, i64 %3, i32 1
  %4 = load i32, i32* %end_plus_one, align 4, !tbaa !32
  %end_plus_one6 = getelementptr inbounds %"struct.adept::internal::Statement", %"struct.adept::internal::Statement"* %1, i64 %indvars.iv47, i32 1
  %5 = load i32, i32* %end_plus_one6, align 4, !tbaa !32
  %cmp742 = icmp slt i32 %4, %5
  br i1 %cmp742, label %for.body9.lr.ph, label %for.cond.cleanup8

for.body9.lr.ph:                                  ; preds = %for.body
  %6 = load double*, double** %multiplier_, align 8, !tbaa !25
  %7 = load i32*, i32** %index_, align 8, !tbaa !26
  %8 = sext i32 %4 to i64
  %9 = sext i32 %5 to i64
  br label %for.body9

for.cond.cleanup8:                                ; preds = %for.body9, %for.body
  %a.0.lcssa = phi double [ 0.000000e+00, %for.body ], [ %add, %for.body9 ]
  %index = getelementptr inbounds %"struct.adept::internal::Statement", %"struct.adept::internal::Statement"* %1, i64 %indvars.iv47, i32 0
  %10 = load i32, i32* %index, align 4, !tbaa !28
  %idxprom17 = sext i32 %10 to i64
  %arrayidx18 = getelementptr inbounds double, double* %2, i64 %idxprom17
  store double %a.0.lcssa, double* %arrayidx18, align 8, !tbaa !30
  %indvars.iv.next48 = add nuw nsw i64 %indvars.iv47, 1
  %exitcond.not = icmp eq i64 %indvars.iv.next48, %wide.trip.count
  br i1 %exitcond.not, label %for.cond.cleanup, label %for.body, !llvm.loop !39

for.body9:                                        ; preds = %for.body9, %for.body9.lr.ph
  %indvars.iv = phi i64 [ %8, %for.body9.lr.ph ], [ %indvars.iv.next, %for.body9 ]
  %a.043 = phi double [ 0.000000e+00, %for.body9.lr.ph ], [ %add, %for.body9 ]
  %arrayidx11 = getelementptr inbounds double, double* %6, i64 %indvars.iv
  %11 = load double, double* %arrayidx11, align 8, !tbaa !30
  %arrayidx13 = getelementptr inbounds i32, i32* %7, i64 %indvars.iv
  %12 = load i32, i32* %arrayidx13, align 4, !tbaa !33
  %idxprom14 = sext i32 %12 to i64
  %arrayidx15 = getelementptr inbounds double, double* %2, i64 %idxprom14
  %13 = load double, double* %arrayidx15, align 8, !tbaa !30
  %mul = fmul fast double %13, %11
  %add = fadd fast double %mul, %a.043
  %indvars.iv.next = add nsw i64 %indvars.iv, 1
  %exitcond.not3 = icmp eq i64 %indvars.iv.next, %9
  br i1 %exitcond.not3, label %for.cond.cleanup8, label %for.body9, !llvm.loop !40

if.else:                                          ; preds = %entry
  %exception = call i8* @__cxa_allocate_exception(i64 40) #40
  %14 = bitcast %"class.std::__cxx11::basic_string"* %ref.tmp to i8*
  call void @llvm.lifetime.start.p0i8(i64 32, i8* nonnull %14) #40
  %15 = getelementptr inbounds %"class.std::allocator", %"class.std::allocator"* %ref.tmp22, i64 0, i32 0
  call void @llvm.lifetime.start.p0i8(i64 1, i8* nonnull %15) #40
  call void @_ZNSaIcEC2Ev(%"class.std::allocator"* nonnull dereferenceable(1) %ref.tmp22) #40
  invoke void @_ZNSt7__cxx1112basic_stringIcSt11char_traitsIcESaIcEEC2EPKcRKS3_(%"class.std::__cxx11::basic_string"* nonnull dereferenceable(32) %ref.tmp, i8* getelementptr inbounds ([107 x i8], [107 x i8]* @.str.27, i64 0, i64 0), %"class.std::allocator"* nonnull align 1 dereferenceable(1) %ref.tmp22)
          to label %invoke.cont unwind label %lpad

invoke.cont:                                      ; preds = %if.else
  %16 = bitcast i8* %exception to %"class.adept::gradients_not_initialized"*
  invoke void @_ZN5adept25gradients_not_initializedC2ERKNSt7__cxx1112basic_stringIcSt11char_traitsIcESaIcEEE(%"class.adept::gradients_not_initialized"* nonnull dereferenceable(40) %16, %"class.std::__cxx11::basic_string"* nonnull align 8 dereferenceable(32) %ref.tmp)
          to label %invoke.cont24 unwind label %lpad23

invoke.cont24:                                    ; preds = %invoke.cont
  invoke void @__cxa_throw(i8* %exception, i8* bitcast ({ i8*, i8*, i8* }* @_ZTIN5adept25gradients_not_initializedE to i8*), i8* bitcast (void (%"class.adept::exception"*)* @_ZN5adept9exceptionD2Ev to i8*)) #42
          to label %unreachable unwind label %lpad23

lpad:                                             ; preds = %if.else
  %17 = landingpad { i8*, i32 }
          cleanup
  br label %ehcleanup

lpad23:                                           ; preds = %invoke.cont24, %invoke.cont
  %cleanup.isactive.0 = phi i1 [ false, %invoke.cont24 ], [ true, %invoke.cont ]
  %18 = landingpad { i8*, i32 }
          cleanup
  call void @_ZNSt7__cxx1112basic_stringIcSt11char_traitsIcESaIcEED2Ev(%"class.std::__cxx11::basic_string"* nonnull dereferenceable(32) %ref.tmp) #40
  br label %ehcleanup

ehcleanup:                                        ; preds = %lpad23, %lpad
  %.pn = phi { i8*, i32 } [ %18, %lpad23 ], [ %17, %lpad ]
  %cleanup.isactive.1 = phi i1 [ %cleanup.isactive.0, %lpad23 ], [ true, %lpad ]
  call void @_ZNSaIcED2Ev(%"class.std::allocator"* nonnull dereferenceable(1) %ref.tmp22) #40
  call void @llvm.lifetime.end.p0i8(i64 1, i8* nonnull %15) #40
  call void @llvm.lifetime.end.p0i8(i64 32, i8* nonnull %14) #40
  br i1 %cleanup.isactive.1, label %cleanup.action, label %eh.resume

cleanup.action:                                   ; preds = %ehcleanup
  call void @__cxa_free_exception(i8* %exception) #40
  br label %eh.resume

eh.resume:                                        ; preds = %cleanup.action, %ehcleanup
  resume { i8*, i32 } %.pn

unreachable:                                      ; preds = %invoke.cont24
  unreachable
}

; Function Attrs: nounwind uwtable mustprogress
define dso_local i32 @_ZN5adept5Stack21do_register_gradientsERKi(%"class.adept::Stack"* nonnull dereferenceable(149) %this, i32* nocapture nonnull readonly align 4 dereferenceable(4) %n) local_unnamed_addr #11 align 2 {
entry:
  %it = alloca %"struct.std::_List_iterator", align 8
  %ref.tmp = alloca %"struct.std::_List_iterator", align 8
  %agg.tmp = alloca %"struct.std::_List_const_iterator", align 8
  %agg.tmp34 = alloca %"struct.std::_List_const_iterator", align 8
  %0 = load i32, i32* %n, align 4, !tbaa !33
  %n_gradients_registered_ = getelementptr inbounds %"class.adept::Stack", %"class.adept::Stack"* %this, i64 0, i32 9
  %1 = load i32, i32* %n_gradients_registered_, align 4, !tbaa !41
  %add = add nsw i32 %1, %0
  store i32 %add, i32* %n_gradients_registered_, align 4, !tbaa !41
  %gap_list_ = getelementptr inbounds %"class.adept::Stack", %"class.adept::Stack"* %this, i64 0, i32 4
  %call = call zeroext i1 @_ZNKSt7__cxx114listIN5adept3GapESaIS2_EE5emptyEv(%"class.std::__cxx11::list"* nonnull dereferenceable(24) %gap_list_) #40
  br i1 %call, label %if.end49, label %if.then

if.then:                                          ; preds = %entry
  %2 = bitcast %"struct.std::_List_iterator"* %it to i8*
  call void @llvm.lifetime.start.p0i8(i64 8, i8* nonnull %2) #40
  %call3 = call %"struct.std::__detail::_List_node_base"* @_ZNSt7__cxx114listIN5adept3GapESaIS2_EE5beginEv(%"class.std::__cxx11::list"* nonnull dereferenceable(24) %gap_list_) #40
  %coerce.dive = getelementptr inbounds %"struct.std::_List_iterator", %"struct.std::_List_iterator"* %it, i64 0, i32 0
  store %"struct.std::__detail::_List_node_base"* %call3, %"struct.std::__detail::_List_node_base"** %coerce.dive, align 8
  %3 = bitcast %"struct.std::_List_iterator"* %ref.tmp to i8*
  call void @llvm.lifetime.start.p0i8(i64 8, i8* nonnull %3) #40
  %call573 = call %"struct.std::__detail::_List_node_base"* @_ZNSt7__cxx114listIN5adept3GapESaIS2_EE3endEv(%"class.std::__cxx11::list"* nonnull dereferenceable(24) %gap_list_) #40
  %coerce.dive6 = getelementptr inbounds %"struct.std::_List_iterator", %"struct.std::_List_iterator"* %ref.tmp, i64 0, i32 0
  store %"struct.std::__detail::_List_node_base"* %call573, %"struct.std::__detail::_List_node_base"** %coerce.dive6, align 8
  %call774 = call zeroext i1 @_ZStneRKSt14_List_iteratorIN5adept3GapEES4_(%"struct.std::_List_iterator"* nonnull align 8 dereferenceable(8) %it, %"struct.std::_List_iterator"* nonnull align 8 dereferenceable(8) %ref.tmp) #40
  call void @llvm.lifetime.end.p0i8(i64 8, i8* nonnull %3) #40
  br i1 %call774, label %for.body.lr.ph, label %cleanup44

for.body.lr.ph:                                   ; preds = %if.then
  %most_recent_gap_ = getelementptr inbounds %"class.adept::Stack", %"class.adept::Stack"* %this, i64 0, i32 5
  %coerce.dive35 = getelementptr inbounds %"struct.std::_List_const_iterator", %"struct.std::_List_const_iterator"* %agg.tmp34, i64 0, i32 0
  %coerce.dive24 = getelementptr inbounds %"struct.std::_List_const_iterator", %"struct.std::_List_const_iterator"* %agg.tmp, i64 0, i32 0
  %ref.tmp27.sroa.0.0..sroa_idx = getelementptr inbounds %"class.adept::Stack", %"class.adept::Stack"* %this, i64 0, i32 5, i32 0
  br label %for.body

for.body:                                         ; preds = %for.inc, %for.body.lr.ph
  %retval.075 = phi i32 [ undef, %for.body.lr.ph ], [ %retval.1, %for.inc ]
  %call8 = call %"struct.adept::Gap"* @_ZNKSt14_List_iteratorIN5adept3GapEEptEv(%"struct.std::_List_iterator"* nonnull dereferenceable(8) %it) #40
  %end = getelementptr inbounds %"struct.adept::Gap", %"struct.adept::Gap"* %call8, i64 0, i32 1
  %4 = load i32, i32* %end, align 4, !tbaa !42
  %add9 = add nsw i32 %4, 1
  %call10 = call %"struct.adept::Gap"* @_ZNKSt14_List_iteratorIN5adept3GapEEptEv(%"struct.std::_List_iterator"* nonnull dereferenceable(8) %it) #40
  %start = getelementptr inbounds %"struct.adept::Gap", %"struct.adept::Gap"* %call10, i64 0, i32 0
  %5 = load i32, i32* %start, align 4, !tbaa !44
  %sub = sub i32 %add9, %5
  %6 = load i32, i32* %n, align 4, !tbaa !33
  %cmp = icmp sgt i32 %sub, %6
  br i1 %cmp, label %if.then11, label %if.else

if.then11:                                        ; preds = %for.body
  %call12 = call %"struct.adept::Gap"* @_ZNKSt14_List_iteratorIN5adept3GapEEptEv(%"struct.std::_List_iterator"* nonnull dereferenceable(8) %it) #40
  %start13 = getelementptr inbounds %"struct.adept::Gap", %"struct.adept::Gap"* %call12, i64 0, i32 0
  %7 = load i32, i32* %start13, align 4, !tbaa !44
  %8 = load i32, i32* %n, align 4, !tbaa !33
  %call14 = call %"struct.adept::Gap"* @_ZNKSt14_List_iteratorIN5adept3GapEEptEv(%"struct.std::_List_iterator"* nonnull dereferenceable(8) %it) #40
  %start15 = getelementptr inbounds %"struct.adept::Gap", %"struct.adept::Gap"* %call14, i64 0, i32 0
  %9 = load i32, i32* %start15, align 4, !tbaa !44
  %add16 = add nsw i32 %9, %8
  store i32 %add16, i32* %start15, align 4, !tbaa !44
  br label %cleanup

if.else:                                          ; preds = %for.body
  %cmp17 = icmp eq i32 %sub, %6
  br i1 %cmp17, label %if.then18, label %cleanup

if.then18:                                        ; preds = %if.else
  %call19 = call %"struct.adept::Gap"* @_ZNKSt14_List_iteratorIN5adept3GapEEptEv(%"struct.std::_List_iterator"* nonnull dereferenceable(8) %it) #40
  %start20 = getelementptr inbounds %"struct.adept::Gap", %"struct.adept::Gap"* %call19, i64 0, i32 0
  %10 = load i32, i32* %start20, align 4, !tbaa !44
  %call21 = call zeroext i1 @_ZSteqRKSt14_List_iteratorIN5adept3GapEES4_(%"struct.std::_List_iterator"* nonnull align 8 dereferenceable(8) %most_recent_gap_, %"struct.std::_List_iterator"* nonnull align 8 dereferenceable(8) %it) #40
  br i1 %call21, label %if.then22, label %if.else32

if.then22:                                        ; preds = %if.then18
  call void @_ZNSt20_List_const_iteratorIN5adept3GapEEC2ERKSt14_List_iteratorIS1_E(%"struct.std::_List_const_iterator"* nonnull dereferenceable(8) %agg.tmp, %"struct.std::_List_iterator"* nonnull align 8 dereferenceable(8) %it) #40
  %11 = load %"struct.std::__detail::_List_node_base"*, %"struct.std::__detail::_List_node_base"** %coerce.dive24, align 8
  %call25 = call %"struct.std::__detail::_List_node_base"* @_ZNSt7__cxx114listIN5adept3GapESaIS2_EE5eraseESt20_List_const_iteratorIS2_E(%"class.std::__cxx11::list"* nonnull dereferenceable(24) %gap_list_, %"struct.std::__detail::_List_node_base"* %11) #40
  %call29 = call %"struct.std::__detail::_List_node_base"* @_ZNSt7__cxx114listIN5adept3GapESaIS2_EE3endEv(%"class.std::__cxx11::list"* nonnull dereferenceable(24) %gap_list_) #40
  store %"struct.std::__detail::_List_node_base"* %call29, %"struct.std::__detail::_List_node_base"** %ref.tmp27.sroa.0.0..sroa_idx, align 8, !tbaa.struct !45
  br label %cleanup

if.else32:                                        ; preds = %if.then18
  call void @_ZNSt20_List_const_iteratorIN5adept3GapEEC2ERKSt14_List_iteratorIS1_E(%"struct.std::_List_const_iterator"* nonnull dereferenceable(8) %agg.tmp34, %"struct.std::_List_iterator"* nonnull align 8 dereferenceable(8) %it) #40
  %12 = load %"struct.std::__detail::_List_node_base"*, %"struct.std::__detail::_List_node_base"** %coerce.dive35, align 8
  %call36 = call %"struct.std::__detail::_List_node_base"* @_ZNSt7__cxx114listIN5adept3GapESaIS2_EE5eraseESt20_List_const_iteratorIS2_E(%"class.std::__cxx11::list"* nonnull dereferenceable(24) %gap_list_, %"struct.std::__detail::_List_node_base"* %12) #40
  br label %cleanup

cleanup:                                          ; preds = %if.else32, %if.then22, %if.else, %if.then11
  %cond59 = phi i1 [ false, %if.then11 ], [ false, %if.else32 ], [ false, %if.then22 ], [ true, %if.else ]
  %retval.1 = phi i32 [ %7, %if.then11 ], [ %10, %if.else32 ], [ %10, %if.then22 ], [ %retval.075, %if.else ]
  br i1 %cond59, label %for.inc, label %cleanup44.loopexit

for.inc:                                          ; preds = %cleanup
  %call41 = call %"struct.std::__detail::_List_node_base"* @_ZNSt14_List_iteratorIN5adept3GapEEppEi(%"struct.std::_List_iterator"* nonnull dereferenceable(8) %it, i32 0) #40
  call void @llvm.lifetime.start.p0i8(i64 8, i8* nonnull %3) #40
  %call5 = call %"struct.std::__detail::_List_node_base"* @_ZNSt7__cxx114listIN5adept3GapESaIS2_EE3endEv(%"class.std::__cxx11::list"* nonnull dereferenceable(24) %gap_list_) #40
  store %"struct.std::__detail::_List_node_base"* %call5, %"struct.std::__detail::_List_node_base"** %coerce.dive6, align 8
  %call7 = call zeroext i1 @_ZStneRKSt14_List_iteratorIN5adept3GapEES4_(%"struct.std::_List_iterator"* nonnull align 8 dereferenceable(8) %it, %"struct.std::_List_iterator"* nonnull align 8 dereferenceable(8) %ref.tmp) #40
  call void @llvm.lifetime.end.p0i8(i64 8, i8* nonnull %3) #40
  br i1 %call7, label %for.body, label %cleanup44.loopexit, !llvm.loop !46

cleanup44.loopexit:                               ; preds = %cleanup, %for.inc
  %13 = xor i1 %cond59, true
  br label %cleanup44

cleanup44:                                        ; preds = %cleanup44.loopexit, %if.then
  %call7.lcssa = phi i1 [ false, %if.then ], [ %13, %cleanup44.loopexit ]
  %retval.2 = phi i32 [ undef, %if.then ], [ %retval.1, %cleanup44.loopexit ]
  call void @llvm.lifetime.end.p0i8(i64 8, i8* nonnull %2) #40
  br i1 %call7.lcssa, label %return, label %if.end49

if.end49:                                         ; preds = %cleanup44, %entry
  %14 = load i32, i32* %n, align 4, !tbaa !33
  %i_gradient_ = getelementptr inbounds %"class.adept::Stack", %"class.adept::Stack"* %this, i64 0, i32 6
  %15 = load i32, i32* %i_gradient_, align 8, !tbaa !47
  %add50 = add nsw i32 %15, %14
  store i32 %add50, i32* %i_gradient_, align 8, !tbaa !47
  %max_gradient_ = getelementptr inbounds %"class.adept::Stack", %"class.adept::Stack"* %this, i64 0, i32 8
  %16 = load i32, i32* %max_gradient_, align 8, !tbaa !48
  %cmp52 = icmp sgt i32 %add50, %16
  br i1 %cmp52, label %if.then53, label %if.end56

if.then53:                                        ; preds = %if.end49
  store i32 %add50, i32* %max_gradient_, align 8, !tbaa !48
  br label %if.end56

if.end56:                                         ; preds = %if.then53, %if.end49
  %17 = load i32, i32* %n, align 4, !tbaa !33
  %sub58 = sub nsw i32 %add50, %17
  br label %return

return:                                           ; preds = %if.end56, %cleanup44
  %retval.3 = phi i32 [ %sub58, %if.end56 ], [ %retval.2, %cleanup44 ]
  ret i32 %retval.3
}

; Function Attrs: nounwind uwtable willreturn mustprogress
define linkonce_odr dso_local zeroext i1 @_ZNKSt7__cxx114listIN5adept3GapESaIS2_EE5emptyEv(%"class.std::__cxx11::list"* nonnull dereferenceable(24) %this) local_unnamed_addr #10 comdat align 2 {
entry:
  %0 = getelementptr inbounds %"class.std::__cxx11::list", %"class.std::__cxx11::list"* %this, i64 0, i32 0, i32 0, i32 0, i32 0
  %_M_next = getelementptr inbounds %"class.std::__cxx11::list", %"class.std::__cxx11::list"* %this, i64 0, i32 0, i32 0, i32 0, i32 0, i32 0
  %1 = load %"struct.std::__detail::_List_node_base"*, %"struct.std::__detail::_List_node_base"** %_M_next, align 8, !tbaa !49
  %cmp = icmp eq %"struct.std::__detail::_List_node_base"* %1, %0
  ret i1 %cmp
}

; Function Attrs: nounwind uwtable willreturn mustprogress
define linkonce_odr dso_local %"struct.std::__detail::_List_node_base"* @_ZNSt7__cxx114listIN5adept3GapESaIS2_EE5beginEv(%"class.std::__cxx11::list"* nonnull dereferenceable(24) %this) local_unnamed_addr #10 comdat align 2 {
entry:
  %retval = alloca %"struct.std::_List_iterator", align 8
  %_M_next = getelementptr inbounds %"class.std::__cxx11::list", %"class.std::__cxx11::list"* %this, i64 0, i32 0, i32 0, i32 0, i32 0, i32 0
  %0 = load %"struct.std::__detail::_List_node_base"*, %"struct.std::__detail::_List_node_base"** %_M_next, align 8, !tbaa !49
  call void @_ZNSt14_List_iteratorIN5adept3GapEEC2EPNSt8__detail15_List_node_baseE(%"struct.std::_List_iterator"* nonnull dereferenceable(8) %retval, %"struct.std::__detail::_List_node_base"* %0) #40
  %coerce.dive = getelementptr inbounds %"struct.std::_List_iterator", %"struct.std::_List_iterator"* %retval, i64 0, i32 0
  %1 = load %"struct.std::__detail::_List_node_base"*, %"struct.std::__detail::_List_node_base"** %coerce.dive, align 8
  ret %"struct.std::__detail::_List_node_base"* %1
}

; Function Attrs: nounwind uwtable willreturn mustprogress
define linkonce_odr dso_local zeroext i1 @_ZStneRKSt14_List_iteratorIN5adept3GapEES4_(%"struct.std::_List_iterator"* nonnull align 8 dereferenceable(8) %__x, %"struct.std::_List_iterator"* nonnull align 8 dereferenceable(8) %__y) local_unnamed_addr #10 comdat {
entry:
  %_M_node = getelementptr inbounds %"struct.std::_List_iterator", %"struct.std::_List_iterator"* %__x, i64 0, i32 0
  %0 = load %"struct.std::__detail::_List_node_base"*, %"struct.std::__detail::_List_node_base"** %_M_node, align 8, !tbaa !51
  %_M_node1 = getelementptr inbounds %"struct.std::_List_iterator", %"struct.std::_List_iterator"* %__y, i64 0, i32 0
  %1 = load %"struct.std::__detail::_List_node_base"*, %"struct.std::__detail::_List_node_base"** %_M_node1, align 8, !tbaa !51
  %cmp = icmp ne %"struct.std::__detail::_List_node_base"* %0, %1
  ret i1 %cmp
}

; Function Attrs: nounwind uwtable willreturn mustprogress
define linkonce_odr dso_local %"struct.std::__detail::_List_node_base"* @_ZNSt7__cxx114listIN5adept3GapESaIS2_EE3endEv(%"class.std::__cxx11::list"* nonnull dereferenceable(24) %this) local_unnamed_addr #10 comdat align 2 {
entry:
  %retval = alloca %"struct.std::_List_iterator", align 8
  %0 = getelementptr inbounds %"class.std::__cxx11::list", %"class.std::__cxx11::list"* %this, i64 0, i32 0, i32 0, i32 0, i32 0
  call void @_ZNSt14_List_iteratorIN5adept3GapEEC2EPNSt8__detail15_List_node_baseE(%"struct.std::_List_iterator"* nonnull dereferenceable(8) %retval, %"struct.std::__detail::_List_node_base"* nonnull %0) #40
  %coerce.dive = getelementptr inbounds %"struct.std::_List_iterator", %"struct.std::_List_iterator"* %retval, i64 0, i32 0
  %1 = load %"struct.std::__detail::_List_node_base"*, %"struct.std::__detail::_List_node_base"** %coerce.dive, align 8
  ret %"struct.std::__detail::_List_node_base"* %1
}

; Function Attrs: nounwind uwtable willreturn mustprogress
define linkonce_odr dso_local %"struct.adept::Gap"* @_ZNKSt14_List_iteratorIN5adept3GapEEptEv(%"struct.std::_List_iterator"* nonnull dereferenceable(8) %this) local_unnamed_addr #10 comdat align 2 {
entry:
  %0 = bitcast %"struct.std::_List_iterator"* %this to %"struct.std::_List_node"**
  %1 = load %"struct.std::_List_node"*, %"struct.std::_List_node"** %0, align 8, !tbaa !51
  %call = call %"struct.adept::Gap"* @_ZNSt10_List_nodeIN5adept3GapEE9_M_valptrEv(%"struct.std::_List_node"* nonnull dereferenceable(24) %1)
  ret %"struct.adept::Gap"* %call
}

; Function Attrs: nounwind uwtable willreturn mustprogress
define linkonce_odr dso_local zeroext i1 @_ZSteqRKSt14_List_iteratorIN5adept3GapEES4_(%"struct.std::_List_iterator"* nonnull align 8 dereferenceable(8) %__x, %"struct.std::_List_iterator"* nonnull align 8 dereferenceable(8) %__y) local_unnamed_addr #10 comdat {
entry:
  %_M_node = getelementptr inbounds %"struct.std::_List_iterator", %"struct.std::_List_iterator"* %__x, i64 0, i32 0
  %0 = load %"struct.std::__detail::_List_node_base"*, %"struct.std::__detail::_List_node_base"** %_M_node, align 8, !tbaa !51
  %_M_node1 = getelementptr inbounds %"struct.std::_List_iterator", %"struct.std::_List_iterator"* %__y, i64 0, i32 0
  %1 = load %"struct.std::__detail::_List_node_base"*, %"struct.std::__detail::_List_node_base"** %_M_node1, align 8, !tbaa !51
  %cmp = icmp eq %"struct.std::__detail::_List_node_base"* %0, %1
  ret i1 %cmp
}

; Function Attrs: nounwind uwtable mustprogress
define linkonce_odr dso_local %"struct.std::__detail::_List_node_base"* @_ZNSt7__cxx114listIN5adept3GapESaIS2_EE5eraseESt20_List_const_iteratorIS2_E(%"class.std::__cxx11::list"* nonnull dereferenceable(24) %this, %"struct.std::__detail::_List_node_base"* %__position.coerce) local_unnamed_addr #11 comdat align 2 {
entry:
  %retval = alloca %"struct.std::_List_iterator", align 8
  %__position = alloca %"struct.std::_List_const_iterator", align 8
  %coerce.dive = getelementptr inbounds %"struct.std::_List_const_iterator", %"struct.std::_List_const_iterator"* %__position, i64 0, i32 0
  store %"struct.std::__detail::_List_node_base"* %__position.coerce, %"struct.std::__detail::_List_node_base"** %coerce.dive, align 8
  %_M_next = getelementptr inbounds %"struct.std::__detail::_List_node_base", %"struct.std::__detail::_List_node_base"* %__position.coerce, i64 0, i32 0
  %0 = load %"struct.std::__detail::_List_node_base"*, %"struct.std::__detail::_List_node_base"** %_M_next, align 8, !tbaa !49
  call void @_ZNSt14_List_iteratorIN5adept3GapEEC2EPNSt8__detail15_List_node_baseE(%"struct.std::_List_iterator"* nonnull dereferenceable(8) %retval, %"struct.std::__detail::_List_node_base"* %0) #40
  %call = call %"struct.std::__detail::_List_node_base"* @_ZNKSt20_List_const_iteratorIN5adept3GapEE13_M_const_castEv(%"struct.std::_List_const_iterator"* nonnull dereferenceable(8) %__position) #40
  call void @_ZNSt7__cxx114listIN5adept3GapESaIS2_EE8_M_eraseESt14_List_iteratorIS2_E(%"class.std::__cxx11::list"* nonnull dereferenceable(24) %this, %"struct.std::__detail::_List_node_base"* %call) #40
  %coerce.dive4 = getelementptr inbounds %"struct.std::_List_iterator", %"struct.std::_List_iterator"* %retval, i64 0, i32 0
  %1 = load %"struct.std::__detail::_List_node_base"*, %"struct.std::__detail::_List_node_base"** %coerce.dive4, align 8
  ret %"struct.std::__detail::_List_node_base"* %1
}

; Function Attrs: nounwind uwtable willreturn
define linkonce_odr dso_local void @_ZNSt20_List_const_iteratorIN5adept3GapEEC2ERKSt14_List_iteratorIS1_E(%"struct.std::_List_const_iterator"* nonnull dereferenceable(8) %this, %"struct.std::_List_iterator"* nonnull align 8 dereferenceable(8) %__x) unnamed_addr #5 comdat align 2 {
entry:
  %_M_node = getelementptr inbounds %"struct.std::_List_const_iterator", %"struct.std::_List_const_iterator"* %this, i64 0, i32 0
  %_M_node2 = getelementptr inbounds %"struct.std::_List_iterator", %"struct.std::_List_iterator"* %__x, i64 0, i32 0
  %0 = load %"struct.std::__detail::_List_node_base"*, %"struct.std::__detail::_List_node_base"** %_M_node2, align 8, !tbaa !51
  store %"struct.std::__detail::_List_node_base"* %0, %"struct.std::__detail::_List_node_base"** %_M_node, align 8, !tbaa !52
  ret void
}

; Function Attrs: argmemonly nofree nosync nounwind willreturn
declare void @llvm.memcpy.p0i8.p0i8.i64(i8* noalias nocapture writeonly, i8* noalias nocapture readonly, i64, i1 immarg) #4

; Function Attrs: nounwind uwtable willreturn mustprogress
define linkonce_odr dso_local %"struct.std::__detail::_List_node_base"* @_ZNSt14_List_iteratorIN5adept3GapEEppEi(%"struct.std::_List_iterator"* nonnull dereferenceable(8) %this, i32 %0) local_unnamed_addr #10 comdat align 2 {
entry:
  %retval.sroa.0.0..sroa_idx = getelementptr inbounds %"struct.std::_List_iterator", %"struct.std::_List_iterator"* %this, i64 0, i32 0
  %retval.sroa.0.0.copyload = load %"struct.std::__detail::_List_node_base"*, %"struct.std::__detail::_List_node_base"** %retval.sroa.0.0..sroa_idx, align 8
  %_M_next = getelementptr inbounds %"struct.std::__detail::_List_node_base", %"struct.std::__detail::_List_node_base"* %retval.sroa.0.0.copyload, i64 0, i32 0
  %1 = load %"struct.std::__detail::_List_node_base"*, %"struct.std::__detail::_List_node_base"** %_M_next, align 8, !tbaa !49
  store %"struct.std::__detail::_List_node_base"* %1, %"struct.std::__detail::_List_node_base"** %retval.sroa.0.0..sroa_idx, align 8, !tbaa !51
  ret %"struct.std::__detail::_List_node_base"* %retval.sroa.0.0.copyload
}

; Function Attrs: uwtable mustprogress
define dso_local void @_ZN5adept5Stack27unregister_gradient_not_topERKi(%"class.adept::Stack"* nonnull dereferenceable(149) %this, i32* nocapture nonnull readonly align 4 dereferenceable(4) %gradient_index) local_unnamed_addr #7 align 2 {
entry:
  %ref.tmp = alloca %"struct.std::_List_iterator", align 8
  %it = alloca %"struct.std::_List_iterator", align 8
  %ref.tmp19 = alloca %"struct.std::_List_iterator", align 8
  %agg.tmp = alloca %"struct.std::_List_const_iterator", align 8
  %ref.tmp51 = alloca %"struct.adept::Gap", align 4
  %ref.tmp64 = alloca %"struct.adept::Gap", align 4
  %ref.tmp79 = alloca %"struct.std::_List_iterator", align 8
  %it86 = alloca %"struct.std::_List_iterator", align 8
  %agg.tmp105 = alloca %"struct.std::_List_const_iterator", align 8
  %it114 = alloca %"struct.std::_List_iterator", align 8
  %ref.tmp119 = alloca %"struct.std::_List_iterator", align 8
  %agg.tmp140 = alloca %"struct.std::_List_const_iterator", align 8
  %gap_list_ = getelementptr inbounds %"class.adept::Stack", %"class.adept::Stack"* %this, i64 0, i32 4
  %call = call zeroext i1 @_ZNKSt7__cxx114listIN5adept3GapESaIS2_EE5emptyEv(%"class.std::__cxx11::list"* nonnull dereferenceable(24) %gap_list_) #40
  %0 = bitcast %"struct.std::_List_iterator"* %ref.tmp to i8*
  call void @llvm.lifetime.start.p0i8(i64 8, i8* nonnull %0) #40
  br i1 %call, label %if.end13.critedge, label %land.rhs

land.rhs:                                         ; preds = %entry
  %most_recent_gap_ = getelementptr inbounds %"class.adept::Stack", %"class.adept::Stack"* %this, i64 0, i32 5
  %call3 = call %"struct.std::__detail::_List_node_base"* @_ZNSt7__cxx114listIN5adept3GapESaIS2_EE3endEv(%"class.std::__cxx11::list"* nonnull dereferenceable(24) %gap_list_) #40
  %coerce.dive = getelementptr inbounds %"struct.std::_List_iterator", %"struct.std::_List_iterator"* %ref.tmp, i64 0, i32 0
  store %"struct.std::__detail::_List_node_base"* %call3, %"struct.std::__detail::_List_node_base"** %coerce.dive, align 8
  %call4 = call zeroext i1 @_ZStneRKSt14_List_iteratorIN5adept3GapEES4_(%"struct.std::_List_iterator"* nonnull align 8 dereferenceable(8) %most_recent_gap_, %"struct.std::_List_iterator"* nonnull align 8 dereferenceable(8) %ref.tmp) #40
  call void @llvm.lifetime.end.p0i8(i64 8, i8* nonnull %0) #40
  br i1 %call4, label %if.then, label %if.end13

if.then:                                          ; preds = %land.rhs
  %call6 = call nonnull align 4 dereferenceable(8) %"struct.adept::Gap"* @_ZNKSt14_List_iteratorIN5adept3GapEEdeEv(%"struct.std::_List_iterator"* nonnull dereferenceable(8) %most_recent_gap_) #40
  %1 = load i32, i32* %gradient_index, align 4, !tbaa !33
  %start = getelementptr inbounds %"struct.adept::Gap", %"struct.adept::Gap"* %call6, i64 0, i32 0
  %2 = load i32, i32* %start, align 4, !tbaa !44
  %sub = add nsw i32 %2, -1
  %cmp = icmp eq i32 %1, %sub
  br i1 %cmp, label %if.then7, label %if.else

if.then7:                                         ; preds = %if.then
  store i32 %sub, i32* %start, align 4, !tbaa !44
  br label %if.end13

if.else:                                          ; preds = %if.then
  %end = getelementptr inbounds %"struct.adept::Gap", %"struct.adept::Gap"* %call6, i64 0, i32 1
  %3 = load i32, i32* %end, align 4, !tbaa !42
  %add = add nsw i32 %3, 1
  %cmp9 = icmp eq i32 %1, %add
  br i1 %cmp9, label %if.then10, label %if.end13

if.then10:                                        ; preds = %if.else
  store i32 %add, i32* %end, align 4, !tbaa !42
  br label %if.end13

if.end13.critedge:                                ; preds = %entry
  call void @llvm.lifetime.end.p0i8(i64 8, i8* nonnull %0) #40
  br label %if.end13

if.end13:                                         ; preds = %if.end13.critedge, %if.then10, %if.else, %if.then7, %land.rhs
  %cmp14 = phi i1 [ false, %if.then7 ], [ false, %if.then10 ], [ true, %if.else ], [ true, %if.end13.critedge ], [ true, %land.rhs ]
  %status.1 = phi i32 [ 0, %if.then7 ], [ 1, %if.then10 ], [ 3, %if.else ], [ 3, %if.end13.critedge ], [ 3, %land.rhs ]
  br i1 %cmp14, label %if.then15, label %if.end75

if.then15:                                        ; preds = %if.end13
  %4 = bitcast %"struct.std::_List_iterator"* %it to i8*
  call void @llvm.lifetime.start.p0i8(i64 8, i8* nonnull %4) #40
  %call17 = call %"struct.std::__detail::_List_node_base"* @_ZNSt7__cxx114listIN5adept3GapESaIS2_EE5beginEv(%"class.std::__cxx11::list"* nonnull dereferenceable(24) %gap_list_) #40
  %coerce.dive18 = getelementptr inbounds %"struct.std::_List_iterator", %"struct.std::_List_iterator"* %it, i64 0, i32 0
  store %"struct.std::__detail::_List_node_base"* %call17, %"struct.std::__detail::_List_node_base"** %coerce.dive18, align 8
  %5 = bitcast %"struct.std::_List_iterator"* %ref.tmp19 to i8*
  call void @llvm.lifetime.start.p0i8(i64 8, i8* nonnull %5) #40
  %call21164 = call %"struct.std::__detail::_List_node_base"* @_ZNSt7__cxx114listIN5adept3GapESaIS2_EE3endEv(%"class.std::__cxx11::list"* nonnull dereferenceable(24) %gap_list_) #40
  %coerce.dive22 = getelementptr inbounds %"struct.std::_List_iterator", %"struct.std::_List_iterator"* %ref.tmp19, i64 0, i32 0
  store %"struct.std::__detail::_List_node_base"* %call21164, %"struct.std::__detail::_List_node_base"** %coerce.dive22, align 8
  %call23165 = call zeroext i1 @_ZStneRKSt14_List_iteratorIN5adept3GapEES4_(%"struct.std::_List_iterator"* nonnull align 8 dereferenceable(8) %it, %"struct.std::_List_iterator"* nonnull align 8 dereferenceable(8) %ref.tmp19) #40
  call void @llvm.lifetime.end.p0i8(i64 8, i8* nonnull %5) #40
  br i1 %call23165, label %for.body, label %cleanup

for.body:                                         ; preds = %if.then15, %for.inc
  %6 = load i32, i32* %gradient_index, align 4, !tbaa !33
  %call24 = call %"struct.adept::Gap"* @_ZNKSt14_List_iteratorIN5adept3GapEEptEv(%"struct.std::_List_iterator"* nonnull dereferenceable(8) %it) #40
  %end25 = getelementptr inbounds %"struct.adept::Gap", %"struct.adept::Gap"* %call24, i64 0, i32 1
  %7 = load i32, i32* %end25, align 4, !tbaa !42
  %add26 = add nsw i32 %7, 1
  %cmp27.not = icmp sgt i32 %6, %add26
  br i1 %cmp27.not, label %for.inc, label %if.then28

if.then28:                                        ; preds = %for.body
  %8 = load i32, i32* %gradient_index, align 4, !tbaa !33
  %call29 = call %"struct.adept::Gap"* @_ZNKSt14_List_iteratorIN5adept3GapEEptEv(%"struct.std::_List_iterator"* nonnull dereferenceable(8) %it) #40
  %start30 = getelementptr inbounds %"struct.adept::Gap", %"struct.adept::Gap"* %call29, i64 0, i32 0
  %9 = load i32, i32* %start30, align 4, !tbaa !44
  %sub31 = add nsw i32 %9, -1
  %cmp32 = icmp eq i32 %8, %sub31
  br i1 %cmp32, label %if.then33, label %if.else38

if.then33:                                        ; preds = %if.then28
  %call34 = call %"struct.adept::Gap"* @_ZNKSt14_List_iteratorIN5adept3GapEEptEv(%"struct.std::_List_iterator"* nonnull dereferenceable(8) %it) #40
  %start35 = getelementptr inbounds %"struct.adept::Gap", %"struct.adept::Gap"* %call34, i64 0, i32 0
  %10 = load i32, i32* %start35, align 4, !tbaa !44
  %dec36 = add nsw i32 %10, -1
  store i32 %dec36, i32* %start35, align 4, !tbaa !44
  %most_recent_gap_37 = getelementptr inbounds %"class.adept::Stack", %"class.adept::Stack"* %this, i64 0, i32 5
  %11 = bitcast %"struct.std::_List_iterator"* %it to i64*
  %12 = bitcast %"struct.std::_List_iterator"* %most_recent_gap_37 to i64*
  %13 = load i64, i64* %11, align 8, !tbaa !18
  store i64 %13, i64* %12, align 8, !tbaa !18
  br label %cleanup

if.else38:                                        ; preds = %if.then28
  %14 = load i32, i32* %gradient_index, align 4, !tbaa !33
  %call39 = call %"struct.adept::Gap"* @_ZNKSt14_List_iteratorIN5adept3GapEEptEv(%"struct.std::_List_iterator"* nonnull dereferenceable(8) %it) #40
  %end40 = getelementptr inbounds %"struct.adept::Gap", %"struct.adept::Gap"* %call39, i64 0, i32 1
  %15 = load i32, i32* %end40, align 4, !tbaa !42
  %add41 = add nsw i32 %15, 1
  %cmp42 = icmp eq i32 %14, %add41
  br i1 %cmp42, label %if.then43, label %if.else48

if.then43:                                        ; preds = %if.else38
  %call44 = call %"struct.adept::Gap"* @_ZNKSt14_List_iteratorIN5adept3GapEEptEv(%"struct.std::_List_iterator"* nonnull dereferenceable(8) %it) #40
  %end45 = getelementptr inbounds %"struct.adept::Gap", %"struct.adept::Gap"* %call44, i64 0, i32 1
  %16 = load i32, i32* %end45, align 4, !tbaa !42
  %inc46 = add nsw i32 %16, 1
  store i32 %inc46, i32* %end45, align 4, !tbaa !42
  %most_recent_gap_47 = getelementptr inbounds %"class.adept::Stack", %"class.adept::Stack"* %this, i64 0, i32 5
  %17 = bitcast %"struct.std::_List_iterator"* %it to i64*
  %18 = bitcast %"struct.std::_List_iterator"* %most_recent_gap_47 to i64*
  %19 = load i64, i64* %17, align 8, !tbaa !18
  store i64 %19, i64* %18, align 8, !tbaa !18
  br label %cleanup

if.else48:                                        ; preds = %if.else38
  call void @_ZNSt20_List_const_iteratorIN5adept3GapEEC2ERKSt14_List_iteratorIS1_E(%"struct.std::_List_const_iterator"* nonnull dereferenceable(8) %agg.tmp, %"struct.std::_List_iterator"* nonnull align 8 dereferenceable(8) %it) #40
  %20 = bitcast %"struct.adept::Gap"* %ref.tmp51 to i8*
  call void @llvm.lifetime.start.p0i8(i64 8, i8* nonnull %20) #40
  %21 = load i32, i32* %gradient_index, align 4, !tbaa !33
  call void @_ZN5adept3GapC2Ei(%"struct.adept::Gap"* nonnull dereferenceable(8) %ref.tmp51, i32 %21)
  %coerce.dive52 = getelementptr inbounds %"struct.std::_List_const_iterator", %"struct.std::_List_const_iterator"* %agg.tmp, i64 0, i32 0
  %22 = load %"struct.std::__detail::_List_node_base"*, %"struct.std::__detail::_List_node_base"** %coerce.dive52, align 8
  %call53 = call %"struct.std::__detail::_List_node_base"* @_ZNSt7__cxx114listIN5adept3GapESaIS2_EE6insertESt20_List_const_iteratorIS2_EOS2_(%"class.std::__cxx11::list"* nonnull dereferenceable(24) %gap_list_, %"struct.std::__detail::_List_node_base"* %22, %"struct.adept::Gap"* nonnull align 4 dereferenceable(8) %ref.tmp51)
  %ref.tmp49.sroa.0.0..sroa_idx = getelementptr inbounds %"class.adept::Stack", %"class.adept::Stack"* %this, i64 0, i32 5, i32 0
  store %"struct.std::__detail::_List_node_base"* %call53, %"struct.std::__detail::_List_node_base"** %ref.tmp49.sroa.0.0..sroa_idx, align 8, !tbaa.struct !45
  call void @llvm.lifetime.end.p0i8(i64 8, i8* nonnull %20) #40
  br label %cleanup

for.inc:                                          ; preds = %for.body
  %call59 = call %"struct.std::__detail::_List_node_base"* @_ZNSt14_List_iteratorIN5adept3GapEEppEi(%"struct.std::_List_iterator"* nonnull dereferenceable(8) %it, i32 0) #40
  call void @llvm.lifetime.start.p0i8(i64 8, i8* nonnull %5) #40
  %call21 = call %"struct.std::__detail::_List_node_base"* @_ZNSt7__cxx114listIN5adept3GapESaIS2_EE3endEv(%"class.std::__cxx11::list"* nonnull dereferenceable(24) %gap_list_) #40
  store %"struct.std::__detail::_List_node_base"* %call21, %"struct.std::__detail::_List_node_base"** %coerce.dive22, align 8
  %call23 = call zeroext i1 @_ZStneRKSt14_List_iteratorIN5adept3GapEES4_(%"struct.std::_List_iterator"* nonnull align 8 dereferenceable(8) %it, %"struct.std::_List_iterator"* nonnull align 8 dereferenceable(8) %ref.tmp19) #40
  call void @llvm.lifetime.end.p0i8(i64 8, i8* nonnull %5) #40
  br i1 %call23, label %for.body, label %cleanup, !llvm.loop !54

cleanup:                                          ; preds = %for.inc, %if.else48, %if.then43, %if.then33, %if.then15
  %cmp61 = phi i1 [ false, %if.then33 ], [ false, %if.else48 ], [ false, %if.then43 ], [ true, %if.then15 ], [ true, %for.inc ]
  %status.3 = phi i32 [ 0, %if.then33 ], [ 2, %if.else48 ], [ 1, %if.then43 ], [ 3, %if.then15 ], [ 3, %for.inc ]
  call void @llvm.lifetime.end.p0i8(i64 8, i8* nonnull %4) #40
  br i1 %cmp61, label %if.then62, label %if.end75

if.then62:                                        ; preds = %cleanup
  %23 = bitcast %"struct.adept::Gap"* %ref.tmp64 to i8*
  call void @llvm.lifetime.start.p0i8(i64 8, i8* nonnull %23) #40
  %24 = load i32, i32* %gradient_index, align 4, !tbaa !33
  call void @_ZN5adept3GapC2Ei(%"struct.adept::Gap"* nonnull dereferenceable(8) %ref.tmp64, i32 %24)
  call void @_ZNSt7__cxx114listIN5adept3GapESaIS2_EE9push_backEOS2_(%"class.std::__cxx11::list"* nonnull dereferenceable(24) %gap_list_, %"struct.adept::Gap"* nonnull align 4 dereferenceable(8) %ref.tmp64)
  call void @llvm.lifetime.end.p0i8(i64 8, i8* nonnull %23) #40
  %call67 = call %"struct.std::__detail::_List_node_base"* @_ZNSt7__cxx114listIN5adept3GapESaIS2_EE3endEv(%"class.std::__cxx11::list"* nonnull dereferenceable(24) %gap_list_) #40
  %ref.tmp65.sroa.0.0..sroa_idx = getelementptr inbounds %"class.adept::Stack", %"class.adept::Stack"* %this, i64 0, i32 5, i32 0
  store %"struct.std::__detail::_List_node_base"* %call67, %"struct.std::__detail::_List_node_base"** %ref.tmp65.sroa.0.0..sroa_idx, align 8, !tbaa.struct !45
  %most_recent_gap_70 = getelementptr inbounds %"class.adept::Stack", %"class.adept::Stack"* %this, i64 0, i32 5
  %call71 = call %"struct.std::__detail::_List_node_base"* @_ZNSt14_List_iteratorIN5adept3GapEEmmEi(%"struct.std::_List_iterator"* nonnull dereferenceable(8) %most_recent_gap_70, i32 0) #40
  br label %if.end75

if.end75:                                         ; preds = %if.then62, %cleanup, %if.end13
  %status.4 = phi i32 [ 3, %if.then62 ], [ %status.3, %cleanup ], [ %status.1, %if.end13 ]
  %cmp76 = icmp eq i32 %status.4, 0
  %25 = bitcast %"struct.std::_List_iterator"* %ref.tmp79 to i8*
  call void @llvm.lifetime.start.p0i8(i64 8, i8* nonnull %25) #40
  br i1 %cmp76, label %land.rhs77, label %if.else111.critedge

land.rhs77:                                       ; preds = %if.end75
  %most_recent_gap_78 = getelementptr inbounds %"class.adept::Stack", %"class.adept::Stack"* %this, i64 0, i32 5
  %call81 = call %"struct.std::__detail::_List_node_base"* @_ZNSt7__cxx114listIN5adept3GapESaIS2_EE5beginEv(%"class.std::__cxx11::list"* nonnull dereferenceable(24) %gap_list_) #40
  %coerce.dive82 = getelementptr inbounds %"struct.std::_List_iterator", %"struct.std::_List_iterator"* %ref.tmp79, i64 0, i32 0
  store %"struct.std::__detail::_List_node_base"* %call81, %"struct.std::__detail::_List_node_base"** %coerce.dive82, align 8
  %call83 = call zeroext i1 @_ZStneRKSt14_List_iteratorIN5adept3GapEES4_(%"struct.std::_List_iterator"* nonnull align 8 dereferenceable(8) %most_recent_gap_78, %"struct.std::_List_iterator"* nonnull align 8 dereferenceable(8) %ref.tmp79) #40
  call void @llvm.lifetime.end.p0i8(i64 8, i8* nonnull %25) #40
  br i1 %call83, label %if.then85, label %if.else111

if.then85:                                        ; preds = %land.rhs77
  %26 = bitcast %"struct.std::_List_iterator"* %it86 to i8*
  call void @llvm.lifetime.start.p0i8(i64 8, i8* nonnull %26) #40
  %27 = bitcast %"struct.std::_List_iterator"* %most_recent_gap_78 to i64*
  %28 = bitcast %"struct.std::_List_iterator"* %it86 to i64*
  %29 = load i64, i64* %27, align 8, !tbaa !18
  store i64 %29, i64* %28, align 8, !tbaa !18
  %call88 = call %"struct.std::__detail::_List_node_base"* @_ZNSt14_List_iteratorIN5adept3GapEEmmEi(%"struct.std::_List_iterator"* nonnull dereferenceable(8) %it86, i32 0) #40
  %call91 = call %"struct.adept::Gap"* @_ZNKSt14_List_iteratorIN5adept3GapEEptEv(%"struct.std::_List_iterator"* nonnull dereferenceable(8) %it86) #40
  %end92 = getelementptr inbounds %"struct.adept::Gap", %"struct.adept::Gap"* %call91, i64 0, i32 1
  %30 = load i32, i32* %end92, align 4, !tbaa !42
  %call94 = call %"struct.adept::Gap"* @_ZNKSt14_List_iteratorIN5adept3GapEEptEv(%"struct.std::_List_iterator"* nonnull dereferenceable(8) %most_recent_gap_78) #40
  %start95 = getelementptr inbounds %"struct.adept::Gap", %"struct.adept::Gap"* %call94, i64 0, i32 0
  %31 = load i32, i32* %start95, align 4, !tbaa !44
  %sub96 = add nsw i32 %31, -1
  %cmp97 = icmp eq i32 %30, %sub96
  br i1 %cmp97, label %if.then98, label %if.end110

if.then98:                                        ; preds = %if.then85
  %call99 = call %"struct.adept::Gap"* @_ZNKSt14_List_iteratorIN5adept3GapEEptEv(%"struct.std::_List_iterator"* nonnull dereferenceable(8) %it86) #40
  %start100 = getelementptr inbounds %"struct.adept::Gap", %"struct.adept::Gap"* %call99, i64 0, i32 0
  %32 = load i32, i32* %start100, align 4, !tbaa !44
  %call102 = call %"struct.adept::Gap"* @_ZNKSt14_List_iteratorIN5adept3GapEEptEv(%"struct.std::_List_iterator"* nonnull dereferenceable(8) %most_recent_gap_78) #40
  %start103 = getelementptr inbounds %"struct.adept::Gap", %"struct.adept::Gap"* %call102, i64 0, i32 0
  store i32 %32, i32* %start103, align 4, !tbaa !44
  call void @_ZNSt20_List_const_iteratorIN5adept3GapEEC2ERKSt14_List_iteratorIS1_E(%"struct.std::_List_const_iterator"* nonnull dereferenceable(8) %agg.tmp105, %"struct.std::_List_iterator"* nonnull align 8 dereferenceable(8) %it86) #40
  %coerce.dive106 = getelementptr inbounds %"struct.std::_List_const_iterator", %"struct.std::_List_const_iterator"* %agg.tmp105, i64 0, i32 0
  %33 = load %"struct.std::__detail::_List_node_base"*, %"struct.std::__detail::_List_node_base"** %coerce.dive106, align 8
  %call107 = call %"struct.std::__detail::_List_node_base"* @_ZNSt7__cxx114listIN5adept3GapESaIS2_EE5eraseESt20_List_const_iteratorIS2_E(%"class.std::__cxx11::list"* nonnull dereferenceable(24) %gap_list_, %"struct.std::__detail::_List_node_base"* %33) #40
  br label %if.end110

if.end110:                                        ; preds = %if.then98, %if.then85
  call void @llvm.lifetime.end.p0i8(i64 8, i8* nonnull %26) #40
  br label %if.end147

if.else111.critedge:                              ; preds = %if.end75
  call void @llvm.lifetime.end.p0i8(i64 8, i8* nonnull %25) #40
  br label %if.else111

if.else111:                                       ; preds = %if.else111.critedge, %land.rhs77
  %cmp112 = icmp eq i32 %status.4, 1
  br i1 %cmp112, label %if.then113, label %if.end147

if.then113:                                       ; preds = %if.else111
  %34 = bitcast %"struct.std::_List_iterator"* %it114 to i8*
  call void @llvm.lifetime.start.p0i8(i64 8, i8* nonnull %34) #40
  %most_recent_gap_115 = getelementptr inbounds %"class.adept::Stack", %"class.adept::Stack"* %this, i64 0, i32 5
  %35 = bitcast %"struct.std::_List_iterator"* %most_recent_gap_115 to i64*
  %36 = bitcast %"struct.std::_List_iterator"* %it114 to i64*
  %37 = load i64, i64* %35, align 8, !tbaa !18
  store i64 %37, i64* %36, align 8, !tbaa !18
  %call116 = call %"struct.std::__detail::_List_node_base"* @_ZNSt14_List_iteratorIN5adept3GapEEppEi(%"struct.std::_List_iterator"* nonnull dereferenceable(8) %it114, i32 0) #40
  %38 = bitcast %"struct.std::_List_iterator"* %ref.tmp119 to i8*
  call void @llvm.lifetime.start.p0i8(i64 8, i8* nonnull %38) #40
  %call121 = call %"struct.std::__detail::_List_node_base"* @_ZNSt7__cxx114listIN5adept3GapESaIS2_EE3endEv(%"class.std::__cxx11::list"* nonnull dereferenceable(24) %gap_list_) #40
  %coerce.dive122 = getelementptr inbounds %"struct.std::_List_iterator", %"struct.std::_List_iterator"* %ref.tmp119, i64 0, i32 0
  store %"struct.std::__detail::_List_node_base"* %call121, %"struct.std::__detail::_List_node_base"** %coerce.dive122, align 8
  %call123 = call zeroext i1 @_ZStneRKSt14_List_iteratorIN5adept3GapEES4_(%"struct.std::_List_iterator"* nonnull align 8 dereferenceable(8) %it114, %"struct.std::_List_iterator"* nonnull align 8 dereferenceable(8) %ref.tmp119) #40
  br i1 %call123, label %land.rhs124, label %if.end145.critedge

land.rhs124:                                      ; preds = %if.then113
  %call125 = call %"struct.adept::Gap"* @_ZNKSt14_List_iteratorIN5adept3GapEEptEv(%"struct.std::_List_iterator"* nonnull dereferenceable(8) %it114) #40
  %start126 = getelementptr inbounds %"struct.adept::Gap", %"struct.adept::Gap"* %call125, i64 0, i32 0
  %39 = load i32, i32* %start126, align 4, !tbaa !44
  %call128 = call %"struct.adept::Gap"* @_ZNKSt14_List_iteratorIN5adept3GapEEptEv(%"struct.std::_List_iterator"* nonnull dereferenceable(8) %most_recent_gap_115) #40
  %end129 = getelementptr inbounds %"struct.adept::Gap", %"struct.adept::Gap"* %call128, i64 0, i32 1
  %40 = load i32, i32* %end129, align 4, !tbaa !42
  %add130 = add nsw i32 %40, 1
  %cmp131 = icmp eq i32 %39, %add130
  call void @llvm.lifetime.end.p0i8(i64 8, i8* nonnull %38) #40
  br i1 %cmp131, label %if.then133, label %if.end145

if.then133:                                       ; preds = %land.rhs124
  %call134 = call %"struct.adept::Gap"* @_ZNKSt14_List_iteratorIN5adept3GapEEptEv(%"struct.std::_List_iterator"* nonnull dereferenceable(8) %it114) #40
  %end135 = getelementptr inbounds %"struct.adept::Gap", %"struct.adept::Gap"* %call134, i64 0, i32 1
  %41 = load i32, i32* %end135, align 4, !tbaa !42
  %call137 = call %"struct.adept::Gap"* @_ZNKSt14_List_iteratorIN5adept3GapEEptEv(%"struct.std::_List_iterator"* nonnull dereferenceable(8) %most_recent_gap_115) #40
  %end138 = getelementptr inbounds %"struct.adept::Gap", %"struct.adept::Gap"* %call137, i64 0, i32 1
  store i32 %41, i32* %end138, align 4, !tbaa !42
  call void @_ZNSt20_List_const_iteratorIN5adept3GapEEC2ERKSt14_List_iteratorIS1_E(%"struct.std::_List_const_iterator"* nonnull dereferenceable(8) %agg.tmp140, %"struct.std::_List_iterator"* nonnull align 8 dereferenceable(8) %it114) #40
  %coerce.dive141 = getelementptr inbounds %"struct.std::_List_const_iterator", %"struct.std::_List_const_iterator"* %agg.tmp140, i64 0, i32 0
  %42 = load %"struct.std::__detail::_List_node_base"*, %"struct.std::__detail::_List_node_base"** %coerce.dive141, align 8
  %call142 = call %"struct.std::__detail::_List_node_base"* @_ZNSt7__cxx114listIN5adept3GapESaIS2_EE5eraseESt20_List_const_iteratorIS2_E(%"class.std::__cxx11::list"* nonnull dereferenceable(24) %gap_list_, %"struct.std::__detail::_List_node_base"* %42) #40
  br label %if.end145

if.end145.critedge:                               ; preds = %if.then113
  call void @llvm.lifetime.end.p0i8(i64 8, i8* nonnull %38) #40
  br label %if.end145

if.end145:                                        ; preds = %if.end145.critedge, %if.then133, %land.rhs124
  call void @llvm.lifetime.end.p0i8(i64 8, i8* nonnull %34) #40
  br label %if.end147

if.end147:                                        ; preds = %if.end145, %if.else111, %if.end110
  ret void
}

; Function Attrs: nounwind uwtable willreturn mustprogress
define linkonce_odr dso_local nonnull align 4 dereferenceable(8) %"struct.adept::Gap"* @_ZNKSt14_List_iteratorIN5adept3GapEEdeEv(%"struct.std::_List_iterator"* nonnull dereferenceable(8) %this) local_unnamed_addr #10 comdat align 2 {
entry:
  %0 = bitcast %"struct.std::_List_iterator"* %this to %"struct.std::_List_node"**
  %1 = load %"struct.std::_List_node"*, %"struct.std::_List_node"** %0, align 8, !tbaa !51
  %call = call %"struct.adept::Gap"* @_ZNSt10_List_nodeIN5adept3GapEE9_M_valptrEv(%"struct.std::_List_node"* nonnull dereferenceable(24) %1)
  ret %"struct.adept::Gap"* %call
}

; Function Attrs: uwtable mustprogress
define linkonce_odr dso_local %"struct.std::__detail::_List_node_base"* @_ZNSt7__cxx114listIN5adept3GapESaIS2_EE6insertESt20_List_const_iteratorIS2_EOS2_(%"class.std::__cxx11::list"* nonnull dereferenceable(24) %this, %"struct.std::__detail::_List_node_base"* %__position.coerce, %"struct.adept::Gap"* nonnull align 4 dereferenceable(8) %__x) local_unnamed_addr #7 comdat align 2 {
entry:
  %call = call nonnull align 4 dereferenceable(8) %"struct.adept::Gap"* @_ZSt4moveIRN5adept3GapEEONSt16remove_referenceIT_E4typeEOS4_(%"struct.adept::Gap"* nonnull align 4 dereferenceable(8) %__x) #40
  %call3 = call %"struct.std::__detail::_List_node_base"* @_ZNSt7__cxx114listIN5adept3GapESaIS2_EE7emplaceIJS2_EEESt14_List_iteratorIS2_ESt20_List_const_iteratorIS2_EDpOT_(%"class.std::__cxx11::list"* nonnull dereferenceable(24) %this, %"struct.std::__detail::_List_node_base"* %__position.coerce, %"struct.adept::Gap"* nonnull align 4 dereferenceable(8) %call)
  ret %"struct.std::__detail::_List_node_base"* %call3
}

; Function Attrs: nounwind uwtable willreturn
define linkonce_odr dso_local void @_ZN5adept3GapC2Ei(%"struct.adept::Gap"* nonnull dereferenceable(8) %this, i32 %value) unnamed_addr #5 comdat align 2 {
entry:
  %start = getelementptr inbounds %"struct.adept::Gap", %"struct.adept::Gap"* %this, i64 0, i32 0
  store i32 %value, i32* %start, align 4, !tbaa !44
  %end = getelementptr inbounds %"struct.adept::Gap", %"struct.adept::Gap"* %this, i64 0, i32 1
  store i32 %value, i32* %end, align 4, !tbaa !42
  ret void
}

; Function Attrs: uwtable mustprogress
define linkonce_odr dso_local void @_ZNSt7__cxx114listIN5adept3GapESaIS2_EE9push_backEOS2_(%"class.std::__cxx11::list"* nonnull dereferenceable(24) %this, %"struct.adept::Gap"* nonnull align 4 dereferenceable(8) %__x) local_unnamed_addr #7 comdat align 2 {
entry:
  %call = call %"struct.std::__detail::_List_node_base"* @_ZNSt7__cxx114listIN5adept3GapESaIS2_EE3endEv(%"class.std::__cxx11::list"* nonnull dereferenceable(24) %this) #40
  %call2 = call nonnull align 4 dereferenceable(8) %"struct.adept::Gap"* @_ZSt4moveIRN5adept3GapEEONSt16remove_referenceIT_E4typeEOS4_(%"struct.adept::Gap"* nonnull align 4 dereferenceable(8) %__x) #40
  call void @_ZNSt7__cxx114listIN5adept3GapESaIS2_EE9_M_insertIJS2_EEEvSt14_List_iteratorIS2_EDpOT_(%"class.std::__cxx11::list"* nonnull dereferenceable(24) %this, %"struct.std::__detail::_List_node_base"* %call, %"struct.adept::Gap"* nonnull align 4 dereferenceable(8) %call2)
  ret void
}

; Function Attrs: nounwind uwtable willreturn mustprogress
define linkonce_odr dso_local %"struct.std::__detail::_List_node_base"* @_ZNSt14_List_iteratorIN5adept3GapEEmmEi(%"struct.std::_List_iterator"* nonnull dereferenceable(8) %this, i32 %0) local_unnamed_addr #10 comdat align 2 {
entry:
  %retval.sroa.0.0..sroa_idx = getelementptr inbounds %"struct.std::_List_iterator", %"struct.std::_List_iterator"* %this, i64 0, i32 0
  %retval.sroa.0.0.copyload = load %"struct.std::__detail::_List_node_base"*, %"struct.std::__detail::_List_node_base"** %retval.sroa.0.0..sroa_idx, align 8
  %_M_prev = getelementptr inbounds %"struct.std::__detail::_List_node_base", %"struct.std::__detail::_List_node_base"* %retval.sroa.0.0.copyload, i64 0, i32 1
  %1 = load %"struct.std::__detail::_List_node_base"*, %"struct.std::__detail::_List_node_base"** %_M_prev, align 8, !tbaa !55
  store %"struct.std::__detail::_List_node_base"* %1, %"struct.std::__detail::_List_node_base"** %retval.sroa.0.0..sroa_idx, align 8, !tbaa !51
  ret %"struct.std::__detail::_List_node_base"* %retval.sroa.0.0.copyload
}

; Function Attrs: uwtable mustprogress
define dso_local void @_ZN5adept5Stack20unregister_gradientsERKiS2_(%"class.adept::Stack"* nonnull dereferenceable(149) %this, i32* nocapture nonnull readonly align 4 dereferenceable(4) %gradient_index, i32* nocapture nonnull readonly align 4 dereferenceable(4) %n) local_unnamed_addr #7 align 2 {
entry:
  %it = alloca %"struct.std::_List_iterator", align 8
  %ref.tmp28 = alloca %"struct.std::_List_iterator", align 8
  %it54 = alloca %"struct.std::_List_iterator", align 8
  %ref.tmp58 = alloca %"struct.std::_List_iterator", align 8
  %agg.tmp = alloca %"struct.std::_List_const_iterator", align 8
  %ref.tmp90 = alloca %"struct.adept::Gap", align 4
  %ref.tmp106 = alloca %"struct.adept::Gap", align 4
  %ref.tmp123 = alloca %"struct.std::_List_iterator", align 8
  %it130 = alloca %"struct.std::_List_iterator", align 8
  %agg.tmp149 = alloca %"struct.std::_List_const_iterator", align 8
  %it158 = alloca %"struct.std::_List_iterator", align 8
  %ref.tmp163 = alloca %"struct.std::_List_iterator", align 8
  %agg.tmp184 = alloca %"struct.std::_List_const_iterator", align 8
  %0 = load i32, i32* %n, align 4, !tbaa !33
  %n_gradients_registered_ = getelementptr inbounds %"class.adept::Stack", %"class.adept::Stack"* %this, i64 0, i32 9
  %1 = load i32, i32* %n_gradients_registered_, align 4, !tbaa !41
  %sub = sub nsw i32 %1, %0
  store i32 %sub, i32* %n_gradients_registered_, align 4, !tbaa !41
  %2 = load i32, i32* %gradient_index, align 4, !tbaa !33
  %3 = load i32, i32* %n, align 4, !tbaa !33
  %add = add nsw i32 %3, %2
  %i_gradient_ = getelementptr inbounds %"class.adept::Stack", %"class.adept::Stack"* %this, i64 0, i32 6
  %4 = load i32, i32* %i_gradient_, align 8, !tbaa !47
  %cmp = icmp eq i32 %add, %4
  br i1 %cmp, label %if.then, label %if.else

if.then:                                          ; preds = %entry
  %sub3 = sub nsw i32 %4, %3
  store i32 %sub3, i32* %i_gradient_, align 8, !tbaa !47
  %gap_list_ = getelementptr inbounds %"class.adept::Stack", %"class.adept::Stack"* %this, i64 0, i32 4
  %call = call zeroext i1 @_ZNKSt7__cxx114listIN5adept3GapESaIS2_EE5emptyEv(%"class.std::__cxx11::list"* nonnull dereferenceable(24) %gap_list_) #40
  br i1 %call, label %if.end192, label %if.then4

if.then4:                                         ; preds = %if.then
  %call6 = call nonnull align 4 dereferenceable(8) %"struct.adept::Gap"* @_ZNSt7__cxx114listIN5adept3GapESaIS2_EE4backEv(%"class.std::__cxx11::list"* nonnull dereferenceable(24) %gap_list_) #40
  %5 = load i32, i32* %i_gradient_, align 8, !tbaa !47
  %end = getelementptr inbounds %"struct.adept::Gap", %"struct.adept::Gap"* %call6, i64 0, i32 1
  %6 = load i32, i32* %end, align 4, !tbaa !42
  %add8 = add nsw i32 %6, 1
  %cmp9 = icmp eq i32 %5, %add8
  br i1 %cmp9, label %if.then10, label %if.end192

if.then10:                                        ; preds = %if.then4
  %start = getelementptr inbounds %"struct.adept::Gap", %"struct.adept::Gap"* %call6, i64 0, i32 0
  %7 = load i32, i32* %start, align 4, !tbaa !44
  store i32 %7, i32* %i_gradient_, align 8, !tbaa !47
  %8 = bitcast %"struct.std::_List_iterator"* %it to i8*
  call void @llvm.lifetime.start.p0i8(i64 8, i8* nonnull %8) #40
  %call13 = call %"struct.std::__detail::_List_node_base"* @_ZNSt7__cxx114listIN5adept3GapESaIS2_EE3endEv(%"class.std::__cxx11::list"* nonnull dereferenceable(24) %gap_list_) #40
  %coerce.dive = getelementptr inbounds %"struct.std::_List_iterator", %"struct.std::_List_iterator"* %it, i64 0, i32 0
  store %"struct.std::__detail::_List_node_base"* %call13, %"struct.std::__detail::_List_node_base"** %coerce.dive, align 8
  %call14 = call %"struct.std::__detail::_List_node_base"* @_ZNSt14_List_iteratorIN5adept3GapEEmmEi(%"struct.std::_List_iterator"* nonnull dereferenceable(8) %it, i32 0) #40
  %most_recent_gap_ = getelementptr inbounds %"class.adept::Stack", %"class.adept::Stack"* %this, i64 0, i32 5
  %call16 = call zeroext i1 @_ZSteqRKSt14_List_iteratorIN5adept3GapEES4_(%"struct.std::_List_iterator"* nonnull align 8 dereferenceable(8) %most_recent_gap_, %"struct.std::_List_iterator"* nonnull align 8 dereferenceable(8) %it) #40
  br i1 %call16, label %if.then17, label %if.end

if.then17:                                        ; preds = %if.then10
  %call19 = call %"struct.std::__detail::_List_node_base"* @_ZNSt7__cxx114listIN5adept3GapESaIS2_EE3endEv(%"class.std::__cxx11::list"* nonnull dereferenceable(24) %gap_list_) #40
  %ref.tmp.sroa.0.0..sroa_idx = getelementptr inbounds %"class.adept::Stack", %"class.adept::Stack"* %this, i64 0, i32 5, i32 0
  store %"struct.std::__detail::_List_node_base"* %call19, %"struct.std::__detail::_List_node_base"** %ref.tmp.sroa.0.0..sroa_idx, align 8, !tbaa.struct !45
  br label %if.end

if.end:                                           ; preds = %if.then17, %if.then10
  call void @_ZNSt7__cxx114listIN5adept3GapESaIS2_EE8pop_backEv(%"class.std::__cxx11::list"* nonnull dereferenceable(24) %gap_list_) #40
  call void @llvm.lifetime.end.p0i8(i64 8, i8* nonnull %8) #40
  br label %if.end192

if.else:                                          ; preds = %entry
  %gap_list_25 = getelementptr inbounds %"class.adept::Stack", %"class.adept::Stack"* %this, i64 0, i32 4
  %call26 = call zeroext i1 @_ZNKSt7__cxx114listIN5adept3GapESaIS2_EE5emptyEv(%"class.std::__cxx11::list"* nonnull dereferenceable(24) %gap_list_25) #40
  %9 = bitcast %"struct.std::_List_iterator"* %ref.tmp28 to i8*
  call void @llvm.lifetime.start.p0i8(i64 8, i8* nonnull %9) #40
  br i1 %call26, label %if.end51.critedge, label %land.rhs

land.rhs:                                         ; preds = %if.else
  %most_recent_gap_27 = getelementptr inbounds %"class.adept::Stack", %"class.adept::Stack"* %this, i64 0, i32 5
  %call30 = call %"struct.std::__detail::_List_node_base"* @_ZNSt7__cxx114listIN5adept3GapESaIS2_EE3endEv(%"class.std::__cxx11::list"* nonnull dereferenceable(24) %gap_list_25) #40
  %coerce.dive31 = getelementptr inbounds %"struct.std::_List_iterator", %"struct.std::_List_iterator"* %ref.tmp28, i64 0, i32 0
  store %"struct.std::__detail::_List_node_base"* %call30, %"struct.std::__detail::_List_node_base"** %coerce.dive31, align 8
  %call32 = call zeroext i1 @_ZStneRKSt14_List_iteratorIN5adept3GapEES4_(%"struct.std::_List_iterator"* nonnull align 8 dereferenceable(8) %most_recent_gap_27, %"struct.std::_List_iterator"* nonnull align 8 dereferenceable(8) %ref.tmp28) #40
  call void @llvm.lifetime.end.p0i8(i64 8, i8* nonnull %9) #40
  br i1 %call32, label %if.then33, label %if.end51

if.then33:                                        ; preds = %land.rhs
  %call35 = call nonnull align 4 dereferenceable(8) %"struct.adept::Gap"* @_ZNKSt14_List_iteratorIN5adept3GapEEdeEv(%"struct.std::_List_iterator"* nonnull dereferenceable(8) %most_recent_gap_27) #40
  %10 = load i32, i32* %gradient_index, align 4, !tbaa !33
  %start36 = getelementptr inbounds %"struct.adept::Gap", %"struct.adept::Gap"* %call35, i64 0, i32 0
  %11 = load i32, i32* %start36, align 4, !tbaa !44
  %12 = load i32, i32* %n, align 4, !tbaa !33
  %sub37 = sub nsw i32 %11, %12
  %cmp38 = icmp eq i32 %10, %sub37
  br i1 %cmp38, label %if.then39, label %if.else42

if.then39:                                        ; preds = %if.then33
  store i32 %sub37, i32* %start36, align 4, !tbaa !44
  br label %if.end51

if.else42:                                        ; preds = %if.then33
  %end43 = getelementptr inbounds %"struct.adept::Gap", %"struct.adept::Gap"* %call35, i64 0, i32 1
  %13 = load i32, i32* %end43, align 4, !tbaa !42
  %add44 = add nsw i32 %13, 1
  %cmp45 = icmp eq i32 %10, %add44
  br i1 %cmp45, label %if.then46, label %if.end51

if.then46:                                        ; preds = %if.else42
  %add48 = add nsw i32 %13, %12
  store i32 %add48, i32* %end43, align 4, !tbaa !42
  br label %if.end51

if.end51.critedge:                                ; preds = %if.else
  call void @llvm.lifetime.end.p0i8(i64 8, i8* nonnull %9) #40
  br label %if.end51

if.end51:                                         ; preds = %if.end51.critedge, %if.then46, %if.else42, %if.then39, %land.rhs
  %cmp52 = phi i1 [ false, %if.then39 ], [ false, %if.then46 ], [ true, %if.else42 ], [ true, %if.end51.critedge ], [ true, %land.rhs ]
  %status.1 = phi i32 [ 0, %if.then39 ], [ 1, %if.then46 ], [ 3, %if.else42 ], [ 3, %if.end51.critedge ], [ 3, %land.rhs ]
  br i1 %cmp52, label %if.then53, label %if.end119

if.then53:                                        ; preds = %if.end51
  %14 = bitcast %"struct.std::_List_iterator"* %it54 to i8*
  call void @llvm.lifetime.start.p0i8(i64 8, i8* nonnull %14) #40
  %call56 = call %"struct.std::__detail::_List_node_base"* @_ZNSt7__cxx114listIN5adept3GapESaIS2_EE5beginEv(%"class.std::__cxx11::list"* nonnull dereferenceable(24) %gap_list_25) #40
  %coerce.dive57 = getelementptr inbounds %"struct.std::_List_iterator", %"struct.std::_List_iterator"* %it54, i64 0, i32 0
  store %"struct.std::__detail::_List_node_base"* %call56, %"struct.std::__detail::_List_node_base"** %coerce.dive57, align 8
  %15 = bitcast %"struct.std::_List_iterator"* %ref.tmp58 to i8*
  call void @llvm.lifetime.start.p0i8(i64 8, i8* nonnull %15) #40
  %call60226 = call %"struct.std::__detail::_List_node_base"* @_ZNSt7__cxx114listIN5adept3GapESaIS2_EE3endEv(%"class.std::__cxx11::list"* nonnull dereferenceable(24) %gap_list_25) #40
  %coerce.dive61 = getelementptr inbounds %"struct.std::_List_iterator", %"struct.std::_List_iterator"* %ref.tmp58, i64 0, i32 0
  store %"struct.std::__detail::_List_node_base"* %call60226, %"struct.std::__detail::_List_node_base"** %coerce.dive61, align 8
  %call62227 = call zeroext i1 @_ZStneRKSt14_List_iteratorIN5adept3GapEES4_(%"struct.std::_List_iterator"* nonnull align 8 dereferenceable(8) %it54, %"struct.std::_List_iterator"* nonnull align 8 dereferenceable(8) %ref.tmp58) #40
  call void @llvm.lifetime.end.p0i8(i64 8, i8* nonnull %15) #40
  br i1 %call62227, label %for.body, label %cleanup

for.body:                                         ; preds = %if.then53, %for.inc
  %16 = load i32, i32* %gradient_index, align 4, !tbaa !33
  %call63 = call %"struct.adept::Gap"* @_ZNKSt14_List_iteratorIN5adept3GapEEptEv(%"struct.std::_List_iterator"* nonnull dereferenceable(8) %it54) #40
  %end64 = getelementptr inbounds %"struct.adept::Gap", %"struct.adept::Gap"* %call63, i64 0, i32 1
  %17 = load i32, i32* %end64, align 4, !tbaa !42
  %add65 = add nsw i32 %17, 1
  %cmp66.not = icmp sgt i32 %16, %add65
  br i1 %cmp66.not, label %for.inc, label %if.then67

if.then67:                                        ; preds = %for.body
  %18 = load i32, i32* %gradient_index, align 4, !tbaa !33
  %call68 = call %"struct.adept::Gap"* @_ZNKSt14_List_iteratorIN5adept3GapEEptEv(%"struct.std::_List_iterator"* nonnull dereferenceable(8) %it54) #40
  %start69 = getelementptr inbounds %"struct.adept::Gap", %"struct.adept::Gap"* %call68, i64 0, i32 0
  %19 = load i32, i32* %start69, align 4, !tbaa !44
  %20 = load i32, i32* %n, align 4, !tbaa !33
  %sub70 = sub nsw i32 %19, %20
  %cmp71 = icmp eq i32 %18, %sub70
  br i1 %cmp71, label %if.then72, label %if.else77

if.then72:                                        ; preds = %if.then67
  %call73 = call %"struct.adept::Gap"* @_ZNKSt14_List_iteratorIN5adept3GapEEptEv(%"struct.std::_List_iterator"* nonnull dereferenceable(8) %it54) #40
  %start74 = getelementptr inbounds %"struct.adept::Gap", %"struct.adept::Gap"* %call73, i64 0, i32 0
  %21 = load i32, i32* %start74, align 4, !tbaa !44
  %sub75 = sub nsw i32 %21, %20
  store i32 %sub75, i32* %start74, align 4, !tbaa !44
  %most_recent_gap_76 = getelementptr inbounds %"class.adept::Stack", %"class.adept::Stack"* %this, i64 0, i32 5
  %22 = bitcast %"struct.std::_List_iterator"* %it54 to i64*
  %23 = bitcast %"struct.std::_List_iterator"* %most_recent_gap_76 to i64*
  %24 = load i64, i64* %22, align 8, !tbaa !18
  store i64 %24, i64* %23, align 8, !tbaa !18
  br label %cleanup

if.else77:                                        ; preds = %if.then67
  %25 = load i32, i32* %gradient_index, align 4, !tbaa !33
  %call78 = call %"struct.adept::Gap"* @_ZNKSt14_List_iteratorIN5adept3GapEEptEv(%"struct.std::_List_iterator"* nonnull dereferenceable(8) %it54) #40
  %end79 = getelementptr inbounds %"struct.adept::Gap", %"struct.adept::Gap"* %call78, i64 0, i32 1
  %26 = load i32, i32* %end79, align 4, !tbaa !42
  %add80 = add nsw i32 %26, 1
  %cmp81 = icmp eq i32 %25, %add80
  br i1 %cmp81, label %if.then82, label %if.else87

if.then82:                                        ; preds = %if.else77
  %27 = load i32, i32* %n, align 4, !tbaa !33
  %call83 = call %"struct.adept::Gap"* @_ZNKSt14_List_iteratorIN5adept3GapEEptEv(%"struct.std::_List_iterator"* nonnull dereferenceable(8) %it54) #40
  %end84 = getelementptr inbounds %"struct.adept::Gap", %"struct.adept::Gap"* %call83, i64 0, i32 1
  %28 = load i32, i32* %end84, align 4, !tbaa !42
  %add85 = add nsw i32 %28, %27
  store i32 %add85, i32* %end84, align 4, !tbaa !42
  %most_recent_gap_86 = getelementptr inbounds %"class.adept::Stack", %"class.adept::Stack"* %this, i64 0, i32 5
  %29 = bitcast %"struct.std::_List_iterator"* %it54 to i64*
  %30 = bitcast %"struct.std::_List_iterator"* %most_recent_gap_86 to i64*
  %31 = load i64, i64* %29, align 8, !tbaa !18
  store i64 %31, i64* %30, align 8, !tbaa !18
  br label %cleanup

if.else87:                                        ; preds = %if.else77
  call void @_ZNSt20_List_const_iteratorIN5adept3GapEEC2ERKSt14_List_iteratorIS1_E(%"struct.std::_List_const_iterator"* nonnull dereferenceable(8) %agg.tmp, %"struct.std::_List_iterator"* nonnull align 8 dereferenceable(8) %it54) #40
  %32 = bitcast %"struct.adept::Gap"* %ref.tmp90 to i8*
  call void @llvm.lifetime.start.p0i8(i64 8, i8* nonnull %32) #40
  %33 = load i32, i32* %gradient_index, align 4, !tbaa !33
  %34 = load i32, i32* %n, align 4, !tbaa !33
  %add91 = add i32 %33, -1
  %sub92 = add i32 %add91, %34
  call void @_ZN5adept3GapC2Eii(%"struct.adept::Gap"* nonnull dereferenceable(8) %ref.tmp90, i32 %33, i32 %sub92)
  %coerce.dive93 = getelementptr inbounds %"struct.std::_List_const_iterator", %"struct.std::_List_const_iterator"* %agg.tmp, i64 0, i32 0
  %35 = load %"struct.std::__detail::_List_node_base"*, %"struct.std::__detail::_List_node_base"** %coerce.dive93, align 8
  %call94 = call %"struct.std::__detail::_List_node_base"* @_ZNSt7__cxx114listIN5adept3GapESaIS2_EE6insertESt20_List_const_iteratorIS2_EOS2_(%"class.std::__cxx11::list"* nonnull dereferenceable(24) %gap_list_25, %"struct.std::__detail::_List_node_base"* %35, %"struct.adept::Gap"* nonnull align 4 dereferenceable(8) %ref.tmp90)
  %ref.tmp88.sroa.0.0..sroa_idx = getelementptr inbounds %"class.adept::Stack", %"class.adept::Stack"* %this, i64 0, i32 5, i32 0
  store %"struct.std::__detail::_List_node_base"* %call94, %"struct.std::__detail::_List_node_base"** %ref.tmp88.sroa.0.0..sroa_idx, align 8, !tbaa.struct !45
  call void @llvm.lifetime.end.p0i8(i64 8, i8* nonnull %32) #40
  br label %cleanup

for.inc:                                          ; preds = %for.body
  %call100 = call %"struct.std::__detail::_List_node_base"* @_ZNSt14_List_iteratorIN5adept3GapEEppEi(%"struct.std::_List_iterator"* nonnull dereferenceable(8) %it54, i32 0) #40
  call void @llvm.lifetime.start.p0i8(i64 8, i8* nonnull %15) #40
  %call60 = call %"struct.std::__detail::_List_node_base"* @_ZNSt7__cxx114listIN5adept3GapESaIS2_EE3endEv(%"class.std::__cxx11::list"* nonnull dereferenceable(24) %gap_list_25) #40
  store %"struct.std::__detail::_List_node_base"* %call60, %"struct.std::__detail::_List_node_base"** %coerce.dive61, align 8
  %call62 = call zeroext i1 @_ZStneRKSt14_List_iteratorIN5adept3GapEES4_(%"struct.std::_List_iterator"* nonnull align 8 dereferenceable(8) %it54, %"struct.std::_List_iterator"* nonnull align 8 dereferenceable(8) %ref.tmp58) #40
  call void @llvm.lifetime.end.p0i8(i64 8, i8* nonnull %15) #40
  br i1 %call62, label %for.body, label %cleanup, !llvm.loop !56

cleanup:                                          ; preds = %for.inc, %if.else87, %if.then82, %if.then72, %if.then53
  %cmp103 = phi i1 [ false, %if.then72 ], [ false, %if.else87 ], [ false, %if.then82 ], [ true, %if.then53 ], [ true, %for.inc ]
  %status.3 = phi i32 [ 0, %if.then72 ], [ 2, %if.else87 ], [ 1, %if.then82 ], [ 3, %if.then53 ], [ 3, %for.inc ]
  call void @llvm.lifetime.end.p0i8(i64 8, i8* nonnull %14) #40
  br i1 %cmp103, label %if.then104, label %if.end119

if.then104:                                       ; preds = %cleanup
  %36 = bitcast %"struct.adept::Gap"* %ref.tmp106 to i8*
  call void @llvm.lifetime.start.p0i8(i64 8, i8* nonnull %36) #40
  %37 = load i32, i32* %gradient_index, align 4, !tbaa !33
  %38 = load i32, i32* %n, align 4, !tbaa !33
  %add107 = add i32 %37, -1
  %sub108 = add i32 %add107, %38
  call void @_ZN5adept3GapC2Eii(%"struct.adept::Gap"* nonnull dereferenceable(8) %ref.tmp106, i32 %37, i32 %sub108)
  call void @_ZNSt7__cxx114listIN5adept3GapESaIS2_EE9push_backEOS2_(%"class.std::__cxx11::list"* nonnull dereferenceable(24) %gap_list_25, %"struct.adept::Gap"* nonnull align 4 dereferenceable(8) %ref.tmp106)
  call void @llvm.lifetime.end.p0i8(i64 8, i8* nonnull %36) #40
  %call111 = call %"struct.std::__detail::_List_node_base"* @_ZNSt7__cxx114listIN5adept3GapESaIS2_EE3endEv(%"class.std::__cxx11::list"* nonnull dereferenceable(24) %gap_list_25) #40
  %ref.tmp109.sroa.0.0..sroa_idx = getelementptr inbounds %"class.adept::Stack", %"class.adept::Stack"* %this, i64 0, i32 5, i32 0
  store %"struct.std::__detail::_List_node_base"* %call111, %"struct.std::__detail::_List_node_base"** %ref.tmp109.sroa.0.0..sroa_idx, align 8, !tbaa.struct !45
  %most_recent_gap_114 = getelementptr inbounds %"class.adept::Stack", %"class.adept::Stack"* %this, i64 0, i32 5
  %call115 = call %"struct.std::__detail::_List_node_base"* @_ZNSt14_List_iteratorIN5adept3GapEEmmEi(%"struct.std::_List_iterator"* nonnull dereferenceable(8) %most_recent_gap_114, i32 0) #40
  br label %if.end119

if.end119:                                        ; preds = %if.then104, %cleanup, %if.end51
  %status.4 = phi i32 [ 3, %if.then104 ], [ %status.3, %cleanup ], [ %status.1, %if.end51 ]
  %cmp120 = icmp eq i32 %status.4, 0
  %39 = bitcast %"struct.std::_List_iterator"* %ref.tmp123 to i8*
  call void @llvm.lifetime.start.p0i8(i64 8, i8* nonnull %39) #40
  br i1 %cmp120, label %land.rhs121, label %if.else155.critedge

land.rhs121:                                      ; preds = %if.end119
  %most_recent_gap_122 = getelementptr inbounds %"class.adept::Stack", %"class.adept::Stack"* %this, i64 0, i32 5
  %call125 = call %"struct.std::__detail::_List_node_base"* @_ZNSt7__cxx114listIN5adept3GapESaIS2_EE5beginEv(%"class.std::__cxx11::list"* nonnull dereferenceable(24) %gap_list_25) #40
  %coerce.dive126 = getelementptr inbounds %"struct.std::_List_iterator", %"struct.std::_List_iterator"* %ref.tmp123, i64 0, i32 0
  store %"struct.std::__detail::_List_node_base"* %call125, %"struct.std::__detail::_List_node_base"** %coerce.dive126, align 8
  %call127 = call zeroext i1 @_ZStneRKSt14_List_iteratorIN5adept3GapEES4_(%"struct.std::_List_iterator"* nonnull align 8 dereferenceable(8) %most_recent_gap_122, %"struct.std::_List_iterator"* nonnull align 8 dereferenceable(8) %ref.tmp123) #40
  call void @llvm.lifetime.end.p0i8(i64 8, i8* nonnull %39) #40
  br i1 %call127, label %if.then129, label %if.else155

if.then129:                                       ; preds = %land.rhs121
  %40 = bitcast %"struct.std::_List_iterator"* %it130 to i8*
  call void @llvm.lifetime.start.p0i8(i64 8, i8* nonnull %40) #40
  %41 = bitcast %"struct.std::_List_iterator"* %most_recent_gap_122 to i64*
  %42 = bitcast %"struct.std::_List_iterator"* %it130 to i64*
  %43 = load i64, i64* %41, align 8, !tbaa !18
  store i64 %43, i64* %42, align 8, !tbaa !18
  %call132 = call %"struct.std::__detail::_List_node_base"* @_ZNSt14_List_iteratorIN5adept3GapEEmmEi(%"struct.std::_List_iterator"* nonnull dereferenceable(8) %it130, i32 0) #40
  %call135 = call %"struct.adept::Gap"* @_ZNKSt14_List_iteratorIN5adept3GapEEptEv(%"struct.std::_List_iterator"* nonnull dereferenceable(8) %it130) #40
  %end136 = getelementptr inbounds %"struct.adept::Gap", %"struct.adept::Gap"* %call135, i64 0, i32 1
  %44 = load i32, i32* %end136, align 4, !tbaa !42
  %call138 = call %"struct.adept::Gap"* @_ZNKSt14_List_iteratorIN5adept3GapEEptEv(%"struct.std::_List_iterator"* nonnull dereferenceable(8) %most_recent_gap_122) #40
  %start139 = getelementptr inbounds %"struct.adept::Gap", %"struct.adept::Gap"* %call138, i64 0, i32 0
  %45 = load i32, i32* %start139, align 4, !tbaa !44
  %sub140 = add nsw i32 %45, -1
  %cmp141 = icmp eq i32 %44, %sub140
  br i1 %cmp141, label %if.then142, label %if.end154

if.then142:                                       ; preds = %if.then129
  %call143 = call %"struct.adept::Gap"* @_ZNKSt14_List_iteratorIN5adept3GapEEptEv(%"struct.std::_List_iterator"* nonnull dereferenceable(8) %it130) #40
  %start144 = getelementptr inbounds %"struct.adept::Gap", %"struct.adept::Gap"* %call143, i64 0, i32 0
  %46 = load i32, i32* %start144, align 4, !tbaa !44
  %call146 = call %"struct.adept::Gap"* @_ZNKSt14_List_iteratorIN5adept3GapEEptEv(%"struct.std::_List_iterator"* nonnull dereferenceable(8) %most_recent_gap_122) #40
  %start147 = getelementptr inbounds %"struct.adept::Gap", %"struct.adept::Gap"* %call146, i64 0, i32 0
  store i32 %46, i32* %start147, align 4, !tbaa !44
  call void @_ZNSt20_List_const_iteratorIN5adept3GapEEC2ERKSt14_List_iteratorIS1_E(%"struct.std::_List_const_iterator"* nonnull dereferenceable(8) %agg.tmp149, %"struct.std::_List_iterator"* nonnull align 8 dereferenceable(8) %it130) #40
  %coerce.dive150 = getelementptr inbounds %"struct.std::_List_const_iterator", %"struct.std::_List_const_iterator"* %agg.tmp149, i64 0, i32 0
  %47 = load %"struct.std::__detail::_List_node_base"*, %"struct.std::__detail::_List_node_base"** %coerce.dive150, align 8
  %call151 = call %"struct.std::__detail::_List_node_base"* @_ZNSt7__cxx114listIN5adept3GapESaIS2_EE5eraseESt20_List_const_iteratorIS2_E(%"class.std::__cxx11::list"* nonnull dereferenceable(24) %gap_list_25, %"struct.std::__detail::_List_node_base"* %47) #40
  br label %if.end154

if.end154:                                        ; preds = %if.then142, %if.then129
  call void @llvm.lifetime.end.p0i8(i64 8, i8* nonnull %40) #40
  br label %if.end192

if.else155.critedge:                              ; preds = %if.end119
  call void @llvm.lifetime.end.p0i8(i64 8, i8* nonnull %39) #40
  br label %if.else155

if.else155:                                       ; preds = %if.else155.critedge, %land.rhs121
  %cmp156 = icmp eq i32 %status.4, 1
  br i1 %cmp156, label %if.then157, label %if.end192

if.then157:                                       ; preds = %if.else155
  %48 = bitcast %"struct.std::_List_iterator"* %it158 to i8*
  call void @llvm.lifetime.start.p0i8(i64 8, i8* nonnull %48) #40
  %most_recent_gap_159 = getelementptr inbounds %"class.adept::Stack", %"class.adept::Stack"* %this, i64 0, i32 5
  %49 = bitcast %"struct.std::_List_iterator"* %most_recent_gap_159 to i64*
  %50 = bitcast %"struct.std::_List_iterator"* %it158 to i64*
  %51 = load i64, i64* %49, align 8, !tbaa !18
  store i64 %51, i64* %50, align 8, !tbaa !18
  %call160 = call %"struct.std::__detail::_List_node_base"* @_ZNSt14_List_iteratorIN5adept3GapEEppEi(%"struct.std::_List_iterator"* nonnull dereferenceable(8) %it158, i32 0) #40
  %52 = bitcast %"struct.std::_List_iterator"* %ref.tmp163 to i8*
  call void @llvm.lifetime.start.p0i8(i64 8, i8* nonnull %52) #40
  %call165 = call %"struct.std::__detail::_List_node_base"* @_ZNSt7__cxx114listIN5adept3GapESaIS2_EE3endEv(%"class.std::__cxx11::list"* nonnull dereferenceable(24) %gap_list_25) #40
  %coerce.dive166 = getelementptr inbounds %"struct.std::_List_iterator", %"struct.std::_List_iterator"* %ref.tmp163, i64 0, i32 0
  store %"struct.std::__detail::_List_node_base"* %call165, %"struct.std::__detail::_List_node_base"** %coerce.dive166, align 8
  %call167 = call zeroext i1 @_ZStneRKSt14_List_iteratorIN5adept3GapEES4_(%"struct.std::_List_iterator"* nonnull align 8 dereferenceable(8) %it158, %"struct.std::_List_iterator"* nonnull align 8 dereferenceable(8) %ref.tmp163) #40
  br i1 %call167, label %land.rhs168, label %if.end189.critedge

land.rhs168:                                      ; preds = %if.then157
  %call169 = call %"struct.adept::Gap"* @_ZNKSt14_List_iteratorIN5adept3GapEEptEv(%"struct.std::_List_iterator"* nonnull dereferenceable(8) %it158) #40
  %start170 = getelementptr inbounds %"struct.adept::Gap", %"struct.adept::Gap"* %call169, i64 0, i32 0
  %53 = load i32, i32* %start170, align 4, !tbaa !44
  %call172 = call %"struct.adept::Gap"* @_ZNKSt14_List_iteratorIN5adept3GapEEptEv(%"struct.std::_List_iterator"* nonnull dereferenceable(8) %most_recent_gap_159) #40
  %end173 = getelementptr inbounds %"struct.adept::Gap", %"struct.adept::Gap"* %call172, i64 0, i32 1
  %54 = load i32, i32* %end173, align 4, !tbaa !42
  %add174 = add nsw i32 %54, 1
  %cmp175 = icmp eq i32 %53, %add174
  call void @llvm.lifetime.end.p0i8(i64 8, i8* nonnull %52) #40
  br i1 %cmp175, label %if.then177, label %if.end189

if.then177:                                       ; preds = %land.rhs168
  %call178 = call %"struct.adept::Gap"* @_ZNKSt14_List_iteratorIN5adept3GapEEptEv(%"struct.std::_List_iterator"* nonnull dereferenceable(8) %it158) #40
  %end179 = getelementptr inbounds %"struct.adept::Gap", %"struct.adept::Gap"* %call178, i64 0, i32 1
  %55 = load i32, i32* %end179, align 4, !tbaa !42
  %call181 = call %"struct.adept::Gap"* @_ZNKSt14_List_iteratorIN5adept3GapEEptEv(%"struct.std::_List_iterator"* nonnull dereferenceable(8) %most_recent_gap_159) #40
  %end182 = getelementptr inbounds %"struct.adept::Gap", %"struct.adept::Gap"* %call181, i64 0, i32 1
  store i32 %55, i32* %end182, align 4, !tbaa !42
  call void @_ZNSt20_List_const_iteratorIN5adept3GapEEC2ERKSt14_List_iteratorIS1_E(%"struct.std::_List_const_iterator"* nonnull dereferenceable(8) %agg.tmp184, %"struct.std::_List_iterator"* nonnull align 8 dereferenceable(8) %it158) #40
  %coerce.dive185 = getelementptr inbounds %"struct.std::_List_const_iterator", %"struct.std::_List_const_iterator"* %agg.tmp184, i64 0, i32 0
  %56 = load %"struct.std::__detail::_List_node_base"*, %"struct.std::__detail::_List_node_base"** %coerce.dive185, align 8
  %call186 = call %"struct.std::__detail::_List_node_base"* @_ZNSt7__cxx114listIN5adept3GapESaIS2_EE5eraseESt20_List_const_iteratorIS2_E(%"class.std::__cxx11::list"* nonnull dereferenceable(24) %gap_list_25, %"struct.std::__detail::_List_node_base"* %56) #40
  br label %if.end189

if.end189.critedge:                               ; preds = %if.then157
  call void @llvm.lifetime.end.p0i8(i64 8, i8* nonnull %52) #40
  br label %if.end189

if.end189:                                        ; preds = %if.end189.critedge, %if.then177, %land.rhs168
  call void @llvm.lifetime.end.p0i8(i64 8, i8* nonnull %48) #40
  br label %if.end192

if.end192:                                        ; preds = %if.end189, %if.else155, %if.end154, %if.end, %if.then4, %if.then
  ret void
}

; Function Attrs: nounwind uwtable willreturn mustprogress
define linkonce_odr dso_local nonnull align 4 dereferenceable(8) %"struct.adept::Gap"* @_ZNSt7__cxx114listIN5adept3GapESaIS2_EE4backEv(%"class.std::__cxx11::list"* nonnull dereferenceable(24) %this) local_unnamed_addr #10 comdat align 2 {
entry:
  %__tmp = alloca %"struct.std::_List_iterator", align 8
  %0 = bitcast %"struct.std::_List_iterator"* %__tmp to i8*
  call void @llvm.lifetime.start.p0i8(i64 8, i8* nonnull %0) #40
  %call = call %"struct.std::__detail::_List_node_base"* @_ZNSt7__cxx114listIN5adept3GapESaIS2_EE3endEv(%"class.std::__cxx11::list"* nonnull dereferenceable(24) %this) #40
  %coerce.dive = getelementptr inbounds %"struct.std::_List_iterator", %"struct.std::_List_iterator"* %__tmp, i64 0, i32 0
  store %"struct.std::__detail::_List_node_base"* %call, %"struct.std::__detail::_List_node_base"** %coerce.dive, align 8
  %call2 = call nonnull align 8 dereferenceable(8) %"struct.std::_List_iterator"* @_ZNSt14_List_iteratorIN5adept3GapEEmmEv(%"struct.std::_List_iterator"* nonnull dereferenceable(8) %__tmp) #40
  %call3 = call nonnull align 4 dereferenceable(8) %"struct.adept::Gap"* @_ZNKSt14_List_iteratorIN5adept3GapEEdeEv(%"struct.std::_List_iterator"* nonnull dereferenceable(8) %__tmp) #40
  call void @llvm.lifetime.end.p0i8(i64 8, i8* nonnull %0) #40
  ret %"struct.adept::Gap"* %call3
}

; Function Attrs: nounwind uwtable mustprogress
define linkonce_odr dso_local void @_ZNSt7__cxx114listIN5adept3GapESaIS2_EE8pop_backEv(%"class.std::__cxx11::list"* nonnull dereferenceable(24) %this) local_unnamed_addr #11 comdat align 2 {
entry:
  %agg.tmp = alloca %"struct.std::_List_iterator", align 8
  %_M_prev = getelementptr inbounds %"class.std::__cxx11::list", %"class.std::__cxx11::list"* %this, i64 0, i32 0, i32 0, i32 0, i32 0, i32 1
  %0 = load %"struct.std::__detail::_List_node_base"*, %"struct.std::__detail::_List_node_base"** %_M_prev, align 8, !tbaa !55
  call void @_ZNSt14_List_iteratorIN5adept3GapEEC2EPNSt8__detail15_List_node_baseE(%"struct.std::_List_iterator"* nonnull dereferenceable(8) %agg.tmp, %"struct.std::__detail::_List_node_base"* %0) #40
  %coerce.dive = getelementptr inbounds %"struct.std::_List_iterator", %"struct.std::_List_iterator"* %agg.tmp, i64 0, i32 0
  %1 = load %"struct.std::__detail::_List_node_base"*, %"struct.std::__detail::_List_node_base"** %coerce.dive, align 8
  call void @_ZNSt7__cxx114listIN5adept3GapESaIS2_EE8_M_eraseESt14_List_iteratorIS2_E(%"class.std::__cxx11::list"* nonnull dereferenceable(24) %this, %"struct.std::__detail::_List_node_base"* %1) #40
  ret void
}

; Function Attrs: nounwind uwtable willreturn
define linkonce_odr dso_local void @_ZN5adept3GapC2Eii(%"struct.adept::Gap"* nonnull dereferenceable(8) %this, i32 %start_, i32 %end_) unnamed_addr #5 comdat align 2 {
entry:
  %start = getelementptr inbounds %"struct.adept::Gap", %"struct.adept::Gap"* %this, i64 0, i32 0
  store i32 %start_, i32* %start, align 4, !tbaa !44
  %end = getelementptr inbounds %"struct.adept::Gap", %"struct.adept::Gap"* %this, i64 0, i32 1
  store i32 %end_, i32* %end, align 4, !tbaa !42
  ret void
}

; Function Attrs: uwtable mustprogress
define dso_local void @_ZNK5adept5Stack16print_statementsERSo(%"class.adept::Stack"* nocapture nonnull readonly dereferenceable(149) %this, %"class.std::basic_ostream"* nonnull align 8 dereferenceable(8) %os) local_unnamed_addr #7 align 2 {
entry:
  %n_statements_ = getelementptr inbounds %"class.adept::Stack", %"class.adept::Stack"* %this, i64 0, i32 0, i32 3
  %0 = load i32, i32* %n_statements_, align 8, !tbaa !27
  %cmp55 = icmp sgt i32 %0, 1
  br i1 %cmp55, label %for.body.lr.ph, label %for.cond.cleanup

for.body.lr.ph:                                   ; preds = %entry
  %statement_ = getelementptr inbounds %"class.adept::Stack", %"class.adept::Stack"* %this, i64 0, i32 0, i32 0
  %multiplier_ = getelementptr inbounds %"class.adept::Stack", %"class.adept::Stack"* %this, i64 0, i32 0, i32 1
  %index_ = getelementptr inbounds %"class.adept::Stack", %"class.adept::Stack"* %this, i64 0, i32 0, i32 2
  br label %for.body

for.cond.cleanup:                                 ; preds = %if.end, %entry
  ret void

for.body:                                         ; preds = %if.end, %for.body.lr.ph
  %indvars.iv57 = phi i64 [ 1, %for.body.lr.ph ], [ %indvars.iv.next58, %if.end ]
  %1 = load %"struct.adept::internal::Statement"*, %"struct.adept::internal::Statement"** %statement_, align 8, !tbaa !23
  %2 = trunc i64 %indvars.iv57 to i32
  %call = call nonnull align 8 dereferenceable(8) %"class.std::basic_ostream"* @_ZNSolsEi(%"class.std::basic_ostream"* nonnull dereferenceable(8) %os, i32 %2)
  %call2 = call nonnull align 8 dereferenceable(8) %"class.std::basic_ostream"* @_ZStlsISt11char_traitsIcEERSt13basic_ostreamIcT_ES5_PKc(%"class.std::basic_ostream"* nonnull align 8 dereferenceable(8) %call, i8* getelementptr inbounds ([5 x i8], [5 x i8]* @.str.28, i64 0, i64 0))
  %index = getelementptr inbounds %"struct.adept::internal::Statement", %"struct.adept::internal::Statement"* %1, i64 %indvars.iv57, i32 0
  %3 = load i32, i32* %index, align 4, !tbaa !28
  %call3 = call nonnull align 8 dereferenceable(8) %"class.std::basic_ostream"* @_ZNSolsEi(%"class.std::basic_ostream"* nonnull dereferenceable(8) %call2, i32 %3)
  %call4 = call nonnull align 8 dereferenceable(8) %"class.std::basic_ostream"* @_ZStlsISt11char_traitsIcEERSt13basic_ostreamIcT_ES5_PKc(%"class.std::basic_ostream"* nonnull align 8 dereferenceable(8) %call3, i8* getelementptr inbounds ([5 x i8], [5 x i8]* @.str.29, i64 0, i64 0))
  %4 = load %"struct.adept::internal::Statement"*, %"struct.adept::internal::Statement"** %statement_, align 8, !tbaa !23
  %5 = add nsw i64 %indvars.iv57, -1
  %end_plus_one = getelementptr inbounds %"struct.adept::internal::Statement", %"struct.adept::internal::Statement"* %4, i64 %5, i32 1
  %6 = load i32, i32* %end_plus_one, align 4, !tbaa !32
  %end_plus_one11 = getelementptr inbounds %"struct.adept::internal::Statement", %"struct.adept::internal::Statement"* %4, i64 %indvars.iv57, i32 1
  %7 = load i32, i32* %end_plus_one11, align 4, !tbaa !32
  %cmp12 = icmp eq i32 %6, %7
  br i1 %cmp12, label %if.end, label %for.cond19.preheader

for.cond19.preheader:                             ; preds = %for.body
  %end_plus_one20 = getelementptr inbounds %"struct.adept::internal::Statement", %"struct.adept::internal::Statement"* %1, i64 %indvars.iv57, i32 1
  %8 = load i32, i32* %end_plus_one20, align 4, !tbaa !32
  %cmp2153 = icmp slt i32 %6, %8
  br i1 %cmp2153, label %for.body23.preheader, label %if.end

for.body23.preheader:                             ; preds = %for.cond19.preheader
  %9 = sext i32 %6 to i64
  br label %for.body23

for.body23:                                       ; preds = %for.body23, %for.body23.preheader
  %indvars.iv = phi i64 [ %9, %for.body23.preheader ], [ %indvars.iv.next, %for.body23 ]
  %call24 = call nonnull align 8 dereferenceable(8) %"class.std::basic_ostream"* @_ZStlsISt11char_traitsIcEERSt13basic_ostreamIcT_ES5_PKc(%"class.std::basic_ostream"* nonnull align 8 dereferenceable(8) %os, i8* getelementptr inbounds ([4 x i8], [4 x i8]* @.str.31, i64 0, i64 0))
  %10 = load double*, double** %multiplier_, align 8, !tbaa !25
  %arrayidx26 = getelementptr inbounds double, double* %10, i64 %indvars.iv
  %11 = load double, double* %arrayidx26, align 8, !tbaa !30
  %call27 = call nonnull align 8 dereferenceable(8) %"class.std::basic_ostream"* @_ZNSolsEd(%"class.std::basic_ostream"* nonnull dereferenceable(8) %call24, double %11)
  %call28 = call nonnull align 8 dereferenceable(8) %"class.std::basic_ostream"* @_ZStlsISt11char_traitsIcEERSt13basic_ostreamIcT_ES5_PKc(%"class.std::basic_ostream"* nonnull align 8 dereferenceable(8) %call27, i8* getelementptr inbounds ([4 x i8], [4 x i8]* @.str.32, i64 0, i64 0))
  %12 = load i32*, i32** %index_, align 8, !tbaa !26
  %arrayidx30 = getelementptr inbounds i32, i32* %12, i64 %indvars.iv
  %13 = load i32, i32* %arrayidx30, align 4, !tbaa !33
  %call31 = call nonnull align 8 dereferenceable(8) %"class.std::basic_ostream"* @_ZNSolsEi(%"class.std::basic_ostream"* nonnull dereferenceable(8) %call28, i32 %13)
  %call32 = call nonnull align 8 dereferenceable(8) %"class.std::basic_ostream"* @_ZStlsISt11char_traitsIcEERSt13basic_ostreamIcT_ES5_PKc(%"class.std::basic_ostream"* nonnull align 8 dereferenceable(8) %call31, i8* getelementptr inbounds ([2 x i8], [2 x i8]* @.str.23, i64 0, i64 0))
  %indvars.iv.next = add nsw i64 %indvars.iv, 1
  %14 = load i32, i32* %end_plus_one20, align 4, !tbaa !32
  %15 = sext i32 %14 to i64
  %cmp21 = icmp slt i64 %indvars.iv.next, %15
  br i1 %cmp21, label %for.body23, label %if.end, !llvm.loop !57

if.end:                                           ; preds = %for.body23, %for.cond19.preheader, %for.body
  %.sink = phi i8* [ getelementptr inbounds ([3 x i8], [3 x i8]* @.str.30, i64 0, i64 0), %for.body ], [ getelementptr inbounds ([2 x i8], [2 x i8]* @.str.20, i64 0, i64 0), %for.cond19.preheader ], [ getelementptr inbounds ([2 x i8], [2 x i8]* @.str.20, i64 0, i64 0), %for.body23 ]
  %call33 = call nonnull align 8 dereferenceable(8) %"class.std::basic_ostream"* @_ZStlsISt11char_traitsIcEERSt13basic_ostreamIcT_ES5_PKc(%"class.std::basic_ostream"* nonnull align 8 dereferenceable(8) %os, i8* %.sink)
  %indvars.iv.next58 = add nuw nsw i64 %indvars.iv57, 1
  %16 = load i32, i32* %n_statements_, align 8, !tbaa !27
  %17 = sext i32 %16 to i64
  %cmp = icmp slt i64 %indvars.iv.next58, %17
  br i1 %cmp, label %for.body, label %for.cond.cleanup, !llvm.loop !58
}

; Function Attrs: inlinehint uwtable mustprogress
define available_externally dso_local nonnull align 8 dereferenceable(8) %"class.std::basic_ostream"* @_ZStlsISt11char_traitsIcEERSt13basic_ostreamIcT_ES5_PKc(%"class.std::basic_ostream"* nonnull align 8 dereferenceable(8) %__out, i8* %__s) local_unnamed_addr #12 {
entry:
  %tobool.not = icmp eq i8* %__s, null
  br i1 %tobool.not, label %if.then, label %if.else

if.then:                                          ; preds = %entry
  %0 = bitcast %"class.std::basic_ostream"* %__out to i8**
  %vtable = load i8*, i8** %0, align 8, !tbaa !8
  %vbase.offset.ptr = getelementptr i8, i8* %vtable, i64 -24
  %1 = bitcast i8* %vbase.offset.ptr to i64*
  %vbase.offset = load i64, i64* %1, align 8
  %2 = bitcast %"class.std::basic_ostream"* %__out to i8*
  %add.ptr = getelementptr inbounds i8, i8* %2, i64 %vbase.offset
  %3 = bitcast i8* %add.ptr to %"class.std::basic_ios"*
  call void @_ZNSt9basic_iosIcSt11char_traitsIcEE8setstateESt12_Ios_Iostate(%"class.std::basic_ios"* nonnull dereferenceable(264) %3, i32 1)
  br label %if.end

if.else:                                          ; preds = %entry
  %call = call i64 @_ZNSt11char_traitsIcE6lengthEPKc(i8* nonnull %__s)
  %call1 = call nonnull align 8 dereferenceable(8) %"class.std::basic_ostream"* @_ZSt16__ostream_insertIcSt11char_traitsIcEERSt13basic_ostreamIT_T0_ES6_PKS3_l(%"class.std::basic_ostream"* nonnull align 8 dereferenceable(8) %__out, i8* nonnull %__s, i64 %call)
  br label %if.end

if.end:                                           ; preds = %if.else, %if.then
  ret %"class.std::basic_ostream"* %__out
}

declare dso_local nonnull align 8 dereferenceable(8) %"class.std::basic_ostream"* @_ZNSolsEi(%"class.std::basic_ostream"* nonnull dereferenceable(8), i32) local_unnamed_addr #1

; Function Attrs: uwtable mustprogress
define available_externally dso_local nonnull align 8 dereferenceable(8) %"class.std::basic_ostream"* @_ZNSolsEd(%"class.std::basic_ostream"* nonnull dereferenceable(8) %this, double %__f) local_unnamed_addr #7 align 2 {
entry:
  %call = call nonnull align 8 dereferenceable(8) %"class.std::basic_ostream"* @_ZNSo9_M_insertIdEERSoT_(%"class.std::basic_ostream"* nonnull dereferenceable(8) %this, double %__f)
  ret %"class.std::basic_ostream"* %call
}

; Function Attrs: uwtable mustprogress
define dso_local zeroext i1 @_ZNK5adept5Stack15print_gradientsERSo(%"class.adept::Stack"* nonnull dereferenceable(149) %this, %"class.std::basic_ostream"* nonnull align 8 dereferenceable(8) %os) local_unnamed_addr #7 align 2 {
entry:
  %call = call zeroext i1 @_ZNK5adept5Stack25gradients_are_initializedEv(%"class.adept::Stack"* nonnull dereferenceable(149) %this)
  br i1 %call, label %for.cond.preheader, label %return

for.cond.preheader:                               ; preds = %entry
  %max_gradient_ = getelementptr inbounds %"class.adept::Stack", %"class.adept::Stack"* %this, i64 0, i32 8
  %0 = load i32, i32* %max_gradient_, align 8, !tbaa !48
  %cmp24 = icmp sgt i32 %0, 0
  br i1 %cmp24, label %for.body.lr.ph, label %return

for.body.lr.ph:                                   ; preds = %for.cond.preheader
  %gradient_ = getelementptr inbounds %"class.adept::Stack", %"class.adept::Stack"* %this, i64 0, i32 1
  br label %for.body

for.body:                                         ; preds = %if.end9, %for.body.lr.ph
  %indvars.iv = phi i64 [ 0, %for.body.lr.ph ], [ %indvars.iv.next, %if.end9 ]
  %1 = trunc i64 %indvars.iv to i32
  %rem = urem i32 %1, 10
  %cmp2 = icmp eq i32 %rem, 0
  br i1 %cmp2, label %if.then3, label %if.end9

if.then3:                                         ; preds = %for.body
  %cmp4.not = icmp eq i64 %indvars.iv, 0
  br i1 %cmp4.not, label %if.end, label %if.then5

if.then5:                                         ; preds = %if.then3
  %call6 = call nonnull align 8 dereferenceable(8) %"class.std::basic_ostream"* @_ZStlsISt11char_traitsIcEERSt13basic_ostreamIcT_ES5_PKc(%"class.std::basic_ostream"* nonnull align 8 dereferenceable(8) %os, i8* getelementptr inbounds ([2 x i8], [2 x i8]* @.str.20, i64 0, i64 0))
  br label %if.end

if.end:                                           ; preds = %if.then5, %if.then3
  %call7 = call nonnull align 8 dereferenceable(8) %"class.std::basic_ostream"* @_ZNSolsEi(%"class.std::basic_ostream"* nonnull dereferenceable(8) %os, i32 %1)
  %call8 = call nonnull align 8 dereferenceable(8) %"class.std::basic_ostream"* @_ZStlsISt11char_traitsIcEERSt13basic_ostreamIcT_ES5_PKc(%"class.std::basic_ostream"* nonnull align 8 dereferenceable(8) %call7, i8* getelementptr inbounds ([2 x i8], [2 x i8]* @.str.33, i64 0, i64 0))
  br label %if.end9

if.end9:                                          ; preds = %if.end, %for.body
  %call10 = call nonnull align 8 dereferenceable(8) %"class.std::basic_ostream"* @_ZStlsISt11char_traitsIcEERSt13basic_ostreamIcT_ES5_PKc(%"class.std::basic_ostream"* nonnull align 8 dereferenceable(8) %os, i8* getelementptr inbounds ([2 x i8], [2 x i8]* @.str.18, i64 0, i64 0))
  %2 = load double*, double** %gradient_, align 8, !tbaa !19
  %arrayidx = getelementptr inbounds double, double* %2, i64 %indvars.iv
  %3 = load double, double* %arrayidx, align 8, !tbaa !30
  %call11 = call nonnull align 8 dereferenceable(8) %"class.std::basic_ostream"* @_ZNSolsEd(%"class.std::basic_ostream"* nonnull dereferenceable(8) %call10, double %3)
  %indvars.iv.next = add nuw nsw i64 %indvars.iv, 1
  %4 = load i32, i32* %max_gradient_, align 8, !tbaa !48
  %5 = sext i32 %4 to i64
  %cmp = icmp slt i64 %indvars.iv.next, %5
  br i1 %cmp, label %for.body, label %return, !llvm.loop !59

return:                                           ; preds = %if.end9, %for.cond.preheader, %entry
  %.sink = phi i8* [ getelementptr inbounds ([2 x i8], [2 x i8]* @.str.20, i64 0, i64 0), %for.cond.preheader ], [ getelementptr inbounds ([26 x i8], [26 x i8]* @.str.34, i64 0, i64 0), %entry ], [ getelementptr inbounds ([2 x i8], [2 x i8]* @.str.20, i64 0, i64 0), %if.end9 ]
  %call13 = call nonnull align 8 dereferenceable(8) %"class.std::basic_ostream"* @_ZStlsISt11char_traitsIcEERSt13basic_ostreamIcT_ES5_PKc(%"class.std::basic_ostream"* nonnull align 8 dereferenceable(8) %os, i8* %.sink)
  ret i1 %call
}

; Function Attrs: uwtable mustprogress
define dso_local void @_ZNK5adept5Stack10print_gapsERSo(%"class.adept::Stack"* nonnull dereferenceable(149) %this, %"class.std::basic_ostream"* nonnull align 8 dereferenceable(8) %os) local_unnamed_addr #7 align 2 {
entry:
  %it = alloca %"struct.std::_List_const_iterator", align 8
  %ref.tmp = alloca %"struct.std::_List_const_iterator", align 8
  %0 = bitcast %"struct.std::_List_const_iterator"* %it to i8*
  call void @llvm.lifetime.start.p0i8(i64 8, i8* nonnull %0) #40
  %gap_list_ = getelementptr inbounds %"class.adept::Stack", %"class.adept::Stack"* %this, i64 0, i32 4
  %call = call %"struct.std::__detail::_List_node_base"* @_ZNKSt7__cxx114listIN5adept3GapESaIS2_EE5beginEv(%"class.std::__cxx11::list"* nonnull dereferenceable(24) %gap_list_) #40
  %coerce.dive = getelementptr inbounds %"struct.std::_List_const_iterator", %"struct.std::_List_const_iterator"* %it, i64 0, i32 0
  store %"struct.std::__detail::_List_node_base"* %call, %"struct.std::__detail::_List_node_base"** %coerce.dive, align 8
  %1 = bitcast %"struct.std::_List_const_iterator"* %ref.tmp to i8*
  call void @llvm.lifetime.start.p0i8(i64 8, i8* nonnull %1) #40
  %call314 = call %"struct.std::__detail::_List_node_base"* @_ZNKSt7__cxx114listIN5adept3GapESaIS2_EE3endEv(%"class.std::__cxx11::list"* nonnull dereferenceable(24) %gap_list_) #40
  %coerce.dive4 = getelementptr inbounds %"struct.std::_List_const_iterator", %"struct.std::_List_const_iterator"* %ref.tmp, i64 0, i32 0
  store %"struct.std::__detail::_List_node_base"* %call314, %"struct.std::__detail::_List_node_base"** %coerce.dive4, align 8
  %call515 = call zeroext i1 @_ZStneRKSt20_List_const_iteratorIN5adept3GapEES4_(%"struct.std::_List_const_iterator"* nonnull align 8 dereferenceable(8) %it, %"struct.std::_List_const_iterator"* nonnull align 8 dereferenceable(8) %ref.tmp) #40
  call void @llvm.lifetime.end.p0i8(i64 8, i8* nonnull %1) #40
  br i1 %call515, label %for.body, label %for.cond.cleanup

for.cond.cleanup:                                 ; preds = %for.body, %entry
  call void @llvm.lifetime.end.p0i8(i64 8, i8* nonnull %0) #40
  ret void

for.body:                                         ; preds = %entry, %for.body
  %call6 = call %"struct.adept::Gap"* @_ZNKSt20_List_const_iteratorIN5adept3GapEEptEv(%"struct.std::_List_const_iterator"* nonnull dereferenceable(8) %it) #40
  %start = getelementptr inbounds %"struct.adept::Gap", %"struct.adept::Gap"* %call6, i64 0, i32 0
  %2 = load i32, i32* %start, align 4, !tbaa !44
  %call7 = call nonnull align 8 dereferenceable(8) %"class.std::basic_ostream"* @_ZNSolsEi(%"class.std::basic_ostream"* nonnull dereferenceable(8) %os, i32 %2)
  %call8 = call nonnull align 8 dereferenceable(8) %"class.std::basic_ostream"* @_ZStlsISt11char_traitsIcEERSt13basic_ostreamIcT_ES5_PKc(%"class.std::basic_ostream"* nonnull align 8 dereferenceable(8) %call7, i8* getelementptr inbounds ([2 x i8], [2 x i8]* @.str.35, i64 0, i64 0))
  %call9 = call %"struct.adept::Gap"* @_ZNKSt20_List_const_iteratorIN5adept3GapEEptEv(%"struct.std::_List_const_iterator"* nonnull dereferenceable(8) %it) #40
  %end = getelementptr inbounds %"struct.adept::Gap", %"struct.adept::Gap"* %call9, i64 0, i32 1
  %3 = load i32, i32* %end, align 4, !tbaa !42
  %call10 = call nonnull align 8 dereferenceable(8) %"class.std::basic_ostream"* @_ZNSolsEi(%"class.std::basic_ostream"* nonnull dereferenceable(8) %call8, i32 %3)
  %call11 = call nonnull align 8 dereferenceable(8) %"class.std::basic_ostream"* @_ZStlsISt11char_traitsIcEERSt13basic_ostreamIcT_ES5_PKc(%"class.std::basic_ostream"* nonnull align 8 dereferenceable(8) %call10, i8* getelementptr inbounds ([2 x i8], [2 x i8]* @.str.18, i64 0, i64 0))
  %call12 = call %"struct.std::__detail::_List_node_base"* @_ZNSt20_List_const_iteratorIN5adept3GapEEppEi(%"struct.std::_List_const_iterator"* nonnull dereferenceable(8) %it, i32 0) #40
  call void @llvm.lifetime.start.p0i8(i64 8, i8* nonnull %1) #40
  %call3 = call %"struct.std::__detail::_List_node_base"* @_ZNKSt7__cxx114listIN5adept3GapESaIS2_EE3endEv(%"class.std::__cxx11::list"* nonnull dereferenceable(24) %gap_list_) #40
  store %"struct.std::__detail::_List_node_base"* %call3, %"struct.std::__detail::_List_node_base"** %coerce.dive4, align 8
  %call5 = call zeroext i1 @_ZStneRKSt20_List_const_iteratorIN5adept3GapEES4_(%"struct.std::_List_const_iterator"* nonnull align 8 dereferenceable(8) %it, %"struct.std::_List_const_iterator"* nonnull align 8 dereferenceable(8) %ref.tmp) #40
  call void @llvm.lifetime.end.p0i8(i64 8, i8* nonnull %1) #40
  br i1 %call5, label %for.body, label %for.cond.cleanup, !llvm.loop !60
}

; Function Attrs: nounwind uwtable willreturn mustprogress
define linkonce_odr dso_local %"struct.std::__detail::_List_node_base"* @_ZNKSt7__cxx114listIN5adept3GapESaIS2_EE5beginEv(%"class.std::__cxx11::list"* nonnull dereferenceable(24) %this) local_unnamed_addr #10 comdat align 2 {
entry:
  %retval = alloca %"struct.std::_List_const_iterator", align 8
  %_M_next = getelementptr inbounds %"class.std::__cxx11::list", %"class.std::__cxx11::list"* %this, i64 0, i32 0, i32 0, i32 0, i32 0, i32 0
  %0 = load %"struct.std::__detail::_List_node_base"*, %"struct.std::__detail::_List_node_base"** %_M_next, align 8, !tbaa !49
  call void @_ZNSt20_List_const_iteratorIN5adept3GapEEC2EPKNSt8__detail15_List_node_baseE(%"struct.std::_List_const_iterator"* nonnull dereferenceable(8) %retval, %"struct.std::__detail::_List_node_base"* %0) #40
  %coerce.dive = getelementptr inbounds %"struct.std::_List_const_iterator", %"struct.std::_List_const_iterator"* %retval, i64 0, i32 0
  %1 = load %"struct.std::__detail::_List_node_base"*, %"struct.std::__detail::_List_node_base"** %coerce.dive, align 8
  ret %"struct.std::__detail::_List_node_base"* %1
}

; Function Attrs: nounwind uwtable willreturn mustprogress
define linkonce_odr dso_local zeroext i1 @_ZStneRKSt20_List_const_iteratorIN5adept3GapEES4_(%"struct.std::_List_const_iterator"* nonnull align 8 dereferenceable(8) %__x, %"struct.std::_List_const_iterator"* nonnull align 8 dereferenceable(8) %__y) local_unnamed_addr #10 comdat {
entry:
  %_M_node = getelementptr inbounds %"struct.std::_List_const_iterator", %"struct.std::_List_const_iterator"* %__x, i64 0, i32 0
  %0 = load %"struct.std::__detail::_List_node_base"*, %"struct.std::__detail::_List_node_base"** %_M_node, align 8, !tbaa !52
  %_M_node1 = getelementptr inbounds %"struct.std::_List_const_iterator", %"struct.std::_List_const_iterator"* %__y, i64 0, i32 0
  %1 = load %"struct.std::__detail::_List_node_base"*, %"struct.std::__detail::_List_node_base"** %_M_node1, align 8, !tbaa !52
  %cmp = icmp ne %"struct.std::__detail::_List_node_base"* %0, %1
  ret i1 %cmp
}

; Function Attrs: nounwind uwtable willreturn mustprogress
define linkonce_odr dso_local %"struct.std::__detail::_List_node_base"* @_ZNKSt7__cxx114listIN5adept3GapESaIS2_EE3endEv(%"class.std::__cxx11::list"* nonnull dereferenceable(24) %this) local_unnamed_addr #10 comdat align 2 {
entry:
  %retval = alloca %"struct.std::_List_const_iterator", align 8
  %0 = getelementptr inbounds %"class.std::__cxx11::list", %"class.std::__cxx11::list"* %this, i64 0, i32 0, i32 0, i32 0, i32 0
  call void @_ZNSt20_List_const_iteratorIN5adept3GapEEC2EPKNSt8__detail15_List_node_baseE(%"struct.std::_List_const_iterator"* nonnull dereferenceable(8) %retval, %"struct.std::__detail::_List_node_base"* nonnull %0) #40
  %coerce.dive = getelementptr inbounds %"struct.std::_List_const_iterator", %"struct.std::_List_const_iterator"* %retval, i64 0, i32 0
  %1 = load %"struct.std::__detail::_List_node_base"*, %"struct.std::__detail::_List_node_base"** %coerce.dive, align 8
  ret %"struct.std::__detail::_List_node_base"* %1
}

; Function Attrs: nounwind uwtable willreturn mustprogress
define linkonce_odr dso_local %"struct.adept::Gap"* @_ZNKSt20_List_const_iteratorIN5adept3GapEEptEv(%"struct.std::_List_const_iterator"* nonnull dereferenceable(8) %this) local_unnamed_addr #10 comdat align 2 personality i8* bitcast (i32 (...)* @__gxx_personality_v0 to i8*) {
entry:
  %0 = bitcast %"struct.std::_List_const_iterator"* %this to %"struct.std::_List_node"**
  %1 = load %"struct.std::_List_node"*, %"struct.std::_List_node"** %0, align 8, !tbaa !52
  %call = call %"struct.adept::Gap"* @_ZNKSt10_List_nodeIN5adept3GapEE9_M_valptrEv(%"struct.std::_List_node"* nonnull dereferenceable(24) %1)
  ret %"struct.adept::Gap"* %call
}

; Function Attrs: nounwind uwtable willreturn mustprogress
define linkonce_odr dso_local %"struct.std::__detail::_List_node_base"* @_ZNSt20_List_const_iteratorIN5adept3GapEEppEi(%"struct.std::_List_const_iterator"* nonnull dereferenceable(8) %this, i32 %0) local_unnamed_addr #10 comdat align 2 {
entry:
  %retval.sroa.0.0..sroa_idx = getelementptr inbounds %"struct.std::_List_const_iterator", %"struct.std::_List_const_iterator"* %this, i64 0, i32 0
  %retval.sroa.0.0.copyload = load %"struct.std::__detail::_List_node_base"*, %"struct.std::__detail::_List_node_base"** %retval.sroa.0.0..sroa_idx, align 8
  %_M_next = getelementptr inbounds %"struct.std::__detail::_List_node_base", %"struct.std::__detail::_List_node_base"* %retval.sroa.0.0.copyload, i64 0, i32 0
  %1 = load %"struct.std::__detail::_List_node_base"*, %"struct.std::__detail::_List_node_base"** %_M_next, align 8, !tbaa !49
  store %"struct.std::__detail::_List_node_base"* %1, %"struct.std::__detail::_List_node_base"** %retval.sroa.0.0..sroa_idx, align 8, !tbaa !52
  ret %"struct.std::__detail::_List_node_base"* %retval.sroa.0.0.copyload
}

; Function Attrs: uwtable mustprogress
define dso_local void @_ZN5adept5Stack20initialize_gradientsEv(%"class.adept::Stack"* nocapture nonnull dereferenceable(149) %this) local_unnamed_addr #7 align 2 {
entry:
  %max_gradient_ = getelementptr inbounds %"class.adept::Stack", %"class.adept::Stack"* %this, i64 0, i32 8
  %0 = load i32, i32* %max_gradient_, align 8, !tbaa !48
  %cmp = icmp sgt i32 %0, 0
  br i1 %cmp, label %if.then, label %if.end15

if.then:                                          ; preds = %entry
  %n_allocated_gradients_ = getelementptr inbounds %"class.adept::Stack", %"class.adept::Stack"* %this, i64 0, i32 7
  %1 = load i32, i32* %n_allocated_gradients_, align 4, !tbaa !61
  %cmp3 = icmp slt i32 %1, %0
  br i1 %cmp3, label %if.then4, label %if.end11

if.then4:                                         ; preds = %if.then
  %gradient_ = getelementptr inbounds %"class.adept::Stack", %"class.adept::Stack"* %this, i64 0, i32 1
  %2 = load double*, double** %gradient_, align 8, !tbaa !19
  %tobool.not = icmp eq double* %2, null
  br i1 %tobool.not, label %if.end, label %delete.notnull

delete.notnull:                                   ; preds = %if.then4
  %3 = bitcast double* %2 to i8*
  call void @_ZdaPv(i8* %3) #43
  br label %if.end

if.end:                                           ; preds = %delete.notnull, %if.then4
  %4 = load i32, i32* %max_gradient_, align 8, !tbaa !48
  %conv = sext i32 %4 to i64
  %5 = call { i64, i1 } @llvm.umul.with.overflow.i64(i64 %conv, i64 8)
  %6 = extractvalue { i64, i1 } %5, 1
  %7 = extractvalue { i64, i1 } %5, 0
  %8 = select i1 %6, i64 -1, i64 %7
  %call = call noalias nonnull i8* @_Znam(i64 %8) #44
  %9 = bitcast double** %gradient_ to i8**
  store i8* %call, i8** %9, align 8, !tbaa !19
  store i32 %4, i32* %n_allocated_gradients_, align 4, !tbaa !61
  br label %if.end11

if.end11:                                         ; preds = %if.end, %if.then
  %10 = load i32, i32* %max_gradient_, align 8, !tbaa !48
  %cmp1320 = icmp sgt i32 %10, 0
  br i1 %cmp1320, label %for.body.lr.ph, label %if.end15

for.body.lr.ph:                                   ; preds = %if.end11
  %gradient_14 = getelementptr inbounds %"class.adept::Stack", %"class.adept::Stack"* %this, i64 0, i32 1
  %11 = bitcast double** %gradient_14 to i8**
  %12 = load i8*, i8** %11, align 8, !tbaa !19
  %13 = zext i32 %10 to i64
  %14 = shl nuw nsw i64 %13, 3
  call void @llvm.memset.p0i8.i64(i8* align 8 %12, i8 0, i64 %14, i1 false)
  br label %if.end15

if.end15:                                         ; preds = %for.body.lr.ph, %if.end11, %entry
  %gradients_initialized_ = getelementptr inbounds %"class.adept::Stack", %"class.adept::Stack"* %this, i64 0, i32 10
  store i8 1, i8* %gradients_initialized_, align 8, !tbaa !38
  ret void
}

; Function Attrs: nofree nosync nounwind readnone speculatable willreturn
declare { i64, i1 } @llvm.umul.with.overflow.i64(i64, i64) #13

; Function Attrs: nobuiltin nofree allocsize(0)
declare dso_local nonnull i8* @_Znam(i64) local_unnamed_addr #14

; Function Attrs: uwtable mustprogress
